ARM GAS  /var/folders/2d/mv7wzxg53m36fj1flyq1gqvm0000gn/T//ccLwcWDi.s 			page 1


   1              		.cpu arm1176jz-s
   2              		.fpu softvfp
   3              		.eabi_attribute 20, 1
   4              		.eabi_attribute 21, 1
   5              		.eabi_attribute 23, 3
   6              		.eabi_attribute 24, 1
   7              		.eabi_attribute 25, 1
   8              		.eabi_attribute 26, 1
   9              		.eabi_attribute 30, 2
  10              		.eabi_attribute 34, 1
  11              		.eabi_attribute 18, 4
  12              		.file	"i2c_lld.c"
  13              		.text
  14              	.Ltext0:
  15              		.cfi_sections	.debug_frame
  16              		.section	.text.i2c_lld_safety_timeout,"ax",%progbits
  17              		.align	2
  18              		.type	i2c_lld_safety_timeout, %function
  19              	i2c_lld_safety_timeout:
  20              	.LFB7:
  21              		.file 1 "../../os/hal/platforms/BCM2835/i2c_lld.c"
  22              		.loc 1 79 0
  23              		.cfi_startproc
  24              		@ args = 0, pretend = 0, frame = 0
  25              		@ frame_needed = 0, uses_anonymous_args = 0
  26              	.LVL0:
  27              		.loc 1 82 0
  28 0000 201090E5 		ldr	r1, [r0, #32]
  29              		.loc 1 79 0
  30 0004 0030A0E1 		mov	r3, r0
  31              	.LVL1:
  32              		.loc 1 82 0
  33 0008 000051E3 		cmp	r1, #0
  34 000c 1EFF2F01 		bxeq	lr
  35              	.LBB2:
  36              		.loc 1 83 0
  37 0010 0C2090E5 		ldr	r2, [r0, #12]
  38              	.LVL2:
  39              		.loc 1 85 0
  40 0014 080090E5 		ldr	r0, [r0, #8]
  41              	.LVL3:
  42              	.LBE2:
  43              		.loc 1 79 0
  44 0018 10402DE9 		stmfd	sp!, {r4, lr}
  45              		.cfi_def_cfa_offset 8
  46              		.cfi_offset 4, -8
  47              		.cfi_offset 14, -4
  48              	.LBB3:
  49              		.loc 1 86 0
  50 001c 04E092E5 		ldr	lr, [r2, #4]
  51              		.loc 1 85 0
  52 0020 20C080E3 		orr	ip, r0, #32
  53 0024 08C083E5 		str	ip, [r3, #8]
  54              		.loc 1 86 0
  55 0028 020C1EE3 		tst	lr, #512
  56              		.loc 1 91 0
  57 002c 00C0A0E3 		mov	ip, #0
ARM GAS  /var/folders/2d/mv7wzxg53m36fj1flyq1gqvm0000gn/T//ccLwcWDi.s 			page 2


  58              		.loc 1 96 0
  59 0030 00E0E0E3 		mvn	lr, #0
  60              		.loc 1 87 0
  61 0034 21008013 		orrne	r0, r0, #33
  62 0038 08008315 		strne	r0, [r3, #8]
  63              		.loc 1 88 0
  64 003c 040092E5 		ldr	r0, [r2, #4]
  65              		.loc 1 92 0
  66 0040 28409FE5 		ldr	r4, .L13
  67              		.loc 1 88 0
  68 0044 010C10E3 		tst	r0, #256
  69              		.loc 1 89 0
  70 0048 08009315 		ldrne	r0, [r3, #8]
  71 004c 04008013 		orrne	r0, r0, #4
  72 0050 08008315 		strne	r0, [r3, #8]
  73              		.loc 1 91 0
  74 0054 00C082E5 		str	ip, [r2]
  75              		.loc 1 92 0
  76 0058 044082E5 		str	r4, [r2, #4]
  77              	.LVL4:
  78              		.loc 1 95 0
  79 005c 20C083E5 		str	ip, [r3, #32]
  80              		.loc 1 96 0
  81 0060 24E081E5 		str	lr, [r1, #36]
  82              		.loc 1 97 0
  83 0064 0100A0E1 		mov	r0, r1
  84              	.LBE3:
  85              		.loc 1 100 0
  86 0068 1040BDE8 		ldmfd	sp!, {r4, lr}
  87              		.cfi_restore 14
  88              		.cfi_restore 4
  89              		.cfi_def_cfa_offset 0
  90              	.LBB4:
  91              		.loc 1 97 0
  92 006c FEFFFFEA 		b	chSchReadyI
  93              	.LVL5:
  94              	.L14:
  95              		.align	2
  96              	.L13:
  97 0070 02030000 		.word	770
  98              	.LBE4:
  99              		.cfi_endproc
 100              	.LFE7:
 101              		.size	i2c_lld_safety_timeout, .-i2c_lld_safety_timeout
 102              		.section	.text.i2c_lld_serve_interrupt,"ax",%progbits
 103              		.align	2
 104              		.global	i2c_lld_serve_interrupt
 105              		.type	i2c_lld_serve_interrupt, %function
 106              	i2c_lld_serve_interrupt:
 107              	.LFB8:
 108              		.loc 1 106 0
 109              		.cfi_startproc
 110              		@ args = 0, pretend = 0, frame = 0
 111              		@ frame_needed = 0, uses_anonymous_args = 0
 112              	.LVL6:
 113              		.loc 1 108 0
 114 0000 0C2090E5 		ldr	r2, [r0, #12]
ARM GAS  /var/folders/2d/mv7wzxg53m36fj1flyq1gqvm0000gn/T//ccLwcWDi.s 			page 3


 115              	.LVL7:
 116              		.loc 1 106 0
 117 0004 04E02DE5 		str	lr, [sp, #-4]!
 118              		.cfi_def_cfa_offset 4
 119              		.cfi_offset 14, -4
 120              		.loc 1 109 0
 121 0008 041092E5 		ldr	r1, [r2, #4]
 122              	.LVL8:
 123              		.loc 1 111 0
 124 000c 030C11E3 		tst	r1, #768
 125 0010 0900000A 		beq	.L16
 126              		.loc 1 113 0
 127 0014 203090E5 		ldr	r3, [r0, #32]
 128 0018 000053E3 		cmp	r3, #0
 129 001c 04F09D04 		ldreq	pc, [sp], #4
 130              	.LVL9:
 131              	.LBB5:
 132              		.loc 1 113 0 is_stmt 0 discriminator 1
 133 0020 0010A0E3 		mov	r1, #0
 134              	.LVL10:
 135 0024 0120E0E3 		mvn	r2, #1
 136              	.LVL11:
 137 0028 201080E5 		str	r1, [r0, #32]
 138 002c 242083E5 		str	r2, [r3, #36]
 139              	.LVL12:
 140 0030 0300A0E1 		mov	r0, r3
 141              	.LVL13:
 142              	.LBE5:
 143              		.loc 1 130 0 is_stmt 1 discriminator 1
 144 0034 04E09DE4 		ldr	lr, [sp], #4
 145              		.cfi_remember_state
 146              		.cfi_restore 14
 147              		.cfi_def_cfa_offset 0
 148              	.LBB6:
 149              		.loc 1 113 0 discriminator 1
 150 0038 FEFFFFEA 		b	chSchReadyI
 151              	.LVL14:
 152              	.L16:
 153              		.cfi_restore_state
 154              	.LBE6:
 155              		.loc 1 115 0
 156 003c 020011E3 		tst	r1, #2
 157 0040 2000000A 		beq	.L19
 158              		.loc 1 116 0
 159 0044 200011E3 		tst	r1, #32
 160 0048 1200000A 		beq	.L24
 161 004c 3C3090E5 		ldr	r3, [r0, #60]
 162 0050 381090E5 		ldr	r1, [r0, #56]
 163              	.LVL15:
 164 0054 030051E1 		cmp	r1, r3
 165 0058 0E00009A 		bls	.L24
 166              		.loc 1 117 0
 167 005c 10C092E5 		ldr	ip, [r2, #16]
 168 0060 341090E5 		ldr	r1, [r0, #52]
 169 0064 01E083E2 		add	lr, r3, #1
 170 0068 3CE080E5 		str	lr, [r0, #60]
 171 006c 03C0C1E7 		strb	ip, [r1, r3]
ARM GAS  /var/folders/2d/mv7wzxg53m36fj1flyq1gqvm0000gn/T//ccLwcWDi.s 			page 4


 172 0070 030000EA 		b	.L29
 173              	.L25:
 174 0074 10E092E5 		ldr	lr, [r2, #16]
 175 0078 341090E5 		ldr	r1, [r0, #52]
 176 007c 3CC080E5 		str	ip, [r0, #60]
 177 0080 03E0C1E7 		strb	lr, [r1, r3]
 178              	.L29:
 179              		.loc 1 116 0 discriminator 1
 180 0084 3C3090E5 		ldr	r3, [r0, #60]
 181 0088 381090E5 		ldr	r1, [r0, #56]
 182              		.loc 1 117 0 discriminator 1
 183 008c 01C083E2 		add	ip, r3, #1
 184              		.loc 1 116 0 discriminator 1
 185 0090 010053E1 		cmp	r3, r1
 186 0094 F6FFFF3A 		bcc	.L25
 187              	.L24:
 188              		.loc 1 118 0
 189 0098 0010A0E3 		mov	r1, #0
 190              		.loc 1 120 0
 191 009c 203090E5 		ldr	r3, [r0, #32]
 192              		.loc 1 119 0
 193 00a0 B8C09FE5 		ldr	ip, .L44
 194              		.loc 1 120 0
 195 00a4 010053E1 		cmp	r3, r1
 196              		.loc 1 118 0
 197 00a8 001082E5 		str	r1, [r2]
 198              		.loc 1 119 0
 199 00ac 04C082E5 		str	ip, [r2, #4]
 200              		.loc 1 120 0
 201 00b0 2900000A 		beq	.L43
 202              	.LVL16:
 203              	.LBB7:
 204              		.loc 1 120 0 is_stmt 0 discriminator 1
 205 00b4 201080E5 		str	r1, [r0, #32]
 206 00b8 241083E5 		str	r1, [r3, #36]
 207 00bc 0300A0E1 		mov	r0, r3
 208              	.LVL17:
 209              	.LBE7:
 210              		.loc 1 130 0 is_stmt 1 discriminator 1
 211 00c0 04E09DE4 		ldr	lr, [sp], #4
 212              		.cfi_remember_state
 213              		.cfi_restore 14
 214              		.cfi_def_cfa_offset 0
 215              	.LBB8:
 216              		.loc 1 120 0 discriminator 1
 217 00c4 FEFFFFEA 		b	chSchReadyI
 218              	.LVL18:
 219              	.L19:
 220              		.cfi_restore_state
 221              	.LBE8:
 222              		.loc 1 122 0
 223 00c8 040011E3 		tst	r1, #4
 224 00cc 1000000A 		beq	.L26
 225              		.loc 1 123 0
 226 00d0 303090E5 		ldr	r3, [r0, #48]
 227 00d4 2CE090E5 		ldr	lr, [r0, #44]
 228 00d8 03005EE1 		cmp	lr, r3
ARM GAS  /var/folders/2d/mv7wzxg53m36fj1flyq1gqvm0000gn/T//ccLwcWDi.s 			page 5


 229 00dc 04F09D94 		ldrls	pc, [sp], #4
 230 00e0 100011E3 		tst	r1, #16
 231 00e4 04F09D04 		ldreq	pc, [sp], #4
 232 00e8 28C090E5 		ldr	ip, [r0, #40]
 233 00ec 03308CE0 		add	r3, ip, r3
 234 00f0 0EE08CE0 		add	lr, ip, lr
 235 00f4 01C06CE2 		rsb	ip, ip, #1
 236              	.LVL19:
 237              	.L27:
 238 00f8 03108CE0 		add	r1, ip, r3
 239              		.loc 1 124 0
 240 00fc 301080E5 		str	r1, [r0, #48]
 241 0100 0110D3E4 		ldrb	r1, [r3], #1	@ zero_extendqisi2
 242              		.loc 1 123 0
 243 0104 0E0053E1 		cmp	r3, lr
 244              		.loc 1 124 0
 245 0108 101082E5 		str	r1, [r2, #16]
 246              		.loc 1 123 0
 247 010c F9FFFF1A 		bne	.L27
 248 0110 04F09DE4 		ldr	pc, [sp], #4
 249              	.LVL20:
 250              	.L26:
 251              		.loc 1 126 0
 252 0114 080011E3 		tst	r1, #8
 253 0118 04F09D04 		ldreq	pc, [sp], #4
 254              		.loc 1 127 0
 255 011c 3C3090E5 		ldr	r3, [r0, #60]
 256 0120 38C090E5 		ldr	ip, [r0, #56]
 257 0124 0C0053E1 		cmp	r3, ip
 258 0128 04F09D24 		ldrcs	pc, [sp], #4
 259 012c 200011E3 		tst	r1, #32
 260 0130 04F09D04 		ldreq	pc, [sp], #4
 261              	.LVL21:
 262              	.L28:
 263              		.loc 1 128 0
 264 0134 341090E5 		ldr	r1, [r0, #52]
 265 0138 10C092E5 		ldr	ip, [r2, #16]
 266 013c 01E083E2 		add	lr, r3, #1
 267 0140 3CE080E5 		str	lr, [r0, #60]
 268 0144 03C0C1E7 		strb	ip, [r1, r3]
 269              		.loc 1 127 0
 270 0148 3C3090E5 		ldr	r3, [r0, #60]
 271 014c 381090E5 		ldr	r1, [r0, #56]
 272 0150 010053E1 		cmp	r3, r1
 273 0154 F6FFFF3A 		bcc	.L28
 274 0158 04F09DE4 		ldr	pc, [sp], #4
 275              	.L43:
 276 015c 04F09DE4 		ldr	pc, [sp], #4
 277              	.L45:
 278              		.align	2
 279              	.L44:
 280 0160 02030000 		.word	770
 281              		.cfi_endproc
 282              	.LFE8:
 283              		.size	i2c_lld_serve_interrupt, .-i2c_lld_serve_interrupt
 284              		.section	.text.i2c_lld_init,"ax",%progbits
 285              		.align	2
ARM GAS  /var/folders/2d/mv7wzxg53m36fj1flyq1gqvm0000gn/T//ccLwcWDi.s 			page 6


 286              		.global	i2c_lld_init
 287              		.type	i2c_lld_init, %function
 288              	i2c_lld_init:
 289              	.LFB9:
 290              		.loc 1 141 0
 291              		.cfi_startproc
 292              		@ args = 0, pretend = 0, frame = 0
 293              		@ frame_needed = 0, uses_anonymous_args = 0
 294              		@ link register save eliminated.
 295              		.loc 1 142 0
 296 0000 0C309FE5 		ldr	r3, .L47
 297 0004 0C209FE5 		ldr	r2, .L47+4
 298              		.loc 1 143 0
 299 0008 0300A0E1 		mov	r0, r3
 300              		.loc 1 142 0
 301 000c 0C2083E5 		str	r2, [r3, #12]
 302              		.loc 1 143 0
 303 0010 FEFFFFEA 		b	i2cObjectInit
 304              	.LVL22:
 305              	.L48:
 306              		.align	2
 307              	.L47:
 308 0014 00000000 		.word	I2C0
 309 0018 00408020 		.word	545275904
 310              		.cfi_endproc
 311              	.LFE9:
 312              		.size	i2c_lld_init, .-i2c_lld_init
 313              		.global	__aeabi_uidiv
 314              		.section	.text.i2c_lld_start,"ax",%progbits
 315              		.align	2
 316              		.global	i2c_lld_start
 317              		.type	i2c_lld_start, %function
 318              	i2c_lld_start:
 319              	.LFB10:
 320              		.loc 1 153 0
 321              		.cfi_startproc
 322              		@ args = 0, pretend = 0, frame = 0
 323              		@ frame_needed = 0, uses_anonymous_args = 0
 324              	.LVL23:
 325 0000 10402DE9 		stmfd	sp!, {r4, lr}
 326              		.cfi_def_cfa_offset 8
 327              		.cfi_offset 4, -8
 328              		.cfi_offset 14, -4
 329              		.loc 1 153 0
 330 0004 0040A0E1 		mov	r4, r0
 331              		.loc 1 160 0
 332 0008 0410A0E3 		mov	r1, #4
 333 000c 0200A0E3 		mov	r0, #2
 334              	.LVL24:
 335 0010 FEFFFFEB 		bl	bcm2835_gpio_fnsel
 336              	.LVL25:
 337              		.loc 1 161 0
 338 0014 0410A0E3 		mov	r1, #4
 339 0018 0300A0E3 		mov	r0, #3
 340 001c FEFFFFEB 		bl	bcm2835_gpio_fnsel
 341              	.LVL26:
 342              		.loc 1 163 0
ARM GAS  /var/folders/2d/mv7wzxg53m36fj1flyq1gqvm0000gn/T//ccLwcWDi.s 			page 7


 343 0020 042094E5 		ldr	r2, [r4, #4]
 344              		.loc 1 164 0
 345 0024 34309FE5 		ldr	r3, .L54
 346              		.loc 1 163 0
 347 0028 001092E5 		ldr	r1, [r2]
 348              	.LVL27:
 349              		.loc 1 164 0
 350 002c 030051E1 		cmp	r1, r3
 351 0030 00005113 		cmpne	r1, #0
 352 0034 0700000A 		beq	.L53
 353              		.loc 1 165 0
 354 0038 24009FE5 		ldr	r0, .L54+4
 355 003c FEFFFFEB 		bl	__aeabi_uidiv
 356              	.LVL28:
 357 0040 0C2094E5 		ldr	r2, [r4, #12]
 358 0044 140082E5 		str	r0, [r2, #20]
 359              	.L51:
 360              		.loc 1 167 0
 361 0048 003092E5 		ldr	r3, [r2]
 362 004c 023983E3 		orr	r3, r3, #32768
 363 0050 003082E5 		str	r3, [r2]
 364 0054 1080BDE8 		ldmfd	sp!, {r4, pc}
 365              	.LVL29:
 366              	.L53:
 367 0058 0C2094E5 		ldr	r2, [r4, #12]
 368 005c F9FFFFEA 		b	.L51
 369              	.L55:
 370              		.align	2
 371              	.L54:
 372 0060 A0860100 		.word	100000
 373 0064 80D1F008 		.word	150000000
 374              		.cfi_endproc
 375              	.LFE10:
 376              		.size	i2c_lld_start, .-i2c_lld_start
 377              		.section	.text.i2c_lld_stop,"ax",%progbits
 378              		.align	2
 379              		.global	i2c_lld_stop
 380              		.type	i2c_lld_stop, %function
 381              	i2c_lld_stop:
 382              	.LFB11:
 383              		.loc 1 177 0
 384              		.cfi_startproc
 385              		@ args = 0, pretend = 0, frame = 0
 386              		@ frame_needed = 0, uses_anonymous_args = 0
 387              	.LVL30:
 388 0000 10402DE9 		stmfd	sp!, {r4, lr}
 389              		.cfi_def_cfa_offset 8
 390              		.cfi_offset 4, -8
 391              		.cfi_offset 14, -4
 392              		.loc 1 177 0
 393 0004 0040A0E1 		mov	r4, r0
 394              		.loc 1 183 0
 395 0008 0010A0E3 		mov	r1, #0
 396 000c 0200A0E3 		mov	r0, #2
 397              	.LVL31:
 398 0010 FEFFFFEB 		bl	bcm2835_gpio_fnsel
 399              	.LVL32:
ARM GAS  /var/folders/2d/mv7wzxg53m36fj1flyq1gqvm0000gn/T//ccLwcWDi.s 			page 8


 400              		.loc 1 184 0
 401 0014 0300A0E3 		mov	r0, #3
 402 0018 0010A0E3 		mov	r1, #0
 403 001c FEFFFFEB 		bl	bcm2835_gpio_fnsel
 404              	.LVL33:
 405              		.loc 1 186 0
 406 0020 0C2094E5 		ldr	r2, [r4, #12]
 407 0024 003092E5 		ldr	r3, [r2]
 408 0028 0239C3E3 		bic	r3, r3, #32768
 409 002c 003082E5 		str	r3, [r2]
 410 0030 1080BDE8 		ldmfd	sp!, {r4, pc}
 411              		.cfi_endproc
 412              	.LFE11:
 413              		.size	i2c_lld_stop, .-i2c_lld_stop
 414              		.section	.text.i2c_lld_master_receive_timeout,"ax",%progbits
 415              		.align	2
 416              		.global	i2c_lld_master_receive_timeout
 417              		.type	i2c_lld_master_receive_timeout, %function
 418              	i2c_lld_master_receive_timeout:
 419              	.LFB13:
 420              		.loc 1 271 0
 421              		.cfi_startproc
 422              		@ args = 4, pretend = 0, frame = 24
 423              		@ frame_needed = 0, uses_anonymous_args = 0
 424              	.LVL34:
 425 0000 F0412DE9 		stmfd	sp!, {r4, r5, r6, r7, r8, lr}
 426              		.cfi_def_cfa_offset 24
 427              		.cfi_offset 4, -24
 428              		.cfi_offset 5, -20
 429              		.cfi_offset 6, -16
 430              		.cfi_offset 7, -12
 431              		.cfi_offset 8, -8
 432              		.cfi_offset 14, -4
 433 0004 18D04DE2 		sub	sp, sp, #24
 434              		.cfi_def_cfa_offset 48
 435              		.loc 1 271 0
 436 0008 30509DE5 		ldr	r5, [sp, #48]
 437 000c 0040A0E1 		mov	r4, r0
 438              		.loc 1 275 0
 439 0010 010075E3 		cmn	r5, #1
 440              		.loc 1 271 0
 441 0014 0170A0E1 		mov	r7, r1
 442 0018 0280A0E1 		mov	r8, r2
 443 001c 0360A0E1 		mov	r6, r3
 444              		.loc 1 275 0
 445 0020 0400000A 		beq	.L59
 446              		.loc 1 276 0
 447 0024 04008DE2 		add	r0, sp, #4
 448              	.LVL35:
 449 0028 0510A0E1 		mov	r1, r5
 450              	.LVL36:
 451 002c 88209FE5 		ldr	r2, .L71
 452              	.LVL37:
 453 0030 0430A0E1 		mov	r3, r4
 454              	.LVL38:
 455 0034 FEFFFFEB 		bl	chVTSetI
 456              	.LVL39:
ARM GAS  /var/folders/2d/mv7wzxg53m36fj1flyq1gqvm0000gn/T//ccLwcWDi.s 			page 9


 457              	.L59:
 458              		.loc 1 279 0
 459 0038 0020A0E3 		mov	r2, #0
 460              		.loc 1 287 0
 461 003c 0C3094E5 		ldr	r3, [r4, #12]
 462              	.LVL40:
 463              		.loc 1 290 0
 464 0040 78009FE5 		ldr	r0, .L71+4
 465              		.loc 1 293 0
 466 0044 78109FE5 		ldr	r1, .L71+8
 467              		.loc 1 278 0
 468 0048 B472C4E1 		strh	r7, [r4, #36]	@ movhi
 469              		.loc 1 282 0
 470 004c 348084E5 		str	r8, [r4, #52]
 471              		.loc 1 283 0
 472 0050 386084E5 		str	r6, [r4, #56]
 473              		.loc 1 279 0
 474 0054 282084E5 		str	r2, [r4, #40]
 475              		.loc 1 280 0
 476 0058 2C2084E5 		str	r2, [r4, #44]
 477              		.loc 1 281 0
 478 005c 302084E5 		str	r2, [r4, #48]
 479              		.loc 1 284 0
 480 0060 3C2084E5 		str	r2, [r4, #60]
 481              		.loc 1 288 0
 482 0064 0C7083E5 		str	r7, [r3, #12]
 483              		.loc 1 289 0
 484 0068 086083E5 		str	r6, [r3, #8]
 485              		.loc 1 290 0
 486 006c 040083E5 		str	r0, [r3, #4]
 487              		.loc 1 293 0
 488 0070 001083E5 		str	r1, [r3]
 489              		.loc 1 296 0
 490              	@ 296 "../../os/hal/platforms/BCM2835/i2c_lld.c" 1
 491 0074 9FF021E3 		msr     CPSR_c, #0x9F
 492              	@ 0 "" 2
 493              		.loc 1 297 0
 494 0078 48609FE5 		ldr	r6, .L71+12
 495              	.LVL41:
 496              		.loc 1 298 0
 497 007c 0200A0E3 		mov	r0, #2
 498              		.loc 1 297 0
 499 0080 183096E5 		ldr	r3, [r6, #24]
 500              	.LVL42:
 501 0084 203084E5 		str	r3, [r4, #32]
 502              		.loc 1 298 0
 503 0088 FEFFFFEB 		bl	chSchGoSleepS
 504              	.LVL43:
 505              		.loc 1 299 0
 506 008c 010075E3 		cmn	r5, #1
 507 0090 0400000A 		beq	.L60
 508              		.loc 1 299 0 is_stmt 0 discriminator 1
 509 0094 10309DE5 		ldr	r3, [sp, #16]
 510 0098 000053E3 		cmp	r3, #0
 511 009c 0100000A 		beq	.L60
 512              		.loc 1 300 0 is_stmt 1
 513 00a0 04008DE2 		add	r0, sp, #4
ARM GAS  /var/folders/2d/mv7wzxg53m36fj1flyq1gqvm0000gn/T//ccLwcWDi.s 			page 10


 514 00a4 FEFFFFEB 		bl	chVTResetI
 515              	.LVL44:
 516              	.L60:
 517              		.loc 1 301 0
 518              	@ 301 "../../os/hal/platforms/BCM2835/i2c_lld.c" 1
 519 00a8 1FF021E3 		msr     CPSR_c, #0x1F
 520              	@ 0 "" 2
 521              		.loc 1 303 0
 522 00ac 183096E5 		ldr	r3, [r6, #24]
 523              		.loc 1 304 0
 524 00b0 240093E5 		ldr	r0, [r3, #36]
 525 00b4 18D08DE2 		add	sp, sp, #24
 526              		.cfi_def_cfa_offset 24
 527              		@ sp needed
 528 00b8 F081BDE8 		ldmfd	sp!, {r4, r5, r6, r7, r8, pc}
 529              	.LVL45:
 530              	.L72:
 531              		.align	2
 532              	.L71:
 533 00bc 00000000 		.word	i2c_lld_safety_timeout
 534 00c0 02030000 		.word	770
 535 00c4 91850000 		.word	34193
 536 00c8 00000000 		.word	rlist
 537              		.cfi_endproc
 538              	.LFE13:
 539              		.size	i2c_lld_master_receive_timeout, .-i2c_lld_master_receive_timeout
 540              		.section	.text.i2c_lld_master_transmit_timeout,"ax",%progbits
 541              		.align	2
 542              		.global	i2c_lld_master_transmit_timeout
 543              		.type	i2c_lld_master_transmit_timeout, %function
 544              	i2c_lld_master_transmit_timeout:
 545              	.LFB12:
 546              		.loc 1 208 0
 547              		.cfi_startproc
 548              		@ args = 12, pretend = 0, frame = 24
 549              		@ frame_needed = 0, uses_anonymous_args = 0
 550              	.LVL46:
 551 0000 F0472DE9 		stmfd	sp!, {r4, r5, r6, r7, r8, r9, r10, lr}
 552              		.cfi_def_cfa_offset 32
 553              		.cfi_offset 4, -32
 554              		.cfi_offset 5, -28
 555              		.cfi_offset 6, -24
 556              		.cfi_offset 7, -20
 557              		.cfi_offset 8, -16
 558              		.cfi_offset 9, -12
 559              		.cfi_offset 10, -8
 560              		.cfi_offset 14, -4
 561 0004 20D04DE2 		sub	sp, sp, #32
 562              		.cfi_def_cfa_offset 64
 563              		.loc 1 208 0
 564 0008 48509DE5 		ldr	r5, [sp, #72]
 565 000c 0040A0E1 		mov	r4, r0
 566              		.loc 1 212 0
 567 0010 010075E3 		cmn	r5, #1
 568              		.loc 1 208 0
 569 0014 0170A0E1 		mov	r7, r1
 570 0018 02A0A0E1 		mov	r10, r2
ARM GAS  /var/folders/2d/mv7wzxg53m36fj1flyq1gqvm0000gn/T//ccLwcWDi.s 			page 11


 571 001c 0390A0E1 		mov	r9, r3
 572 0020 40809DE5 		ldr	r8, [sp, #64]
 573 0024 4460DDE5 		ldrb	r6, [sp, #68]	@ zero_extendqisi2
 574              		.loc 1 212 0
 575 0028 0400000A 		beq	.L74
 576              		.loc 1 213 0
 577 002c 0C008DE2 		add	r0, sp, #12
 578              	.LVL47:
 579 0030 0510A0E1 		mov	r1, r5
 580              	.LVL48:
 581 0034 F4209FE5 		ldr	r2, .L97
 582              	.LVL49:
 583 0038 0430A0E1 		mov	r3, r4
 584              	.LVL50:
 585 003c FEFFFFEB 		bl	chVTSetI
 586              	.LVL51:
 587              	.L74:
 588              		.loc 1 218 0
 589 0040 0020A0E3 		mov	r2, #0
 590              		.loc 1 223 0
 591 0044 0C3094E5 		ldr	r3, [r4, #12]
 592              	.LVL52:
 593              		.loc 1 226 0
 594 0048 E4109FE5 		ldr	r1, .L97+4
 595              		.loc 1 218 0
 596 004c 302084E5 		str	r2, [r4, #48]
 597              		.loc 1 221 0
 598 0050 3C2084E5 		str	r2, [r4, #60]
 599              		.loc 1 215 0
 600 0054 B472C4E1 		strh	r7, [r4, #36]	@ movhi
 601              		.loc 1 216 0
 602 0058 28A084E5 		str	r10, [r4, #40]
 603              		.loc 1 217 0
 604 005c 2C9084E5 		str	r9, [r4, #44]
 605              		.loc 1 219 0
 606 0060 348084E5 		str	r8, [r4, #52]
 607              		.loc 1 220 0
 608 0064 386084E5 		str	r6, [r4, #56]
 609              		.loc 1 224 0
 610 0068 0C7083E5 		str	r7, [r3, #12]
 611              		.loc 1 225 0
 612 006c 089083E5 		str	r9, [r3, #8]
 613              		.loc 1 226 0
 614 0070 041083E5 		str	r1, [r3, #4]
 615              		.loc 1 229 0
 616 0074 002093E5 		ldr	r2, [r3]
 617 0078 832C82E3 		orr	r2, r2, #33536
 618 007c 802082E3 		orr	r2, r2, #128
 619 0080 002083E5 		str	r2, [r3]
 620              		.loc 1 232 0
 621              	@ 232 "../../os/hal/platforms/BCM2835/i2c_lld.c" 1
 622 0084 9FF021E3 		msr     CPSR_c, #0x9F
 623              	@ 0 "" 2
 624              		.loc 1 234 0
 625 0088 A8909FE5 		ldr	r9, .L97+8
 626              	.LVL53:
 627              		.loc 1 235 0
ARM GAS  /var/folders/2d/mv7wzxg53m36fj1flyq1gqvm0000gn/T//ccLwcWDi.s 			page 12


 628 008c 0200A0E3 		mov	r0, #2
 629              		.loc 1 234 0
 630 0090 183099E5 		ldr	r3, [r9, #24]
 631              	.LVL54:
 632 0094 203084E5 		str	r3, [r4, #32]
 633              		.loc 1 235 0
 634 0098 FEFFFFEB 		bl	chSchGoSleepS
 635              	.LVL55:
 636              		.loc 1 236 0
 637 009c 010075E3 		cmn	r5, #1
 638 00a0 0400000A 		beq	.L75
 639              		.loc 1 236 0 is_stmt 0 discriminator 1
 640 00a4 18309DE5 		ldr	r3, [sp, #24]
 641 00a8 000053E3 		cmp	r3, #0
 642 00ac 0100000A 		beq	.L75
 643              		.loc 1 237 0 is_stmt 1
 644 00b0 0C008DE2 		add	r0, sp, #12
 645 00b4 FEFFFFEB 		bl	chVTResetI
 646              	.LVL56:
 647              	.L75:
 648              		.loc 1 239 0
 649              	@ 239 "../../os/hal/platforms/BCM2835/i2c_lld.c" 1
 650 00b8 1FF021E3 		msr     CPSR_c, #0x1F
 651              	@ 0 "" 2
 652              		.loc 1 241 0
 653 00bc 183099E5 		ldr	r3, [r9, #24]
 654 00c0 249093E5 		ldr	r9, [r3, #36]
 655              	.LVL57:
 656              		.loc 1 243 0
 657 00c4 003096E2 		adds	r3, r6, #0
 658 00c8 0130A013 		movne	r3, #1
 659 00cc 000059E3 		cmp	r9, #0
 660 00d0 0030A013 		movne	r3, #0
 661 00d4 000053E3 		cmp	r3, #0
 662 00d8 0200001A 		bne	.L96
 663              	.L76:
 664              		.loc 1 252 0
 665 00dc 0900A0E1 		mov	r0, r9
 666 00e0 20D08DE2 		add	sp, sp, #32
 667              		.cfi_remember_state
 668              		.cfi_def_cfa_offset 32
 669              		@ sp needed
 670 00e4 F087BDE8 		ldmfd	sp!, {r4, r5, r6, r7, r8, r9, r10, pc}
 671              	.LVL58:
 672              	.L96:
 673              		.cfi_restore_state
 674              		.loc 1 245 0
 675 00e8 00C0E0E3 		mvn	ip, #0
 676 00ec 0400A0E1 		mov	r0, r4
 677 00f0 0710A0E1 		mov	r1, r7
 678 00f4 0820A0E1 		mov	r2, r8
 679 00f8 0630A0E1 		mov	r3, r6
 680 00fc 00C08DE5 		str	ip, [sp]
 681 0100 FEFFFFEB 		bl	i2c_lld_master_receive_timeout
 682              	.LVL59:
 683              		.loc 1 247 0
 684 0104 010075E3 		cmn	r5, #1
ARM GAS  /var/folders/2d/mv7wzxg53m36fj1flyq1gqvm0000gn/T//ccLwcWDi.s 			page 13


 685              		.loc 1 245 0
 686 0108 0090A0E1 		mov	r9, r0
 687              	.LVL60:
 688              		.loc 1 247 0
 689 010c F2FFFF0A 		beq	.L76
 690              		.loc 1 247 0 is_stmt 0 discriminator 1
 691 0110 18309DE5 		ldr	r3, [sp, #24]
 692 0114 000053E3 		cmp	r3, #0
 693 0118 EFFFFF0A 		beq	.L76
 694              		.loc 1 248 0 is_stmt 1
 695 011c 0C008DE2 		add	r0, sp, #12
 696              	.LVL61:
 697 0120 FEFFFFEB 		bl	chVTResetI
 698              	.LVL62:
 699              		.loc 1 252 0
 700 0124 0900A0E1 		mov	r0, r9
 701 0128 20D08DE2 		add	sp, sp, #32
 702              		.cfi_def_cfa_offset 32
 703              		@ sp needed
 704 012c F087BDE8 		ldmfd	sp!, {r4, r5, r6, r7, r8, r9, r10, pc}
 705              	.LVL63:
 706              	.L98:
 707              		.align	2
 708              	.L97:
 709 0130 00000000 		.word	i2c_lld_safety_timeout
 710 0134 02030000 		.word	770
 711 0138 00000000 		.word	rlist
 712              		.cfi_endproc
 713              	.LFE12:
 714              		.size	i2c_lld_master_transmit_timeout, .-i2c_lld_master_transmit_timeout
 715              		.comm	I2C1,64,4
 716              		.comm	I2C0,64,4
 717              		.text
 718              	.Letext0:
 719              		.file 2 "/usr/local/Cellar/gcc-arm-none-eabi-49/20150925/lib/gcc/arm-none-eabi/4.9.3/include/stdde
 720              		.file 3 "/usr/local/Cellar/gcc-arm-none-eabi-49/20150925/arm-none-eabi/include/machine/_default_ty
 721              		.file 4 "/usr/local/Cellar/gcc-arm-none-eabi-49/20150925/arm-none-eabi/include/sys/_stdint.h"
 722              		.file 5 "../../os/ports/GCC/ARM/chtypes.h"
 723              		.file 6 "../../os/kernel/include/chlists.h"
 724              		.file 7 "../../os/kernel/include/chthreads.h"
 725              		.file 8 "../../os/ports/GCC/ARM/chcore.h"
 726              		.file 9 "../../os/kernel/include/chvt.h"
 727              		.file 10 "../../os/kernel/include/chschd.h"
 728              		.file 11 "../../os/kernel/include/chmtx.h"
 729              		.file 12 "../../os/hal/platforms/BCM2835/bcm2835.h"
 730              		.file 13 "../../os/hal/include/i2c.h"
 731              		.file 14 "../../os/hal/platforms/BCM2835/i2c_lld.h"
 732              		.section	.debug_info,"",%progbits
 733              	.Ldebug_info0:
 734 0000 B70A0000 		.4byte	0xab7
 735 0004 0400     		.2byte	0x4
 736 0006 00000000 		.4byte	.Ldebug_abbrev0
 737 000a 04       		.byte	0x4
 738 000b 01       		.uleb128 0x1
 739 000c 93030000 		.4byte	.LASF124
 740 0010 01       		.byte	0x1
 741 0011 3F020000 		.4byte	.LASF125
ARM GAS  /var/folders/2d/mv7wzxg53m36fj1flyq1gqvm0000gn/T//ccLwcWDi.s 			page 14


 742 0015 FB000000 		.4byte	.LASF126
 743 0019 50000000 		.4byte	.Ldebug_ranges0+0x50
 744 001d 00000000 		.4byte	0
 745 0021 00000000 		.4byte	.Ldebug_line0
 746 0025 02       		.uleb128 0x2
 747 0026 04       		.byte	0x4
 748 0027 05       		.byte	0x5
 749 0028 696E7400 		.ascii	"int\000"
 750 002c 03       		.uleb128 0x3
 751 002d 06000000 		.4byte	.LASF2
 752 0031 02       		.byte	0x2
 753 0032 D4       		.byte	0xd4
 754 0033 37000000 		.4byte	0x37
 755 0037 04       		.uleb128 0x4
 756 0038 04       		.byte	0x4
 757 0039 07       		.byte	0x7
 758 003a 88010000 		.4byte	.LASF0
 759 003e 04       		.uleb128 0x4
 760 003f 01       		.byte	0x1
 761 0040 06       		.byte	0x6
 762 0041 83000000 		.4byte	.LASF1
 763 0045 03       		.uleb128 0x3
 764 0046 14000000 		.4byte	.LASF3
 765 004a 03       		.byte	0x3
 766 004b 1D       		.byte	0x1d
 767 004c 50000000 		.4byte	0x50
 768 0050 04       		.uleb128 0x4
 769 0051 01       		.byte	0x1
 770 0052 08       		.byte	0x8
 771 0053 5F030000 		.4byte	.LASF4
 772 0057 04       		.uleb128 0x4
 773 0058 02       		.byte	0x2
 774 0059 05       		.byte	0x5
 775 005a 77030000 		.4byte	.LASF5
 776 005e 03       		.uleb128 0x3
 777 005f E8040000 		.4byte	.LASF6
 778 0063 03       		.byte	0x3
 779 0064 2B       		.byte	0x2b
 780 0065 69000000 		.4byte	0x69
 781 0069 04       		.uleb128 0x4
 782 006a 02       		.byte	0x2
 783 006b 07       		.byte	0x7
 784 006c D5010000 		.4byte	.LASF7
 785 0070 03       		.uleb128 0x3
 786 0071 1B050000 		.4byte	.LASF8
 787 0075 03       		.byte	0x3
 788 0076 3F       		.byte	0x3f
 789 0077 7B000000 		.4byte	0x7b
 790 007b 04       		.uleb128 0x4
 791 007c 04       		.byte	0x4
 792 007d 05       		.byte	0x5
 793 007e 2A000000 		.4byte	.LASF9
 794 0082 03       		.uleb128 0x3
 795 0083 55010000 		.4byte	.LASF10
 796 0087 03       		.byte	0x3
 797 0088 41       		.byte	0x41
 798 0089 8D000000 		.4byte	0x8d
ARM GAS  /var/folders/2d/mv7wzxg53m36fj1flyq1gqvm0000gn/T//ccLwcWDi.s 			page 15


 799 008d 04       		.uleb128 0x4
 800 008e 04       		.byte	0x4
 801 008f 07       		.byte	0x7
 802 0090 AA010000 		.4byte	.LASF11
 803 0094 04       		.uleb128 0x4
 804 0095 08       		.byte	0x8
 805 0096 05       		.byte	0x5
 806 0097 75000000 		.4byte	.LASF12
 807 009b 04       		.uleb128 0x4
 808 009c 08       		.byte	0x8
 809 009d 07       		.byte	0x7
 810 009e 33000000 		.4byte	.LASF13
 811 00a2 03       		.uleb128 0x3
 812 00a3 80050000 		.4byte	.LASF14
 813 00a7 04       		.byte	0x4
 814 00a8 14       		.byte	0x14
 815 00a9 45000000 		.4byte	0x45
 816 00ad 03       		.uleb128 0x3
 817 00ae 3C010000 		.4byte	.LASF15
 818 00b2 04       		.byte	0x4
 819 00b3 1A       		.byte	0x1a
 820 00b4 5E000000 		.4byte	0x5e
 821 00b8 03       		.uleb128 0x3
 822 00b9 57030000 		.4byte	.LASF16
 823 00bd 04       		.byte	0x4
 824 00be 1F       		.byte	0x1f
 825 00bf 70000000 		.4byte	0x70
 826 00c3 03       		.uleb128 0x3
 827 00c4 99040000 		.4byte	.LASF17
 828 00c8 04       		.byte	0x4
 829 00c9 20       		.byte	0x20
 830 00ca 82000000 		.4byte	0x82
 831 00ce 03       		.uleb128 0x3
 832 00cf 06020000 		.4byte	.LASF18
 833 00d3 05       		.byte	0x5
 834 00d4 2A       		.byte	0x2a
 835 00d5 A2000000 		.4byte	0xa2
 836 00d9 03       		.uleb128 0x3
 837 00da 22010000 		.4byte	.LASF19
 838 00de 05       		.byte	0x5
 839 00df 2B       		.byte	0x2b
 840 00e0 A2000000 		.4byte	0xa2
 841 00e4 03       		.uleb128 0x3
 842 00e5 08030000 		.4byte	.LASF20
 843 00e9 05       		.byte	0x5
 844 00ea 2C       		.byte	0x2c
 845 00eb A2000000 		.4byte	0xa2
 846 00ef 03       		.uleb128 0x3
 847 00f0 D6000000 		.4byte	.LASF21
 848 00f4 05       		.byte	0x5
 849 00f5 2D       		.byte	0x2d
 850 00f6 A2000000 		.4byte	0xa2
 851 00fa 03       		.uleb128 0x3
 852 00fb 22030000 		.4byte	.LASF22
 853 00ff 05       		.byte	0x5
 854 0100 2E       		.byte	0x2e
 855 0101 C3000000 		.4byte	0xc3
ARM GAS  /var/folders/2d/mv7wzxg53m36fj1flyq1gqvm0000gn/T//ccLwcWDi.s 			page 16


 856 0105 03       		.uleb128 0x3
 857 0106 F2010000 		.4byte	.LASF23
 858 010a 05       		.byte	0x5
 859 010b 2F       		.byte	0x2f
 860 010c B8000000 		.4byte	0xb8
 861 0110 03       		.uleb128 0x3
 862 0111 1A020000 		.4byte	.LASF24
 863 0115 05       		.byte	0x5
 864 0116 31       		.byte	0x31
 865 0117 C3000000 		.4byte	0xc3
 866 011b 03       		.uleb128 0x3
 867 011c 06050000 		.4byte	.LASF25
 868 0120 05       		.byte	0x5
 869 0121 33       		.byte	0x33
 870 0122 C3000000 		.4byte	0xc3
 871 0126 03       		.uleb128 0x3
 872 0127 63040000 		.4byte	.LASF26
 873 012b 06       		.byte	0x6
 874 012c 23       		.byte	0x23
 875 012d 31010000 		.4byte	0x131
 876 0131 05       		.uleb128 0x5
 877 0132 63040000 		.4byte	.LASF26
 878 0136 44       		.byte	0x44
 879 0137 07       		.byte	0x7
 880 0138 57       		.byte	0x57
 881 0139 22020000 		.4byte	0x222
 882 013d 06       		.uleb128 0x6
 883 013e 54040000 		.4byte	.LASF27
 884 0142 07       		.byte	0x7
 885 0143 58       		.byte	0x58
 886 0144 43020000 		.4byte	0x243
 887 0148 00       		.byte	0
 888 0149 06       		.uleb128 0x6
 889 014a 1B030000 		.4byte	.LASF28
 890 014e 07       		.byte	0x7
 891 014f 5A       		.byte	0x5a
 892 0150 43020000 		.4byte	0x243
 893 0154 04       		.byte	0x4
 894 0155 06       		.uleb128 0x6
 895 0156 67000000 		.4byte	.LASF29
 896 015a 07       		.byte	0x7
 897 015b 5C       		.byte	0x5c
 898 015c FA000000 		.4byte	0xfa
 899 0160 08       		.byte	0x8
 900 0161 06       		.uleb128 0x6
 901 0162 CF050000 		.4byte	.LASF30
 902 0166 07       		.byte	0x7
 903 0167 5D       		.byte	0x5d
 904 0168 F3020000 		.4byte	0x2f3
 905 016c 0C       		.byte	0xc
 906 016d 06       		.uleb128 0x6
 907 016e 45010000 		.4byte	.LASF31
 908 0172 07       		.byte	0x7
 909 0173 5F       		.byte	0x5f
 910 0174 43020000 		.4byte	0x243
 911 0178 10       		.byte	0x10
 912 0179 06       		.uleb128 0x6
ARM GAS  /var/folders/2d/mv7wzxg53m36fj1flyq1gqvm0000gn/T//ccLwcWDi.s 			page 17


 913 017a A9020000 		.4byte	.LASF32
 914 017e 07       		.byte	0x7
 915 017f 60       		.byte	0x60
 916 0180 43020000 		.4byte	0x243
 917 0184 14       		.byte	0x14
 918 0185 06       		.uleb128 0x6
 919 0186 8F050000 		.4byte	.LASF33
 920 018a 07       		.byte	0x7
 921 018b 67       		.byte	0x67
 922 018c 60040000 		.4byte	0x460
 923 0190 18       		.byte	0x18
 924 0191 06       		.uleb128 0x6
 925 0192 81030000 		.4byte	.LASF34
 926 0196 07       		.byte	0x7
 927 0197 72       		.byte	0x72
 928 0198 D9000000 		.4byte	0xd9
 929 019c 1C       		.byte	0x1c
 930 019d 06       		.uleb128 0x6
 931 019e 5B040000 		.4byte	.LASF35
 932 01a2 07       		.byte	0x7
 933 01a3 76       		.byte	0x76
 934 01a4 CE000000 		.4byte	0xce
 935 01a8 1D       		.byte	0x1d
 936 01a9 06       		.uleb128 0x6
 937 01aa 62050000 		.4byte	.LASF36
 938 01ae 07       		.byte	0x7
 939 01af 7B       		.byte	0x7b
 940 01b0 E4000000 		.4byte	0xe4
 941 01b4 1E       		.byte	0x1e
 942 01b5 06       		.uleb128 0x6
 943 01b6 89030000 		.4byte	.LASF37
 944 01ba 07       		.byte	0x7
 945 01bb 81       		.byte	0x81
 946 01bc EF000000 		.4byte	0xef
 947 01c0 1F       		.byte	0x1f
 948 01c1 06       		.uleb128 0x6
 949 01c2 2F050000 		.4byte	.LASF38
 950 01c6 07       		.byte	0x7
 951 01c7 88       		.byte	0x88
 952 01c8 88030000 		.4byte	0x388
 953 01cc 20       		.byte	0x20
 954 01cd 07       		.uleb128 0x7
 955 01ce 705F7500 		.ascii	"p_u\000"
 956 01d2 07       		.byte	0x7
 957 01d3 AD       		.byte	0xad
 958 01d4 2B040000 		.4byte	0x42b
 959 01d8 24       		.byte	0x24
 960 01d9 06       		.uleb128 0x6
 961 01da D5050000 		.4byte	.LASF39
 962 01de 07       		.byte	0x7
 963 01df B2       		.byte	0xb2
 964 01e0 69020000 		.4byte	0x269
 965 01e4 28       		.byte	0x28
 966 01e5 06       		.uleb128 0x6
 967 01e6 3D050000 		.4byte	.LASF40
 968 01ea 07       		.byte	0x7
 969 01eb B8       		.byte	0xb8
ARM GAS  /var/folders/2d/mv7wzxg53m36fj1flyq1gqvm0000gn/T//ccLwcWDi.s 			page 18


 970 01ec 49020000 		.4byte	0x249
 971 01f0 2C       		.byte	0x2c
 972 01f1 06       		.uleb128 0x6
 973 01f2 00000000 		.4byte	.LASF41
 974 01f6 07       		.byte	0x7
 975 01f7 BC       		.byte	0xbc
 976 01f8 05010000 		.4byte	0x105
 977 01fc 34       		.byte	0x34
 978 01fd 06       		.uleb128 0x6
 979 01fe 8E040000 		.4byte	.LASF42
 980 0202 07       		.byte	0x7
 981 0203 C2       		.byte	0xc2
 982 0204 10010000 		.4byte	0x110
 983 0208 38       		.byte	0x38
 984 0209 06       		.uleb128 0x6
 985 020a 6D030000 		.4byte	.LASF43
 986 020e 07       		.byte	0x7
 987 020f C9       		.byte	0xc9
 988 0210 72040000 		.4byte	0x472
 989 0214 3C       		.byte	0x3c
 990 0215 06       		.uleb128 0x6
 991 0216 10050000 		.4byte	.LASF44
 992 021a 07       		.byte	0x7
 993 021b CD       		.byte	0xcd
 994 021c FA000000 		.4byte	0xfa
 995 0220 40       		.byte	0x40
 996 0221 00       		.byte	0
 997 0222 08       		.uleb128 0x8
 998 0223 08       		.byte	0x8
 999 0224 06       		.byte	0x6
 1000 0225 5A       		.byte	0x5a
 1001 0226 43020000 		.4byte	0x243
 1002 022a 06       		.uleb128 0x6
 1003 022b 54040000 		.4byte	.LASF27
 1004 022f 06       		.byte	0x6
 1005 0230 5B       		.byte	0x5b
 1006 0231 43020000 		.4byte	0x243
 1007 0235 00       		.byte	0
 1008 0236 06       		.uleb128 0x6
 1009 0237 1B030000 		.4byte	.LASF28
 1010 023b 06       		.byte	0x6
 1011 023c 5D       		.byte	0x5d
 1012 023d 43020000 		.4byte	0x243
 1013 0241 04       		.byte	0x4
 1014 0242 00       		.byte	0
 1015 0243 09       		.uleb128 0x9
 1016 0244 04       		.byte	0x4
 1017 0245 26010000 		.4byte	0x126
 1018 0249 03       		.uleb128 0x3
 1019 024a C9020000 		.4byte	.LASF45
 1020 024e 06       		.byte	0x6
 1021 024f 5F       		.byte	0x5f
 1022 0250 22020000 		.4byte	0x222
 1023 0254 08       		.uleb128 0x8
 1024 0255 04       		.byte	0x4
 1025 0256 06       		.byte	0x6
 1026 0257 64       		.byte	0x64
ARM GAS  /var/folders/2d/mv7wzxg53m36fj1flyq1gqvm0000gn/T//ccLwcWDi.s 			page 19


 1027 0258 69020000 		.4byte	0x269
 1028 025c 06       		.uleb128 0x6
 1029 025d 54040000 		.4byte	.LASF27
 1030 0261 06       		.byte	0x6
 1031 0262 66       		.byte	0x66
 1032 0263 43020000 		.4byte	0x243
 1033 0267 00       		.byte	0
 1034 0268 00       		.byte	0
 1035 0269 03       		.uleb128 0x3
 1036 026a 0E020000 		.4byte	.LASF46
 1037 026e 06       		.byte	0x6
 1038 026f 69       		.byte	0x69
 1039 0270 54020000 		.4byte	0x254
 1040 0274 03       		.uleb128 0x3
 1041 0275 60010000 		.4byte	.LASF47
 1042 0279 08       		.byte	0x8
 1043 027a A2       		.byte	0xa2
 1044 027b 7F020000 		.4byte	0x27f
 1045 027f 0A       		.uleb128 0xa
 1046 0280 04       		.byte	0x4
 1047 0281 05       		.uleb128 0x5
 1048 0282 36050000 		.4byte	.LASF48
 1049 0286 24       		.byte	0x24
 1050 0287 08       		.byte	0x8
 1051 0288 B9       		.byte	0xb9
 1052 0289 F3020000 		.4byte	0x2f3
 1053 028d 07       		.uleb128 0x7
 1054 028e 723400   		.ascii	"r4\000"
 1055 0291 08       		.byte	0x8
 1056 0292 BA       		.byte	0xba
 1057 0293 74020000 		.4byte	0x274
 1058 0297 00       		.byte	0
 1059 0298 07       		.uleb128 0x7
 1060 0299 723500   		.ascii	"r5\000"
 1061 029c 08       		.byte	0x8
 1062 029d BB       		.byte	0xbb
 1063 029e 74020000 		.4byte	0x274
 1064 02a2 04       		.byte	0x4
 1065 02a3 07       		.uleb128 0x7
 1066 02a4 723600   		.ascii	"r6\000"
 1067 02a7 08       		.byte	0x8
 1068 02a8 BC       		.byte	0xbc
 1069 02a9 74020000 		.4byte	0x274
 1070 02ad 08       		.byte	0x8
 1071 02ae 07       		.uleb128 0x7
 1072 02af 723700   		.ascii	"r7\000"
 1073 02b2 08       		.byte	0x8
 1074 02b3 BD       		.byte	0xbd
 1075 02b4 74020000 		.4byte	0x274
 1076 02b8 0C       		.byte	0xc
 1077 02b9 07       		.uleb128 0x7
 1078 02ba 723800   		.ascii	"r8\000"
 1079 02bd 08       		.byte	0x8
 1080 02be BE       		.byte	0xbe
 1081 02bf 74020000 		.4byte	0x274
 1082 02c3 10       		.byte	0x10
 1083 02c4 07       		.uleb128 0x7
ARM GAS  /var/folders/2d/mv7wzxg53m36fj1flyq1gqvm0000gn/T//ccLwcWDi.s 			page 20


 1084 02c5 723900   		.ascii	"r9\000"
 1085 02c8 08       		.byte	0x8
 1086 02c9 BF       		.byte	0xbf
 1087 02ca 74020000 		.4byte	0x274
 1088 02ce 14       		.byte	0x14
 1089 02cf 07       		.uleb128 0x7
 1090 02d0 72313000 		.ascii	"r10\000"
 1091 02d4 08       		.byte	0x8
 1092 02d5 C0       		.byte	0xc0
 1093 02d6 74020000 		.4byte	0x274
 1094 02da 18       		.byte	0x18
 1095 02db 07       		.uleb128 0x7
 1096 02dc 72313100 		.ascii	"r11\000"
 1097 02e0 08       		.byte	0x8
 1098 02e1 C1       		.byte	0xc1
 1099 02e2 74020000 		.4byte	0x274
 1100 02e6 1C       		.byte	0x1c
 1101 02e7 07       		.uleb128 0x7
 1102 02e8 6C7200   		.ascii	"lr\000"
 1103 02eb 08       		.byte	0x8
 1104 02ec C2       		.byte	0xc2
 1105 02ed 74020000 		.4byte	0x274
 1106 02f1 20       		.byte	0x20
 1107 02f2 00       		.byte	0
 1108 02f3 05       		.uleb128 0x5
 1109 02f4 CD010000 		.4byte	.LASF49
 1110 02f8 04       		.byte	0x4
 1111 02f9 08       		.byte	0x8
 1112 02fa CA       		.byte	0xca
 1113 02fb 0C030000 		.4byte	0x30c
 1114 02ff 07       		.uleb128 0x7
 1115 0300 72313300 		.ascii	"r13\000"
 1116 0304 08       		.byte	0x8
 1117 0305 CB       		.byte	0xcb
 1118 0306 0C030000 		.4byte	0x30c
 1119 030a 00       		.byte	0
 1120 030b 00       		.byte	0
 1121 030c 09       		.uleb128 0x9
 1122 030d 04       		.byte	0x4
 1123 030e 81020000 		.4byte	0x281
 1124 0312 03       		.uleb128 0x3
 1125 0313 C4010000 		.4byte	.LASF50
 1126 0317 09       		.byte	0x9
 1127 0318 4E       		.byte	0x4e
 1128 0319 1D030000 		.4byte	0x31d
 1129 031d 09       		.uleb128 0x9
 1130 031e 04       		.byte	0x4
 1131 031f 23030000 		.4byte	0x323
 1132 0323 0B       		.uleb128 0xb
 1133 0324 2E030000 		.4byte	0x32e
 1134 0328 0C       		.uleb128 0xc
 1135 0329 7F020000 		.4byte	0x27f
 1136 032d 00       		.byte	0
 1137 032e 03       		.uleb128 0x3
 1138 032f AA040000 		.4byte	.LASF51
 1139 0333 09       		.byte	0x9
 1140 0334 53       		.byte	0x53
ARM GAS  /var/folders/2d/mv7wzxg53m36fj1flyq1gqvm0000gn/T//ccLwcWDi.s 			page 21


 1141 0335 39030000 		.4byte	0x339
 1142 0339 05       		.uleb128 0x5
 1143 033a AA040000 		.4byte	.LASF51
 1144 033e 14       		.byte	0x14
 1145 033f 09       		.byte	0x9
 1146 0340 5A       		.byte	0x5a
 1147 0341 82030000 		.4byte	0x382
 1148 0345 06       		.uleb128 0x6
 1149 0346 95010000 		.4byte	.LASF52
 1150 034a 09       		.byte	0x9
 1151 034b 5B       		.byte	0x5b
 1152 034c 82030000 		.4byte	0x382
 1153 0350 00       		.byte	0
 1154 0351 06       		.uleb128 0x6
 1155 0352 69010000 		.4byte	.LASF53
 1156 0356 09       		.byte	0x9
 1157 0357 5D       		.byte	0x5d
 1158 0358 82030000 		.4byte	0x382
 1159 035c 04       		.byte	0x4
 1160 035d 06       		.uleb128 0x6
 1161 035e 68020000 		.4byte	.LASF54
 1162 0362 09       		.byte	0x9
 1163 0363 5F       		.byte	0x5f
 1164 0364 1B010000 		.4byte	0x11b
 1165 0368 08       		.byte	0x8
 1166 0369 06       		.uleb128 0x6
 1167 036a 8F020000 		.4byte	.LASF55
 1168 036e 09       		.byte	0x9
 1169 036f 60       		.byte	0x60
 1170 0370 12030000 		.4byte	0x312
 1171 0374 0C       		.byte	0xc
 1172 0375 06       		.uleb128 0x6
 1173 0376 48050000 		.4byte	.LASF56
 1174 037a 09       		.byte	0x9
 1175 037b 62       		.byte	0x62
 1176 037c 7F020000 		.4byte	0x27f
 1177 0380 10       		.byte	0x10
 1178 0381 00       		.byte	0
 1179 0382 09       		.uleb128 0x9
 1180 0383 04       		.byte	0x4
 1181 0384 2E030000 		.4byte	0x32e
 1182 0388 0D       		.uleb128 0xd
 1183 0389 1B010000 		.4byte	0x11b
 1184 038d 08       		.uleb128 0x8
 1185 038e 1C       		.byte	0x1c
 1186 038f 0A       		.byte	0xa
 1187 0390 57       		.byte	0x57
 1188 0391 DE030000 		.4byte	0x3de
 1189 0395 06       		.uleb128 0x6
 1190 0396 A2040000 		.4byte	.LASF57
 1191 039a 0A       		.byte	0xa
 1192 039b 58       		.byte	0x58
 1193 039c 49020000 		.4byte	0x249
 1194 03a0 00       		.byte	0
 1195 03a1 06       		.uleb128 0x6
 1196 03a2 46040000 		.4byte	.LASF58
 1197 03a6 0A       		.byte	0xa
ARM GAS  /var/folders/2d/mv7wzxg53m36fj1flyq1gqvm0000gn/T//ccLwcWDi.s 			page 22


 1198 03a7 59       		.byte	0x59
 1199 03a8 FA000000 		.4byte	0xfa
 1200 03ac 08       		.byte	0x8
 1201 03ad 06       		.uleb128 0x6
 1202 03ae C3020000 		.4byte	.LASF59
 1203 03b2 0A       		.byte	0xa
 1204 03b3 5B       		.byte	0x5b
 1205 03b4 F3020000 		.4byte	0x2f3
 1206 03b8 0C       		.byte	0xc
 1207 03b9 06       		.uleb128 0x6
 1208 03ba F8010000 		.4byte	.LASF60
 1209 03be 0A       		.byte	0xa
 1210 03bf 5E       		.byte	0x5e
 1211 03c0 43020000 		.4byte	0x243
 1212 03c4 10       		.byte	0x10
 1213 03c5 06       		.uleb128 0x6
 1214 03c6 E0020000 		.4byte	.LASF61
 1215 03ca 0A       		.byte	0xa
 1216 03cb 5F       		.byte	0x5f
 1217 03cc 43020000 		.4byte	0x243
 1218 03d0 14       		.byte	0x14
 1219 03d1 06       		.uleb128 0x6
 1220 03d2 D6020000 		.4byte	.LASF62
 1221 03d6 0A       		.byte	0xa
 1222 03d7 62       		.byte	0x62
 1223 03d8 43020000 		.4byte	0x243
 1224 03dc 18       		.byte	0x18
 1225 03dd 00       		.byte	0
 1226 03de 03       		.uleb128 0x3
 1227 03df 70050000 		.4byte	.LASF63
 1228 03e3 0A       		.byte	0xa
 1229 03e4 64       		.byte	0x64
 1230 03e5 8D030000 		.4byte	0x38d
 1231 03e9 05       		.uleb128 0x5
 1232 03ea 26020000 		.4byte	.LASF64
 1233 03ee 10       		.byte	0x10
 1234 03ef 0B       		.byte	0xb
 1235 03f0 25       		.byte	0x25
 1236 03f1 1A040000 		.4byte	0x41a
 1237 03f5 06       		.uleb128 0x6
 1238 03f6 8F000000 		.4byte	.LASF65
 1239 03fa 0B       		.byte	0xb
 1240 03fb 26       		.byte	0x26
 1241 03fc 49020000 		.4byte	0x249
 1242 0400 00       		.byte	0
 1243 0401 06       		.uleb128 0x6
 1244 0402 C7050000 		.4byte	.LASF66
 1245 0406 0B       		.byte	0xb
 1246 0407 28       		.byte	0x28
 1247 0408 43020000 		.4byte	0x243
 1248 040c 08       		.byte	0x8
 1249 040d 06       		.uleb128 0x6
 1250 040e FF040000 		.4byte	.LASF67
 1251 0412 0B       		.byte	0xb
 1252 0413 2A       		.byte	0x2a
 1253 0414 1A040000 		.4byte	0x41a
 1254 0418 0C       		.byte	0xc
ARM GAS  /var/folders/2d/mv7wzxg53m36fj1flyq1gqvm0000gn/T//ccLwcWDi.s 			page 23


 1255 0419 00       		.byte	0
 1256 041a 09       		.uleb128 0x9
 1257 041b 04       		.byte	0x4
 1258 041c E9030000 		.4byte	0x3e9
 1259 0420 03       		.uleb128 0x3
 1260 0421 26020000 		.4byte	.LASF64
 1261 0425 0B       		.byte	0xb
 1262 0426 2C       		.byte	0x2c
 1263 0427 E9030000 		.4byte	0x3e9
 1264 042b 0E       		.uleb128 0xe
 1265 042c 04       		.byte	0x4
 1266 042d 07       		.byte	0x7
 1267 042e 8F       		.byte	0x8f
 1268 042f 60040000 		.4byte	0x460
 1269 0433 0F       		.uleb128 0xf
 1270 0434 0D000000 		.4byte	.LASF68
 1271 0438 07       		.byte	0x7
 1272 0439 96       		.byte	0x96
 1273 043a 05010000 		.4byte	0x105
 1274 043e 0F       		.uleb128 0xf
 1275 043f 4F000000 		.4byte	.LASF69
 1276 0443 07       		.byte	0x7
 1277 0444 9D       		.byte	0x9d
 1278 0445 05010000 		.4byte	0x105
 1279 0449 0F       		.uleb128 0xf
 1280 044a 88050000 		.4byte	.LASF70
 1281 044e 07       		.byte	0x7
 1282 044f A4       		.byte	0xa4
 1283 0450 7F020000 		.4byte	0x27f
 1284 0454 0F       		.uleb128 0xf
 1285 0455 4D040000 		.4byte	.LASF71
 1286 0459 07       		.byte	0x7
 1287 045a AB       		.byte	0xab
 1288 045b 10010000 		.4byte	0x110
 1289 045f 00       		.byte	0
 1290 0460 09       		.uleb128 0x9
 1291 0461 04       		.byte	0x4
 1292 0462 66040000 		.4byte	0x466
 1293 0466 10       		.uleb128 0x10
 1294 0467 6B040000 		.4byte	0x46b
 1295 046b 04       		.uleb128 0x4
 1296 046c 01       		.byte	0x1
 1297 046d 08       		.byte	0x8
 1298 046e C5040000 		.4byte	.LASF72
 1299 0472 09       		.uleb128 0x9
 1300 0473 04       		.byte	0x4
 1301 0474 20040000 		.4byte	0x420
 1302 0478 04       		.uleb128 0x4
 1303 0479 04       		.byte	0x4
 1304 047a 07       		.byte	0x7
 1305 047b 79020000 		.4byte	.LASF73
 1306 047f 09       		.uleb128 0x9
 1307 0480 04       		.byte	0x4
 1308 0481 A2000000 		.4byte	0xa2
 1309 0485 09       		.uleb128 0x9
 1310 0486 04       		.byte	0x4
 1311 0487 8B040000 		.4byte	0x48b
ARM GAS  /var/folders/2d/mv7wzxg53m36fj1flyq1gqvm0000gn/T//ccLwcWDi.s 			page 24


 1312 048b 10       		.uleb128 0x10
 1313 048c A2000000 		.4byte	0xa2
 1314 0490 05       		.uleb128 0x5
 1315 0491 1E000000 		.4byte	.LASF74
 1316 0495 20       		.byte	0x20
 1317 0496 0C       		.byte	0xc
 1318 0497 FD       		.byte	0xfd
 1319 0498 03050000 		.4byte	0x503
 1320 049c 06       		.uleb128 0x6
 1321 049d 4D010000 		.4byte	.LASF75
 1322 04a1 0C       		.byte	0xc
 1323 04a2 FE       		.byte	0xfe
 1324 04a3 03050000 		.4byte	0x503
 1325 04a7 00       		.byte	0
 1326 04a8 06       		.uleb128 0x6
 1327 04a9 69050000 		.4byte	.LASF76
 1328 04ad 0C       		.byte	0xc
 1329 04ae FF       		.byte	0xff
 1330 04af 03050000 		.4byte	0x503
 1331 04b3 04       		.byte	0x4
 1332 04b4 11       		.uleb128 0x11
 1333 04b5 AE050000 		.4byte	.LASF77
 1334 04b9 0C       		.byte	0xc
 1335 04ba 0001     		.2byte	0x100
 1336 04bc 03050000 		.4byte	0x503
 1337 04c0 08       		.byte	0x8
 1338 04c1 11       		.uleb128 0x11
 1339 04c2 71010000 		.4byte	.LASF78
 1340 04c6 0C       		.byte	0xc
 1341 04c7 0101     		.2byte	0x101
 1342 04c9 03050000 		.4byte	0x503
 1343 04cd 0C       		.byte	0xc
 1344 04ce 11       		.uleb128 0x11
 1345 04cf 5E000000 		.4byte	.LASF79
 1346 04d3 0C       		.byte	0xc
 1347 04d4 0201     		.2byte	0x102
 1348 04d6 03050000 		.4byte	0x503
 1349 04da 10       		.byte	0x10
 1350 04db 11       		.uleb128 0x11
 1351 04dc 82020000 		.4byte	.LASF80
 1352 04e0 0C       		.byte	0xc
 1353 04e1 0301     		.2byte	0x103
 1354 04e3 03050000 		.4byte	0x503
 1355 04e7 14       		.byte	0x14
 1356 04e8 11       		.uleb128 0x11
 1357 04e9 32010000 		.4byte	.LASF81
 1358 04ed 0C       		.byte	0xc
 1359 04ee 0401     		.2byte	0x104
 1360 04f0 03050000 		.4byte	0x503
 1361 04f4 18       		.byte	0x18
 1362 04f5 11       		.uleb128 0x11
 1363 04f6 DF050000 		.4byte	.LASF82
 1364 04fa 0C       		.byte	0xc
 1365 04fb 0501     		.2byte	0x105
 1366 04fd 03050000 		.4byte	0x503
 1367 0501 1C       		.byte	0x1c
 1368 0502 00       		.byte	0
ARM GAS  /var/folders/2d/mv7wzxg53m36fj1flyq1gqvm0000gn/T//ccLwcWDi.s 			page 25


 1369 0503 0D       		.uleb128 0xd
 1370 0504 37000000 		.4byte	0x37
 1371 0508 12       		.uleb128 0x12
 1372 0509 1E000000 		.4byte	.LASF74
 1373 050d 0C       		.byte	0xc
 1374 050e 0801     		.2byte	0x108
 1375 0510 90040000 		.4byte	0x490
 1376 0514 13       		.uleb128 0x13
 1377 0515 01       		.byte	0x1
 1378 0516 0D       		.byte	0xd
 1379 0517 54       		.byte	0x54
 1380 0518 41050000 		.4byte	0x541
 1381 051c 14       		.uleb128 0x14
 1382 051d E0000000 		.4byte	.LASF83
 1383 0521 00       		.sleb128 0
 1384 0522 14       		.uleb128 0x14
 1385 0523 70020000 		.4byte	.LASF84
 1386 0527 01       		.sleb128 1
 1387 0528 14       		.uleb128 0x14
 1388 0529 25050000 		.4byte	.LASF85
 1389 052d 02       		.sleb128 2
 1390 052e 14       		.uleb128 0x14
 1391 052f 2A030000 		.4byte	.LASF86
 1392 0533 03       		.sleb128 3
 1393 0534 14       		.uleb128 0x14
 1394 0535 B7040000 		.4byte	.LASF87
 1395 0539 04       		.sleb128 4
 1396 053a 14       		.uleb128 0x14
 1397 053b 75040000 		.4byte	.LASF88
 1398 053f 05       		.sleb128 5
 1399 0540 00       		.byte	0
 1400 0541 03       		.uleb128 0x3
 1401 0542 10030000 		.4byte	.LASF89
 1402 0546 0D       		.byte	0xd
 1403 0547 5B       		.byte	0x5b
 1404 0548 14050000 		.4byte	0x514
 1405 054c 03       		.uleb128 0x3
 1406 054d E8010000 		.4byte	.LASF90
 1407 0551 0E       		.byte	0xe
 1408 0552 38       		.byte	0x38
 1409 0553 57050000 		.4byte	0x557
 1410 0557 05       		.uleb128 0x5
 1411 0558 E8010000 		.4byte	.LASF90
 1412 055c 40       		.byte	0x40
 1413 055d 0E       		.byte	0xe
 1414 055e 62       		.byte	0x62
 1415 055f 00060000 		.4byte	0x600
 1416 0563 06       		.uleb128 0x6
 1417 0564 F5000000 		.4byte	.LASF91
 1418 0568 0E       		.byte	0xe
 1419 0569 64       		.byte	0x64
 1420 056a 41050000 		.4byte	0x541
 1421 056e 00       		.byte	0
 1422 056f 06       		.uleb128 0x6
 1423 0570 E1040000 		.4byte	.LASF92
 1424 0574 0E       		.byte	0xe
 1425 0575 66       		.byte	0x66
ARM GAS  /var/folders/2d/mv7wzxg53m36fj1flyq1gqvm0000gn/T//ccLwcWDi.s 			page 26


 1426 0576 3C060000 		.4byte	0x63c
 1427 057a 04       		.byte	0x4
 1428 057b 06       		.uleb128 0x6
 1429 057c A3010000 		.4byte	.LASF93
 1430 0580 0E       		.byte	0xe
 1431 0581 68       		.byte	0x68
 1432 0582 00060000 		.4byte	0x600
 1433 0586 08       		.byte	0x8
 1434 0587 06       		.uleb128 0x6
 1435 0588 6E000000 		.4byte	.LASF94
 1436 058c 0E       		.byte	0xe
 1437 058d 6A       		.byte	0x6a
 1438 058e 47060000 		.4byte	0x647
 1439 0592 0C       		.byte	0xc
 1440 0593 06       		.uleb128 0x6
 1441 0594 43030000 		.4byte	.LASF95
 1442 0598 0E       		.byte	0xe
 1443 0599 6D       		.byte	0x6d
 1444 059a 20040000 		.4byte	0x420
 1445 059e 10       		.byte	0x10
 1446 059f 06       		.uleb128 0x6
 1447 05a0 2B010000 		.4byte	.LASF96
 1448 05a4 0E       		.byte	0xe
 1449 05a5 77       		.byte	0x77
 1450 05a6 43020000 		.4byte	0x243
 1451 05aa 20       		.byte	0x20
 1452 05ab 06       		.uleb128 0x6
 1453 05ac 4A000000 		.4byte	.LASF97
 1454 05b0 0E       		.byte	0xe
 1455 05b1 7B       		.byte	0x7b
 1456 05b2 0B060000 		.4byte	0x60b
 1457 05b6 24       		.byte	0x24
 1458 05b7 06       		.uleb128 0x6
 1459 05b8 9D010000 		.4byte	.LASF98
 1460 05bc 0E       		.byte	0xe
 1461 05bd 7F       		.byte	0x7f
 1462 05be 85040000 		.4byte	0x485
 1463 05c2 28       		.byte	0x28
 1464 05c3 06       		.uleb128 0x6
 1465 05c4 E8020000 		.4byte	.LASF99
 1466 05c8 0E       		.byte	0xe
 1467 05c9 83       		.byte	0x83
 1468 05ca 2C000000 		.4byte	0x2c
 1469 05ce 2C       		.byte	0x2c
 1470 05cf 06       		.uleb128 0x6
 1471 05d0 4F050000 		.4byte	.LASF100
 1472 05d4 0E       		.byte	0xe
 1473 05d5 87       		.byte	0x87
 1474 05d6 2C000000 		.4byte	0x2c
 1475 05da 30       		.byte	0x30
 1476 05db 06       		.uleb128 0x6
 1477 05dc 58000000 		.4byte	.LASF101
 1478 05e0 0E       		.byte	0xe
 1479 05e1 8B       		.byte	0x8b
 1480 05e2 7F040000 		.4byte	0x47f
 1481 05e6 34       		.byte	0x34
 1482 05e7 06       		.uleb128 0x6
ARM GAS  /var/folders/2d/mv7wzxg53m36fj1flyq1gqvm0000gn/T//ccLwcWDi.s 			page 27


 1483 05e8 B1020000 		.4byte	.LASF102
 1484 05ec 0E       		.byte	0xe
 1485 05ed 8F       		.byte	0x8f
 1486 05ee 2C000000 		.4byte	0x2c
 1487 05f2 38       		.byte	0x38
 1488 05f3 06       		.uleb128 0x6
 1489 05f4 00020000 		.4byte	.LASF103
 1490 05f8 0E       		.byte	0xe
 1491 05f9 93       		.byte	0x93
 1492 05fa 2C000000 		.4byte	0x2c
 1493 05fe 3C       		.byte	0x3c
 1494 05ff 00       		.byte	0
 1495 0600 03       		.uleb128 0x3
 1496 0601 38030000 		.4byte	.LASF104
 1497 0605 0E       		.byte	0xe
 1498 0606 42       		.byte	0x42
 1499 0607 C3000000 		.4byte	0xc3
 1500 060b 03       		.uleb128 0x3
 1501 060c EB000000 		.4byte	.LASF105
 1502 0610 0E       		.byte	0xe
 1503 0611 48       		.byte	0x48
 1504 0612 AD000000 		.4byte	0xad
 1505 0616 09       		.uleb128 0x9
 1506 0617 04       		.byte	0x4
 1507 0618 4C050000 		.4byte	0x54c
 1508 061c 08       		.uleb128 0x8
 1509 061d 04       		.byte	0x4
 1510 061e 0E       		.byte	0xe
 1511 061f 57       		.byte	0x57
 1512 0620 31060000 		.4byte	0x631
 1513 0624 06       		.uleb128 0x6
 1514 0625 97020000 		.4byte	.LASF106
 1515 0629 0E       		.byte	0xe
 1516 062a 59       		.byte	0x59
 1517 062b C3000000 		.4byte	0xc3
 1518 062f 00       		.byte	0
 1519 0630 00       		.byte	0
 1520 0631 03       		.uleb128 0x3
 1521 0632 B9020000 		.4byte	.LASF107
 1522 0636 0E       		.byte	0xe
 1523 0637 5B       		.byte	0x5b
 1524 0638 1C060000 		.4byte	0x61c
 1525 063c 09       		.uleb128 0x9
 1526 063d 04       		.byte	0x4
 1527 063e 42060000 		.4byte	0x642
 1528 0642 10       		.uleb128 0x10
 1529 0643 31060000 		.4byte	0x631
 1530 0647 09       		.uleb128 0x9
 1531 0648 04       		.byte	0x4
 1532 0649 08050000 		.4byte	0x508
 1533 064d 15       		.uleb128 0x15
 1534 064e CA040000 		.4byte	.LASF127
 1535 0652 01       		.byte	0x1
 1536 0653 4F       		.byte	0x4f
 1537 0654 00000000 		.4byte	.LFB7
 1538 0658 74000000 		.4byte	.LFE7-.LFB7
 1539 065c 01       		.uleb128 0x1
ARM GAS  /var/folders/2d/mv7wzxg53m36fj1flyq1gqvm0000gn/T//ccLwcWDi.s 			page 28


 1540 065d 9C       		.byte	0x9c
 1541 065e AB060000 		.4byte	0x6ab
 1542 0662 16       		.uleb128 0x16
 1543 0663 7000     		.ascii	"p\000"
 1544 0665 01       		.byte	0x1
 1545 0666 4F       		.byte	0x4f
 1546 0667 7F020000 		.4byte	0x27f
 1547 066b 00000000 		.4byte	.LLST0
 1548 066f 17       		.uleb128 0x17
 1549 0670 F0020000 		.4byte	.LASF108
 1550 0674 01       		.byte	0x1
 1551 0675 50       		.byte	0x50
 1552 0676 16060000 		.4byte	0x616
 1553 067a 2C000000 		.4byte	.LLST1
 1554 067e 18       		.uleb128 0x18
 1555 067f 00000000 		.4byte	.Ldebug_ranges0+0
 1556 0683 17       		.uleb128 0x17
 1557 0684 6E000000 		.4byte	.LASF94
 1558 0688 01       		.byte	0x1
 1559 0689 53       		.byte	0x53
 1560 068a 47060000 		.4byte	0x647
 1561 068e 58000000 		.4byte	.LLST2
 1562 0692 19       		.uleb128 0x19
 1563 0693 747000   		.ascii	"tp\000"
 1564 0696 01       		.byte	0x1
 1565 0697 5E       		.byte	0x5e
 1566 0698 43020000 		.4byte	0x243
 1567 069c 6B000000 		.4byte	.LLST3
 1568 06a0 1A       		.uleb128 0x1a
 1569 06a1 70000000 		.4byte	.LVL5
 1570 06a5 3F0A0000 		.4byte	0xa3f
 1571 06a9 00       		.byte	0
 1572 06aa 00       		.byte	0
 1573 06ab 1B       		.uleb128 0x1b
 1574 06ac 96050000 		.4byte	.LASF109
 1575 06b0 01       		.byte	0x1
 1576 06b1 6A       		.byte	0x6a
 1577 06b2 00000000 		.4byte	.LFB8
 1578 06b6 64010000 		.4byte	.LFE8-.LFB8
 1579 06ba 01       		.uleb128 0x1
 1580 06bb 9C       		.byte	0x9c
 1581 06bc 2C070000 		.4byte	0x72c
 1582 06c0 1C       		.uleb128 0x1c
 1583 06c1 F0020000 		.4byte	.LASF108
 1584 06c5 01       		.byte	0x1
 1585 06c6 6A       		.byte	0x6a
 1586 06c7 16060000 		.4byte	0x616
 1587 06cb 7E000000 		.4byte	.LLST4
 1588 06cf 17       		.uleb128 0x17
 1589 06d0 6E000000 		.4byte	.LASF94
 1590 06d4 01       		.byte	0x1
 1591 06d5 6C       		.byte	0x6c
 1592 06d6 47060000 		.4byte	0x647
 1593 06da C3000000 		.4byte	.LLST5
 1594 06de 17       		.uleb128 0x17
 1595 06df 69050000 		.4byte	.LASF76
 1596 06e3 01       		.byte	0x1
ARM GAS  /var/folders/2d/mv7wzxg53m36fj1flyq1gqvm0000gn/T//ccLwcWDi.s 			page 29


 1597 06e4 6D       		.byte	0x6d
 1598 06e5 C3000000 		.4byte	0xc3
 1599 06e9 F8000000 		.4byte	.LLST6
 1600 06ed 1D       		.uleb128 0x1d
 1601 06ee 20000000 		.4byte	.Ldebug_ranges0+0x20
 1602 06f2 0E070000 		.4byte	0x70e
 1603 06f6 19       		.uleb128 0x19
 1604 06f7 747000   		.ascii	"tp\000"
 1605 06fa 01       		.byte	0x1
 1606 06fb 71       		.byte	0x71
 1607 06fc 43020000 		.4byte	0x243
 1608 0700 2C010000 		.4byte	.LLST7
 1609 0704 1A       		.uleb128 0x1a
 1610 0705 3C000000 		.4byte	.LVL14
 1611 0709 3F0A0000 		.4byte	0xa3f
 1612 070d 00       		.byte	0
 1613 070e 18       		.uleb128 0x18
 1614 070f 38000000 		.4byte	.Ldebug_ranges0+0x38
 1615 0713 19       		.uleb128 0x19
 1616 0714 747000   		.ascii	"tp\000"
 1617 0717 01       		.byte	0x1
 1618 0718 78       		.byte	0x78
 1619 0719 43020000 		.4byte	0x243
 1620 071d 3F010000 		.4byte	.LLST8
 1621 0721 1A       		.uleb128 0x1a
 1622 0722 C8000000 		.4byte	.LVL18
 1623 0726 3F0A0000 		.4byte	0xa3f
 1624 072a 00       		.byte	0
 1625 072b 00       		.byte	0
 1626 072c 1B       		.uleb128 0x1b
 1627 072d 55050000 		.4byte	.LASF110
 1628 0731 01       		.byte	0x1
 1629 0732 8D       		.byte	0x8d
 1630 0733 00000000 		.4byte	.LFB9
 1631 0737 1C000000 		.4byte	.LFE9-.LFB9
 1632 073b 01       		.uleb128 0x1
 1633 073c 9C       		.byte	0x9c
 1634 073d 55070000 		.4byte	0x755
 1635 0741 1E       		.uleb128 0x1e
 1636 0742 14000000 		.4byte	.LVL22
 1637 0746 540A0000 		.4byte	0xa54
 1638 074a 1F       		.uleb128 0x1f
 1639 074b 01       		.uleb128 0x1
 1640 074c 50       		.byte	0x50
 1641 074d 05       		.uleb128 0x5
 1642 074e 03       		.byte	0x3
 1643 074f 00000000 		.4byte	I2C0
 1644 0753 00       		.byte	0
 1645 0754 00       		.byte	0
 1646 0755 20       		.uleb128 0x20
 1647 0756 49030000 		.4byte	.LASF111
 1648 075a 01       		.byte	0x1
 1649 075b 99       		.byte	0x99
 1650 075c 00000000 		.4byte	.LFB10
 1651 0760 68000000 		.4byte	.LFE10-.LFB10
 1652 0764 01       		.uleb128 0x1
 1653 0765 9C       		.byte	0x9c
ARM GAS  /var/folders/2d/mv7wzxg53m36fj1flyq1gqvm0000gn/T//ccLwcWDi.s 			page 30


 1654 0766 B5070000 		.4byte	0x7b5
 1655 076a 1C       		.uleb128 0x1c
 1656 076b F0020000 		.4byte	.LASF108
 1657 076f 01       		.byte	0x1
 1658 0770 99       		.byte	0x99
 1659 0771 16060000 		.4byte	0x616
 1660 0775 52010000 		.4byte	.LLST9
 1661 0779 17       		.uleb128 0x17
 1662 077a 2C020000 		.4byte	.LASF112
 1663 077e 01       		.byte	0x1
 1664 077f A3       		.byte	0xa3
 1665 0780 C3000000 		.4byte	0xc3
 1666 0784 70010000 		.4byte	.LLST10
 1667 0788 21       		.uleb128 0x21
 1668 0789 14000000 		.4byte	.LVL25
 1669 078d 650A0000 		.4byte	0xa65
 1670 0791 A0070000 		.4byte	0x7a0
 1671 0795 1F       		.uleb128 0x1f
 1672 0796 01       		.uleb128 0x1
 1673 0797 51       		.byte	0x51
 1674 0798 01       		.uleb128 0x1
 1675 0799 34       		.byte	0x34
 1676 079a 1F       		.uleb128 0x1f
 1677 079b 01       		.uleb128 0x1
 1678 079c 50       		.byte	0x50
 1679 079d 01       		.uleb128 0x1
 1680 079e 32       		.byte	0x32
 1681 079f 00       		.byte	0
 1682 07a0 22       		.uleb128 0x22
 1683 07a1 20000000 		.4byte	.LVL26
 1684 07a5 650A0000 		.4byte	0xa65
 1685 07a9 1F       		.uleb128 0x1f
 1686 07aa 01       		.uleb128 0x1
 1687 07ab 51       		.byte	0x51
 1688 07ac 01       		.uleb128 0x1
 1689 07ad 34       		.byte	0x34
 1690 07ae 1F       		.uleb128 0x1f
 1691 07af 01       		.uleb128 0x1
 1692 07b0 50       		.byte	0x50
 1693 07b1 01       		.uleb128 0x1
 1694 07b2 33       		.byte	0x33
 1695 07b3 00       		.byte	0
 1696 07b4 00       		.byte	0
 1697 07b5 1B       		.uleb128 0x1b
 1698 07b6 32020000 		.4byte	.LASF113
 1699 07ba 01       		.byte	0x1
 1700 07bb B1       		.byte	0xb1
 1701 07bc 00000000 		.4byte	.LFB11
 1702 07c0 34000000 		.4byte	.LFE11-.LFB11
 1703 07c4 01       		.uleb128 0x1
 1704 07c5 9C       		.byte	0x9c
 1705 07c6 06080000 		.4byte	0x806
 1706 07ca 1C       		.uleb128 0x1c
 1707 07cb F0020000 		.4byte	.LASF108
 1708 07cf 01       		.byte	0x1
 1709 07d0 B1       		.byte	0xb1
 1710 07d1 16060000 		.4byte	0x616
ARM GAS  /var/folders/2d/mv7wzxg53m36fj1flyq1gqvm0000gn/T//ccLwcWDi.s 			page 31


 1711 07d5 8E010000 		.4byte	.LLST11
 1712 07d9 21       		.uleb128 0x21
 1713 07da 14000000 		.4byte	.LVL32
 1714 07de 650A0000 		.4byte	0xa65
 1715 07e2 F1070000 		.4byte	0x7f1
 1716 07e6 1F       		.uleb128 0x1f
 1717 07e7 01       		.uleb128 0x1
 1718 07e8 51       		.byte	0x51
 1719 07e9 01       		.uleb128 0x1
 1720 07ea 30       		.byte	0x30
 1721 07eb 1F       		.uleb128 0x1f
 1722 07ec 01       		.uleb128 0x1
 1723 07ed 50       		.byte	0x50
 1724 07ee 01       		.uleb128 0x1
 1725 07ef 32       		.byte	0x32
 1726 07f0 00       		.byte	0
 1727 07f1 22       		.uleb128 0x22
 1728 07f2 20000000 		.4byte	.LVL33
 1729 07f6 650A0000 		.4byte	0xa65
 1730 07fa 1F       		.uleb128 0x1f
 1731 07fb 01       		.uleb128 0x1
 1732 07fc 51       		.byte	0x51
 1733 07fd 01       		.uleb128 0x1
 1734 07fe 30       		.byte	0x30
 1735 07ff 1F       		.uleb128 0x1f
 1736 0800 01       		.uleb128 0x1
 1737 0801 50       		.byte	0x50
 1738 0802 01       		.uleb128 0x1
 1739 0803 33       		.byte	0x33
 1740 0804 00       		.byte	0
 1741 0805 00       		.byte	0
 1742 0806 23       		.uleb128 0x23
 1743 0807 97000000 		.4byte	.LASF115
 1744 080b 01       		.byte	0x1
 1745 080c 0D01     		.2byte	0x10d
 1746 080e 05010000 		.4byte	0x105
 1747 0812 00000000 		.4byte	.LFB13
 1748 0816 CC000000 		.4byte	.LFE13-.LFB13
 1749 081a 01       		.uleb128 0x1
 1750 081b 9C       		.byte	0x9c
 1751 081c DA080000 		.4byte	0x8da
 1752 0820 24       		.uleb128 0x24
 1753 0821 F0020000 		.4byte	.LASF108
 1754 0825 01       		.byte	0x1
 1755 0826 0D01     		.2byte	0x10d
 1756 0828 16060000 		.4byte	0x616
 1757 082c AC010000 		.4byte	.LLST12
 1758 0830 24       		.uleb128 0x24
 1759 0831 4A000000 		.4byte	.LASF97
 1760 0835 01       		.byte	0x1
 1761 0836 0D01     		.2byte	0x10d
 1762 0838 0B060000 		.4byte	0x60b
 1763 083c D8010000 		.4byte	.LLST13
 1764 0840 24       		.uleb128 0x24
 1765 0841 58000000 		.4byte	.LASF101
 1766 0845 01       		.byte	0x1
 1767 0846 0E01     		.2byte	0x10e
ARM GAS  /var/folders/2d/mv7wzxg53m36fj1flyq1gqvm0000gn/T//ccLwcWDi.s 			page 32


 1768 0848 7F040000 		.4byte	0x47f
 1769 084c F9010000 		.4byte	.LLST14
 1770 0850 24       		.uleb128 0x24
 1771 0851 B1020000 		.4byte	.LASF102
 1772 0855 01       		.byte	0x1
 1773 0856 0E01     		.2byte	0x10e
 1774 0858 2C000000 		.4byte	0x2c
 1775 085c 25020000 		.4byte	.LLST15
 1776 0860 25       		.uleb128 0x25
 1777 0861 BC010000 		.4byte	.LASF114
 1778 0865 01       		.byte	0x1
 1779 0866 0F01     		.2byte	0x10f
 1780 0868 1B010000 		.4byte	0x11b
 1781 086c 02       		.uleb128 0x2
 1782 086d 91       		.byte	0x91
 1783 086e 00       		.sleb128 0
 1784 086f 26       		.uleb128 0x26
 1785 0870 767400   		.ascii	"vt\000"
 1786 0873 01       		.byte	0x1
 1787 0874 1001     		.2byte	0x110
 1788 0876 2E030000 		.4byte	0x32e
 1789 087a 02       		.uleb128 0x2
 1790 087b 91       		.byte	0x91
 1791 087c 54       		.sleb128 -44
 1792 087d 27       		.uleb128 0x27
 1793 087e 6E000000 		.4byte	.LASF94
 1794 0882 01       		.byte	0x1
 1795 0883 1F01     		.2byte	0x11f
 1796 0885 47060000 		.4byte	0x647
 1797 0889 5D020000 		.4byte	.LLST16
 1798 088d 21       		.uleb128 0x21
 1799 088e 38000000 		.4byte	.LVL39
 1800 0892 7C0A0000 		.4byte	0xa7c
 1801 0896 B6080000 		.4byte	0x8b6
 1802 089a 1F       		.uleb128 0x1f
 1803 089b 01       		.uleb128 0x1
 1804 089c 53       		.byte	0x53
 1805 089d 02       		.uleb128 0x2
 1806 089e 74       		.byte	0x74
 1807 089f 00       		.sleb128 0
 1808 08a0 1F       		.uleb128 0x1f
 1809 08a1 01       		.uleb128 0x1
 1810 08a2 52       		.byte	0x52
 1811 08a3 05       		.uleb128 0x5
 1812 08a4 03       		.byte	0x3
 1813 08a5 00000000 		.4byte	i2c_lld_safety_timeout
 1814 08a9 1F       		.uleb128 0x1f
 1815 08aa 01       		.uleb128 0x1
 1816 08ab 51       		.byte	0x51
 1817 08ac 02       		.uleb128 0x2
 1818 08ad 75       		.byte	0x75
 1819 08ae 00       		.sleb128 0
 1820 08af 1F       		.uleb128 0x1f
 1821 08b0 01       		.uleb128 0x1
 1822 08b1 50       		.byte	0x50
 1823 08b2 02       		.uleb128 0x2
 1824 08b3 91       		.byte	0x91
ARM GAS  /var/folders/2d/mv7wzxg53m36fj1flyq1gqvm0000gn/T//ccLwcWDi.s 			page 33


 1825 08b4 4C       		.sleb128 -52
 1826 08b5 00       		.byte	0
 1827 08b6 21       		.uleb128 0x21
 1828 08b7 8C000000 		.4byte	.LVL43
 1829 08bb 9C0A0000 		.4byte	0xa9c
 1830 08bf C9080000 		.4byte	0x8c9
 1831 08c3 1F       		.uleb128 0x1f
 1832 08c4 01       		.uleb128 0x1
 1833 08c5 50       		.byte	0x50
 1834 08c6 01       		.uleb128 0x1
 1835 08c7 32       		.byte	0x32
 1836 08c8 00       		.byte	0
 1837 08c9 22       		.uleb128 0x22
 1838 08ca A8000000 		.4byte	.LVL44
 1839 08ce AD0A0000 		.4byte	0xaad
 1840 08d2 1F       		.uleb128 0x1f
 1841 08d3 01       		.uleb128 0x1
 1842 08d4 50       		.byte	0x50
 1843 08d5 02       		.uleb128 0x2
 1844 08d6 91       		.byte	0x91
 1845 08d7 4C       		.sleb128 -52
 1846 08d8 00       		.byte	0
 1847 08d9 00       		.byte	0
 1848 08da 28       		.uleb128 0x28
 1849 08db B6000000 		.4byte	.LASF116
 1850 08df 01       		.byte	0x1
 1851 08e0 CD       		.byte	0xcd
 1852 08e1 05010000 		.4byte	0x105
 1853 08e5 00000000 		.4byte	.LFB12
 1854 08e9 3C010000 		.4byte	.LFE12-.LFB12
 1855 08ed 01       		.uleb128 0x1
 1856 08ee 9C       		.byte	0x9c
 1857 08ef 120A0000 		.4byte	0xa12
 1858 08f3 1C       		.uleb128 0x1c
 1859 08f4 F0020000 		.4byte	.LASF108
 1860 08f8 01       		.byte	0x1
 1861 08f9 CD       		.byte	0xcd
 1862 08fa 16060000 		.4byte	0x616
 1863 08fe 7C020000 		.4byte	.LLST17
 1864 0902 1C       		.uleb128 0x1c
 1865 0903 4A000000 		.4byte	.LASF97
 1866 0907 01       		.byte	0x1
 1867 0908 CD       		.byte	0xcd
 1868 0909 0B060000 		.4byte	0x60b
 1869 090d A8020000 		.4byte	.LLST18
 1870 0911 1C       		.uleb128 0x1c
 1871 0912 9D010000 		.4byte	.LASF98
 1872 0916 01       		.byte	0x1
 1873 0917 CE       		.byte	0xce
 1874 0918 85040000 		.4byte	0x485
 1875 091c C9020000 		.4byte	.LLST19
 1876 0920 1C       		.uleb128 0x1c
 1877 0921 E8020000 		.4byte	.LASF99
 1878 0925 01       		.byte	0x1
 1879 0926 CE       		.byte	0xce
 1880 0927 2C000000 		.4byte	0x2c
 1881 092b F5020000 		.4byte	.LLST20
ARM GAS  /var/folders/2d/mv7wzxg53m36fj1flyq1gqvm0000gn/T//ccLwcWDi.s 			page 34


 1882 092f 29       		.uleb128 0x29
 1883 0930 58000000 		.4byte	.LASF101
 1884 0934 01       		.byte	0x1
 1885 0935 CF       		.byte	0xcf
 1886 0936 7F040000 		.4byte	0x47f
 1887 093a 02       		.uleb128 0x2
 1888 093b 91       		.byte	0x91
 1889 093c 00       		.sleb128 0
 1890 093d 29       		.uleb128 0x29
 1891 093e B1020000 		.4byte	.LASF102
 1892 0942 01       		.byte	0x1
 1893 0943 CF       		.byte	0xcf
 1894 0944 8B040000 		.4byte	0x48b
 1895 0948 02       		.uleb128 0x2
 1896 0949 91       		.byte	0x91
 1897 094a 04       		.sleb128 4
 1898 094b 29       		.uleb128 0x29
 1899 094c BC010000 		.4byte	.LASF114
 1900 0950 01       		.byte	0x1
 1901 0951 D0       		.byte	0xd0
 1902 0952 1B010000 		.4byte	0x11b
 1903 0956 02       		.uleb128 0x2
 1904 0957 91       		.byte	0x91
 1905 0958 08       		.sleb128 8
 1906 0959 2A       		.uleb128 0x2a
 1907 095a 767400   		.ascii	"vt\000"
 1908 095d 01       		.byte	0x1
 1909 095e D1       		.byte	0xd1
 1910 095f 2E030000 		.4byte	0x32e
 1911 0963 02       		.uleb128 0x2
 1912 0964 91       		.byte	0x91
 1913 0965 4C       		.sleb128 -52
 1914 0966 17       		.uleb128 0x17
 1915 0967 6E000000 		.4byte	.LASF94
 1916 096b 01       		.byte	0x1
 1917 096c DF       		.byte	0xdf
 1918 096d 47060000 		.4byte	0x647
 1919 0971 2D030000 		.4byte	.LLST21
 1920 0975 17       		.uleb128 0x17
 1921 0976 69050000 		.4byte	.LASF76
 1922 097a 01       		.byte	0x1
 1923 097b F1       		.byte	0xf1
 1924 097c 05010000 		.4byte	0x105
 1925 0980 4C030000 		.4byte	.LLST22
 1926 0984 21       		.uleb128 0x21
 1927 0985 40000000 		.4byte	.LVL51
 1928 0989 7C0A0000 		.4byte	0xa7c
 1929 098d AD090000 		.4byte	0x9ad
 1930 0991 1F       		.uleb128 0x1f
 1931 0992 01       		.uleb128 0x1
 1932 0993 53       		.byte	0x53
 1933 0994 02       		.uleb128 0x2
 1934 0995 74       		.byte	0x74
 1935 0996 00       		.sleb128 0
 1936 0997 1F       		.uleb128 0x1f
 1937 0998 01       		.uleb128 0x1
 1938 0999 52       		.byte	0x52
ARM GAS  /var/folders/2d/mv7wzxg53m36fj1flyq1gqvm0000gn/T//ccLwcWDi.s 			page 35


 1939 099a 05       		.uleb128 0x5
 1940 099b 03       		.byte	0x3
 1941 099c 00000000 		.4byte	i2c_lld_safety_timeout
 1942 09a0 1F       		.uleb128 0x1f
 1943 09a1 01       		.uleb128 0x1
 1944 09a2 51       		.byte	0x51
 1945 09a3 02       		.uleb128 0x2
 1946 09a4 75       		.byte	0x75
 1947 09a5 00       		.sleb128 0
 1948 09a6 1F       		.uleb128 0x1f
 1949 09a7 01       		.uleb128 0x1
 1950 09a8 50       		.byte	0x50
 1951 09a9 02       		.uleb128 0x2
 1952 09aa 91       		.byte	0x91
 1953 09ab 44       		.sleb128 -60
 1954 09ac 00       		.byte	0
 1955 09ad 21       		.uleb128 0x21
 1956 09ae 9C000000 		.4byte	.LVL55
 1957 09b2 9C0A0000 		.4byte	0xa9c
 1958 09b6 C0090000 		.4byte	0x9c0
 1959 09ba 1F       		.uleb128 0x1f
 1960 09bb 01       		.uleb128 0x1
 1961 09bc 50       		.byte	0x50
 1962 09bd 01       		.uleb128 0x1
 1963 09be 32       		.byte	0x32
 1964 09bf 00       		.byte	0
 1965 09c0 21       		.uleb128 0x21
 1966 09c1 B8000000 		.4byte	.LVL56
 1967 09c5 AD0A0000 		.4byte	0xaad
 1968 09c9 D4090000 		.4byte	0x9d4
 1969 09cd 1F       		.uleb128 0x1f
 1970 09ce 01       		.uleb128 0x1
 1971 09cf 50       		.byte	0x50
 1972 09d0 02       		.uleb128 0x2
 1973 09d1 91       		.byte	0x91
 1974 09d2 44       		.sleb128 -60
 1975 09d3 00       		.byte	0
 1976 09d4 21       		.uleb128 0x21
 1977 09d5 04010000 		.4byte	.LVL59
 1978 09d9 06080000 		.4byte	0x806
 1979 09dd 010A0000 		.4byte	0xa01
 1980 09e1 1F       		.uleb128 0x1f
 1981 09e2 01       		.uleb128 0x1
 1982 09e3 53       		.byte	0x53
 1983 09e4 02       		.uleb128 0x2
 1984 09e5 76       		.byte	0x76
 1985 09e6 00       		.sleb128 0
 1986 09e7 1F       		.uleb128 0x1f
 1987 09e8 01       		.uleb128 0x1
 1988 09e9 52       		.byte	0x52
 1989 09ea 02       		.uleb128 0x2
 1990 09eb 78       		.byte	0x78
 1991 09ec 00       		.sleb128 0
 1992 09ed 1F       		.uleb128 0x1f
 1993 09ee 01       		.uleb128 0x1
 1994 09ef 51       		.byte	0x51
 1995 09f0 02       		.uleb128 0x2
ARM GAS  /var/folders/2d/mv7wzxg53m36fj1flyq1gqvm0000gn/T//ccLwcWDi.s 			page 36


 1996 09f1 77       		.byte	0x77
 1997 09f2 00       		.sleb128 0
 1998 09f3 1F       		.uleb128 0x1f
 1999 09f4 01       		.uleb128 0x1
 2000 09f5 50       		.byte	0x50
 2001 09f6 02       		.uleb128 0x2
 2002 09f7 74       		.byte	0x74
 2003 09f8 00       		.sleb128 0
 2004 09f9 1F       		.uleb128 0x1f
 2005 09fa 02       		.uleb128 0x2
 2006 09fb 7D       		.byte	0x7d
 2007 09fc 00       		.sleb128 0
 2008 09fd 02       		.uleb128 0x2
 2009 09fe 09       		.byte	0x9
 2010 09ff FF       		.byte	0xff
 2011 0a00 00       		.byte	0
 2012 0a01 22       		.uleb128 0x22
 2013 0a02 24010000 		.4byte	.LVL62
 2014 0a06 AD0A0000 		.4byte	0xaad
 2015 0a0a 1F       		.uleb128 0x1f
 2016 0a0b 01       		.uleb128 0x1
 2017 0a0c 50       		.byte	0x50
 2018 0a0d 02       		.uleb128 0x2
 2019 0a0e 91       		.byte	0x91
 2020 0a0f 44       		.sleb128 -60
 2021 0a10 00       		.byte	0
 2022 0a11 00       		.byte	0
 2023 0a12 2B       		.uleb128 0x2b
 2024 0a13 7A050000 		.4byte	.LASF117
 2025 0a17 0A       		.byte	0xa
 2026 0a18 68       		.byte	0x68
 2027 0a19 DE030000 		.4byte	0x3de
 2028 0a1d 2C       		.uleb128 0x2c
 2029 0a1e 7E010000 		.4byte	.LASF118
 2030 0a22 01       		.byte	0x1
 2031 0a23 2A       		.byte	0x2a
 2032 0a24 4C050000 		.4byte	0x54c
 2033 0a28 05       		.uleb128 0x5
 2034 0a29 03       		.byte	0x3
 2035 0a2a 00000000 		.4byte	I2C0
 2036 0a2e 2C       		.uleb128 0x2c
 2037 0a2f 83010000 		.4byte	.LASF119
 2038 0a33 01       		.byte	0x1
 2039 0a34 2B       		.byte	0x2b
 2040 0a35 4C050000 		.4byte	0x54c
 2041 0a39 05       		.uleb128 0x5
 2042 0a3a 03       		.byte	0x3
 2043 0a3b 00000000 		.4byte	I2C1
 2044 0a3f 2D       		.uleb128 0x2d
 2045 0a40 F3040000 		.4byte	.LASF128
 2046 0a44 0A       		.byte	0xa
 2047 0a45 89       		.byte	0x89
 2048 0a46 43020000 		.4byte	0x243
 2049 0a4a 540A0000 		.4byte	0xa54
 2050 0a4e 0C       		.uleb128 0xc
 2051 0a4f 43020000 		.4byte	0x243
 2052 0a53 00       		.byte	0
ARM GAS  /var/folders/2d/mv7wzxg53m36fj1flyq1gqvm0000gn/T//ccLwcWDi.s 			page 37


 2053 0a54 2E       		.uleb128 0x2e
 2054 0a55 B9050000 		.4byte	.LASF120
 2055 0a59 0D       		.byte	0xd
 2056 0a5a 7A       		.byte	0x7a
 2057 0a5b 650A0000 		.4byte	0xa65
 2058 0a5f 0C       		.uleb128 0xc
 2059 0a60 16060000 		.4byte	0x616
 2060 0a64 00       		.byte	0
 2061 0a65 2F       		.uleb128 0x2f
 2062 0a66 F5020000 		.4byte	.LASF121
 2063 0a6a 0C       		.byte	0xc
 2064 0a6b 8C01     		.2byte	0x18c
 2065 0a6d 7C0A0000 		.4byte	0xa7c
 2066 0a71 0C       		.uleb128 0xc
 2067 0a72 C3000000 		.4byte	0xc3
 2068 0a76 0C       		.uleb128 0xc
 2069 0a77 C3000000 		.4byte	0xc3
 2070 0a7b 00       		.byte	0
 2071 0a7c 2E       		.uleb128 0x2e
 2072 0a7d A0020000 		.4byte	.LASF122
 2073 0a81 09       		.byte	0x9
 2074 0a82 DA       		.byte	0xda
 2075 0a83 9C0A0000 		.4byte	0xa9c
 2076 0a87 0C       		.uleb128 0xc
 2077 0a88 82030000 		.4byte	0x382
 2078 0a8c 0C       		.uleb128 0xc
 2079 0a8d 1B010000 		.4byte	0x11b
 2080 0a91 0C       		.uleb128 0xc
 2081 0a92 12030000 		.4byte	0x312
 2082 0a96 0C       		.uleb128 0xc
 2083 0a97 7F020000 		.4byte	0x27f
 2084 0a9b 00       		.byte	0
 2085 0a9c 2E       		.uleb128 0x2e
 2086 0a9d 80040000 		.4byte	.LASF123
 2087 0aa1 0A       		.byte	0xa
 2088 0aa2 8C       		.byte	0x8c
 2089 0aa3 AD0A0000 		.4byte	0xaad
 2090 0aa7 0C       		.uleb128 0xc
 2091 0aa8 D9000000 		.4byte	0xd9
 2092 0aac 00       		.byte	0
 2093 0aad 30       		.uleb128 0x30
 2094 0aae 6A040000 		.4byte	.LASF129
 2095 0ab2 09       		.byte	0x9
 2096 0ab3 DB       		.byte	0xdb
 2097 0ab4 0C       		.uleb128 0xc
 2098 0ab5 82030000 		.4byte	0x382
 2099 0ab9 00       		.byte	0
 2100 0aba 00       		.byte	0
 2101              		.section	.debug_abbrev,"",%progbits
 2102              	.Ldebug_abbrev0:
 2103 0000 01       		.uleb128 0x1
 2104 0001 11       		.uleb128 0x11
 2105 0002 01       		.byte	0x1
 2106 0003 25       		.uleb128 0x25
 2107 0004 0E       		.uleb128 0xe
 2108 0005 13       		.uleb128 0x13
 2109 0006 0B       		.uleb128 0xb
ARM GAS  /var/folders/2d/mv7wzxg53m36fj1flyq1gqvm0000gn/T//ccLwcWDi.s 			page 38


 2110 0007 03       		.uleb128 0x3
 2111 0008 0E       		.uleb128 0xe
 2112 0009 1B       		.uleb128 0x1b
 2113 000a 0E       		.uleb128 0xe
 2114 000b 55       		.uleb128 0x55
 2115 000c 17       		.uleb128 0x17
 2116 000d 11       		.uleb128 0x11
 2117 000e 01       		.uleb128 0x1
 2118 000f 10       		.uleb128 0x10
 2119 0010 17       		.uleb128 0x17
 2120 0011 00       		.byte	0
 2121 0012 00       		.byte	0
 2122 0013 02       		.uleb128 0x2
 2123 0014 24       		.uleb128 0x24
 2124 0015 00       		.byte	0
 2125 0016 0B       		.uleb128 0xb
 2126 0017 0B       		.uleb128 0xb
 2127 0018 3E       		.uleb128 0x3e
 2128 0019 0B       		.uleb128 0xb
 2129 001a 03       		.uleb128 0x3
 2130 001b 08       		.uleb128 0x8
 2131 001c 00       		.byte	0
 2132 001d 00       		.byte	0
 2133 001e 03       		.uleb128 0x3
 2134 001f 16       		.uleb128 0x16
 2135 0020 00       		.byte	0
 2136 0021 03       		.uleb128 0x3
 2137 0022 0E       		.uleb128 0xe
 2138 0023 3A       		.uleb128 0x3a
 2139 0024 0B       		.uleb128 0xb
 2140 0025 3B       		.uleb128 0x3b
 2141 0026 0B       		.uleb128 0xb
 2142 0027 49       		.uleb128 0x49
 2143 0028 13       		.uleb128 0x13
 2144 0029 00       		.byte	0
 2145 002a 00       		.byte	0
 2146 002b 04       		.uleb128 0x4
 2147 002c 24       		.uleb128 0x24
 2148 002d 00       		.byte	0
 2149 002e 0B       		.uleb128 0xb
 2150 002f 0B       		.uleb128 0xb
 2151 0030 3E       		.uleb128 0x3e
 2152 0031 0B       		.uleb128 0xb
 2153 0032 03       		.uleb128 0x3
 2154 0033 0E       		.uleb128 0xe
 2155 0034 00       		.byte	0
 2156 0035 00       		.byte	0
 2157 0036 05       		.uleb128 0x5
 2158 0037 13       		.uleb128 0x13
 2159 0038 01       		.byte	0x1
 2160 0039 03       		.uleb128 0x3
 2161 003a 0E       		.uleb128 0xe
 2162 003b 0B       		.uleb128 0xb
 2163 003c 0B       		.uleb128 0xb
 2164 003d 3A       		.uleb128 0x3a
 2165 003e 0B       		.uleb128 0xb
 2166 003f 3B       		.uleb128 0x3b
ARM GAS  /var/folders/2d/mv7wzxg53m36fj1flyq1gqvm0000gn/T//ccLwcWDi.s 			page 39


 2167 0040 0B       		.uleb128 0xb
 2168 0041 01       		.uleb128 0x1
 2169 0042 13       		.uleb128 0x13
 2170 0043 00       		.byte	0
 2171 0044 00       		.byte	0
 2172 0045 06       		.uleb128 0x6
 2173 0046 0D       		.uleb128 0xd
 2174 0047 00       		.byte	0
 2175 0048 03       		.uleb128 0x3
 2176 0049 0E       		.uleb128 0xe
 2177 004a 3A       		.uleb128 0x3a
 2178 004b 0B       		.uleb128 0xb
 2179 004c 3B       		.uleb128 0x3b
 2180 004d 0B       		.uleb128 0xb
 2181 004e 49       		.uleb128 0x49
 2182 004f 13       		.uleb128 0x13
 2183 0050 38       		.uleb128 0x38
 2184 0051 0B       		.uleb128 0xb
 2185 0052 00       		.byte	0
 2186 0053 00       		.byte	0
 2187 0054 07       		.uleb128 0x7
 2188 0055 0D       		.uleb128 0xd
 2189 0056 00       		.byte	0
 2190 0057 03       		.uleb128 0x3
 2191 0058 08       		.uleb128 0x8
 2192 0059 3A       		.uleb128 0x3a
 2193 005a 0B       		.uleb128 0xb
 2194 005b 3B       		.uleb128 0x3b
 2195 005c 0B       		.uleb128 0xb
 2196 005d 49       		.uleb128 0x49
 2197 005e 13       		.uleb128 0x13
 2198 005f 38       		.uleb128 0x38
 2199 0060 0B       		.uleb128 0xb
 2200 0061 00       		.byte	0
 2201 0062 00       		.byte	0
 2202 0063 08       		.uleb128 0x8
 2203 0064 13       		.uleb128 0x13
 2204 0065 01       		.byte	0x1
 2205 0066 0B       		.uleb128 0xb
 2206 0067 0B       		.uleb128 0xb
 2207 0068 3A       		.uleb128 0x3a
 2208 0069 0B       		.uleb128 0xb
 2209 006a 3B       		.uleb128 0x3b
 2210 006b 0B       		.uleb128 0xb
 2211 006c 01       		.uleb128 0x1
 2212 006d 13       		.uleb128 0x13
 2213 006e 00       		.byte	0
 2214 006f 00       		.byte	0
 2215 0070 09       		.uleb128 0x9
 2216 0071 0F       		.uleb128 0xf
 2217 0072 00       		.byte	0
 2218 0073 0B       		.uleb128 0xb
 2219 0074 0B       		.uleb128 0xb
 2220 0075 49       		.uleb128 0x49
 2221 0076 13       		.uleb128 0x13
 2222 0077 00       		.byte	0
 2223 0078 00       		.byte	0
ARM GAS  /var/folders/2d/mv7wzxg53m36fj1flyq1gqvm0000gn/T//ccLwcWDi.s 			page 40


 2224 0079 0A       		.uleb128 0xa
 2225 007a 0F       		.uleb128 0xf
 2226 007b 00       		.byte	0
 2227 007c 0B       		.uleb128 0xb
 2228 007d 0B       		.uleb128 0xb
 2229 007e 00       		.byte	0
 2230 007f 00       		.byte	0
 2231 0080 0B       		.uleb128 0xb
 2232 0081 15       		.uleb128 0x15
 2233 0082 01       		.byte	0x1
 2234 0083 27       		.uleb128 0x27
 2235 0084 19       		.uleb128 0x19
 2236 0085 01       		.uleb128 0x1
 2237 0086 13       		.uleb128 0x13
 2238 0087 00       		.byte	0
 2239 0088 00       		.byte	0
 2240 0089 0C       		.uleb128 0xc
 2241 008a 05       		.uleb128 0x5
 2242 008b 00       		.byte	0
 2243 008c 49       		.uleb128 0x49
 2244 008d 13       		.uleb128 0x13
 2245 008e 00       		.byte	0
 2246 008f 00       		.byte	0
 2247 0090 0D       		.uleb128 0xd
 2248 0091 35       		.uleb128 0x35
 2249 0092 00       		.byte	0
 2250 0093 49       		.uleb128 0x49
 2251 0094 13       		.uleb128 0x13
 2252 0095 00       		.byte	0
 2253 0096 00       		.byte	0
 2254 0097 0E       		.uleb128 0xe
 2255 0098 17       		.uleb128 0x17
 2256 0099 01       		.byte	0x1
 2257 009a 0B       		.uleb128 0xb
 2258 009b 0B       		.uleb128 0xb
 2259 009c 3A       		.uleb128 0x3a
 2260 009d 0B       		.uleb128 0xb
 2261 009e 3B       		.uleb128 0x3b
 2262 009f 0B       		.uleb128 0xb
 2263 00a0 01       		.uleb128 0x1
 2264 00a1 13       		.uleb128 0x13
 2265 00a2 00       		.byte	0
 2266 00a3 00       		.byte	0
 2267 00a4 0F       		.uleb128 0xf
 2268 00a5 0D       		.uleb128 0xd
 2269 00a6 00       		.byte	0
 2270 00a7 03       		.uleb128 0x3
 2271 00a8 0E       		.uleb128 0xe
 2272 00a9 3A       		.uleb128 0x3a
 2273 00aa 0B       		.uleb128 0xb
 2274 00ab 3B       		.uleb128 0x3b
 2275 00ac 0B       		.uleb128 0xb
 2276 00ad 49       		.uleb128 0x49
 2277 00ae 13       		.uleb128 0x13
 2278 00af 00       		.byte	0
 2279 00b0 00       		.byte	0
 2280 00b1 10       		.uleb128 0x10
ARM GAS  /var/folders/2d/mv7wzxg53m36fj1flyq1gqvm0000gn/T//ccLwcWDi.s 			page 41


 2281 00b2 26       		.uleb128 0x26
 2282 00b3 00       		.byte	0
 2283 00b4 49       		.uleb128 0x49
 2284 00b5 13       		.uleb128 0x13
 2285 00b6 00       		.byte	0
 2286 00b7 00       		.byte	0
 2287 00b8 11       		.uleb128 0x11
 2288 00b9 0D       		.uleb128 0xd
 2289 00ba 00       		.byte	0
 2290 00bb 03       		.uleb128 0x3
 2291 00bc 0E       		.uleb128 0xe
 2292 00bd 3A       		.uleb128 0x3a
 2293 00be 0B       		.uleb128 0xb
 2294 00bf 3B       		.uleb128 0x3b
 2295 00c0 05       		.uleb128 0x5
 2296 00c1 49       		.uleb128 0x49
 2297 00c2 13       		.uleb128 0x13
 2298 00c3 38       		.uleb128 0x38
 2299 00c4 0B       		.uleb128 0xb
 2300 00c5 00       		.byte	0
 2301 00c6 00       		.byte	0
 2302 00c7 12       		.uleb128 0x12
 2303 00c8 16       		.uleb128 0x16
 2304 00c9 00       		.byte	0
 2305 00ca 03       		.uleb128 0x3
 2306 00cb 0E       		.uleb128 0xe
 2307 00cc 3A       		.uleb128 0x3a
 2308 00cd 0B       		.uleb128 0xb
 2309 00ce 3B       		.uleb128 0x3b
 2310 00cf 05       		.uleb128 0x5
 2311 00d0 49       		.uleb128 0x49
 2312 00d1 13       		.uleb128 0x13
 2313 00d2 00       		.byte	0
 2314 00d3 00       		.byte	0
 2315 00d4 13       		.uleb128 0x13
 2316 00d5 04       		.uleb128 0x4
 2317 00d6 01       		.byte	0x1
 2318 00d7 0B       		.uleb128 0xb
 2319 00d8 0B       		.uleb128 0xb
 2320 00d9 3A       		.uleb128 0x3a
 2321 00da 0B       		.uleb128 0xb
 2322 00db 3B       		.uleb128 0x3b
 2323 00dc 0B       		.uleb128 0xb
 2324 00dd 01       		.uleb128 0x1
 2325 00de 13       		.uleb128 0x13
 2326 00df 00       		.byte	0
 2327 00e0 00       		.byte	0
 2328 00e1 14       		.uleb128 0x14
 2329 00e2 28       		.uleb128 0x28
 2330 00e3 00       		.byte	0
 2331 00e4 03       		.uleb128 0x3
 2332 00e5 0E       		.uleb128 0xe
 2333 00e6 1C       		.uleb128 0x1c
 2334 00e7 0D       		.uleb128 0xd
 2335 00e8 00       		.byte	0
 2336 00e9 00       		.byte	0
 2337 00ea 15       		.uleb128 0x15
ARM GAS  /var/folders/2d/mv7wzxg53m36fj1flyq1gqvm0000gn/T//ccLwcWDi.s 			page 42


 2338 00eb 2E       		.uleb128 0x2e
 2339 00ec 01       		.byte	0x1
 2340 00ed 03       		.uleb128 0x3
 2341 00ee 0E       		.uleb128 0xe
 2342 00ef 3A       		.uleb128 0x3a
 2343 00f0 0B       		.uleb128 0xb
 2344 00f1 3B       		.uleb128 0x3b
 2345 00f2 0B       		.uleb128 0xb
 2346 00f3 27       		.uleb128 0x27
 2347 00f4 19       		.uleb128 0x19
 2348 00f5 11       		.uleb128 0x11
 2349 00f6 01       		.uleb128 0x1
 2350 00f7 12       		.uleb128 0x12
 2351 00f8 06       		.uleb128 0x6
 2352 00f9 40       		.uleb128 0x40
 2353 00fa 18       		.uleb128 0x18
 2354 00fb 9742     		.uleb128 0x2117
 2355 00fd 19       		.uleb128 0x19
 2356 00fe 01       		.uleb128 0x1
 2357 00ff 13       		.uleb128 0x13
 2358 0100 00       		.byte	0
 2359 0101 00       		.byte	0
 2360 0102 16       		.uleb128 0x16
 2361 0103 05       		.uleb128 0x5
 2362 0104 00       		.byte	0
 2363 0105 03       		.uleb128 0x3
 2364 0106 08       		.uleb128 0x8
 2365 0107 3A       		.uleb128 0x3a
 2366 0108 0B       		.uleb128 0xb
 2367 0109 3B       		.uleb128 0x3b
 2368 010a 0B       		.uleb128 0xb
 2369 010b 49       		.uleb128 0x49
 2370 010c 13       		.uleb128 0x13
 2371 010d 02       		.uleb128 0x2
 2372 010e 17       		.uleb128 0x17
 2373 010f 00       		.byte	0
 2374 0110 00       		.byte	0
 2375 0111 17       		.uleb128 0x17
 2376 0112 34       		.uleb128 0x34
 2377 0113 00       		.byte	0
 2378 0114 03       		.uleb128 0x3
 2379 0115 0E       		.uleb128 0xe
 2380 0116 3A       		.uleb128 0x3a
 2381 0117 0B       		.uleb128 0xb
 2382 0118 3B       		.uleb128 0x3b
 2383 0119 0B       		.uleb128 0xb
 2384 011a 49       		.uleb128 0x49
 2385 011b 13       		.uleb128 0x13
 2386 011c 02       		.uleb128 0x2
 2387 011d 17       		.uleb128 0x17
 2388 011e 00       		.byte	0
 2389 011f 00       		.byte	0
 2390 0120 18       		.uleb128 0x18
 2391 0121 0B       		.uleb128 0xb
 2392 0122 01       		.byte	0x1
 2393 0123 55       		.uleb128 0x55
 2394 0124 17       		.uleb128 0x17
ARM GAS  /var/folders/2d/mv7wzxg53m36fj1flyq1gqvm0000gn/T//ccLwcWDi.s 			page 43


 2395 0125 00       		.byte	0
 2396 0126 00       		.byte	0
 2397 0127 19       		.uleb128 0x19
 2398 0128 34       		.uleb128 0x34
 2399 0129 00       		.byte	0
 2400 012a 03       		.uleb128 0x3
 2401 012b 08       		.uleb128 0x8
 2402 012c 3A       		.uleb128 0x3a
 2403 012d 0B       		.uleb128 0xb
 2404 012e 3B       		.uleb128 0x3b
 2405 012f 0B       		.uleb128 0xb
 2406 0130 49       		.uleb128 0x49
 2407 0131 13       		.uleb128 0x13
 2408 0132 02       		.uleb128 0x2
 2409 0133 17       		.uleb128 0x17
 2410 0134 00       		.byte	0
 2411 0135 00       		.byte	0
 2412 0136 1A       		.uleb128 0x1a
 2413 0137 898201   		.uleb128 0x4109
 2414 013a 00       		.byte	0
 2415 013b 11       		.uleb128 0x11
 2416 013c 01       		.uleb128 0x1
 2417 013d 9542     		.uleb128 0x2115
 2418 013f 19       		.uleb128 0x19
 2419 0140 31       		.uleb128 0x31
 2420 0141 13       		.uleb128 0x13
 2421 0142 00       		.byte	0
 2422 0143 00       		.byte	0
 2423 0144 1B       		.uleb128 0x1b
 2424 0145 2E       		.uleb128 0x2e
 2425 0146 01       		.byte	0x1
 2426 0147 3F       		.uleb128 0x3f
 2427 0148 19       		.uleb128 0x19
 2428 0149 03       		.uleb128 0x3
 2429 014a 0E       		.uleb128 0xe
 2430 014b 3A       		.uleb128 0x3a
 2431 014c 0B       		.uleb128 0xb
 2432 014d 3B       		.uleb128 0x3b
 2433 014e 0B       		.uleb128 0xb
 2434 014f 27       		.uleb128 0x27
 2435 0150 19       		.uleb128 0x19
 2436 0151 11       		.uleb128 0x11
 2437 0152 01       		.uleb128 0x1
 2438 0153 12       		.uleb128 0x12
 2439 0154 06       		.uleb128 0x6
 2440 0155 40       		.uleb128 0x40
 2441 0156 18       		.uleb128 0x18
 2442 0157 9742     		.uleb128 0x2117
 2443 0159 19       		.uleb128 0x19
 2444 015a 01       		.uleb128 0x1
 2445 015b 13       		.uleb128 0x13
 2446 015c 00       		.byte	0
 2447 015d 00       		.byte	0
 2448 015e 1C       		.uleb128 0x1c
 2449 015f 05       		.uleb128 0x5
 2450 0160 00       		.byte	0
 2451 0161 03       		.uleb128 0x3
ARM GAS  /var/folders/2d/mv7wzxg53m36fj1flyq1gqvm0000gn/T//ccLwcWDi.s 			page 44


 2452 0162 0E       		.uleb128 0xe
 2453 0163 3A       		.uleb128 0x3a
 2454 0164 0B       		.uleb128 0xb
 2455 0165 3B       		.uleb128 0x3b
 2456 0166 0B       		.uleb128 0xb
 2457 0167 49       		.uleb128 0x49
 2458 0168 13       		.uleb128 0x13
 2459 0169 02       		.uleb128 0x2
 2460 016a 17       		.uleb128 0x17
 2461 016b 00       		.byte	0
 2462 016c 00       		.byte	0
 2463 016d 1D       		.uleb128 0x1d
 2464 016e 0B       		.uleb128 0xb
 2465 016f 01       		.byte	0x1
 2466 0170 55       		.uleb128 0x55
 2467 0171 17       		.uleb128 0x17
 2468 0172 01       		.uleb128 0x1
 2469 0173 13       		.uleb128 0x13
 2470 0174 00       		.byte	0
 2471 0175 00       		.byte	0
 2472 0176 1E       		.uleb128 0x1e
 2473 0177 898201   		.uleb128 0x4109
 2474 017a 01       		.byte	0x1
 2475 017b 11       		.uleb128 0x11
 2476 017c 01       		.uleb128 0x1
 2477 017d 9542     		.uleb128 0x2115
 2478 017f 19       		.uleb128 0x19
 2479 0180 31       		.uleb128 0x31
 2480 0181 13       		.uleb128 0x13
 2481 0182 00       		.byte	0
 2482 0183 00       		.byte	0
 2483 0184 1F       		.uleb128 0x1f
 2484 0185 8A8201   		.uleb128 0x410a
 2485 0188 00       		.byte	0
 2486 0189 02       		.uleb128 0x2
 2487 018a 18       		.uleb128 0x18
 2488 018b 9142     		.uleb128 0x2111
 2489 018d 18       		.uleb128 0x18
 2490 018e 00       		.byte	0
 2491 018f 00       		.byte	0
 2492 0190 20       		.uleb128 0x20
 2493 0191 2E       		.uleb128 0x2e
 2494 0192 01       		.byte	0x1
 2495 0193 3F       		.uleb128 0x3f
 2496 0194 19       		.uleb128 0x19
 2497 0195 03       		.uleb128 0x3
 2498 0196 0E       		.uleb128 0xe
 2499 0197 3A       		.uleb128 0x3a
 2500 0198 0B       		.uleb128 0xb
 2501 0199 3B       		.uleb128 0x3b
 2502 019a 0B       		.uleb128 0xb
 2503 019b 27       		.uleb128 0x27
 2504 019c 19       		.uleb128 0x19
 2505 019d 11       		.uleb128 0x11
 2506 019e 01       		.uleb128 0x1
 2507 019f 12       		.uleb128 0x12
 2508 01a0 06       		.uleb128 0x6
ARM GAS  /var/folders/2d/mv7wzxg53m36fj1flyq1gqvm0000gn/T//ccLwcWDi.s 			page 45


 2509 01a1 40       		.uleb128 0x40
 2510 01a2 18       		.uleb128 0x18
 2511 01a3 9642     		.uleb128 0x2116
 2512 01a5 19       		.uleb128 0x19
 2513 01a6 01       		.uleb128 0x1
 2514 01a7 13       		.uleb128 0x13
 2515 01a8 00       		.byte	0
 2516 01a9 00       		.byte	0
 2517 01aa 21       		.uleb128 0x21
 2518 01ab 898201   		.uleb128 0x4109
 2519 01ae 01       		.byte	0x1
 2520 01af 11       		.uleb128 0x11
 2521 01b0 01       		.uleb128 0x1
 2522 01b1 31       		.uleb128 0x31
 2523 01b2 13       		.uleb128 0x13
 2524 01b3 01       		.uleb128 0x1
 2525 01b4 13       		.uleb128 0x13
 2526 01b5 00       		.byte	0
 2527 01b6 00       		.byte	0
 2528 01b7 22       		.uleb128 0x22
 2529 01b8 898201   		.uleb128 0x4109
 2530 01bb 01       		.byte	0x1
 2531 01bc 11       		.uleb128 0x11
 2532 01bd 01       		.uleb128 0x1
 2533 01be 31       		.uleb128 0x31
 2534 01bf 13       		.uleb128 0x13
 2535 01c0 00       		.byte	0
 2536 01c1 00       		.byte	0
 2537 01c2 23       		.uleb128 0x23
 2538 01c3 2E       		.uleb128 0x2e
 2539 01c4 01       		.byte	0x1
 2540 01c5 3F       		.uleb128 0x3f
 2541 01c6 19       		.uleb128 0x19
 2542 01c7 03       		.uleb128 0x3
 2543 01c8 0E       		.uleb128 0xe
 2544 01c9 3A       		.uleb128 0x3a
 2545 01ca 0B       		.uleb128 0xb
 2546 01cb 3B       		.uleb128 0x3b
 2547 01cc 05       		.uleb128 0x5
 2548 01cd 27       		.uleb128 0x27
 2549 01ce 19       		.uleb128 0x19
 2550 01cf 49       		.uleb128 0x49
 2551 01d0 13       		.uleb128 0x13
 2552 01d1 11       		.uleb128 0x11
 2553 01d2 01       		.uleb128 0x1
 2554 01d3 12       		.uleb128 0x12
 2555 01d4 06       		.uleb128 0x6
 2556 01d5 40       		.uleb128 0x40
 2557 01d6 18       		.uleb128 0x18
 2558 01d7 9742     		.uleb128 0x2117
 2559 01d9 19       		.uleb128 0x19
 2560 01da 01       		.uleb128 0x1
 2561 01db 13       		.uleb128 0x13
 2562 01dc 00       		.byte	0
 2563 01dd 00       		.byte	0
 2564 01de 24       		.uleb128 0x24
 2565 01df 05       		.uleb128 0x5
ARM GAS  /var/folders/2d/mv7wzxg53m36fj1flyq1gqvm0000gn/T//ccLwcWDi.s 			page 46


 2566 01e0 00       		.byte	0
 2567 01e1 03       		.uleb128 0x3
 2568 01e2 0E       		.uleb128 0xe
 2569 01e3 3A       		.uleb128 0x3a
 2570 01e4 0B       		.uleb128 0xb
 2571 01e5 3B       		.uleb128 0x3b
 2572 01e6 05       		.uleb128 0x5
 2573 01e7 49       		.uleb128 0x49
 2574 01e8 13       		.uleb128 0x13
 2575 01e9 02       		.uleb128 0x2
 2576 01ea 17       		.uleb128 0x17
 2577 01eb 00       		.byte	0
 2578 01ec 00       		.byte	0
 2579 01ed 25       		.uleb128 0x25
 2580 01ee 05       		.uleb128 0x5
 2581 01ef 00       		.byte	0
 2582 01f0 03       		.uleb128 0x3
 2583 01f1 0E       		.uleb128 0xe
 2584 01f2 3A       		.uleb128 0x3a
 2585 01f3 0B       		.uleb128 0xb
 2586 01f4 3B       		.uleb128 0x3b
 2587 01f5 05       		.uleb128 0x5
 2588 01f6 49       		.uleb128 0x49
 2589 01f7 13       		.uleb128 0x13
 2590 01f8 02       		.uleb128 0x2
 2591 01f9 18       		.uleb128 0x18
 2592 01fa 00       		.byte	0
 2593 01fb 00       		.byte	0
 2594 01fc 26       		.uleb128 0x26
 2595 01fd 34       		.uleb128 0x34
 2596 01fe 00       		.byte	0
 2597 01ff 03       		.uleb128 0x3
 2598 0200 08       		.uleb128 0x8
 2599 0201 3A       		.uleb128 0x3a
 2600 0202 0B       		.uleb128 0xb
 2601 0203 3B       		.uleb128 0x3b
 2602 0204 05       		.uleb128 0x5
 2603 0205 49       		.uleb128 0x49
 2604 0206 13       		.uleb128 0x13
 2605 0207 02       		.uleb128 0x2
 2606 0208 18       		.uleb128 0x18
 2607 0209 00       		.byte	0
 2608 020a 00       		.byte	0
 2609 020b 27       		.uleb128 0x27
 2610 020c 34       		.uleb128 0x34
 2611 020d 00       		.byte	0
 2612 020e 03       		.uleb128 0x3
 2613 020f 0E       		.uleb128 0xe
 2614 0210 3A       		.uleb128 0x3a
 2615 0211 0B       		.uleb128 0xb
 2616 0212 3B       		.uleb128 0x3b
 2617 0213 05       		.uleb128 0x5
 2618 0214 49       		.uleb128 0x49
 2619 0215 13       		.uleb128 0x13
 2620 0216 02       		.uleb128 0x2
 2621 0217 17       		.uleb128 0x17
 2622 0218 00       		.byte	0
ARM GAS  /var/folders/2d/mv7wzxg53m36fj1flyq1gqvm0000gn/T//ccLwcWDi.s 			page 47


 2623 0219 00       		.byte	0
 2624 021a 28       		.uleb128 0x28
 2625 021b 2E       		.uleb128 0x2e
 2626 021c 01       		.byte	0x1
 2627 021d 3F       		.uleb128 0x3f
 2628 021e 19       		.uleb128 0x19
 2629 021f 03       		.uleb128 0x3
 2630 0220 0E       		.uleb128 0xe
 2631 0221 3A       		.uleb128 0x3a
 2632 0222 0B       		.uleb128 0xb
 2633 0223 3B       		.uleb128 0x3b
 2634 0224 0B       		.uleb128 0xb
 2635 0225 27       		.uleb128 0x27
 2636 0226 19       		.uleb128 0x19
 2637 0227 49       		.uleb128 0x49
 2638 0228 13       		.uleb128 0x13
 2639 0229 11       		.uleb128 0x11
 2640 022a 01       		.uleb128 0x1
 2641 022b 12       		.uleb128 0x12
 2642 022c 06       		.uleb128 0x6
 2643 022d 40       		.uleb128 0x40
 2644 022e 18       		.uleb128 0x18
 2645 022f 9742     		.uleb128 0x2117
 2646 0231 19       		.uleb128 0x19
 2647 0232 01       		.uleb128 0x1
 2648 0233 13       		.uleb128 0x13
 2649 0234 00       		.byte	0
 2650 0235 00       		.byte	0
 2651 0236 29       		.uleb128 0x29
 2652 0237 05       		.uleb128 0x5
 2653 0238 00       		.byte	0
 2654 0239 03       		.uleb128 0x3
 2655 023a 0E       		.uleb128 0xe
 2656 023b 3A       		.uleb128 0x3a
 2657 023c 0B       		.uleb128 0xb
 2658 023d 3B       		.uleb128 0x3b
 2659 023e 0B       		.uleb128 0xb
 2660 023f 49       		.uleb128 0x49
 2661 0240 13       		.uleb128 0x13
 2662 0241 02       		.uleb128 0x2
 2663 0242 18       		.uleb128 0x18
 2664 0243 00       		.byte	0
 2665 0244 00       		.byte	0
 2666 0245 2A       		.uleb128 0x2a
 2667 0246 34       		.uleb128 0x34
 2668 0247 00       		.byte	0
 2669 0248 03       		.uleb128 0x3
 2670 0249 08       		.uleb128 0x8
 2671 024a 3A       		.uleb128 0x3a
 2672 024b 0B       		.uleb128 0xb
 2673 024c 3B       		.uleb128 0x3b
 2674 024d 0B       		.uleb128 0xb
 2675 024e 49       		.uleb128 0x49
 2676 024f 13       		.uleb128 0x13
 2677 0250 02       		.uleb128 0x2
 2678 0251 18       		.uleb128 0x18
 2679 0252 00       		.byte	0
ARM GAS  /var/folders/2d/mv7wzxg53m36fj1flyq1gqvm0000gn/T//ccLwcWDi.s 			page 48


 2680 0253 00       		.byte	0
 2681 0254 2B       		.uleb128 0x2b
 2682 0255 34       		.uleb128 0x34
 2683 0256 00       		.byte	0
 2684 0257 03       		.uleb128 0x3
 2685 0258 0E       		.uleb128 0xe
 2686 0259 3A       		.uleb128 0x3a
 2687 025a 0B       		.uleb128 0xb
 2688 025b 3B       		.uleb128 0x3b
 2689 025c 0B       		.uleb128 0xb
 2690 025d 49       		.uleb128 0x49
 2691 025e 13       		.uleb128 0x13
 2692 025f 3F       		.uleb128 0x3f
 2693 0260 19       		.uleb128 0x19
 2694 0261 3C       		.uleb128 0x3c
 2695 0262 19       		.uleb128 0x19
 2696 0263 00       		.byte	0
 2697 0264 00       		.byte	0
 2698 0265 2C       		.uleb128 0x2c
 2699 0266 34       		.uleb128 0x34
 2700 0267 00       		.byte	0
 2701 0268 03       		.uleb128 0x3
 2702 0269 0E       		.uleb128 0xe
 2703 026a 3A       		.uleb128 0x3a
 2704 026b 0B       		.uleb128 0xb
 2705 026c 3B       		.uleb128 0x3b
 2706 026d 0B       		.uleb128 0xb
 2707 026e 49       		.uleb128 0x49
 2708 026f 13       		.uleb128 0x13
 2709 0270 3F       		.uleb128 0x3f
 2710 0271 19       		.uleb128 0x19
 2711 0272 02       		.uleb128 0x2
 2712 0273 18       		.uleb128 0x18
 2713 0274 00       		.byte	0
 2714 0275 00       		.byte	0
 2715 0276 2D       		.uleb128 0x2d
 2716 0277 2E       		.uleb128 0x2e
 2717 0278 01       		.byte	0x1
 2718 0279 3F       		.uleb128 0x3f
 2719 027a 19       		.uleb128 0x19
 2720 027b 03       		.uleb128 0x3
 2721 027c 0E       		.uleb128 0xe
 2722 027d 3A       		.uleb128 0x3a
 2723 027e 0B       		.uleb128 0xb
 2724 027f 3B       		.uleb128 0x3b
 2725 0280 0B       		.uleb128 0xb
 2726 0281 27       		.uleb128 0x27
 2727 0282 19       		.uleb128 0x19
 2728 0283 49       		.uleb128 0x49
 2729 0284 13       		.uleb128 0x13
 2730 0285 3C       		.uleb128 0x3c
 2731 0286 19       		.uleb128 0x19
 2732 0287 01       		.uleb128 0x1
 2733 0288 13       		.uleb128 0x13
 2734 0289 00       		.byte	0
 2735 028a 00       		.byte	0
 2736 028b 2E       		.uleb128 0x2e
ARM GAS  /var/folders/2d/mv7wzxg53m36fj1flyq1gqvm0000gn/T//ccLwcWDi.s 			page 49


 2737 028c 2E       		.uleb128 0x2e
 2738 028d 01       		.byte	0x1
 2739 028e 3F       		.uleb128 0x3f
 2740 028f 19       		.uleb128 0x19
 2741 0290 03       		.uleb128 0x3
 2742 0291 0E       		.uleb128 0xe
 2743 0292 3A       		.uleb128 0x3a
 2744 0293 0B       		.uleb128 0xb
 2745 0294 3B       		.uleb128 0x3b
 2746 0295 0B       		.uleb128 0xb
 2747 0296 27       		.uleb128 0x27
 2748 0297 19       		.uleb128 0x19
 2749 0298 3C       		.uleb128 0x3c
 2750 0299 19       		.uleb128 0x19
 2751 029a 01       		.uleb128 0x1
 2752 029b 13       		.uleb128 0x13
 2753 029c 00       		.byte	0
 2754 029d 00       		.byte	0
 2755 029e 2F       		.uleb128 0x2f
 2756 029f 2E       		.uleb128 0x2e
 2757 02a0 01       		.byte	0x1
 2758 02a1 3F       		.uleb128 0x3f
 2759 02a2 19       		.uleb128 0x19
 2760 02a3 03       		.uleb128 0x3
 2761 02a4 0E       		.uleb128 0xe
 2762 02a5 3A       		.uleb128 0x3a
 2763 02a6 0B       		.uleb128 0xb
 2764 02a7 3B       		.uleb128 0x3b
 2765 02a8 05       		.uleb128 0x5
 2766 02a9 27       		.uleb128 0x27
 2767 02aa 19       		.uleb128 0x19
 2768 02ab 3C       		.uleb128 0x3c
 2769 02ac 19       		.uleb128 0x19
 2770 02ad 01       		.uleb128 0x1
 2771 02ae 13       		.uleb128 0x13
 2772 02af 00       		.byte	0
 2773 02b0 00       		.byte	0
 2774 02b1 30       		.uleb128 0x30
 2775 02b2 2E       		.uleb128 0x2e
 2776 02b3 01       		.byte	0x1
 2777 02b4 3F       		.uleb128 0x3f
 2778 02b5 19       		.uleb128 0x19
 2779 02b6 03       		.uleb128 0x3
 2780 02b7 0E       		.uleb128 0xe
 2781 02b8 3A       		.uleb128 0x3a
 2782 02b9 0B       		.uleb128 0xb
 2783 02ba 3B       		.uleb128 0x3b
 2784 02bb 0B       		.uleb128 0xb
 2785 02bc 27       		.uleb128 0x27
 2786 02bd 19       		.uleb128 0x19
 2787 02be 3C       		.uleb128 0x3c
 2788 02bf 19       		.uleb128 0x19
 2789 02c0 00       		.byte	0
 2790 02c1 00       		.byte	0
 2791 02c2 00       		.byte	0
 2792              		.section	.debug_loc,"",%progbits
 2793              	.Ldebug_loc0:
ARM GAS  /var/folders/2d/mv7wzxg53m36fj1flyq1gqvm0000gn/T//ccLwcWDi.s 			page 50


 2794              	.LLST0:
 2795 0000 00000000 		.4byte	.LVL0
 2796 0004 18000000 		.4byte	.LVL3
 2797 0008 0100     		.2byte	0x1
 2798 000a 50       		.byte	0x50
 2799 000b 18000000 		.4byte	.LVL3
 2800 000f 6F000000 		.4byte	.LVL5-1
 2801 0013 0100     		.2byte	0x1
 2802 0015 53       		.byte	0x53
 2803 0016 6F000000 		.4byte	.LVL5-1
 2804 001a 74000000 		.4byte	.LFE7
 2805 001e 0400     		.2byte	0x4
 2806 0020 F3       		.byte	0xf3
 2807 0021 01       		.uleb128 0x1
 2808 0022 50       		.byte	0x50
 2809 0023 9F       		.byte	0x9f
 2810 0024 00000000 		.4byte	0
 2811 0028 00000000 		.4byte	0
 2812              	.LLST1:
 2813 002c 08000000 		.4byte	.LVL1
 2814 0030 18000000 		.4byte	.LVL3
 2815 0034 0100     		.2byte	0x1
 2816 0036 50       		.byte	0x50
 2817 0037 18000000 		.4byte	.LVL3
 2818 003b 6F000000 		.4byte	.LVL5-1
 2819 003f 0100     		.2byte	0x1
 2820 0041 53       		.byte	0x53
 2821 0042 6F000000 		.4byte	.LVL5-1
 2822 0046 74000000 		.4byte	.LFE7
 2823 004a 0400     		.2byte	0x4
 2824 004c F3       		.byte	0xf3
 2825 004d 01       		.uleb128 0x1
 2826 004e 50       		.byte	0x50
 2827 004f 9F       		.byte	0x9f
 2828 0050 00000000 		.4byte	0
 2829 0054 00000000 		.4byte	0
 2830              	.LLST2:
 2831 0058 14000000 		.4byte	.LVL2
 2832 005c 6F000000 		.4byte	.LVL5-1
 2833 0060 0100     		.2byte	0x1
 2834 0062 52       		.byte	0x52
 2835 0063 00000000 		.4byte	0
 2836 0067 00000000 		.4byte	0
 2837              	.LLST3:
 2838 006b 5C000000 		.4byte	.LVL4
 2839 006f 6F000000 		.4byte	.LVL5-1
 2840 0073 0100     		.2byte	0x1
 2841 0075 51       		.byte	0x51
 2842 0076 00000000 		.4byte	0
 2843 007a 00000000 		.4byte	0
 2844              	.LLST4:
 2845 007e 00000000 		.4byte	.LVL6
 2846 0082 34000000 		.4byte	.LVL13
 2847 0086 0100     		.2byte	0x1
 2848 0088 50       		.byte	0x50
 2849 0089 34000000 		.4byte	.LVL13
 2850 008d 3C000000 		.4byte	.LVL14
ARM GAS  /var/folders/2d/mv7wzxg53m36fj1flyq1gqvm0000gn/T//ccLwcWDi.s 			page 51


 2851 0091 0400     		.2byte	0x4
 2852 0093 F3       		.byte	0xf3
 2853 0094 01       		.uleb128 0x1
 2854 0095 50       		.byte	0x50
 2855 0096 9F       		.byte	0x9f
 2856 0097 3C000000 		.4byte	.LVL14
 2857 009b C0000000 		.4byte	.LVL17
 2858 009f 0100     		.2byte	0x1
 2859 00a1 50       		.byte	0x50
 2860 00a2 C0000000 		.4byte	.LVL17
 2861 00a6 C8000000 		.4byte	.LVL18
 2862 00aa 0400     		.2byte	0x4
 2863 00ac F3       		.byte	0xf3
 2864 00ad 01       		.uleb128 0x1
 2865 00ae 50       		.byte	0x50
 2866 00af 9F       		.byte	0x9f
 2867 00b0 C8000000 		.4byte	.LVL18
 2868 00b4 64010000 		.4byte	.LFE8
 2869 00b8 0100     		.2byte	0x1
 2870 00ba 50       		.byte	0x50
 2871 00bb 00000000 		.4byte	0
 2872 00bf 00000000 		.4byte	0
 2873              	.LLST5:
 2874 00c3 04000000 		.4byte	.LVL7
 2875 00c7 28000000 		.4byte	.LVL11
 2876 00cb 0100     		.2byte	0x1
 2877 00cd 52       		.byte	0x52
 2878 00ce 28000000 		.4byte	.LVL11
 2879 00d2 30000000 		.4byte	.LVL12
 2880 00d6 0200     		.2byte	0x2
 2881 00d8 70       		.byte	0x70
 2882 00d9 0C       		.sleb128 12
 2883 00da 3C000000 		.4byte	.LVL14
 2884 00de C7000000 		.4byte	.LVL18-1
 2885 00e2 0100     		.2byte	0x1
 2886 00e4 52       		.byte	0x52
 2887 00e5 C8000000 		.4byte	.LVL18
 2888 00e9 64010000 		.4byte	.LFE8
 2889 00ed 0100     		.2byte	0x1
 2890 00ef 52       		.byte	0x52
 2891 00f0 00000000 		.4byte	0
 2892 00f4 00000000 		.4byte	0
 2893              	.LLST6:
 2894 00f8 0C000000 		.4byte	.LVL8
 2895 00fc 24000000 		.4byte	.LVL10
 2896 0100 0100     		.2byte	0x1
 2897 0102 51       		.byte	0x51
 2898 0103 3C000000 		.4byte	.LVL14
 2899 0107 54000000 		.4byte	.LVL15
 2900 010b 0100     		.2byte	0x1
 2901 010d 51       		.byte	0x51
 2902 010e C8000000 		.4byte	.LVL18
 2903 0112 F8000000 		.4byte	.LVL19
 2904 0116 0100     		.2byte	0x1
 2905 0118 51       		.byte	0x51
 2906 0119 14010000 		.4byte	.LVL20
 2907 011d 34010000 		.4byte	.LVL21
ARM GAS  /var/folders/2d/mv7wzxg53m36fj1flyq1gqvm0000gn/T//ccLwcWDi.s 			page 52


 2908 0121 0100     		.2byte	0x1
 2909 0123 51       		.byte	0x51
 2910 0124 00000000 		.4byte	0
 2911 0128 00000000 		.4byte	0
 2912              	.LLST7:
 2913 012c 20000000 		.4byte	.LVL9
 2914 0130 3B000000 		.4byte	.LVL14-1
 2915 0134 0100     		.2byte	0x1
 2916 0136 53       		.byte	0x53
 2917 0137 00000000 		.4byte	0
 2918 013b 00000000 		.4byte	0
 2919              	.LLST8:
 2920 013f B4000000 		.4byte	.LVL16
 2921 0143 C7000000 		.4byte	.LVL18-1
 2922 0147 0100     		.2byte	0x1
 2923 0149 53       		.byte	0x53
 2924 014a 00000000 		.4byte	0
 2925 014e 00000000 		.4byte	0
 2926              	.LLST9:
 2927 0152 00000000 		.4byte	.LVL23
 2928 0156 10000000 		.4byte	.LVL24
 2929 015a 0100     		.2byte	0x1
 2930 015c 50       		.byte	0x50
 2931 015d 10000000 		.4byte	.LVL24
 2932 0161 68000000 		.4byte	.LFE10
 2933 0165 0100     		.2byte	0x1
 2934 0167 54       		.byte	0x54
 2935 0168 00000000 		.4byte	0
 2936 016c 00000000 		.4byte	0
 2937              	.LLST10:
 2938 0170 2C000000 		.4byte	.LVL27
 2939 0174 3F000000 		.4byte	.LVL28-1
 2940 0178 0100     		.2byte	0x1
 2941 017a 51       		.byte	0x51
 2942 017b 58000000 		.4byte	.LVL29
 2943 017f 68000000 		.4byte	.LFE10
 2944 0183 0100     		.2byte	0x1
 2945 0185 51       		.byte	0x51
 2946 0186 00000000 		.4byte	0
 2947 018a 00000000 		.4byte	0
 2948              	.LLST11:
 2949 018e 00000000 		.4byte	.LVL30
 2950 0192 10000000 		.4byte	.LVL31
 2951 0196 0100     		.2byte	0x1
 2952 0198 50       		.byte	0x50
 2953 0199 10000000 		.4byte	.LVL31
 2954 019d 34000000 		.4byte	.LFE11
 2955 01a1 0100     		.2byte	0x1
 2956 01a3 54       		.byte	0x54
 2957 01a4 00000000 		.4byte	0
 2958 01a8 00000000 		.4byte	0
 2959              	.LLST12:
 2960 01ac 00000000 		.4byte	.LVL34
 2961 01b0 28000000 		.4byte	.LVL35
 2962 01b4 0100     		.2byte	0x1
 2963 01b6 50       		.byte	0x50
 2964 01b7 28000000 		.4byte	.LVL35
ARM GAS  /var/folders/2d/mv7wzxg53m36fj1flyq1gqvm0000gn/T//ccLwcWDi.s 			page 53


 2965 01bb BC000000 		.4byte	.LVL45
 2966 01bf 0100     		.2byte	0x1
 2967 01c1 54       		.byte	0x54
 2968 01c2 BC000000 		.4byte	.LVL45
 2969 01c6 CC000000 		.4byte	.LFE13
 2970 01ca 0400     		.2byte	0x4
 2971 01cc F3       		.byte	0xf3
 2972 01cd 01       		.uleb128 0x1
 2973 01ce 50       		.byte	0x50
 2974 01cf 9F       		.byte	0x9f
 2975 01d0 00000000 		.4byte	0
 2976 01d4 00000000 		.4byte	0
 2977              	.LLST13:
 2978 01d8 00000000 		.4byte	.LVL34
 2979 01dc 2C000000 		.4byte	.LVL36
 2980 01e0 0100     		.2byte	0x1
 2981 01e2 51       		.byte	0x51
 2982 01e3 2C000000 		.4byte	.LVL36
 2983 01e7 CC000000 		.4byte	.LFE13
 2984 01eb 0400     		.2byte	0x4
 2985 01ed F3       		.byte	0xf3
 2986 01ee 01       		.uleb128 0x1
 2987 01ef 51       		.byte	0x51
 2988 01f0 9F       		.byte	0x9f
 2989 01f1 00000000 		.4byte	0
 2990 01f5 00000000 		.4byte	0
 2991              	.LLST14:
 2992 01f9 00000000 		.4byte	.LVL34
 2993 01fd 30000000 		.4byte	.LVL37
 2994 0201 0100     		.2byte	0x1
 2995 0203 52       		.byte	0x52
 2996 0204 30000000 		.4byte	.LVL37
 2997 0208 BC000000 		.4byte	.LVL45
 2998 020c 0100     		.2byte	0x1
 2999 020e 58       		.byte	0x58
 3000 020f BC000000 		.4byte	.LVL45
 3001 0213 CC000000 		.4byte	.LFE13
 3002 0217 0400     		.2byte	0x4
 3003 0219 F3       		.byte	0xf3
 3004 021a 01       		.uleb128 0x1
 3005 021b 52       		.byte	0x52
 3006 021c 9F       		.byte	0x9f
 3007 021d 00000000 		.4byte	0
 3008 0221 00000000 		.4byte	0
 3009              	.LLST15:
 3010 0225 00000000 		.4byte	.LVL34
 3011 0229 34000000 		.4byte	.LVL38
 3012 022d 0100     		.2byte	0x1
 3013 022f 53       		.byte	0x53
 3014 0230 34000000 		.4byte	.LVL38
 3015 0234 7C000000 		.4byte	.LVL41
 3016 0238 0100     		.2byte	0x1
 3017 023a 56       		.byte	0x56
 3018 023b 7C000000 		.4byte	.LVL41
 3019 023f 8B000000 		.4byte	.LVL43-1
 3020 0243 0200     		.2byte	0x2
 3021 0245 74       		.byte	0x74
ARM GAS  /var/folders/2d/mv7wzxg53m36fj1flyq1gqvm0000gn/T//ccLwcWDi.s 			page 54


 3022 0246 38       		.sleb128 56
 3023 0247 8B000000 		.4byte	.LVL43-1
 3024 024b CC000000 		.4byte	.LFE13
 3025 024f 0400     		.2byte	0x4
 3026 0251 F3       		.byte	0xf3
 3027 0252 01       		.uleb128 0x1
 3028 0253 53       		.byte	0x53
 3029 0254 9F       		.byte	0x9f
 3030 0255 00000000 		.4byte	0
 3031 0259 00000000 		.4byte	0
 3032              	.LLST16:
 3033 025d 40000000 		.4byte	.LVL40
 3034 0261 84000000 		.4byte	.LVL42
 3035 0265 0100     		.2byte	0x1
 3036 0267 53       		.byte	0x53
 3037 0268 84000000 		.4byte	.LVL42
 3038 026c 8B000000 		.4byte	.LVL43-1
 3039 0270 0200     		.2byte	0x2
 3040 0272 74       		.byte	0x74
 3041 0273 0C       		.sleb128 12
 3042 0274 00000000 		.4byte	0
 3043 0278 00000000 		.4byte	0
 3044              	.LLST17:
 3045 027c 00000000 		.4byte	.LVL46
 3046 0280 30000000 		.4byte	.LVL47
 3047 0284 0100     		.2byte	0x1
 3048 0286 50       		.byte	0x50
 3049 0287 30000000 		.4byte	.LVL47
 3050 028b 30010000 		.4byte	.LVL63
 3051 028f 0100     		.2byte	0x1
 3052 0291 54       		.byte	0x54
 3053 0292 30010000 		.4byte	.LVL63
 3054 0296 3C010000 		.4byte	.LFE12
 3055 029a 0400     		.2byte	0x4
 3056 029c F3       		.byte	0xf3
 3057 029d 01       		.uleb128 0x1
 3058 029e 50       		.byte	0x50
 3059 029f 9F       		.byte	0x9f
 3060 02a0 00000000 		.4byte	0
 3061 02a4 00000000 		.4byte	0
 3062              	.LLST18:
 3063 02a8 00000000 		.4byte	.LVL46
 3064 02ac 34000000 		.4byte	.LVL48
 3065 02b0 0100     		.2byte	0x1
 3066 02b2 51       		.byte	0x51
 3067 02b3 34000000 		.4byte	.LVL48
 3068 02b7 3C010000 		.4byte	.LFE12
 3069 02bb 0400     		.2byte	0x4
 3070 02bd F3       		.byte	0xf3
 3071 02be 01       		.uleb128 0x1
 3072 02bf 51       		.byte	0x51
 3073 02c0 9F       		.byte	0x9f
 3074 02c1 00000000 		.4byte	0
 3075 02c5 00000000 		.4byte	0
 3076              	.LLST19:
 3077 02c9 00000000 		.4byte	.LVL46
 3078 02cd 38000000 		.4byte	.LVL49
ARM GAS  /var/folders/2d/mv7wzxg53m36fj1flyq1gqvm0000gn/T//ccLwcWDi.s 			page 55


 3079 02d1 0100     		.2byte	0x1
 3080 02d3 52       		.byte	0x52
 3081 02d4 38000000 		.4byte	.LVL49
 3082 02d8 30010000 		.4byte	.LVL63
 3083 02dc 0100     		.2byte	0x1
 3084 02de 5A       		.byte	0x5a
 3085 02df 30010000 		.4byte	.LVL63
 3086 02e3 3C010000 		.4byte	.LFE12
 3087 02e7 0400     		.2byte	0x4
 3088 02e9 F3       		.byte	0xf3
 3089 02ea 01       		.uleb128 0x1
 3090 02eb 52       		.byte	0x52
 3091 02ec 9F       		.byte	0x9f
 3092 02ed 00000000 		.4byte	0
 3093 02f1 00000000 		.4byte	0
 3094              	.LLST20:
 3095 02f5 00000000 		.4byte	.LVL46
 3096 02f9 3C000000 		.4byte	.LVL50
 3097 02fd 0100     		.2byte	0x1
 3098 02ff 53       		.byte	0x53
 3099 0300 3C000000 		.4byte	.LVL50
 3100 0304 8C000000 		.4byte	.LVL53
 3101 0308 0100     		.2byte	0x1
 3102 030a 59       		.byte	0x59
 3103 030b 8C000000 		.4byte	.LVL53
 3104 030f 9B000000 		.4byte	.LVL55-1
 3105 0313 0200     		.2byte	0x2
 3106 0315 74       		.byte	0x74
 3107 0316 2C       		.sleb128 44
 3108 0317 9B000000 		.4byte	.LVL55-1
 3109 031b 3C010000 		.4byte	.LFE12
 3110 031f 0400     		.2byte	0x4
 3111 0321 F3       		.byte	0xf3
 3112 0322 01       		.uleb128 0x1
 3113 0323 53       		.byte	0x53
 3114 0324 9F       		.byte	0x9f
 3115 0325 00000000 		.4byte	0
 3116 0329 00000000 		.4byte	0
 3117              	.LLST21:
 3118 032d 48000000 		.4byte	.LVL52
 3119 0331 94000000 		.4byte	.LVL54
 3120 0335 0100     		.2byte	0x1
 3121 0337 53       		.byte	0x53
 3122 0338 94000000 		.4byte	.LVL54
 3123 033c 9B000000 		.4byte	.LVL55-1
 3124 0340 0200     		.2byte	0x2
 3125 0342 74       		.byte	0x74
 3126 0343 0C       		.sleb128 12
 3127 0344 00000000 		.4byte	0
 3128 0348 00000000 		.4byte	0
 3129              	.LLST22:
 3130 034c C4000000 		.4byte	.LVL57
 3131 0350 0C010000 		.4byte	.LVL60
 3132 0354 0100     		.2byte	0x1
 3133 0356 59       		.byte	0x59
 3134 0357 0C010000 		.4byte	.LVL60
 3135 035b 20010000 		.4byte	.LVL61
ARM GAS  /var/folders/2d/mv7wzxg53m36fj1flyq1gqvm0000gn/T//ccLwcWDi.s 			page 56


 3136 035f 0100     		.2byte	0x1
 3137 0361 50       		.byte	0x50
 3138 0362 20010000 		.4byte	.LVL61
 3139 0366 30010000 		.4byte	.LVL63
 3140 036a 0100     		.2byte	0x1
 3141 036c 59       		.byte	0x59
 3142 036d 30010000 		.4byte	.LVL63
 3143 0371 3C010000 		.4byte	.LFE12
 3144 0375 0100     		.2byte	0x1
 3145 0377 50       		.byte	0x50
 3146 0378 00000000 		.4byte	0
 3147 037c 00000000 		.4byte	0
 3148              		.section	.debug_aranges,"",%progbits
 3149 0000 4C000000 		.4byte	0x4c
 3150 0004 0200     		.2byte	0x2
 3151 0006 00000000 		.4byte	.Ldebug_info0
 3152 000a 04       		.byte	0x4
 3153 000b 00       		.byte	0
 3154 000c 0000     		.2byte	0
 3155 000e 0000     		.2byte	0
 3156 0010 00000000 		.4byte	.LFB7
 3157 0014 74000000 		.4byte	.LFE7-.LFB7
 3158 0018 00000000 		.4byte	.LFB8
 3159 001c 64010000 		.4byte	.LFE8-.LFB8
 3160 0020 00000000 		.4byte	.LFB9
 3161 0024 1C000000 		.4byte	.LFE9-.LFB9
 3162 0028 00000000 		.4byte	.LFB10
 3163 002c 68000000 		.4byte	.LFE10-.LFB10
 3164 0030 00000000 		.4byte	.LFB11
 3165 0034 34000000 		.4byte	.LFE11-.LFB11
 3166 0038 00000000 		.4byte	.LFB13
 3167 003c CC000000 		.4byte	.LFE13-.LFB13
 3168 0040 00000000 		.4byte	.LFB12
 3169 0044 3C010000 		.4byte	.LFE12-.LFB12
 3170 0048 00000000 		.4byte	0
 3171 004c 00000000 		.4byte	0
 3172              		.section	.debug_ranges,"",%progbits
 3173              	.Ldebug_ranges0:
 3174 0000 10000000 		.4byte	.LBB2
 3175 0004 18000000 		.4byte	.LBE2
 3176 0008 1C000000 		.4byte	.LBB3
 3177 000c 68000000 		.4byte	.LBE3
 3178 0010 6C000000 		.4byte	.LBB4
 3179 0014 74000000 		.4byte	.LBE4
 3180 0018 00000000 		.4byte	0
 3181 001c 00000000 		.4byte	0
 3182 0020 20000000 		.4byte	.LBB5
 3183 0024 34000000 		.4byte	.LBE5
 3184 0028 38000000 		.4byte	.LBB6
 3185 002c 3C000000 		.4byte	.LBE6
 3186 0030 00000000 		.4byte	0
 3187 0034 00000000 		.4byte	0
 3188 0038 B4000000 		.4byte	.LBB7
 3189 003c C0000000 		.4byte	.LBE7
 3190 0040 C4000000 		.4byte	.LBB8
 3191 0044 C8000000 		.4byte	.LBE8
 3192 0048 00000000 		.4byte	0
ARM GAS  /var/folders/2d/mv7wzxg53m36fj1flyq1gqvm0000gn/T//ccLwcWDi.s 			page 57


 3193 004c 00000000 		.4byte	0
 3194 0050 00000000 		.4byte	.LFB7
 3195 0054 74000000 		.4byte	.LFE7
 3196 0058 00000000 		.4byte	.LFB8
 3197 005c 64010000 		.4byte	.LFE8
 3198 0060 00000000 		.4byte	.LFB9
 3199 0064 1C000000 		.4byte	.LFE9
 3200 0068 00000000 		.4byte	.LFB10
 3201 006c 68000000 		.4byte	.LFE10
 3202 0070 00000000 		.4byte	.LFB11
 3203 0074 34000000 		.4byte	.LFE11
 3204 0078 00000000 		.4byte	.LFB13
 3205 007c CC000000 		.4byte	.LFE13
 3206 0080 00000000 		.4byte	.LFB12
 3207 0084 3C010000 		.4byte	.LFE12
 3208 0088 00000000 		.4byte	0
 3209 008c 00000000 		.4byte	0
 3210              		.section	.debug_line,"",%progbits
 3211              	.Ldebug_line0:
 3212 0000 6C030000 		.section	.debug_str,"MS",%progbits,1
 3212      02001502 
 3212      00000201 
 3212      FB0E0D00 
 3212      01010101 
 3213              	.LASF41:
 3214 0000 705F6D73 		.ascii	"p_msg\000"
 3214      6700
 3215              	.LASF2:
 3216 0006 73697A65 		.ascii	"size_t\000"
 3216      5F7400
 3217              	.LASF68:
 3218 000d 7264796D 		.ascii	"rdymsg\000"
 3218      736700
 3219              	.LASF3:
 3220 0014 5F5F7569 		.ascii	"__uint8_t\000"
 3220      6E74385F 
 3220      7400
 3221              	.LASF74:
 3222 001e 62736364 		.ascii	"bscdevice_t\000"
 3222      65766963 
 3222      655F7400 
 3223              	.LASF9:
 3224 002a 6C6F6E67 		.ascii	"long int\000"
 3224      20696E74 
 3224      00
 3225              	.LASF13:
 3226 0033 6C6F6E67 		.ascii	"long long unsigned int\000"
 3226      206C6F6E 
 3226      6720756E 
 3226      7369676E 
 3226      65642069 
 3227              	.LASF97:
 3228 004a 61646472 		.ascii	"addr\000"
 3228      00
 3229              	.LASF69:
 3230 004f 65786974 		.ascii	"exitcode\000"
 3230      636F6465 
ARM GAS  /var/folders/2d/mv7wzxg53m36fj1flyq1gqvm0000gn/T//ccLwcWDi.s 			page 58


 3230      00
 3231              	.LASF101:
 3232 0058 72786275 		.ascii	"rxbuf\000"
 3232      6600
 3233              	.LASF79:
 3234 005e 64617461 		.ascii	"dataFifo\000"
 3234      4669666F 
 3234      00
 3235              	.LASF29:
 3236 0067 705F7072 		.ascii	"p_prio\000"
 3236      696F00
 3237              	.LASF94:
 3238 006e 64657669 		.ascii	"device\000"
 3238      636500
 3239              	.LASF12:
 3240 0075 6C6F6E67 		.ascii	"long long int\000"
 3240      206C6F6E 
 3240      6720696E 
 3240      7400
 3241              	.LASF1:
 3242 0083 7369676E 		.ascii	"signed char\000"
 3242      65642063 
 3242      68617200 
 3243              	.LASF65:
 3244 008f 6D5F7175 		.ascii	"m_queue\000"
 3244      65756500 
 3245              	.LASF115:
 3246 0097 6932635F 		.ascii	"i2c_lld_master_receive_timeout\000"
 3246      6C6C645F 
 3246      6D617374 
 3246      65725F72 
 3246      65636569 
 3247              	.LASF116:
 3248 00b6 6932635F 		.ascii	"i2c_lld_master_transmit_timeout\000"
 3248      6C6C645F 
 3248      6D617374 
 3248      65725F74 
 3248      72616E73 
 3249              	.LASF21:
 3250 00d6 74736C69 		.ascii	"tslices_t\000"
 3250      6365735F 
 3250      7400
 3251              	.LASF83:
 3252 00e0 4932435F 		.ascii	"I2C_UNINIT\000"
 3252      554E494E 
 3252      495400
 3253              	.LASF105:
 3254 00eb 69326361 		.ascii	"i2caddr_t\000"
 3254      6464725F 
 3254      7400
 3255              	.LASF91:
 3256 00f5 73746174 		.ascii	"state\000"
 3256      6500
 3257              	.LASF126:
 3258 00fb 2F557365 		.ascii	"/Users/arnaubena/ChibiOS-RPi/demos/led\000"
 3258      72732F61 
 3258      726E6175 
ARM GAS  /var/folders/2d/mv7wzxg53m36fj1flyq1gqvm0000gn/T//ccLwcWDi.s 			page 59


 3258      62656E61 
 3258      2F436869 
 3259              	.LASF19:
 3260 0122 74737461 		.ascii	"tstate_t\000"
 3260      74655F74 
 3260      00
 3261              	.LASF96:
 3262 012b 74687265 		.ascii	"thread\000"
 3262      616400
 3263              	.LASF81:
 3264 0132 64617461 		.ascii	"dataDelay\000"
 3264      44656C61 
 3264      7900
 3265              	.LASF15:
 3266 013c 75696E74 		.ascii	"uint16_t\000"
 3266      31365F74 
 3266      00
 3267              	.LASF31:
 3268 0145 705F6E65 		.ascii	"p_newer\000"
 3268      77657200 
 3269              	.LASF75:
 3270 014d 636F6E74 		.ascii	"control\000"
 3270      726F6C00 
 3271              	.LASF10:
 3272 0155 5F5F7569 		.ascii	"__uint32_t\000"
 3272      6E743332 
 3272      5F7400
 3273              	.LASF47:
 3274 0160 72656761 		.ascii	"regarm_t\000"
 3274      726D5F74 
 3274      00
 3275              	.LASF53:
 3276 0169 76745F70 		.ascii	"vt_prev\000"
 3276      72657600 
 3277              	.LASF78:
 3278 0171 736C6176 		.ascii	"slaveAddress\000"
 3278      65416464 
 3278      72657373 
 3278      00
 3279              	.LASF118:
 3280 017e 49324330 		.ascii	"I2C0\000"
 3280      00
 3281              	.LASF119:
 3282 0183 49324331 		.ascii	"I2C1\000"
 3282      00
 3283              	.LASF0:
 3284 0188 756E7369 		.ascii	"unsigned int\000"
 3284      676E6564 
 3284      20696E74 
 3284      00
 3285              	.LASF52:
 3286 0195 76745F6E 		.ascii	"vt_next\000"
 3286      65787400 
 3287              	.LASF98:
 3288 019d 74786275 		.ascii	"txbuf\000"
 3288      6600
 3289              	.LASF93:
ARM GAS  /var/folders/2d/mv7wzxg53m36fj1flyq1gqvm0000gn/T//ccLwcWDi.s 			page 60


 3290 01a3 6572726F 		.ascii	"errors\000"
 3290      727300
 3291              	.LASF11:
 3292 01aa 6C6F6E67 		.ascii	"long unsigned int\000"
 3292      20756E73 
 3292      69676E65 
 3292      6420696E 
 3292      7400
 3293              	.LASF114:
 3294 01bc 74696D65 		.ascii	"timeout\000"
 3294      6F757400 
 3295              	.LASF50:
 3296 01c4 76746675 		.ascii	"vtfunc_t\000"
 3296      6E635F74 
 3296      00
 3297              	.LASF49:
 3298 01cd 636F6E74 		.ascii	"context\000"
 3298      65787400 
 3299              	.LASF7:
 3300 01d5 73686F72 		.ascii	"short unsigned int\000"
 3300      7420756E 
 3300      7369676E 
 3300      65642069 
 3300      6E7400
 3301              	.LASF90:
 3302 01e8 49324344 		.ascii	"I2CDriver\000"
 3302      72697665 
 3302      7200
 3303              	.LASF23:
 3304 01f2 6D73675F 		.ascii	"msg_t\000"
 3304      7400
 3305              	.LASF60:
 3306 01f8 725F6E65 		.ascii	"r_newer\000"
 3306      77657200 
 3307              	.LASF103:
 3308 0200 72786964 		.ascii	"rxidx\000"
 3308      7800
 3309              	.LASF18:
 3310 0206 746D6F64 		.ascii	"tmode_t\000"
 3310      655F7400 
 3311              	.LASF46:
 3312 020e 54687265 		.ascii	"ThreadsList\000"
 3312      6164734C 
 3312      69737400 
 3313              	.LASF24:
 3314 021a 6576656E 		.ascii	"eventmask_t\000"
 3314      746D6173 
 3314      6B5F7400 
 3315              	.LASF64:
 3316 0226 4D757465 		.ascii	"Mutex\000"
 3316      7800
 3317              	.LASF112:
 3318 022c 73706565 		.ascii	"speed\000"
 3318      6400
 3319              	.LASF113:
 3320 0232 6932635F 		.ascii	"i2c_lld_stop\000"
 3320      6C6C645F 
ARM GAS  /var/folders/2d/mv7wzxg53m36fj1flyq1gqvm0000gn/T//ccLwcWDi.s 			page 61


 3320      73746F70 
 3320      00
 3321              	.LASF125:
 3322 023f 2E2E2F2E 		.ascii	"../../os/hal/platforms/BCM2835/i2c_lld.c\000"
 3322      2E2F6F73 
 3322      2F68616C 
 3322      2F706C61 
 3322      74666F72 
 3323              	.LASF54:
 3324 0268 76745F74 		.ascii	"vt_time\000"
 3324      696D6500 
 3325              	.LASF84:
 3326 0270 4932435F 		.ascii	"I2C_STOP\000"
 3326      53544F50 
 3326      00
 3327              	.LASF73:
 3328 0279 73697A65 		.ascii	"sizetype\000"
 3328      74797065 
 3328      00
 3329              	.LASF80:
 3330 0282 636C6F63 		.ascii	"clockDivider\000"
 3330      6B446976 
 3330      69646572 
 3330      00
 3331              	.LASF55:
 3332 028f 76745F66 		.ascii	"vt_func\000"
 3332      756E6300 
 3333              	.LASF106:
 3334 0297 69635F73 		.ascii	"ic_speed\000"
 3334      70656564 
 3334      00
 3335              	.LASF122:
 3336 02a0 63685654 		.ascii	"chVTSetI\000"
 3336      53657449 
 3336      00
 3337              	.LASF32:
 3338 02a9 705F6F6C 		.ascii	"p_older\000"
 3338      64657200 
 3339              	.LASF102:
 3340 02b1 72786279 		.ascii	"rxbytes\000"
 3340      74657300 
 3341              	.LASF107:
 3342 02b9 49324343 		.ascii	"I2CConfig\000"
 3342      6F6E6669 
 3342      6700
 3343              	.LASF59:
 3344 02c3 725F6374 		.ascii	"r_ctx\000"
 3344      7800
 3345              	.LASF45:
 3346 02c9 54687265 		.ascii	"ThreadsQueue\000"
 3346      61647351 
 3346      75657565 
 3346      00
 3347              	.LASF62:
 3348 02d6 725F6375 		.ascii	"r_current\000"
 3348      7272656E 
 3348      7400
ARM GAS  /var/folders/2d/mv7wzxg53m36fj1flyq1gqvm0000gn/T//ccLwcWDi.s 			page 62


 3349              	.LASF61:
 3350 02e0 725F6F6C 		.ascii	"r_older\000"
 3350      64657200 
 3351              	.LASF99:
 3352 02e8 74786279 		.ascii	"txbytes\000"
 3352      74657300 
 3353              	.LASF108:
 3354 02f0 69326370 		.ascii	"i2cp\000"
 3354      00
 3355              	.LASF121:
 3356 02f5 62636D32 		.ascii	"bcm2835_gpio_fnsel\000"
 3356      3833355F 
 3356      6770696F 
 3356      5F666E73 
 3356      656C00
 3357              	.LASF20:
 3358 0308 74726566 		.ascii	"trefs_t\000"
 3358      735F7400 
 3359              	.LASF89:
 3360 0310 69326373 		.ascii	"i2cstate_t\000"
 3360      74617465 
 3360      5F7400
 3361              	.LASF28:
 3362 031b 705F7072 		.ascii	"p_prev\000"
 3362      657600
 3363              	.LASF22:
 3364 0322 74707269 		.ascii	"tprio_t\000"
 3364      6F5F7400 
 3365              	.LASF86:
 3366 032a 4932435F 		.ascii	"I2C_ACTIVE_TX\000"
 3366      41435449 
 3366      56455F54 
 3366      5800
 3367              	.LASF104:
 3368 0338 69326366 		.ascii	"i2cflags_t\000"
 3368      6C616773 
 3368      5F7400
 3369              	.LASF95:
 3370 0343 6D757465 		.ascii	"mutex\000"
 3370      7800
 3371              	.LASF111:
 3372 0349 6932635F 		.ascii	"i2c_lld_start\000"
 3372      6C6C645F 
 3372      73746172 
 3372      7400
 3373              	.LASF16:
 3374 0357 696E7433 		.ascii	"int32_t\000"
 3374      325F7400 
 3375              	.LASF4:
 3376 035f 756E7369 		.ascii	"unsigned char\000"
 3376      676E6564 
 3376      20636861 
 3376      7200
 3377              	.LASF43:
 3378 036d 705F6D74 		.ascii	"p_mtxlist\000"
 3378      786C6973 
 3378      7400
ARM GAS  /var/folders/2d/mv7wzxg53m36fj1flyq1gqvm0000gn/T//ccLwcWDi.s 			page 63


 3379              	.LASF5:
 3380 0377 73686F72 		.ascii	"short int\000"
 3380      7420696E 
 3380      7400
 3381              	.LASF34:
 3382 0381 705F7374 		.ascii	"p_state\000"
 3382      61746500 
 3383              	.LASF37:
 3384 0389 705F7072 		.ascii	"p_preempt\000"
 3384      65656D70 
 3384      7400
 3385              	.LASF124:
 3386 0393 474E5520 		.ascii	"GNU C 4.9.3 20150529 (release) [ARM/embedded-4_9-br"
 3386      4320342E 
 3386      392E3320 
 3386      32303135 
 3386      30353239 
 3387 03c6 616E6368 		.ascii	"anch revision 227977] -mcpu=arm1176jz-s -mno-thumb-"
 3387      20726576 
 3387      6973696F 
 3387      6E203232 
 3387      37393737 
 3388 03f9 696E7465 		.ascii	"interwork -ggdb -O2 -fomit-frame-pointer -ffunction"
 3388      72776F72 
 3388      6B202D67 
 3388      67646220 
 3388      2D4F3220 
 3389 042c 2D736563 		.ascii	"-sections -fdata-sections\000"
 3389      74696F6E 
 3389      73202D66 
 3389      64617461 
 3389      2D736563 
 3390              	.LASF58:
 3391 0446 725F7072 		.ascii	"r_prio\000"
 3391      696F00
 3392              	.LASF71:
 3393 044d 65776D61 		.ascii	"ewmask\000"
 3393      736B00
 3394              	.LASF27:
 3395 0454 705F6E65 		.ascii	"p_next\000"
 3395      787400
 3396              	.LASF35:
 3397 045b 705F666C 		.ascii	"p_flags\000"
 3397      61677300 
 3398              	.LASF26:
 3399 0463 54687265 		.ascii	"Thread\000"
 3399      616400
 3400              	.LASF129:
 3401 046a 63685654 		.ascii	"chVTResetI\000"
 3401      52657365 
 3401      744900
 3402              	.LASF88:
 3403 0475 4932435F 		.ascii	"I2C_LOCKED\000"
 3403      4C4F434B 
 3403      454400
 3404              	.LASF123:
 3405 0480 63685363 		.ascii	"chSchGoSleepS\000"
ARM GAS  /var/folders/2d/mv7wzxg53m36fj1flyq1gqvm0000gn/T//ccLwcWDi.s 			page 64


 3405      68476F53 
 3405      6C656570 
 3405      5300
 3406              	.LASF42:
 3407 048e 705F6570 		.ascii	"p_epending\000"
 3407      656E6469 
 3407      6E6700
 3408              	.LASF17:
 3409 0499 75696E74 		.ascii	"uint32_t\000"
 3409      33325F74 
 3409      00
 3410              	.LASF57:
 3411 04a2 725F7175 		.ascii	"r_queue\000"
 3411      65756500 
 3412              	.LASF51:
 3413 04aa 56697274 		.ascii	"VirtualTimer\000"
 3413      75616C54 
 3413      696D6572 
 3413      00
 3414              	.LASF87:
 3415 04b7 4932435F 		.ascii	"I2C_ACTIVE_RX\000"
 3415      41435449 
 3415      56455F52 
 3415      5800
 3416              	.LASF72:
 3417 04c5 63686172 		.ascii	"char\000"
 3417      00
 3418              	.LASF127:
 3419 04ca 6932635F 		.ascii	"i2c_lld_safety_timeout\000"
 3419      6C6C645F 
 3419      73616665 
 3419      74795F74 
 3419      696D656F 
 3420              	.LASF92:
 3421 04e1 636F6E66 		.ascii	"config\000"
 3421      696700
 3422              	.LASF6:
 3423 04e8 5F5F7569 		.ascii	"__uint16_t\000"
 3423      6E743136 
 3423      5F7400
 3424              	.LASF128:
 3425 04f3 63685363 		.ascii	"chSchReadyI\000"
 3425      68526561 
 3425      64794900 
 3426              	.LASF67:
 3427 04ff 6D5F6E65 		.ascii	"m_next\000"
 3427      787400
 3428              	.LASF25:
 3429 0506 73797374 		.ascii	"systime_t\000"
 3429      696D655F 
 3429      7400
 3430              	.LASF44:
 3431 0510 705F7265 		.ascii	"p_realprio\000"
 3431      616C7072 
 3431      696F00
 3432              	.LASF8:
 3433 051b 5F5F696E 		.ascii	"__int32_t\000"
ARM GAS  /var/folders/2d/mv7wzxg53m36fj1flyq1gqvm0000gn/T//ccLwcWDi.s 			page 65


 3433      7433325F 
 3433      7400
 3434              	.LASF85:
 3435 0525 4932435F 		.ascii	"I2C_READY\000"
 3435      52454144 
 3435      5900
 3436              	.LASF38:
 3437 052f 705F7469 		.ascii	"p_time\000"
 3437      6D6500
 3438              	.LASF48:
 3439 0536 696E7463 		.ascii	"intctx\000"
 3439      747800
 3440              	.LASF40:
 3441 053d 705F6D73 		.ascii	"p_msgqueue\000"
 3441      67717565 
 3441      756500
 3442              	.LASF56:
 3443 0548 76745F70 		.ascii	"vt_par\000"
 3443      617200
 3444              	.LASF100:
 3445 054f 74786964 		.ascii	"txidx\000"
 3445      7800
 3446              	.LASF110:
 3447 0555 6932635F 		.ascii	"i2c_lld_init\000"
 3447      6C6C645F 
 3447      696E6974 
 3447      00
 3448              	.LASF36:
 3449 0562 705F7265 		.ascii	"p_refs\000"
 3449      667300
 3450              	.LASF76:
 3451 0569 73746174 		.ascii	"status\000"
 3451      757300
 3452              	.LASF63:
 3453 0570 52656164 		.ascii	"ReadyList\000"
 3453      794C6973 
 3453      7400
 3454              	.LASF117:
 3455 057a 726C6973 		.ascii	"rlist\000"
 3455      7400
 3456              	.LASF14:
 3457 0580 75696E74 		.ascii	"uint8_t\000"
 3457      385F7400 
 3458              	.LASF70:
 3459 0588 77746F62 		.ascii	"wtobjp\000"
 3459      6A7000
 3460              	.LASF33:
 3461 058f 705F6E61 		.ascii	"p_name\000"
 3461      6D6500
 3462              	.LASF109:
 3463 0596 6932635F 		.ascii	"i2c_lld_serve_interrupt\000"
 3463      6C6C645F 
 3463      73657276 
 3463      655F696E 
 3463      74657272 
 3464              	.LASF77:
 3465 05ae 64617461 		.ascii	"dataLength\000"
ARM GAS  /var/folders/2d/mv7wzxg53m36fj1flyq1gqvm0000gn/T//ccLwcWDi.s 			page 66


 3465      4C656E67 
 3465      746800
 3466              	.LASF120:
 3467 05b9 6932634F 		.ascii	"i2cObjectInit\000"
 3467      626A6563 
 3467      74496E69 
 3467      7400
 3468              	.LASF66:
 3469 05c7 6D5F6F77 		.ascii	"m_owner\000"
 3469      6E657200 
 3470              	.LASF30:
 3471 05cf 705F6374 		.ascii	"p_ctx\000"
 3471      7800
 3472              	.LASF39:
 3473 05d5 705F7761 		.ascii	"p_waiting\000"
 3473      6974696E 
 3473      6700
 3474              	.LASF82:
 3475 05df 636C6F63 		.ascii	"clockStretchTimeout\000"
 3475      6B537472 
 3475      65746368 
 3475      54696D65 
 3475      6F757400 
 3476              		.ident	"GCC: (GNU Tools for ARM Embedded Processors) 4.9.3 20150529 (release) [ARM/embedded-4_9-br
ARM GAS  /var/folders/2d/mv7wzxg53m36fj1flyq1gqvm0000gn/T//ccLwcWDi.s 			page 67


DEFINED SYMBOLS
                            *ABS*:0000000000000000 i2c_lld.c
/var/folders/2d/mv7wzxg53m36fj1flyq1gqvm0000gn/T//ccLwcWDi.s:17     .text.i2c_lld_safety_timeout:0000000000000000 $a
/var/folders/2d/mv7wzxg53m36fj1flyq1gqvm0000gn/T//ccLwcWDi.s:19     .text.i2c_lld_safety_timeout:0000000000000000 i2c_lld_safety_timeout
/var/folders/2d/mv7wzxg53m36fj1flyq1gqvm0000gn/T//ccLwcWDi.s:97     .text.i2c_lld_safety_timeout:0000000000000070 $d
/var/folders/2d/mv7wzxg53m36fj1flyq1gqvm0000gn/T//ccLwcWDi.s:103    .text.i2c_lld_serve_interrupt:0000000000000000 $a
/var/folders/2d/mv7wzxg53m36fj1flyq1gqvm0000gn/T//ccLwcWDi.s:106    .text.i2c_lld_serve_interrupt:0000000000000000 i2c_lld_serve_interrupt
/var/folders/2d/mv7wzxg53m36fj1flyq1gqvm0000gn/T//ccLwcWDi.s:280    .text.i2c_lld_serve_interrupt:0000000000000160 $d
/var/folders/2d/mv7wzxg53m36fj1flyq1gqvm0000gn/T//ccLwcWDi.s:285    .text.i2c_lld_init:0000000000000000 $a
/var/folders/2d/mv7wzxg53m36fj1flyq1gqvm0000gn/T//ccLwcWDi.s:288    .text.i2c_lld_init:0000000000000000 i2c_lld_init
/var/folders/2d/mv7wzxg53m36fj1flyq1gqvm0000gn/T//ccLwcWDi.s:308    .text.i2c_lld_init:0000000000000014 $d
                            *COM*:0000000000000040 I2C0
/var/folders/2d/mv7wzxg53m36fj1flyq1gqvm0000gn/T//ccLwcWDi.s:315    .text.i2c_lld_start:0000000000000000 $a
/var/folders/2d/mv7wzxg53m36fj1flyq1gqvm0000gn/T//ccLwcWDi.s:318    .text.i2c_lld_start:0000000000000000 i2c_lld_start
/var/folders/2d/mv7wzxg53m36fj1flyq1gqvm0000gn/T//ccLwcWDi.s:372    .text.i2c_lld_start:0000000000000060 $d
/var/folders/2d/mv7wzxg53m36fj1flyq1gqvm0000gn/T//ccLwcWDi.s:378    .text.i2c_lld_stop:0000000000000000 $a
/var/folders/2d/mv7wzxg53m36fj1flyq1gqvm0000gn/T//ccLwcWDi.s:381    .text.i2c_lld_stop:0000000000000000 i2c_lld_stop
/var/folders/2d/mv7wzxg53m36fj1flyq1gqvm0000gn/T//ccLwcWDi.s:415    .text.i2c_lld_master_receive_timeout:0000000000000000 $a
/var/folders/2d/mv7wzxg53m36fj1flyq1gqvm0000gn/T//ccLwcWDi.s:418    .text.i2c_lld_master_receive_timeout:0000000000000000 i2c_lld_master_receive_timeout
/var/folders/2d/mv7wzxg53m36fj1flyq1gqvm0000gn/T//ccLwcWDi.s:533    .text.i2c_lld_master_receive_timeout:00000000000000bc $d
/var/folders/2d/mv7wzxg53m36fj1flyq1gqvm0000gn/T//ccLwcWDi.s:541    .text.i2c_lld_master_transmit_timeout:0000000000000000 $a
/var/folders/2d/mv7wzxg53m36fj1flyq1gqvm0000gn/T//ccLwcWDi.s:544    .text.i2c_lld_master_transmit_timeout:0000000000000000 i2c_lld_master_transmit_timeout
/var/folders/2d/mv7wzxg53m36fj1flyq1gqvm0000gn/T//ccLwcWDi.s:709    .text.i2c_lld_master_transmit_timeout:0000000000000130 $d
                            *COM*:0000000000000040 I2C1
                     .debug_frame:0000000000000010 $d

UNDEFINED SYMBOLS
chSchReadyI
i2cObjectInit
__aeabi_uidiv
bcm2835_gpio_fnsel
chVTSetI
chSchGoSleepS
chVTResetI
rlist
