ARM GAS  /var/folders/2d/mv7wzxg53m36fj1flyq1gqvm0000gn/T//ccSGD991.s 			page 1


   1              		.cpu arm1176jz-s
   2              		.fpu softvfp
   3              		.eabi_attribute 20, 1
   4              		.eabi_attribute 21, 1
   5              		.eabi_attribute 23, 3
   6              		.eabi_attribute 24, 1
   7              		.eabi_attribute 25, 1
   8              		.eabi_attribute 26, 1
   9              		.eabi_attribute 30, 2
  10              		.eabi_attribute 34, 1
  11              		.eabi_attribute 18, 4
  12              		.file	"main.c"
  13              		.text
  14              	.Ltext0:
  15              		.cfi_sections	.debug_frame
  16              		.section	.text.Thread_LED1,"ax",%progbits
  17              		.align	2
  18              		.type	Thread_LED1, %function
  19              	Thread_LED1:
  20              	.LFB7:
  21              		.file 1 "main.c"
  22              		.loc 1 26 0
  23              		.cfi_startproc
  24              		@ Volatile: function does not return.
  25              		@ args = 0, pretend = 0, frame = 0
  26              		@ frame_needed = 0, uses_anonymous_args = 0
  27              	.LVL0:
  28 0000 08402DE9 		stmfd	sp!, {r3, lr}
  29              		.cfi_def_cfa_offset 8
  30              		.cfi_offset 3, -8
  31              		.cfi_offset 14, -4
  32              		.loc 1 28 0
  33 0004 40309FE5 		ldr	r3, .L5
  34 0008 40209FE5 		ldr	r2, .L5+4
  35 000c 183093E5 		ldr	r3, [r3, #24]
  36 0010 3C409FE5 		ldr	r4, .L5+8
  37 0014 182083E5 		str	r2, [r3, #24]
  38              	.LVL1:
  39              	.L2:
  40              		.loc 1 30 0 discriminator 1
  41 0018 001094E5 		ldr	r1, [r4]
  42 001c 30009FE5 		ldr	r0, .L5+8
  43 0020 0214C1E3 		bic	r1, r1, #33554432
  44 0024 FEFFFFEB 		bl	_pal_lld_writeport
  45              	.LVL2:
  46              		.loc 1 31 0 discriminator 1
  47 0028 6400A0E3 		mov	r0, #100
  48 002c FEFFFFEB 		bl	chThdSleep
  49              	.LVL3:
  50              		.loc 1 32 0 discriminator 1
  51 0030 001094E5 		ldr	r1, [r4]
  52 0034 18009FE5 		ldr	r0, .L5+8
  53 0038 021481E3 		orr	r1, r1, #33554432
  54 003c FEFFFFEB 		bl	_pal_lld_writeport
  55              	.LVL4:
  56              		.loc 1 33 0 discriminator 1
  57 0040 E10FA0E3 		mov	r0, #900
ARM GAS  /var/folders/2d/mv7wzxg53m36fj1flyq1gqvm0000gn/T//ccSGD991.s 			page 2


  58 0044 FEFFFFEB 		bl	chThdSleep
  59              	.LVL5:
  60              		.loc 1 35 0 discriminator 1
  61 0048 F2FFFFEA 		b	.L2
  62              	.L6:
  63              		.align	2
  64              	.L5:
  65 004c 00000000 		.word	rlist
  66 0050 00000000 		.word	.LC0
  67 0054 00000000 		.word	IOPORT0
  68              		.cfi_endproc
  69              	.LFE7:
  70              		.size	Thread_LED1, .-Thread_LED1
  71              		.section	.text.startup.main,"ax",%progbits
  72              		.align	2
  73              		.global	main
  74              		.type	main, %function
  75              	main:
  76              	.LFB8:
  77              		.loc 1 42 0
  78              		.cfi_startproc
  79              		@ args = 0, pretend = 0, frame = 0
  80              		@ frame_needed = 0, uses_anonymous_args = 0
  81 0000 10402DE9 		stmfd	sp!, {r4, lr}
  82              		.cfi_def_cfa_offset 8
  83              		.cfi_offset 4, -8
  84              		.cfi_offset 14, -4
  85              		.loc 1 48 0
  86 0004 0040A0E3 		mov	r4, #0
  87              		.loc 1 42 0
  88 0008 08D04DE2 		sub	sp, sp, #8
  89              		.cfi_def_cfa_offset 16
  90              		.loc 1 43 0
  91 000c FEFFFFEB 		bl	halInit
  92              	.LVL6:
  93              		.loc 1 44 0
  94 0010 FEFFFFEB 		bl	chSysInit
  95              	.LVL7:
  96              		.loc 1 46 0
  97 0014 38009FE5 		ldr	r0, .L9
  98 0018 0214A0E3 		mov	r1, #33554432
  99 001c FF20A0E3 		mov	r2, #255
 100 0020 FEFFFFEB 		bl	_pal_lld_setgroupmode
 101              	.LVL8:
 102              		.loc 1 48 0
 103 0024 461FA0E3 		mov	r1, #280
 104 0028 7F20A0E3 		mov	r2, #127
 105 002c 00408DE5 		str	r4, [sp]
 106 0030 20309FE5 		ldr	r3, .L9+4
 107 0034 20009FE5 		ldr	r0, .L9+8
 108 0038 FEFFFFEB 		bl	chThdCreateStatic
 109              	.LVL9:
 110              		.loc 1 51 0
 111 003c 1C309FE5 		ldr	r3, .L9+12
 112 0040 180093E5 		ldr	r0, [r3, #24]
 113 0044 FEFFFFEB 		bl	chThdWait
 114              	.LVL10:
ARM GAS  /var/folders/2d/mv7wzxg53m36fj1flyq1gqvm0000gn/T//ccSGD991.s 			page 3


 115              		.loc 1 54 0
 116 0048 0400A0E1 		mov	r0, r4
 117 004c 08D08DE2 		add	sp, sp, #8
 118              		.cfi_def_cfa_offset 8
 119              		@ sp needed
 120 0050 1080BDE8 		ldmfd	sp!, {r4, pc}
 121              	.L10:
 122              		.align	2
 123              	.L9:
 124 0054 00000000 		.word	IOPORT0
 125 0058 00000000 		.word	Thread_LED1
 126 005c 00000000 		.word	.LANCHOR0
 127 0060 00000000 		.word	rlist
 128              		.cfi_endproc
 129              	.LFE8:
 130              		.size	main, .-main
 131              		.section	.bss.waThread_LED1,"aw",%nobits
 132              		.align	2
 133              		.set	.LANCHOR0,. + 0
 134              		.type	waThread_LED1, %object
 135              		.size	waThread_LED1, 280
 136              	waThread_LED1:
 137 0000 00000000 		.space	280
 137      00000000 
 137      00000000 
 137      00000000 
 137      00000000 
 138              		.section	.rodata.str1.4,"aMS",%progbits,1
 139              		.align	2
 140              	.LC0:
 141 0000 626C696E 		.ascii	"blinker-1\000"
 141      6B65722D 
 141      3100
 142              		.text
 143              	.Letext0:
 144              		.file 2 "/usr/local/Cellar/gcc-arm-none-eabi-49/20150925/lib/gcc/arm-none-eabi/4.9.3/include/stdde
 145              		.file 3 "/usr/local/Cellar/gcc-arm-none-eabi-49/20150925/arm-none-eabi/include/machine/_default_ty
 146              		.file 4 "/usr/local/Cellar/gcc-arm-none-eabi-49/20150925/arm-none-eabi/include/sys/_stdint.h"
 147              		.file 5 "../../os/ports/GCC/ARM/chtypes.h"
 148              		.file 6 "../../os/kernel/include/chlists.h"
 149              		.file 7 "../../os/kernel/include/chthreads.h"
 150              		.file 8 "../../os/ports/GCC/ARM/chcore.h"
 151              		.file 9 "../../os/kernel/include/chschd.h"
 152              		.file 10 "../../os/kernel/include/chmtx.h"
 153              		.file 11 "../../os/hal/platforms/BCM2835/pal_lld.h"
 154              		.file 12 "../../os/hal/include/hal.h"
 155              		.file 13 "../../os/kernel/include/chsys.h"