ARM GAS  /var/folders/2d/mv7wzxg53m36fj1flyq1gqvm0000gn/T//ccKaoZSS.s 			page 1


   1              		.cpu arm1176jz-s
   2              		.fpu softvfp
   3              		.eabi_attribute 20, 1
   4              		.eabi_attribute 21, 1
   5              		.eabi_attribute 23, 3
   6              		.eabi_attribute 24, 1
   7              		.eabi_attribute 25, 1
   8              		.eabi_attribute 26, 1
   9              		.eabi_attribute 30, 2
  10              		.eabi_attribute 34, 1
  11              		.eabi_attribute 18, 4
  12              		.file	"test.c"
  13              		.text
  14              	.Ltext0:
  15              		.cfi_sections	.debug_frame
  16              		.section	.text.tmr,"ax",%progbits
  17              		.align	2
  18              		.type	tmr, %function
  19              	tmr:
  20              	.LFB21:
  21              		.file 1 "../../test/test.c"
  22              		.loc 1 265 0
  23              		.cfi_startproc
  24              		@ args = 0, pretend = 0, frame = 0
  25              		@ frame_needed = 0, uses_anonymous_args = 0
  26              		@ link register save eliminated.
  27              	.LVL0:
  28              		.loc 1 268 0
  29 0000 0120A0E3 		mov	r2, #1
  30 0004 04309FE5 		ldr	r3, .L2
  31 0008 002083E5 		str	r2, [r3]
  32 000c 1EFF2FE1 		bx	lr
  33              	.L3:
  34              		.align	2
  35              	.L2:
  36 0010 00000000 		.word	test_timer_done
  37              		.cfi_endproc
  38              	.LFE21:
  39              		.size	tmr, .-tmr
  40              		.section	.text.print_line,"ax",%progbits
  41              		.align	2
  42              		.type	print_line, %function
  43              	print_line:
  44              	.LFB24:
  45              		.loc 1 304 0
  46              		.cfi_startproc
  47              		@ args = 0, pretend = 0, frame = 0
  48              		@ frame_needed = 0, uses_anonymous_args = 0
  49              	.LVL1:
  50 0000 70402DE9 		stmfd	sp!, {r4, r5, r6, lr}
  51              		.cfi_def_cfa_offset 16
  52              		.cfi_offset 4, -16
  53              		.cfi_offset 5, -12
  54              		.cfi_offset 6, -8
  55              		.cfi_offset 14, -4
  56              		.loc 1 304 0
  57 0004 4C40A0E3 		mov	r4, #76
ARM GAS  /var/folders/2d/mv7wzxg53m36fj1flyq1gqvm0000gn/T//ccKaoZSS.s 			page 2


  58 0008 38509FE5 		ldr	r5, .L9
  59              	.LVL2:
  60              	.L5:
  61              		.loc 1 308 0 discriminator 3
  62 000c 000095E5 		ldr	r0, [r5]
  63 0010 2D10A0E3 		mov	r1, #45
  64 0014 003090E5 		ldr	r3, [r0]
  65 0018 083093E5 		ldr	r3, [r3, #8]
  66 001c 33FF2FE1 		blx	r3
  67              	.LVL3:
  68              		.loc 1 307 0 discriminator 3
  69 0020 014054E2 		subs	r4, r4, #1
  70              	.LVL4:
  71              		.loc 1 308 0 discriminator 3
  72 0024 1C309FE5 		ldr	r3, .L9
  73              		.loc 1 307 0 discriminator 3
  74 0028 F7FFFF1A 		bne	.L5
  75              		.loc 1 309 0
  76 002c 000093E5 		ldr	r0, [r3]
  77 0030 14109FE5 		ldr	r1, .L9+4
  78 0034 003090E5 		ldr	r3, [r0]
  79 0038 0220A0E3 		mov	r2, #2
  80              		.loc 1 310 0
  81 003c 7040BDE8 		ldmfd	sp!, {r4, r5, r6, lr}
  82              		.cfi_restore 14
  83              		.cfi_restore 6
  84              		.cfi_restore 5
  85              		.cfi_restore 4
  86              		.cfi_def_cfa_offset 0
  87              	.LVL5:
  88              		.loc 1 309 0
  89 0040 003093E5 		ldr	r3, [r3]
  90 0044 13FF2FE1 		bx	r3
  91              	.LVL6:
  92              	.L10:
  93              		.align	2
  94              	.L9:
  95 0048 00000000 		.word	.LANCHOR0
  96 004c 00000000 		.word	.LC0
  97              		.cfi_endproc
  98              	.LFE24:
  99              		.size	print_line, .-print_line
 100              		.section	.text.test_printn,"ax",%progbits
 101              		.align	2
 102              		.global	test_printn
 103              		.type	test_printn, %function
 104              	test_printn:
 105              	.LFB7:
 106              		.loc 1 95 0
 107              		.cfi_startproc
 108              		@ args = 0, pretend = 0, frame = 16
 109              		@ frame_needed = 0, uses_anonymous_args = 0
 110              	.LVL7:
 111              		.loc 1 98 0
 112 0000 000050E3 		cmp	r0, #0
 113 0004 1B00000A 		beq	.L20
 114              		.loc 1 95 0
ARM GAS  /var/folders/2d/mv7wzxg53m36fj1flyq1gqvm0000gn/T//ccKaoZSS.s 			page 3


 115 0008 70402DE9 		stmfd	sp!, {r4, r5, r6, lr}
 116              		.cfi_def_cfa_offset 16
 117              		.cfi_offset 4, -16
 118              		.cfi_offset 5, -12
 119              		.cfi_offset 6, -8
 120              		.cfi_offset 14, -4
 121 000c 10D04DE2 		sub	sp, sp, #16
 122              		.cfi_def_cfa_offset 32
 123              		.loc 1 98 0
 124 0010 0D50A0E1 		mov	r5, sp
 125 0014 0D40A0E1 		mov	r4, sp
 126              		.loc 1 103 0
 127 0018 70209FE5 		ldr	r2, .L22
 128              	.LVL8:
 129              	.L13:
 130 001c 921083E0 		umull	r1, r3, r2, r0
 131 0020 A331A0E1 		mov	r3, r3, lsr #3
 132 0024 031183E0 		add	r1, r3, r3, asl #2
 133 0028 810040E0 		sub	r0, r0, r1, asl #1
 134              	.LVL9:
 135 002c 301080E2 		add	r1, r0, #48
 136 0030 7110EFE6 		uxtb	r1, r1
 137              		.loc 1 102 0
 138 0034 000053E2 		subs	r0, r3, #0
 139              		.loc 1 103 0
 140 0038 0110C4E4 		strb	r1, [r4], #1
 141              	.LVL10:
 142              		.loc 1 102 0
 143 003c F6FFFF1A 		bne	.L13
 144              		.loc 1 104 0
 145 0040 050054E1 		cmp	r4, r5
 146 0044 0900009A 		bls	.L11
 147 0048 44609FE5 		ldr	r6, .L22+4
 148 004c 014044E2 		sub	r4, r4, #1
 149              	.LVL11:
 150 0050 000000EA 		b	.L17
 151              	.LVL12:
 152              	.L21:
 153 0054 011074E5 		ldrb	r1, [r4, #-1]!	@ zero_extendqisi2
 154              	.LVL13:
 155              	.L17:
 156              		.loc 1 105 0
 157 0058 000096E5 		ldr	r0, [r6]
 158              	.LVL14:
 159 005c 003090E5 		ldr	r3, [r0]
 160 0060 083093E5 		ldr	r3, [r3, #8]
 161 0064 33FF2FE1 		blx	r3
 162              	.LVL15:
 163              		.loc 1 104 0
 164 0068 050054E1 		cmp	r4, r5
 165 006c F8FFFF1A 		bne	.L21
 166              	.LVL16:
 167              	.L11:
 168              		.loc 1 107 0
 169 0070 10D08DE2 		add	sp, sp, #16
 170              		.cfi_def_cfa_offset 16
 171              		@ sp needed
ARM GAS  /var/folders/2d/mv7wzxg53m36fj1flyq1gqvm0000gn/T//ccKaoZSS.s 			page 4


 172 0074 7080BDE8 		ldmfd	sp!, {r4, r5, r6, pc}
 173              	.LVL17:
 174              	.L20:
 175              		.cfi_def_cfa_offset 0
 176              		.cfi_restore 4
 177              		.cfi_restore 5
 178              		.cfi_restore 6
 179              		.cfi_restore 14
 180              	.LBB48:
 181              	.LBB49:
 182              		.loc 1 99 0
 183 0078 14309FE5 		ldr	r3, .L22+4
 184 007c 3010A0E3 		mov	r1, #48
 185 0080 000093E5 		ldr	r0, [r3]
 186              	.LVL18:
 187 0084 003090E5 		ldr	r3, [r0]
 188 0088 083093E5 		ldr	r3, [r3, #8]
 189 008c 13FF2FE1 		bx	r3
 190              	.LVL19:
 191              	.L23:
 192              		.align	2
 193              	.L22:
 194 0090 CDCCCCCC 		.word	-858993459
 195 0094 00000000 		.word	.LANCHOR0
 196              	.LBE49:
 197              	.LBE48:
 198              		.cfi_endproc
 199              	.LFE7:
 200              		.size	test_printn, .-test_printn
 201              		.section	.text.test_print,"ax",%progbits
 202              		.align	2
 203              		.global	test_print
 204              		.type	test_print, %function
 205              	test_print:
 206              	.LFB8:
 207              		.loc 1 114 0
 208              		.cfi_startproc
 209              		@ args = 0, pretend = 0, frame = 0
 210              		@ frame_needed = 0, uses_anonymous_args = 0
 211              	.LVL20:
 212 0000 38402DE9 		stmfd	sp!, {r3, r4, r5, lr}
 213              		.cfi_def_cfa_offset 16
 214              		.cfi_offset 3, -16
 215              		.cfi_offset 4, -12
 216              		.cfi_offset 5, -8
 217              		.cfi_offset 14, -4
 218              		.loc 1 116 0
 219 0004 0010D0E5 		ldrb	r1, [r0]	@ zero_extendqisi2
 220              		.loc 1 114 0
 221 0008 0040A0E1 		mov	r4, r0
 222              		.loc 1 116 0
 223 000c 000051E3 		cmp	r1, #0
 224 0010 3880BD08 		ldmeqfd	sp!, {r3, r4, r5, pc}
 225 0014 1C509FE5 		ldr	r5, .L30
 226              	.LVL21:
 227              	.L26:
 228              		.loc 1 117 0
ARM GAS  /var/folders/2d/mv7wzxg53m36fj1flyq1gqvm0000gn/T//ccKaoZSS.s 			page 5


 229 0018 000095E5 		ldr	r0, [r5]
 230 001c 003090E5 		ldr	r3, [r0]
 231 0020 083093E5 		ldr	r3, [r3, #8]
 232 0024 33FF2FE1 		blx	r3
 233              	.LVL22:
 234              		.loc 1 116 0
 235 0028 0110F4E5 		ldrb	r1, [r4, #1]!	@ zero_extendqisi2
 236              	.LVL23:
 237 002c 000051E3 		cmp	r1, #0
 238 0030 F8FFFF1A 		bne	.L26
 239 0034 3880BDE8 		ldmfd	sp!, {r3, r4, r5, pc}
 240              	.L31:
 241              		.align	2
 242              	.L30:
 243 0038 00000000 		.word	.LANCHOR0
 244              		.cfi_endproc
 245              	.LFE8:
 246              		.size	test_print, .-test_print
 247              		.section	.text.test_println,"ax",%progbits
 248              		.align	2
 249              		.global	test_println
 250              		.type	test_println, %function
 251              	test_println:
 252              	.LFB9:
 253              		.loc 1 125 0
 254              		.cfi_startproc
 255              		@ args = 0, pretend = 0, frame = 0
 256              		@ frame_needed = 0, uses_anonymous_args = 0
 257              	.LVL24:
 258 0000 70402DE9 		stmfd	sp!, {r4, r5, r6, lr}
 259              		.cfi_def_cfa_offset 16
 260              		.cfi_offset 4, -16
 261              		.cfi_offset 5, -12
 262              		.cfi_offset 6, -8
 263              		.cfi_offset 14, -4
 264              	.LBB50:
 265              	.LBB51:
 266              		.loc 1 116 0
 267 0004 0010D0E5 		ldrb	r1, [r0]	@ zero_extendqisi2
 268              	.LBE51:
 269              	.LBE50:
 270              		.loc 1 125 0
 271 0008 0040A0E1 		mov	r4, r0
 272              	.LVL25:
 273              	.LBB53:
 274              	.LBB52:
 275              		.loc 1 116 0
 276 000c 000051E3 		cmp	r1, #0
 277 0010 38509FE5 		ldr	r5, .L38
 278 0014 0600000A 		beq	.L35
 279              	.LVL26:
 280              	.L34:
 281              		.loc 1 117 0
 282 0018 000095E5 		ldr	r0, [r5]
 283 001c 003090E5 		ldr	r3, [r0]
 284 0020 083093E5 		ldr	r3, [r3, #8]
 285 0024 33FF2FE1 		blx	r3
ARM GAS  /var/folders/2d/mv7wzxg53m36fj1flyq1gqvm0000gn/T//ccKaoZSS.s 			page 6


 286              	.LVL27:
 287              		.loc 1 116 0
 288 0028 0110F4E5 		ldrb	r1, [r4, #1]!	@ zero_extendqisi2
 289              	.LVL28:
 290 002c 000051E3 		cmp	r1, #0
 291 0030 F8FFFF1A 		bne	.L34
 292              	.LVL29:
 293              	.L35:
 294              	.LBE52:
 295              	.LBE53:
 296              		.loc 1 128 0
 297 0034 000095E5 		ldr	r0, [r5]
 298 0038 14109FE5 		ldr	r1, .L38+4
 299 003c 003090E5 		ldr	r3, [r0]
 300 0040 0220A0E3 		mov	r2, #2
 301              		.loc 1 129 0
 302 0044 7040BDE8 		ldmfd	sp!, {r4, r5, r6, lr}
 303              		.cfi_restore 14
 304              		.cfi_restore 6
 305              		.cfi_restore 5
 306              		.cfi_restore 4
 307              		.cfi_def_cfa_offset 0
 308              		.loc 1 128 0
 309 0048 003093E5 		ldr	r3, [r3]
 310 004c 13FF2FE1 		bx	r3
 311              	.LVL30:
 312              	.L39:
 313              		.align	2
 314              	.L38:
 315 0050 00000000 		.word	.LANCHOR0
 316 0054 00000000 		.word	.LC0
 317              		.cfi_endproc
 318              	.LFE9:
 319              		.size	test_println, .-test_println
 320              		.section	.text.test_emit_token,"ax",%progbits
 321              		.align	2
 322              		.global	test_emit_token
 323              		.type	test_emit_token, %function
 324              	test_emit_token:
 325              	.LFB12:
 326              		.loc 1 151 0
 327              		.cfi_startproc
 328              		@ args = 0, pretend = 0, frame = 0
 329              		@ frame_needed = 0, uses_anonymous_args = 0
 330              		@ link register save eliminated.
 331              	.LVL31:
 332              		.loc 1 153 0
 333              	@ 153 "../../test/test.c" 1
 334 0000 9FF021E3 		msr     CPSR_c, #0x9F
 335              	@ 0 "" 2
 336              		.loc 1 154 0
 337 0004 14309FE5 		ldr	r3, .L41
 338 0008 002093E5 		ldr	r2, [r3]
 339 000c 011082E2 		add	r1, r2, #1
 340 0010 0000C2E5 		strb	r0, [r2]
 341 0014 001083E5 		str	r1, [r3]
 342              		.loc 1 155 0
ARM GAS  /var/folders/2d/mv7wzxg53m36fj1flyq1gqvm0000gn/T//ccKaoZSS.s 			page 7


 343              	@ 155 "../../test/test.c" 1
 344 0018 1FF021E3 		msr     CPSR_c, #0x1F
 345              	@ 0 "" 2
 346 001c 1EFF2FE1 		bx	lr
 347              	.L42:
 348              		.align	2
 349              	.L41:
 350 0020 00000000 		.word	.LANCHOR1
 351              		.cfi_endproc
 352              	.LFE12:
 353              		.size	test_emit_token, .-test_emit_token
 354              		.section	.text._test_fail,"ax",%progbits
 355              		.align	2
 356              		.global	_test_fail
 357              		.type	_test_fail, %function
 358              	_test_fail:
 359              	.LFB13:
 360              		.loc 1 161 0
 361              		.cfi_startproc
 362              		@ args = 0, pretend = 0, frame = 0
 363              		@ frame_needed = 0, uses_anonymous_args = 0
 364              		@ link register save eliminated.
 365              	.LVL32:
 366              		.loc 1 163 0
 367 0000 0130A0E3 		mov	r3, #1
 368              		.loc 1 165 0
 369 0004 18C09FE5 		ldr	ip, .L44
 370              		.loc 1 163 0
 371 0008 18109FE5 		ldr	r1, .L44+4
 372              		.loc 1 164 0
 373 000c 18209FE5 		ldr	r2, .L44+8
 374              		.loc 1 165 0
 375 0010 00008CE5 		str	r0, [ip]
 376              		.loc 1 163 0
 377 0014 003081E5 		str	r3, [r1]
 378              		.loc 1 164 0
 379 0018 003082E5 		str	r3, [r2]
 380              		.loc 1 167 0
 381 001c 0300A0E1 		mov	r0, r3
 382              	.LVL33:
 383 0020 1EFF2FE1 		bx	lr
 384              	.L45:
 385              		.align	2
 386              	.L44:
 387 0024 00000000 		.word	.LANCHOR4
 388 0028 00000000 		.word	.LANCHOR2
 389 002c 00000000 		.word	.LANCHOR3
 390              		.cfi_endproc
 391              	.LFE13:
 392              		.size	_test_fail, .-_test_fail
 393              		.section	.text._test_assert,"ax",%progbits
 394              		.align	2
 395              		.global	_test_assert
 396              		.type	_test_assert, %function
 397              	_test_assert:
 398              	.LFB14:
 399              		.loc 1 169 0
ARM GAS  /var/folders/2d/mv7wzxg53m36fj1flyq1gqvm0000gn/T//ccKaoZSS.s 			page 8


 400              		.cfi_startproc
 401              		@ args = 0, pretend = 0, frame = 0
 402              		@ frame_needed = 0, uses_anonymous_args = 0
 403              		@ link register save eliminated.
 404              	.LVL34:
 405              		.loc 1 171 0
 406 0000 000051E3 		cmp	r1, #0
 407              	.LVL35:
 408              	.LBB54:
 409              	.LBB55:
 410              		.loc 1 163 0
 411 0004 0130A003 		moveq	r3, #1
 412              	.LBE55:
 413              	.LBE54:
 414              		.loc 1 173 0
 415 0008 0030A013 		movne	r3, #0
 416              	.LBB57:
 417              	.LBB56:
 418              		.loc 1 163 0
 419 000c 18C09F05 		ldreq	ip, .L49
 420              		.loc 1 164 0
 421 0010 18109F05 		ldreq	r1, .L49+4
 422              	.LVL36:
 423              		.loc 1 165 0
 424 0014 18209F05 		ldreq	r2, .L49+8
 425              		.loc 1 163 0
 426 0018 00308C05 		streq	r3, [ip]
 427              		.loc 1 165 0
 428 001c 00008205 		streq	r0, [r2]
 429              		.loc 1 164 0
 430 0020 00308105 		streq	r3, [r1]
 431              	.LBE56:
 432              	.LBE57:
 433              		.loc 1 174 0
 434 0024 0300A0E1 		mov	r0, r3
 435              	.LVL37:
 436 0028 1EFF2FE1 		bx	lr
 437              	.L50:
 438              		.align	2
 439              	.L49:
 440 002c 00000000 		.word	.LANCHOR2
 441 0030 00000000 		.word	.LANCHOR3
 442 0034 00000000 		.word	.LANCHOR4
 443              		.cfi_endproc
 444              	.LFE14:
 445              		.size	_test_assert, .-_test_assert
 446              		.section	.text._test_assert_sequence,"ax",%progbits
 447              		.align	2
 448              		.global	_test_assert_sequence
 449              		.type	_test_assert_sequence, %function
 450              	_test_assert_sequence:
 451              	.LFB15:
 452              		.loc 1 176 0
 453              		.cfi_startproc
 454              		@ args = 0, pretend = 0, frame = 0
 455              		@ frame_needed = 0, uses_anonymous_args = 0
 456              	.LVL38:
ARM GAS  /var/folders/2d/mv7wzxg53m36fj1flyq1gqvm0000gn/T//ccKaoZSS.s 			page 9


 457 0000 30402DE9 		stmfd	sp!, {r4, r5, lr}
 458              		.cfi_def_cfa_offset 12
 459              		.cfi_offset 4, -12
 460              		.cfi_offset 5, -8
 461              		.cfi_offset 14, -4
 462 0004 60409FE5 		ldr	r4, .L58
 463              		.loc 1 177 0
 464 0008 60509FE5 		ldr	r5, .L58+4
 465 000c 00E094E5 		ldr	lr, [r4]
 466 0010 0530A0E1 		mov	r3, r5
 467              		.loc 1 178 0
 468 0014 030000EA 		b	.L52
 469              	.LVL39:
 470              	.L54:
 471              		.loc 1 179 0
 472 0018 01C0D3E4 		ldrb	ip, [r3], #1	@ zero_extendqisi2
 473              	.LVL40:
 474 001c 0120D1E4 		ldrb	r2, [r1], #1	@ zero_extendqisi2
 475              	.LVL41:
 476 0020 02005CE1 		cmp	ip, r2
 477 0024 0700001A 		bne	.L55
 478              	.LVL42:
 479              	.L52:
 480              		.loc 1 178 0
 481 0028 0E0053E1 		cmp	r3, lr
 482 002c F9FFFF3A 		bcc	.L54
 483              		.loc 1 182 0
 484 0030 0030D1E5 		ldrb	r3, [r1]	@ zero_extendqisi2
 485              	.LVL43:
 486 0034 000053E3 		cmp	r3, #0
 487 0038 0200001A 		bne	.L55
 488              	.LBB58:
 489              	.LBB59:
 490              		.loc 1 136 0
 491 003c 005084E5 		str	r5, [r4]
 492              	.LBE59:
 493              	.LBE58:
 494              		.loc 1 186 0
 495 0040 0300A0E1 		mov	r0, r3
 496              	.LVL44:
 497 0044 3080BDE8 		ldmfd	sp!, {r4, r5, pc}
 498              	.LVL45:
 499              	.L55:
 500              	.LBB60:
 501              	.LBB61:
 502              		.loc 1 163 0
 503 0048 0130A0E3 		mov	r3, #1
 504 004c 20C09FE5 		ldr	ip, .L58+8
 505              		.loc 1 164 0
 506 0050 20109FE5 		ldr	r1, .L58+12
 507              		.loc 1 165 0
 508 0054 20209FE5 		ldr	r2, .L58+16
 509              		.loc 1 163 0
 510 0058 00308CE5 		str	r3, [ip]
 511              		.loc 1 165 0
 512 005c 000082E5 		str	r0, [r2]
 513              		.loc 1 164 0
ARM GAS  /var/folders/2d/mv7wzxg53m36fj1flyq1gqvm0000gn/T//ccKaoZSS.s 			page 10


 514 0060 003081E5 		str	r3, [r1]
 515              	.LBE61:
 516              	.LBE60:
 517              		.loc 1 186 0
 518 0064 0300A0E1 		mov	r0, r3
 519              	.LVL46:
 520 0068 3080BDE8 		ldmfd	sp!, {r4, r5, pc}
 521              	.L59:
 522              		.align	2
 523              	.L58:
 524 006c 00000000 		.word	.LANCHOR1
 525 0070 00000000 		.word	.LANCHOR5
 526 0074 00000000 		.word	.LANCHOR2
 527 0078 00000000 		.word	.LANCHOR3
 528 007c 00000000 		.word	.LANCHOR4
 529              		.cfi_endproc
 530              	.LFE15:
 531              		.size	_test_assert_sequence, .-_test_assert_sequence
 532              		.section	.text._test_assert_time_window,"ax",%progbits
 533              		.align	2
 534              		.global	_test_assert_time_window
 535              		.type	_test_assert_time_window, %function
 536              	_test_assert_time_window:
 537              	.LFB16:
 538              		.loc 1 188 0
 539              		.cfi_startproc
 540              		@ args = 0, pretend = 0, frame = 0
 541              		@ frame_needed = 0, uses_anonymous_args = 0
 542              	.LVL47:
 543 0000 10402DE9 		stmfd	sp!, {r4, lr}
 544              		.cfi_def_cfa_offset 8
 545              		.cfi_offset 4, -8
 546              		.cfi_offset 14, -4
 547              		.loc 1 188 0
 548 0004 0040A0E1 		mov	r4, r0
 549              		.loc 1 190 0
 550 0008 0100A0E1 		mov	r0, r1
 551              	.LVL48:
 552 000c 0210A0E1 		mov	r1, r2
 553              	.LVL49:
 554 0010 FEFFFFEB 		bl	chTimeIsWithin
 555              	.LVL50:
 556              	.LBB62:
 557              	.LBB63:
 558              		.loc 1 171 0
 559 0014 000050E3 		cmp	r0, #0
 560              	.LVL51:
 561              	.LBB64:
 562              	.LBB65:
 563              		.loc 1 163 0
 564 0018 0100A003 		moveq	r0, #1
 565              	.LVL52:
 566 001c 18109F05 		ldreq	r1, .L64
 567              		.loc 1 164 0
 568 0020 18209F05 		ldreq	r2, .L64+4
 569              		.loc 1 165 0
 570 0024 18309F05 		ldreq	r3, .L64+8
ARM GAS  /var/folders/2d/mv7wzxg53m36fj1flyq1gqvm0000gn/T//ccKaoZSS.s 			page 11


 571              		.loc 1 163 0
 572 0028 00008105 		streq	r0, [r1]
 573              		.loc 1 164 0
 574 002c 00008205 		streq	r0, [r2]
 575              		.loc 1 165 0
 576 0030 00408305 		streq	r4, [r3]
 577              	.LBE65:
 578              	.LBE64:
 579              		.loc 1 173 0
 580 0034 0000A013 		movne	r0, #0
 581              	.LBE63:
 582              	.LBE62:
 583              		.loc 1 191 0
 584 0038 1080BDE8 		ldmfd	sp!, {r4, pc}
 585              	.L65:
 586              		.align	2
 587              	.L64:
 588 003c 00000000 		.word	.LANCHOR2
 589 0040 00000000 		.word	.LANCHOR3
 590 0044 00000000 		.word	.LANCHOR4
 591              		.cfi_endproc
 592              	.LFE16:
 593              		.size	_test_assert_time_window, .-_test_assert_time_window
 594              		.section	.text.test_terminate_threads,"ax",%progbits
 595              		.align	2
 596              		.global	test_terminate_threads
 597              		.type	test_terminate_threads, %function
 598              	test_terminate_threads:
 599              	.LFB17:
 600              		.loc 1 200 0
 601              		.cfi_startproc
 602              		@ args = 0, pretend = 0, frame = 0
 603              		@ frame_needed = 0, uses_anonymous_args = 0
 604              	.LVL53:
 605 0000 38402DE9 		stmfd	sp!, {r3, r4, r5, lr}
 606              		.cfi_def_cfa_offset 16
 607              		.cfi_offset 3, -16
 608              		.cfi_offset 4, -12
 609              		.cfi_offset 5, -8
 610              		.cfi_offset 14, -4
 611 0004 1C409FE5 		ldr	r4, .L74
 612 0008 145084E2 		add	r5, r4, #20
 613              	.LVL54:
 614              	.L68:
 615              		.loc 1 204 0
 616 000c 040094E4 		ldr	r0, [r4], #4
 617 0010 000050E3 		cmp	r0, #0
 618 0014 0000000A 		beq	.L67
 619              		.loc 1 205 0
 620 0018 FEFFFFEB 		bl	chThdTerminate
 621              	.LVL55:
 622              	.L67:
 623              		.loc 1 203 0 discriminator 2
 624 001c 050054E1 		cmp	r4, r5
 625 0020 F9FFFF1A 		bne	.L68
 626              		.loc 1 206 0
 627 0024 3880BDE8 		ldmfd	sp!, {r3, r4, r5, pc}
ARM GAS  /var/folders/2d/mv7wzxg53m36fj1flyq1gqvm0000gn/T//ccKaoZSS.s 			page 12


 628              	.L75:
 629              		.align	2
 630              	.L74:
 631 0028 00000000 		.word	threads
 632              		.cfi_endproc
 633              	.LFE17:
 634              		.size	test_terminate_threads, .-test_terminate_threads
 635              		.section	.text.test_wait_threads,"ax",%progbits
 636              		.align	2
 637              		.global	test_wait_threads
 638              		.type	test_wait_threads, %function
 639              	test_wait_threads:
 640              	.LFB18:
 641              		.loc 1 211 0
 642              		.cfi_startproc
 643              		@ args = 0, pretend = 0, frame = 0
 644              		@ frame_needed = 0, uses_anonymous_args = 0
 645              	.LVL56:
 646 0000 70402DE9 		stmfd	sp!, {r4, r5, r6, lr}
 647              		.cfi_def_cfa_offset 16
 648              		.cfi_offset 4, -16
 649              		.cfi_offset 5, -12
 650              		.cfi_offset 6, -8
 651              		.cfi_offset 14, -4
 652              		.loc 1 217 0
 653 0004 0060A0E3 		mov	r6, #0
 654 0008 20409FE5 		ldr	r4, .L84
 655 000c 145084E2 		add	r5, r4, #20
 656              	.LVL57:
 657              	.L78:
 658              		.loc 1 215 0
 659 0010 040094E4 		ldr	r0, [r4], #4
 660 0014 000050E3 		cmp	r0, #0
 661 0018 0100000A 		beq	.L77
 662              		.loc 1 216 0
 663 001c FEFFFFEB 		bl	chThdWait
 664              	.LVL58:
 665              		.loc 1 217 0
 666 0020 046004E5 		str	r6, [r4, #-4]
 667              	.L77:
 668              		.loc 1 214 0 discriminator 2
 669 0024 050054E1 		cmp	r4, r5
 670 0028 F8FFFF1A 		bne	.L78
 671              		.loc 1 219 0
 672 002c 7080BDE8 		ldmfd	sp!, {r4, r5, r6, pc}
 673              	.L85:
 674              		.align	2
 675              	.L84:
 676 0030 00000000 		.word	threads
 677              		.cfi_endproc
 678              	.LFE18:
 679              		.size	test_wait_threads, .-test_wait_threads
 680              		.section	.text.test_cpu_pulse,"ax",%progbits
 681              		.align	2
 682              		.global	test_cpu_pulse
 683              		.type	test_cpu_pulse, %function
 684              	test_cpu_pulse:
ARM GAS  /var/folders/2d/mv7wzxg53m36fj1flyq1gqvm0000gn/T//ccKaoZSS.s 			page 13


 685              	.LFB19:
 686              		.loc 1 228 0
 687              		.cfi_startproc
 688              		@ args = 0, pretend = 0, frame = 0
 689              		@ frame_needed = 0, uses_anonymous_args = 0
 690              	.LVL59:
 691              		.loc 1 232 0
 692 0000 FA3FA0E3 		mov	r3, #1000
 693 0004 930000E0 		mul	r0, r3, r0
 694              	.LVL60:
 695              		.loc 1 231 0
 696 0008 68309FE5 		ldr	r3, .L94
 697              		.loc 1 232 0
 698 000c 68109FE5 		ldr	r1, .L94+4
 699              		.loc 1 228 0
 700 0010 04E02DE5 		str	lr, [sp, #-4]!
 701              		.cfi_def_cfa_offset 4
 702              		.cfi_offset 14, -4
 703              		.loc 1 232 0
 704 0014 FA0F40E2 		sub	r0, r0, #1000
 705              		.loc 1 231 0
 706 0018 18E093E5 		ldr	lr, [r3, #24]
 707              		.loc 1 232 0
 708 001c 913081E0 		umull	r3, r1, r1, r0
 709              		.loc 1 231 0
 710 0020 20C09EE5 		ldr	ip, [lr, #32]
 711              	.LVL61:
 712 0024 01308CE2 		add	r3, ip, #1
 713              		.loc 1 232 0
 714 0028 211383E0 		add	r1, r3, r1, lsr #6
 715              	.LVL62:
 716 002c 060000EA 		b	.L89
 717              	.LVL63:
 718              	.L93:
 719              		.loc 1 239 0 discriminator 1
 720 0030 010052E1 		cmp	r2, r1
 721 0034 0130A033 		movcc	r3, #1
 722 0038 0030A023 		movcs	r3, #0
 723 003c 0C0052E1 		cmp	r2, ip
 724 0040 0030A033 		movcc	r3, #0
 725              		.loc 1 240 0 discriminator 1
 726 0044 000053E3 		cmp	r3, #0
 727 0048 0900000A 		beq	.L92
 728              	.LVL64:
 729              	.L89:
 730              		.loc 1 239 0
 731 004c 01005CE1 		cmp	ip, r1
 732              		.loc 1 234 0
 733 0050 20209EE5 		ldr	r2, [lr, #32]
 734              	.LVL65:
 735              		.loc 1 239 0
 736 0054 F5FFFF3A 		bcc	.L93
 737              		.loc 1 240 0 discriminator 2
 738 0058 0C0052E1 		cmp	r2, ip
 739 005c 0030A033 		movcc	r3, #0
 740 0060 0130A023 		movcs	r3, #1
 741 0064 010052E1 		cmp	r2, r1
ARM GAS  /var/folders/2d/mv7wzxg53m36fj1flyq1gqvm0000gn/T//ccKaoZSS.s 			page 14


 742 0068 01308333 		orrcc	r3, r3, #1
 743 006c 000053E3 		cmp	r3, #0
 744 0070 F5FFFF1A 		bne	.L89
 745              	.L92:
 746              		.loc 1 241 0
 747 0074 04F09DE4 		ldr	pc, [sp], #4
 748              	.L95:
 749              		.align	2
 750              	.L94:
 751 0078 00000000 		.word	rlist
 752 007c D34D6210 		.word	274877907
 753              		.cfi_endproc
 754              	.LFE19:
 755              		.size	test_cpu_pulse, .-test_cpu_pulse
 756              		.section	.text.test_wait_tick,"ax",%progbits
 757              		.align	2
 758              		.global	test_wait_tick
 759              		.type	test_wait_tick, %function
 760              	test_wait_tick:
 761              	.LFB20:
 762              		.loc 1 249 0
 763              		.cfi_startproc
 764              		@ args = 0, pretend = 0, frame = 0
 765              		@ frame_needed = 0, uses_anonymous_args = 0
 766 0000 08402DE9 		stmfd	sp!, {r3, lr}
 767              		.cfi_def_cfa_offset 8
 768              		.cfi_offset 3, -8
 769              		.cfi_offset 14, -4
 770              		.loc 1 251 0
 771 0004 0100A0E3 		mov	r0, #1
 772 0008 FEFFFFEB 		bl	chThdSleep
 773              	.LVL66:
 774              		.loc 1 252 0
 775 000c 04309FE5 		ldr	r3, .L98
 776 0010 0C0093E5 		ldr	r0, [r3, #12]
 777              		.loc 1 253 0
 778 0014 0880BDE8 		ldmfd	sp!, {r3, pc}
 779              	.L99:
 780              		.align	2
 781              	.L98:
 782 0018 00000000 		.word	vtlist
 783              		.cfi_endproc
 784              	.LFE20:
 785              		.size	test_wait_tick, .-test_wait_tick
 786              		.section	.text.test_start_timer,"ax",%progbits
 787              		.align	2
 788              		.global	test_start_timer
 789              		.type	test_start_timer, %function
 790              	test_start_timer:
 791              	.LFB22:
 792              		.loc 1 276 0
 793              		.cfi_startproc
 794              		@ args = 0, pretend = 0, frame = 0
 795              		@ frame_needed = 0, uses_anonymous_args = 0
 796              	.LVL67:
 797 0000 08402DE9 		stmfd	sp!, {r3, lr}
 798              		.cfi_def_cfa_offset 8
ARM GAS  /var/folders/2d/mv7wzxg53m36fj1flyq1gqvm0000gn/T//ccKaoZSS.s 			page 15


 799              		.cfi_offset 3, -8
 800              		.cfi_offset 14, -4
 801              		.loc 1 279 0
 802 0004 0030A0E3 		mov	r3, #0
 803 0008 34209FE5 		ldr	r2, .L102
 804              	.LVL68:
 805 000c 003082E5 		str	r3, [r2]
 806              		.loc 1 280 0
 807              	@ 280 "../../test/test.c" 1
 808 0010 9FF021E3 		msr     CPSR_c, #0x9F
 809              	@ 0 "" 2
 810              		.loc 1 278 0
 811 0014 FA2FA0E3 		mov	r2, #1000
 812 0018 920000E0 		mul	r0, r2, r0
 813              	.LVL69:
 814 001c 24109FE5 		ldr	r1, .L102+4
 815 0020 FA0F40E2 		sub	r0, r0, #1000
 816 0024 912081E0 		umull	r2, r1, r1, r0
 817 0028 2113A0E1 		mov	r1, r1, lsr #6
 818              		.loc 1 280 0
 819 002c 011081E2 		add	r1, r1, #1
 820 0030 14009FE5 		ldr	r0, .L102+8
 821 0034 14209FE5 		ldr	r2, .L102+12
 822 0038 FEFFFFEB 		bl	chVTSetI
 823              	.LVL70:
 824              	@ 280 "../../test/test.c" 1
 825 003c 1FF021E3 		msr     CPSR_c, #0x1F
 826              	@ 0 "" 2
 827 0040 0880BDE8 		ldmfd	sp!, {r3, pc}
 828              	.L103:
 829              		.align	2
 830              	.L102:
 831 0044 00000000 		.word	test_timer_done
 832 0048 D34D6210 		.word	274877907
 833 004c 00000000 		.word	.LANCHOR6
 834 0050 00000000 		.word	tmr
 835              		.cfi_endproc
 836              	.LFE22:
 837              		.size	test_start_timer, .-test_start_timer
 838              		.section	.text.TestThread,"ax",%progbits
 839              		.align	2
 840              		.global	TestThread
 841              		.type	TestThread, %function
 842              	TestThread:
 843              	.LFB25:
 844              		.loc 1 318 0
 845              		.cfi_startproc
 846              		@ args = 0, pretend = 0, frame = 8
 847              		@ frame_needed = 0, uses_anonymous_args = 0
 848              	.LVL71:
 849 0000 F04F2DE9 		stmfd	sp!, {r4, r5, r6, r7, r8, r9, r10, fp, lr}
 850              		.cfi_def_cfa_offset 36
 851              		.cfi_offset 4, -36
 852              		.cfi_offset 5, -32
 853              		.cfi_offset 6, -28
 854              		.cfi_offset 7, -24
 855              		.cfi_offset 8, -20
ARM GAS  /var/folders/2d/mv7wzxg53m36fj1flyq1gqvm0000gn/T//ccKaoZSS.s 			page 16


 856              		.cfi_offset 9, -16
 857              		.cfi_offset 10, -12
 858              		.cfi_offset 11, -8
 859              		.cfi_offset 14, -4
 860              		.loc 1 321 0
 861 0004 D4439FE5 		ldr	r4, .L183
 862              		.loc 1 318 0
 863 0008 0CD04DE2 		sub	sp, sp, #12
 864              		.cfi_def_cfa_offset 48
 865              		.loc 1 321 0
 866 000c 000084E5 		str	r0, [r4]
 867              		.loc 1 322 0
 868 0010 CC039FE5 		ldr	r0, .L183+4
 869              	.LVL72:
 870 0014 FEFFFFEB 		bl	test_println
 871              	.LVL73:
 872              		.loc 1 323 0
 873 0018 C8039FE5 		ldr	r0, .L183+8
 874 001c FEFFFFEB 		bl	test_println
 875              	.LVL74:
 876              		.loc 1 324 0
 877 0020 C4039FE5 		ldr	r0, .L183+12
 878 0024 FEFFFFEB 		bl	test_println
 879              	.LVL75:
 880 0028 2A10A0E3 		mov	r1, #42
 881 002c BC539FE5 		ldr	r5, .L183+16
 882              	.LVL76:
 883              	.L105:
 884              	.LBB100:
 885              	.LBB101:
 886              		.loc 1 117 0
 887 0030 000094E5 		ldr	r0, [r4]
 888 0034 003090E5 		ldr	r3, [r0]
 889 0038 083093E5 		ldr	r3, [r3, #8]
 890 003c 33FF2FE1 		blx	r3
 891              	.LVL77:
 892              		.loc 1 116 0
 893 0040 0110F5E5 		ldrb	r1, [r5, #1]!	@ zero_extendqisi2
 894              	.LVL78:
 895 0044 000051E3 		cmp	r1, #0
 896 0048 F8FFFF1A 		bne	.L105
 897              	.LBE101:
 898              	.LBE100:
 899              		.loc 1 326 0
 900 004c A0039FE5 		ldr	r0, .L183+20
 901 0050 FEFFFFEB 		bl	test_println
 902              	.LVL79:
 903 0054 2A10A0E3 		mov	r1, #42
 904 0058 98539FE5 		ldr	r5, .L183+24
 905              	.LVL80:
 906              	.L107:
 907              	.LBB102:
 908              	.LBB103:
 909              		.loc 1 117 0
 910 005c 000094E5 		ldr	r0, [r4]
 911 0060 003090E5 		ldr	r3, [r0]
 912 0064 083093E5 		ldr	r3, [r3, #8]
ARM GAS  /var/folders/2d/mv7wzxg53m36fj1flyq1gqvm0000gn/T//ccKaoZSS.s 			page 17


 913 0068 33FF2FE1 		blx	r3
 914              	.LVL81:
 915              		.loc 1 116 0
 916 006c 0110F5E5 		ldrb	r1, [r5, #1]!	@ zero_extendqisi2
 917              	.LVL82:
 918 0070 000051E3 		cmp	r1, #0
 919 0074 F8FFFF1A 		bne	.L107
 920              	.LBE103:
 921              	.LBE102:
 922              		.loc 1 328 0
 923 0078 7C039FE5 		ldr	r0, .L183+28
 924 007c FEFFFFEB 		bl	test_println
 925              	.LVL83:
 926 0080 2A10A0E3 		mov	r1, #42
 927 0084 74539FE5 		ldr	r5, .L183+32
 928              	.LVL84:
 929              	.L109:
 930              	.LBB104:
 931              	.LBB105:
 932              		.loc 1 117 0
 933 0088 000094E5 		ldr	r0, [r4]
 934 008c 003090E5 		ldr	r3, [r0]
 935 0090 083093E5 		ldr	r3, [r3, #8]
 936 0094 33FF2FE1 		blx	r3
 937              	.LVL85:
 938              		.loc 1 116 0
 939 0098 0110F5E5 		ldrb	r1, [r5, #1]!	@ zero_extendqisi2
 940              	.LVL86:
 941 009c 000051E3 		cmp	r1, #0
 942 00a0 F8FFFF1A 		bne	.L109
 943              	.LBE105:
 944              	.LBE104:
 945              		.loc 1 331 0
 946 00a4 58039FE5 		ldr	r0, .L183+36
 947 00a8 FEFFFFEB 		bl	test_println
 948              	.LVL87:
 949 00ac 2A10A0E3 		mov	r1, #42
 950 00b0 50539FE5 		ldr	r5, .L183+40
 951              	.LVL88:
 952              	.L111:
 953              	.LBB106:
 954              	.LBB107:
 955              		.loc 1 117 0
 956 00b4 000094E5 		ldr	r0, [r4]
 957 00b8 003090E5 		ldr	r3, [r0]
 958 00bc 083093E5 		ldr	r3, [r3, #8]
 959 00c0 33FF2FE1 		blx	r3
 960              	.LVL89:
 961              		.loc 1 116 0
 962 00c4 0110F5E5 		ldrb	r1, [r5, #1]!	@ zero_extendqisi2
 963              	.LVL90:
 964 00c8 000051E3 		cmp	r1, #0
 965 00cc F8FFFF1A 		bne	.L111
 966              	.LBE107:
 967              	.LBE106:
 968              		.loc 1 334 0
 969 00d0 34039FE5 		ldr	r0, .L183+44
ARM GAS  /var/folders/2d/mv7wzxg53m36fj1flyq1gqvm0000gn/T//ccKaoZSS.s 			page 18


 970 00d4 FEFFFFEB 		bl	test_println
 971              	.LVL91:
 972 00d8 2A10A0E3 		mov	r1, #42
 973 00dc 2C539FE5 		ldr	r5, .L183+48
 974              	.LVL92:
 975              	.L113:
 976              	.LBB108:
 977              	.LBB109:
 978              		.loc 1 117 0
 979 00e0 000094E5 		ldr	r0, [r4]
 980 00e4 003090E5 		ldr	r3, [r0]
 981 00e8 083093E5 		ldr	r3, [r3, #8]
 982 00ec 33FF2FE1 		blx	r3
 983              	.LVL93:
 984              		.loc 1 116 0
 985 00f0 0110F5E5 		ldrb	r1, [r5, #1]!	@ zero_extendqisi2
 986              	.LVL94:
 987 00f4 000051E3 		cmp	r1, #0
 988 00f8 F8FFFF1A 		bne	.L113
 989              	.LBE109:
 990              	.LBE108:
 991              		.loc 1 337 0
 992 00fc 10039FE5 		ldr	r0, .L183+52
 993 0100 FEFFFFEB 		bl	test_println
 994              	.LVL95:
 995 0104 2A10A0E3 		mov	r1, #42
 996 0108 08539FE5 		ldr	r5, .L183+56
 997              	.LVL96:
 998              	.L115:
 999              	.LBB110:
 1000              	.LBB111:
 1001              		.loc 1 117 0
 1002 010c 000094E5 		ldr	r0, [r4]
 1003 0110 003090E5 		ldr	r3, [r0]
 1004 0114 083093E5 		ldr	r3, [r3, #8]
 1005 0118 33FF2FE1 		blx	r3
 1006              	.LVL97:
 1007              		.loc 1 116 0
 1008 011c 0110F5E5 		ldrb	r1, [r5, #1]!	@ zero_extendqisi2
 1009              	.LVL98:
 1010 0120 000051E3 		cmp	r1, #0
 1011 0124 F8FFFF1A 		bne	.L115
 1012              	.LBE111:
 1013              	.LBE110:
 1014              		.loc 1 341 0
 1015 0128 EC029FE5 		ldr	r0, .L183+60
 1016 012c FEFFFFEB 		bl	test_println
 1017              	.LVL99:
 1018 0130 2A10A0E3 		mov	r1, #42
 1019 0134 E4529FE5 		ldr	r5, .L183+64
 1020              	.LVL100:
 1021              	.L117:
 1022              	.LBB112:
 1023              	.LBB113:
 1024              		.loc 1 117 0
 1025 0138 000094E5 		ldr	r0, [r4]
 1026 013c 003090E5 		ldr	r3, [r0]
ARM GAS  /var/folders/2d/mv7wzxg53m36fj1flyq1gqvm0000gn/T//ccKaoZSS.s 			page 19


 1027 0140 083093E5 		ldr	r3, [r3, #8]
 1028 0144 33FF2FE1 		blx	r3
 1029              	.LVL101:
 1030              		.loc 1 116 0
 1031 0148 0110F5E5 		ldrb	r1, [r5, #1]!	@ zero_extendqisi2
 1032              	.LVL102:
 1033 014c 000051E3 		cmp	r1, #0
 1034 0150 F8FFFF1A 		bne	.L117
 1035              	.LBE113:
 1036              	.LBE112:
 1037              		.loc 1 345 0
 1038 0154 C8029FE5 		ldr	r0, .L183+68
 1039 0158 00108DE5 		str	r1, [sp]
 1040 015c FEFFFFEB 		bl	test_println
 1041              	.LVL103:
 1042              		.loc 1 351 0
 1043 0160 7C029FE5 		ldr	r0, .L183+4
 1044 0164 FEFFFFEB 		bl	test_println
 1045              	.LVL104:
 1046              		.loc 1 353 0
 1047 0168 B8329FE5 		ldr	r3, .L183+72
 1048 016c 00109DE5 		ldr	r1, [sp]
 1049 0170 B4829FE5 		ldr	r8, .L183+76
 1050 0174 001083E5 		str	r1, [r3]
 1051              	.LVL105:
 1052 0178 B0329FE5 		ldr	r3, .L183+80
 1053              	.LBB114:
 1054              	.LBB115:
 1055              	.LBB116:
 1056              	.LBB117:
 1057              		.loc 1 136 0
 1058 017c B0529FE5 		ldr	r5, .L183+84
 1059              	.LVL106:
 1060 0180 B0929FE5 		ldr	r9, .L183+88
 1061 0184 04308DE5 		str	r3, [sp, #4]
 1062              	.LVL107:
 1063              	.L141:
 1064              	.LBE117:
 1065              	.LBE116:
 1066              	.LBE115:
 1067              	.LBE114:
 1068              	.LBB122:
 1069              	.LBB123:
 1070              		.loc 1 142 0
 1071 0188 0060A0E3 		mov	r6, #0
 1072 018c 00309DE5 		ldr	r3, [sp]
 1073 0190 013083E2 		add	r3, r3, #1
 1074 0194 00308DE5 		str	r3, [sp]
 1075              	.LVL108:
 1076              	.L137:
 1077              	.LBE123:
 1078              	.LBE122:
 1079              		.loc 1 357 0
 1080 0198 063198E7 		ldr	r3, [r8, r6, asl #2]
 1081 019c 067188E0 		add	r7, r8, r6, asl #2
 1082 01a0 000053E3 		cmp	r3, #0
 1083 01a4 6F00000A 		beq	.L182
ARM GAS  /var/folders/2d/mv7wzxg53m36fj1flyq1gqvm0000gn/T//ccKaoZSS.s 			page 20


 1084              	.L135:
 1085              		.loc 1 358 0
 1086 01a8 FEFFFFEB 		bl	print_line
 1087              	.LVL109:
 1088 01ac 2D10A0E3 		mov	r1, #45
 1089 01b0 84A29FE5 		ldr	r10, .L183+92
 1090              	.LVL110:
 1091              	.L119:
 1092              	.LBB125:
 1093              	.LBB126:
 1094              		.loc 1 117 0
 1095 01b4 000094E5 		ldr	r0, [r4]
 1096 01b8 20B29FE5 		ldr	fp, .L183
 1097 01bc 002090E5 		ldr	r2, [r0]
 1098 01c0 082092E5 		ldr	r2, [r2, #8]
 1099 01c4 32FF2FE1 		blx	r2
 1100              	.LVL111:
 1101              		.loc 1 116 0
 1102 01c8 0110FAE5 		ldrb	r1, [r10, #1]!	@ zero_extendqisi2
 1103              	.LVL112:
 1104 01cc 000051E3 		cmp	r1, #0
 1105 01d0 F7FFFF1A 		bne	.L119
 1106              	.LBE126:
 1107              	.LBE125:
 1108              		.loc 1 360 0
 1109 01d4 00009DE5 		ldr	r0, [sp]
 1110 01d8 FEFFFFEB 		bl	test_printn
 1111              	.LVL113:
 1112              	.LBB127:
 1113              	.LBB128:
 1114              		.loc 1 117 0
 1115 01dc 00009BE5 		ldr	r0, [fp]
 1116              	.LVL114:
 1117 01e0 2E10A0E3 		mov	r1, #46
 1118 01e4 003090E5 		ldr	r3, [r0]
 1119              	.LBE128:
 1120              	.LBE127:
 1121              		.loc 1 362 0
 1122 01e8 016086E2 		add	r6, r6, #1
 1123              	.LVL115:
 1124              	.LBB130:
 1125              	.LBB129:
 1126              		.loc 1 117 0
 1127 01ec 083093E5 		ldr	r3, [r3, #8]
 1128 01f0 33FF2FE1 		blx	r3
 1129              	.LVL116:
 1130              	.LBE129:
 1131              	.LBE130:
 1132              		.loc 1 362 0
 1133 01f4 0600A0E1 		mov	r0, r6
 1134 01f8 FEFFFFEB 		bl	test_printn
 1135              	.LVL117:
 1136 01fc 2010A0E3 		mov	r1, #32
 1137 0200 38B29FE5 		ldr	fp, .L183+96
 1138              	.LVL118:
 1139              	.L121:
 1140              	.LBB131:
ARM GAS  /var/folders/2d/mv7wzxg53m36fj1flyq1gqvm0000gn/T//ccKaoZSS.s 			page 21


 1141              	.LBB132:
 1142              		.loc 1 117 0
 1143 0204 000094E5 		ldr	r0, [r4]
 1144 0208 002090E5 		ldr	r2, [r0]
 1145 020c 082092E5 		ldr	r2, [r2, #8]
 1146 0210 32FF2FE1 		blx	r2
 1147              	.LVL119:
 1148              		.loc 1 116 0
 1149 0214 0110FBE5 		ldrb	r1, [fp, #1]!	@ zero_extendqisi2
 1150              	.LVL120:
 1151 0218 000051E3 		cmp	r1, #0
 1152 021c F8FFFF1A 		bne	.L121
 1153              	.LBE132:
 1154              	.LBE131:
 1155              		.loc 1 364 0
 1156 0220 003097E5 		ldr	r3, [r7]
 1157 0224 00B093E5 		ldr	fp, [r3]
 1158              	.LVL121:
 1159              	.LBB133:
 1160              	.LBB134:
 1161              		.loc 1 116 0
 1162 0228 0010DBE5 		ldrb	r1, [fp]	@ zero_extendqisi2
 1163 022c 000051E3 		cmp	r1, #0
 1164 0230 0600000A 		beq	.L126
 1165              	.LVL122:
 1166              	.L125:
 1167              		.loc 1 117 0
 1168 0234 000094E5 		ldr	r0, [r4]
 1169 0238 002090E5 		ldr	r2, [r0]
 1170 023c 082092E5 		ldr	r2, [r2, #8]
 1171 0240 32FF2FE1 		blx	r2
 1172              	.LVL123:
 1173              		.loc 1 116 0
 1174 0244 0110FBE5 		ldrb	r1, [fp, #1]!	@ zero_extendqisi2
 1175              	.LVL124:
 1176 0248 000051E3 		cmp	r1, #0
 1177 024c F8FFFF1A 		bne	.L125
 1178              	.LVL125:
 1179              	.L126:
 1180              	.LBE134:
 1181              	.LBE133:
 1182              		.loc 1 365 0
 1183 0250 EC019FE5 		ldr	r0, .L183+100
 1184 0254 FEFFFFEB 		bl	test_println
 1185              	.LVL126:
 1186              		.loc 1 367 0
 1187 0258 C800A0E3 		mov	r0, #200
 1188 025c FEFFFFEB 		bl	chThdSleep
 1189              	.LVL127:
 1190              	.LBB135:
 1191              	.LBB120:
 1192              		.loc 1 291 0
 1193 0260 0030A0E3 		mov	r3, #0
 1194              		.loc 1 293 0
 1195 0264 DC219FE5 		ldr	r2, .L183+104
 1196              	.LBE120:
 1197              	.LBE135:
ARM GAS  /var/folders/2d/mv7wzxg53m36fj1flyq1gqvm0000gn/T//ccKaoZSS.s 			page 22


 1198              		.loc 1 369 0
 1199 0268 00B097E5 		ldr	fp, [r7]
 1200              	.LVL128:
 1201              	.LBB136:
 1202              	.LBB121:
 1203              		.loc 1 293 0
 1204 026c 003082E5 		str	r3, [r2]
 1205 0270 043082E5 		str	r3, [r2, #4]
 1206 0274 083082E5 		str	r3, [r2, #8]
 1207 0278 0C3082E5 		str	r3, [r2, #12]
 1208 027c 103082E5 		str	r3, [r2, #16]
 1209              		.loc 1 295 0
 1210 0280 04209BE5 		ldr	r2, [fp, #4]
 1211              		.loc 1 291 0
 1212 0284 C0719FE5 		ldr	r7, .L183+108
 1213              		.loc 1 295 0
 1214 0288 030052E1 		cmp	r2, r3
 1215              	.LBB119:
 1216              	.LBB118:
 1217              		.loc 1 136 0
 1218 028c 009085E5 		str	r9, [r5]
 1219              	.LBE118:
 1220              	.LBE119:
 1221              		.loc 1 291 0
 1222 0290 003087E5 		str	r3, [r7]
 1223              	.LVL129:
 1224              		.loc 1 295 0
 1225 0294 0000000A 		beq	.L124
 1226              		.loc 1 296 0
 1227 0298 32FF2FE1 		blx	r2
 1228              	.LVL130:
 1229              	.L124:
 1230              		.loc 1 297 0
 1231 029c 0C309BE5 		ldr	r3, [fp, #12]
 1232 02a0 33FF2FE1 		blx	r3
 1233              	.LVL131:
 1234              		.loc 1 298 0
 1235 02a4 08309BE5 		ldr	r3, [fp, #8]
 1236 02a8 000053E3 		cmp	r3, #0
 1237 02ac 0000000A 		beq	.L172
 1238              		.loc 1 299 0
 1239 02b0 33FF2FE1 		blx	r3
 1240              	.LVL132:
 1241              	.L172:
 1242              		.loc 1 301 0
 1243 02b4 FEFFFFEB 		bl	test_wait_threads
 1244              	.LVL133:
 1245              	.LBE121:
 1246              	.LBE136:
 1247              		.loc 1 370 0
 1248 02b8 003097E5 		ldr	r3, [r7]
 1249 02bc 000053E3 		cmp	r3, #0
 1250 02c0 4300000A 		beq	.L128
 1251              	.LVL134:
 1252              		.loc 1 362 0
 1253 02c4 2D10A0E3 		mov	r1, #45
 1254 02c8 80719FE5 		ldr	r7, .L183+112
ARM GAS  /var/folders/2d/mv7wzxg53m36fj1flyq1gqvm0000gn/T//ccKaoZSS.s 			page 23


 1255              	.LVL135:
 1256              	.L129:
 1257              	.LBB137:
 1258              	.LBB138:
 1259              		.loc 1 117 0
 1260 02cc 000094E5 		ldr	r0, [r4]
 1261 02d0 003090E5 		ldr	r3, [r0]
 1262 02d4 083093E5 		ldr	r3, [r3, #8]
 1263 02d8 33FF2FE1 		blx	r3
 1264              	.LVL136:
 1265              		.loc 1 116 0
 1266 02dc 0110F7E5 		ldrb	r1, [r7, #1]!	@ zero_extendqisi2
 1267              	.LVL137:
 1268 02e0 000051E3 		cmp	r1, #0
 1269 02e4 F8FFFF1A 		bne	.L129
 1270              	.LBE138:
 1271              	.LBE137:
 1272              		.loc 1 372 0
 1273 02e8 64319FE5 		ldr	r3, .L183+116
 1274 02ec 64719FE5 		ldr	r7, .L183+120
 1275              	.LVL138:
 1276 02f0 000093E5 		ldr	r0, [r3]
 1277 02f4 FEFFFFEB 		bl	test_printn
 1278              	.LVL139:
 1279 02f8 2010A0E3 		mov	r1, #32
 1280              	.LVL140:
 1281              	.L131:
 1282              	.LBB139:
 1283              	.LBB140:
 1284              		.loc 1 117 0
 1285 02fc 000094E5 		ldr	r0, [r4]
 1286 0300 003090E5 		ldr	r3, [r0]
 1287 0304 083093E5 		ldr	r3, [r3, #8]
 1288 0308 33FF2FE1 		blx	r3
 1289              	.LVL141:
 1290              		.loc 1 116 0
 1291 030c 0110F7E5 		ldrb	r1, [r7, #1]!	@ zero_extendqisi2
 1292              	.LVL142:
 1293 0310 000051E3 		cmp	r1, #0
 1294 0314 F8FFFF1A 		bne	.L131
 1295              	.LVL143:
 1296              	.LBE140:
 1297              	.LBE139:
 1298              	.LBB141:
 1299              	.LBB124:
 1300              		.loc 1 142 0
 1301 0318 003095E5 		ldr	r3, [r5]
 1302 031c 090053E1 		cmp	r3, r9
 1303 0320 10719F85 		ldrhi	r7, .L183+88
 1304              	.LVL144:
 1305 0324 0700009A 		bls	.L134
 1306              	.LVL145:
 1307              	.L132:
 1308              		.loc 1 143 0
 1309 0328 000094E5 		ldr	r0, [r4]
 1310 032c 0110D7E4 		ldrb	r1, [r7], #1	@ zero_extendqisi2
 1311              	.LVL146:
ARM GAS  /var/folders/2d/mv7wzxg53m36fj1flyq1gqvm0000gn/T//ccKaoZSS.s 			page 24


 1312 0330 003090E5 		ldr	r3, [r0]
 1313 0334 083093E5 		ldr	r3, [r3, #8]
 1314 0338 33FF2FE1 		blx	r3
 1315              	.LVL147:
 1316              		.loc 1 142 0
 1317 033c 003095E5 		ldr	r3, [r5]
 1318 0340 030057E1 		cmp	r7, r3
 1319 0344 F7FFFF3A 		bcc	.L132
 1320              	.LVL148:
 1321              	.L134:
 1322              	.LBE124:
 1323              	.LBE141:
 1324              		.loc 1 375 0
 1325 0348 0C019FE5 		ldr	r0, .L183+124
 1326 034c FEFFFFEB 		bl	test_println
 1327              	.LVL149:
 1328 0350 04309DE5 		ldr	r3, [sp, #4]
 1329 0354 008093E5 		ldr	r8, [r3]
 1330              	.LVL150:
 1331              		.loc 1 357 0
 1332 0358 063198E7 		ldr	r3, [r8, r6, asl #2]
 1333 035c 067188E0 		add	r7, r8, r6, asl #2
 1334 0360 000053E3 		cmp	r3, #0
 1335 0364 8FFFFF1A 		bne	.L135
 1336              	.LVL151:
 1337              	.L182:
 1338              		.loc 1 355 0
 1339 0368 04309DE5 		ldr	r3, [sp, #4]
 1340 036c 0480B3E5 		ldr	r8, [r3, #4]!
 1341 0370 000058E3 		cmp	r8, #0
 1342 0374 04308DE5 		str	r3, [sp, #4]
 1343 0378 82FFFF1A 		bne	.L141
 1344              		.loc 1 383 0
 1345 037c FEFFFFEB 		bl	print_line
 1346              	.LVL152:
 1347              		.loc 1 384 0
 1348 0380 5C009FE5 		ldr	r0, .L183+4
 1349 0384 FEFFFFEB 		bl	test_println
 1350              	.LVL153:
 1351 0388 4610A0E3 		mov	r1, #70
 1352 038c CC509FE5 		ldr	r5, .L183+128
 1353              	.LVL154:
 1354              	.L138:
 1355              	.LBB142:
 1356              	.LBB143:
 1357              		.loc 1 117 0
 1358 0390 000094E5 		ldr	r0, [r4]
 1359 0394 003090E5 		ldr	r3, [r0]
 1360 0398 083093E5 		ldr	r3, [r3, #8]
 1361 039c 33FF2FE1 		blx	r3
 1362              	.LVL155:
 1363              		.loc 1 116 0
 1364 03a0 0110F5E5 		ldrb	r1, [r5, #1]!	@ zero_extendqisi2
 1365              	.LVL156:
 1366 03a4 000051E3 		cmp	r1, #0
 1367 03a8 F8FFFF1A 		bne	.L138
 1368              	.LBE143:
ARM GAS  /var/folders/2d/mv7wzxg53m36fj1flyq1gqvm0000gn/T//ccKaoZSS.s 			page 25


 1369              	.LBE142:
 1370              		.loc 1 386 0
 1371 03ac 74309FE5 		ldr	r3, .L183+72
 1372 03b0 003093E5 		ldr	r3, [r3]
 1373 03b4 000053E3 		cmp	r3, #0
 1374              		.loc 1 387 0
 1375 03b8 A4009F15 		ldrne	r0, .L183+132
 1376              		.loc 1 389 0
 1377 03bc A4009F05 		ldreq	r0, .L183+136
 1378 03c0 FEFFFFEB 		bl	test_println
 1379              	.LVL157:
 1380              		.loc 1 391 0
 1381 03c4 5C309FE5 		ldr	r3, .L183+72
 1382 03c8 000093E5 		ldr	r0, [r3]
 1383              		.loc 1 392 0
 1384 03cc 0CD08DE2 		add	sp, sp, #12
 1385              		.cfi_remember_state
 1386              		.cfi_def_cfa_offset 36
 1387              	.LVL158:
 1388              		@ sp needed
 1389 03d0 F08FBDE8 		ldmfd	sp!, {r4, r5, r6, r7, r8, r9, r10, fp, pc}
 1390              	.LVL159:
 1391              	.L128:
 1392              		.cfi_restore_state
 1393              		.loc 1 378 0
 1394 03d4 90009FE5 		ldr	r0, .L183+140
 1395 03d8 FEFFFFEB 		bl	test_println
 1396              	.LVL160:
 1397 03dc 6DFFFFEA 		b	.L137
 1398              	.L184:
 1399              		.align	2
 1400              	.L183:
 1401 03e0 00000000 		.word	.LANCHOR0
 1402 03e4 D0000000 		.word	.LC13
 1403 03e8 D4000000 		.word	.LC14
 1404 03ec F0000000 		.word	.LC15
 1405 03f0 04000000 		.word	.LC1
 1406 03f4 20010000 		.word	.LC21
 1407 03f8 18000000 		.word	.LC2
 1408 03fc 30010000 		.word	.LC22
 1409 0400 2C000000 		.word	.LC3
 1410 0404 48010000 		.word	.LC23
 1411 0408 40000000 		.word	.LC4
 1412 040c 90010000 		.word	.LC24
 1413 0410 54000000 		.word	.LC5
 1414 0414 98010000 		.word	.LC25
 1415 0418 68000000 		.word	.LC6
 1416 041c A8010000 		.word	.LC26
 1417 0420 7C000000 		.word	.LC7
 1418 0424 B8010000 		.word	.LC27
 1419 0428 00000000 		.word	.LANCHOR3
 1420 042c 00000000 		.word	patternthd
 1421 0430 00000000 		.word	.LANCHOR7
 1422 0434 00000000 		.word	.LANCHOR1
 1423 0438 00000000 		.word	.LANCHOR5
 1424 043c 90000000 		.word	.LC8
 1425 0440 A0000000 		.word	.LC9
ARM GAS  /var/folders/2d/mv7wzxg53m36fj1flyq1gqvm0000gn/T//ccKaoZSS.s 			page 26


 1426 0444 F4000000 		.word	.LC16
 1427 0448 00000000 		.word	threads
 1428 044c 00000000 		.word	.LANCHOR2
 1429 0450 A4000000 		.word	.LC10
 1430 0454 00000000 		.word	.LANCHOR4
 1431 0458 BC000000 		.word	.LC11
 1432 045c F8000000 		.word	.LC17
 1433 0460 C0000000 		.word	.LC12
 1434 0464 10010000 		.word	.LC19
 1435 0468 18010000 		.word	.LC20
 1436 046c FC000000 		.word	.LC18
 1437              		.cfi_endproc
 1438              	.LFE25:
 1439              		.size	TestThread, .-TestThread
 1440              		.comm	test_timer_done,4,4
 1441              		.global	wa
 1442              		.comm	threads,20,4
 1443              		.comm	test,1400,4
 1444              		.section	.bss.failpoint,"aw",%nobits
 1445              		.align	2
 1446              		.set	.LANCHOR4,. + 0
 1447              		.type	failpoint, %object
 1448              		.size	failpoint, 4
 1449              	failpoint:
 1450 0000 00000000 		.space	4
 1451              		.section	.bss.local_fail,"aw",%nobits
 1452              		.align	2
 1453              		.set	.LANCHOR2,. + 0
 1454              		.type	local_fail, %object
 1455              		.size	local_fail, 4
 1456              	local_fail:
 1457 0000 00000000 		.space	4
 1458              		.section	.rodata.wa,"a",%progbits
 1459              		.align	2
 1460              		.type	wa, %object
 1461              		.size	wa, 20
 1462              	wa:
 1463 0000 00000000 		.word	test
 1464 0004 18010000 		.word	test+280
 1465 0008 30020000 		.word	test+560
 1466 000c 48030000 		.word	test+840
 1467 0010 60040000 		.word	test+1120
 1468              		.section	.bss.tokp,"aw",%nobits
 1469              		.align	2
 1470              		.set	.LANCHOR1,. + 0
 1471              		.type	tokp, %object
 1472              		.size	tokp, 4
 1473              	tokp:
 1474 0000 00000000 		.space	4
 1475              		.section	.bss.global_fail,"aw",%nobits
 1476              		.align	2
 1477              		.set	.LANCHOR3,. + 0
 1478              		.type	global_fail, %object
 1479              		.size	global_fail, 4
 1480              	global_fail:
 1481 0000 00000000 		.space	4
 1482              		.section	.rodata.str1.4,"aMS",%progbits,1
ARM GAS  /var/folders/2d/mv7wzxg53m36fj1flyq1gqvm0000gn/T//ccKaoZSS.s 			page 27


 1483              		.align	2
 1484              	.LC0:
 1485 0000 0D0A00   		.ascii	"\015\012\000"
 1486 0003 00       		.space	1
 1487              	.LC1:
 1488 0004 2A2A2A20 		.ascii	"*** Kernel:       \000"
 1488      4B65726E 
 1488      656C3A20 
 1488      20202020 
 1488      202000
 1489 0017 00       		.space	1
 1490              	.LC2:
 1491 0018 2A2A2A20 		.ascii	"*** Compiled:     \000"
 1491      436F6D70 
 1491      696C6564 
 1491      3A202020 
 1491      202000
 1492 002b 00       		.space	1
 1493              	.LC3:
 1494 002c 2A2A2A20 		.ascii	"*** Compiler:     \000"
 1494      436F6D70 
 1494      696C6572 
 1494      3A202020 
 1494      202000
 1495 003f 00       		.space	1
 1496              	.LC4:
 1497 0040 2A2A2A20 		.ascii	"*** Architecture: \000"
 1497      41726368 
 1497      69746563 
 1497      74757265 
 1497      3A2000
 1498 0053 00       		.space	1
 1499              	.LC5:
 1500 0054 2A2A2A20 		.ascii	"*** Core Variant: \000"
 1500      436F7265 
 1500      20566172 
 1500      69616E74 
 1500      3A2000
 1501 0067 00       		.space	1
 1502              	.LC6:
 1503 0068 2A2A2A20 		.ascii	"*** Port Info:    \000"
 1503      506F7274 
 1503      20496E66 
 1503      6F3A2020 
 1503      202000
 1504 007b 00       		.space	1
 1505              	.LC7:
 1506 007c 2A2A2A20 		.ascii	"*** Platform:     \000"
 1506      506C6174 
 1506      666F726D 
 1506      3A202020 
 1506      202000
 1507 008f 00       		.space	1
 1508              	.LC8:
 1509 0090 2D2D2D20 		.ascii	"--- Test Case \000"
 1509      54657374 
 1509      20436173 
ARM GAS  /var/folders/2d/mv7wzxg53m36fj1flyq1gqvm0000gn/T//ccKaoZSS.s 			page 28


 1509      652000
 1510 009f 00       		.space	1
 1511              	.LC9:
 1512 00a0 202800   		.ascii	" (\000"
 1513 00a3 00       		.space	1
 1514              	.LC10:
 1515 00a4 2D2D2D20 		.ascii	"--- Result: FAILURE (#\000"
 1515      52657375 
 1515      6C743A20 
 1515      4641494C 
 1515      55524520 
 1516 00bb 00       		.space	1
 1517              	.LC11:
 1518 00bc 205B00   		.ascii	" [\000"
 1519 00bf 00       		.space	1
 1520              	.LC12:
 1521 00c0 46696E61 		.ascii	"Final result: \000"
 1521      6C207265 
 1521      73756C74 
 1521      3A2000
 1522 00cf 00       		.space	1
 1523              	.LC13:
 1524 00d0 00       		.ascii	"\000"
 1525 00d1 000000   		.space	3
 1526              	.LC14:
 1527 00d4 2A2A2A20 		.ascii	"*** ChibiOS/RT test suite\000"
 1527      43686962 
 1527      694F532F 
 1527      52542074 
 1527      65737420 
 1528 00ee 0000     		.space	2
 1529              	.LC15:
 1530 00f0 2A2A2A00 		.ascii	"***\000"
 1531              	.LC16:
 1532 00f4 2900     		.ascii	")\000"
 1533 00f6 0000     		.space	2
 1534              	.LC17:
 1535 00f8 5D2900   		.ascii	"])\000"
 1536 00fb 00       		.space	1
 1537              	.LC18:
 1538 00fc 2D2D2D20 		.ascii	"--- Result: SUCCESS\000"
 1538      52657375 
 1538      6C743A20 
 1538      53554343 
 1538      45535300 
 1539              	.LC19:
 1540 0110 4641494C 		.ascii	"FAILURE\000"
 1540      55524500 
 1541              	.LC20:
 1542 0118 53554343 		.ascii	"SUCCESS\000"
 1542      45535300 
 1543              	.LC21:
 1544 0120 322E352E 		.ascii	"2.5.1unstable\000"
 1544      31756E73 
 1544      7461626C 
 1544      6500
 1545 012e 0000     		.space	2
ARM GAS  /var/folders/2d/mv7wzxg53m36fj1flyq1gqvm0000gn/T//ccKaoZSS.s 			page 29


 1546              	.LC22:
 1547 0130 44656320 		.ascii	"Dec  1 2021 - 19:24:04\000"
 1547      20312032 
 1547      30323120 
 1547      2D203139 
 1547      3A32343A 
 1548 0147 00       		.space	1
 1549              	.LC23:
 1550 0148 47434320 		.ascii	"GCC 4.9.3 20150529 (release) [ARM/embedded-4_9-bran"
 1550      342E392E 
 1550      33203230 
 1550      31353035 
 1550      32392028 
 1551 017b 63682072 		.ascii	"ch revision 227977]\000"
 1551      65766973 
 1551      696F6E20 
 1551      32323739 
 1551      37375D00 
 1552 018f 00       		.space	1
 1553              	.LC24:
 1554 0190 41524D31 		.ascii	"ARM11\000"
 1554      3100
 1555 0196 0000     		.space	2
 1556              	.LC25:
 1557 0198 41524D31 		.ascii	"ARM1176JZF-S\000"
 1557      3137364A 
 1557      5A462D53 
 1557      00
 1558 01a5 000000   		.space	3
 1559              	.LC26:
 1560 01a8 50757265 		.ascii	"Pure ARM mode\000"
 1560      2041524D 
 1560      206D6F64 
 1560      6500
 1561 01b6 0000     		.space	2
 1562              	.LC27:
 1563 01b8 42434D32 		.ascii	"BCM2835\000"
 1563      38333500 
 1564              		.section	.rodata.patterns,"a",%progbits
 1565              		.align	2
 1566              		.set	.LANCHOR7,. + 0
 1567              		.type	patterns, %object
 1568              		.size	patterns, 48
 1569              	patterns:
 1570 0000 00000000 		.word	patternthd
 1571 0004 00000000 		.word	patternsem
 1572 0008 00000000 		.word	patternmtx
 1573 000c 00000000 		.word	patternmsg
 1574 0010 00000000 		.word	patternmbox
 1575 0014 00000000 		.word	patternevt
 1576 0018 00000000 		.word	patternheap
 1577 001c 00000000 		.word	patternpools
 1578 0020 00000000 		.word	patterndyn
 1579 0024 00000000 		.word	patternqueues
 1580 0028 00000000 		.word	patternbmk
 1581 002c 00000000 		.word	0
 1582              		.section	.bss.vt,"aw",%nobits
ARM GAS  /var/folders/2d/mv7wzxg53m36fj1flyq1gqvm0000gn/T//ccKaoZSS.s 			page 30


 1583              		.align	2
 1584              		.set	.LANCHOR6,. + 0
 1585              		.type	vt, %object
 1586              		.size	vt, 20
 1587              	vt:
 1588 0000 00000000 		.space	20
 1588      00000000 
 1588      00000000 
 1588      00000000 
 1588      00000000 
 1589              		.section	.bss.chp,"aw",%nobits
 1590              		.align	2
 1591              		.set	.LANCHOR0,. + 0
 1592              		.type	chp, %object
 1593              		.size	chp, 4
 1594              	chp:
 1595 0000 00000000 		.space	4
 1596              		.section	.bss.tokens_buffer,"aw",%nobits
 1597              		.align	2
 1598              		.set	.LANCHOR5,. + 0
 1599              		.type	tokens_buffer, %object
 1600              		.size	tokens_buffer, 16
 1601              	tokens_buffer:
 1602 0000 00000000 		.space	16
 1602      00000000 
 1602      00000000 
 1602      00000000 
 1603              		.text
 1604              	.Letext0:
 1605              		.file 2 "/usr/local/Cellar/gcc-arm-none-eabi-49/20150925/lib/gcc/arm-none-eabi/4.9.3/include/stdde
 1606              		.file 3 "/usr/local/Cellar/gcc-arm-none-eabi-49/20150925/arm-none-eabi/include/machine/_default_ty
 1607              		.file 4 "/usr/local/Cellar/gcc-arm-none-eabi-49/20150925/arm-none-eabi/include/sys/_stdint.h"
 1608              		.file 5 "../../os/ports/GCC/ARM/chtypes.h"
 1609              		.file 6 "../../os/kernel/include/chlists.h"
 1610              		.file 7 "../../os/kernel/include/chthreads.h"
 1611              		.file 8 "../../os/ports/GCC/ARM/chcore.h"
 1612              		.file 9 "../../os/kernel/include/chvt.h"
 1613              		.file 10 "../../os/kernel/include/chschd.h"
 1614              		.file 11 "../../os/kernel/include/chmtx.h"
 1615              		.file 12 "../../os/kernel/include/chstreams.h"
 1616              		.file 13 "../../test/test.h"
 1617              		.file 14 "../../test/testthd.h"
 1618              		.file 15 "../../test/testsem.h"
 1619              		.file 16 "../../test/testmtx.h"
 1620              		.file 17 "../../test/testmsg.h"
 1621              		.file 18 "../../test/testmbox.h"
 1622              		.file 19 "../../test/testevt.h"
 1623              		.file 20 "../../test/testheap.h"
 1624              		.file 21 "../../test/testpools.h"
 1625              		.file 22 "../../test/testdyn.h"
 1626              		.file 23 "../../test/testqueues.h"
 1627              		.file 24 "../../test/testbmk.h"