
build/ch.elf:     file format elf32-littlearm
build/ch.elf
architecture: arm, flags 0x00000112:
EXEC_P, HAS_SYMS, D_PAGED
start address 0x00008000

Program Header:
    LOAD off    0x00008000 vaddr 0x00008000 paddr 0x00008000 align 2**15
         filesz 0x00003330 memsz 0x000036c8 flags rwx
private flags = 5000202: [Version5 EABI] [soft-float ABI] [has entry point]

Sections:
Idx Name          Size      VMA       LMA       File off  Algn
  0 .text         00003330  00008000  00008000  00008000  2**4
                  CONTENTS, ALLOC, LOAD, READONLY, CODE
  1 .data         00000000  0000b330  0000b330  0000b330  2**0
                  CONTENTS, ALLOC, LOAD, DATA
  2 .bss          00000398  0000b330  0000b330  0000b330  2**2
                  ALLOC
  3 .ARM.attributes 00000033  00000000  00000000  0000b330  2**0
                  CONTENTS, READONLY
  4 .comment      00000070  00000000  00000000  0000b363  2**0
                  CONTENTS, READONLY
  5 .debug_info   0000b7b7  00000000  00000000  0000b3d3  2**0
                  CONTENTS, READONLY, DEBUGGING
  6 .debug_abbrev 00003251  00000000  00000000  00016b8a  2**0
                  CONTENTS, READONLY, DEBUGGING
  7 .debug_loc    00003b4d  00000000  00000000  00019ddb  2**0
                  CONTENTS, READONLY, DEBUGGING
  8 .debug_aranges 000007b0  00000000  00000000  0001d928  2**0
                  CONTENTS, READONLY, DEBUGGING
  9 .debug_ranges 00000b00  00000000  00000000  0001e0d8  2**0
                  CONTENTS, READONLY, DEBUGGING
 10 .debug_line   00004367  00000000  00000000  0001ebd8  2**0
                  CONTENTS, READONLY, DEBUGGING
 11 .debug_str    00001765  00000000  00000000  00022f3f  2**0
                  CONTENTS, READONLY, DEBUGGING
 12 .debug_frame  00001364  00000000  00000000  000246a4  2**2
                  CONTENTS, READONLY, DEBUGGING
SYMBOL TABLE:
00008000 l    d  .text	00000000 .text
0000b330 l    d  .data	00000000 .data
0000b330 l    d  .bss	00000000 .bss
00000000 l    d  .ARM.attributes	00000000 .ARM.attributes
00000000 l    d  .comment	00000000 .comment
00000000 l    d  .debug_info	00000000 .debug_info
00000000 l    d  .debug_abbrev	00000000 .debug_abbrev
00000000 l    d  .debug_loc	00000000 .debug_loc
00000000 l    d  .debug_aranges	00000000 .debug_aranges
00000000 l    d  .debug_ranges	00000000 .debug_ranges
00000000 l    d  .debug_line	00000000 .debug_line
00000000 l    d  .debug_str	00000000 .debug_str
00000000 l    d  .debug_frame	00000000 .debug_frame
00000000 l    df *ABS*	00000000 build/obj/vectors.o
00008000 l       .text	00000000 _start
00008020 l       .text	00000000 _reset
00008024 l       .text	00000000 _undefined
00008028 l       .text	00000000 _swi
0000802c l       .text	00000000 _prefetch
00008030 l       .text	00000000 _abort
00008038 l       .text	00000000 _irq
0000803c l       .text	00000000 _fiq
00000000 l    df *ABS*	00000000 build/obj/crt0.o
00000010 l       *ABS*	00000000 MODE_USR
00000011 l       *ABS*	00000000 MODE_FIQ
00000012 l       *ABS*	00000000 MODE_IRQ
00000013 l       *ABS*	00000000 MODE_SVC
00000017 l       *ABS*	00000000 MODE_ABT
0000001b l       *ABS*	00000000 MODE_UND
0000001f l       *ABS*	00000000 MODE_SYS
00000080 l       *ABS*	00000000 I_BIT
00000040 l       *ABS*	00000000 F_BIT
000080ac l       .text	00000000 bssloop
000080c0 l       .text	00000000 .loop
000080c4 l       .text	00000000 hwinit0
00000000 l    df *ABS*	00000000 build/obj/chcoreasm.o
00000010 l       *ABS*	00000000 MODE_USR
00000011 l       *ABS*	00000000 MODE_FIQ
00000012 l       *ABS*	00000000 MODE_IRQ
00000013 l       *ABS*	00000000 MODE_SVC
00000017 l       *ABS*	00000000 MODE_ABT
0000001b l       *ABS*	00000000 MODE_UND
0000001f l       *ABS*	00000000 MODE_SYS
00000080 l       *ABS*	00000000 I_BIT
00000040 l       *ABS*	00000000 F_BIT
00000000 l    df *ABS*	00000000 _udivsi3.o
000081c0 l       .text	00000000 .udivsi3_skip_div0_test
00000000 l    df *ABS*	00000000 _dvmd_tls.o
00000000 l    df *ABS*	00000000 _arm_addsubdf3.o
00000000 l    df *ABS*	00000000 _arm_muldivdf3.o
00000000 l    df *ABS*	00000000 _arm_fixdfsi.o
00000000 l    df *ABS*	00000000 _arm_truncdfsf2.o
00000000 l    df *ABS*	00000000 _arm_cmpsf2.o
00000000 l    df *ABS*	00000000 _arm_fixsfsi.o
00000000 l    df *ABS*	00000000 chsys.c
0000b330 l     O .bss	00000044 mainthread.4699
00000000 l    df *ABS*	00000000 chvt.c
00000000 l    df *ABS*	00000000 chschd.c
00009030 l     F .text	000000ac wakeup
00000000 l    df *ABS*	00000000 chthreads.c
00000000 l    df *ABS*	00000000 chdynamic.c
00000000 l    df *ABS*	00000000 chmtx.c
00000000 l    df *ABS*	00000000 chevents.c
00000000 l    df *ABS*	00000000 chqueues.c
000099a0 l     F .text	0000003c qwait
00000000 l    df *ABS*	00000000 chmemcore.c
0000b374 l     O .bss	00000004 endmem
0000b378 l     O .bss	00000004 nextmem
00000000 l    df *ABS*	00000000 chheap.c
0000b37c l     O .bss	0000001c default_heap
00000000 l    df *ABS*	00000000 hal.c
00000000 l    df *ABS*	00000000 i2c.c
00000000 l    df *ABS*	00000000 serial.c
00009fc0 l     F .text	00000008 readt
00009fd0 l     F .text	0000000c read
00009fe0 l     F .text	00000008 writet
00009ff0 l     F .text	0000000c write
0000a000 l     F .text	00000008 gett
0000a010 l     F .text	0000000c get
0000a020 l     F .text	00000008 putt
0000a030 l     F .text	0000000c put
0000b2b0 l     O .text	00000020 vmt
00000000 l    df *ABS*	00000000 spi.c
00000000 l    df *ABS*	00000000 tm.c
0000a190 l     F .text	00000014 tm_start
0000a1b0 l     F .text	00000048 tm_stop
0000b398 l     O .bss	00000004 measurement_offset
00000000 l    df *ABS*	00000000 hal_lld.c
00000000 l    df *ABS*	00000000 pal_lld.c
0000a300 l     F .text	00000050 set_gpio_in.isra.0
00000000 l    df *ABS*	00000000 serial_lld.c
0000a3e0 l     F .text	00000018 output_notify
0000b2d0 l     O .text	00000004 default_config
00000000 l    df *ABS*	00000000 i2c_lld.c
00000000 l    df *ABS*	00000000 spi_lld.c
00000000 l    df *ABS*	00000000 bcm2835.c
00000000 l    df *ABS*	00000000 board.c
00000000 l    df *ABS*	00000000 chprintf.c
0000a980 l     F .text	00000090 long_to_string_with_divisor
00000000 l    df *ABS*	00000000 main.c
0000b0b0 l     F .text	000000c0 Thread_LCD
0000b39c l     O .bss	00000118 waThread_LCD
00000000 l    df *ABS*	00000000 chregistry.c
00000000 l    df *ABS*	00000000 
0000b330 l       .text	00000000 __exidx_end
0000b330 l       .text	00000000 _etext
0000049c l       *ABS*	00000000 __stacks_total_size__
0000b330 l       .text	00000000 __exidx_start
00000400 l       *ABS*	00000000 __sys_stack_size__
05ffffe0 l       *ABS*	00000000 __ram_size__
0000b330 l       .text	00000000 _textdata
00008000 l       .text	00000000 __ram_start__
0000b6c8 l       .bss	00000000 _end
06007b44 l       *ABS*	00000000 __main_thread_stack_base__
0000b2e0 g     O .text	00000000 pal_default_config
00008ed0 g     F .text	00000090 chSysTimerHandlerI
000095e0 g     F .text	00000008 chThdExit
00009960 g     F .text	00000040 chEvtBroadcastFlagsI
000091b0 g     F .text	00000074 chSchGoSleepTimeoutS
00009f90 g     F .text	00000004 i2cInit
000096c0 g     F .text	0000017c chMtxLockS
000086ac g     F .text	00000060 .hidden __floatdidf
00009ea0 g     F .text	000000bc chHeapFree
0000a730 g     F .text	0000019c spi_lld_serve_interrupt
000081b0 g       .text	00000000 get_cpsr
00008dd0 g     F .text	0000005c .hidden __fixsfsi
00009160 g     F .text	00000044 chSchGoSleepS
00008180  w      .text	00000000 UndHandler
0000b6c8 g       .bss	00000000 __heap_base__
0000b620 g     O .bss	00000040 I2C1
0000b660 g     O .bss	00000040 I2C0
0000b57c g     O .bss	00000018 IOPORT1
00009230 g     F .text	000000a0 chSchWakeupS
0000a0d0 g     F .text	0000004c sdIncomingDataI
00009cb0 g     F .text	00000080 chOQGetI
000090e0 g     F .text	00000024 _scheduler_init
000094a0 g     F .text	000000ac chThdCreateStatic
00008dac g     F .text	00000018 .hidden __aeabi_fcmpgt
00008630 g     F .text	00000028 .hidden __floatsidf
00009110 g     F .text	00000044 chSchReadyI
00008f60 g     F .text	00000024 _vt_init
000081c0 g     F .text	000000f4 .hidden __udivsi3
00009e70 g     F .text	00000028 _heap_init
00009f60 g     F .text	0000002c halInit
00008cb8 g     F .text	0000006c .hidden __lesf2
0000b330 g       .bss	00000000 _bss_start
00009320 g     F .text	00000078 chSchDoRescheduleBehind
06007b44 g       *ABS*	00000000 __heap_end__
0000860c g     F .text	00000024 .hidden __aeabi_ui2d
0000b594 g     O .bss	00000018 IOPORT0
000082f0 g     F .text	00000000 .hidden __aeabi_drsub
00000004 g       *ABS*	00000000 __abt_stack_size__
00008040 g       .text	00000000 ResetHandler
00009b30 g     F .text	000000a8 chIQReadTimeout
0000a2b0 g     F .text	00000050 hal_lld_init
00008658 g     F .text	00000040 .hidden __extendsfdf2
000089a0 g     F .text	0000020c .hidden __aeabi_ddiv
000082fc g     F .text	00000310 .hidden __adddf3
00008cc0 g     F .text	00000064 .hidden __nesf2
0000a8d0 g     F .text	0000000c spi_lld_init
00008710 g     F .text	00000290 .hidden __aeabi_dmul
0000a8e0 g     F .text	0000004c bcm2835_gpio_fnsel
00009570 g     F .text	0000006c chThdExitS
0000860c g     F .text	00000024 .hidden __floatunsidf
0000b6a0 g     O .bss	00000028 SPI0
00008c10 g     F .text	000000a0 .hidden __aeabi_d2f
00008f90 g     F .text	00000060 chVTSetI
0000b6c8 g       .bss	00000000 _bss_end
00008d94 g     F .text	00000018 .hidden __aeabi_fcmpge
00008bb0 g     F .text	0000005c .hidden __fixdfsi
0000a4b0 g     F .text	00000018 sd_lld_init
00008cb0 g     F .text	00000074 .hidden __gtsf2
000082fc g     F .text	00000310 .hidden __aeabi_dadd
00009840 g     F .text	00000014 chMtxLock
00008d7c g     F .text	00000018 .hidden __aeabi_fcmple
00008698 g     F .text	00000074 .hidden __aeabi_ul2d
00009410 g     F .text	00000020 chSchDoReschedule
00008e50 g     F .text	00000078 chSysInit
00009550 g     F .text	0000001c chThdSleep
000099e0 g     F .text	00000038 chIQInit
0000a120 g     F .text	00000034 sdRequestDataI
0000a170 g     F .text	0000001c spiObjectInit
0000a350 g     F .text	0000008c _pal_lld_init
0000a040 g     F .text	00000004 sdInit
000082f8 g     F .text	00000314 .hidden __aeabi_dsub
00009de0 g     F .text	00000034 _core_init
00008698 g     F .text	00000074 .hidden __floatundidf
0000a0b0 g     F .text	00000020 sdStart
00000080 g       *ABS*	00000000 __irq_stack_size__
000080f0 g       .text	00000000 _port_switch_arm
00008dd0 g     F .text	0000005c .hidden __aeabi_f2iz
00008cc0 g     F .text	00000064 .hidden __eqsf2
000081a0 g       .text	00000000 arm_enable_irq
0000b550 g     O .bss	00000010 vtlist
00009e20 g     F .text	00000044 chCoreAlloc
00008630 g     F .text	00000028 .hidden __aeabi_i2d
0000a5a0 g     F .text	00000164 i2c_lld_serve_interrupt
000082e0  w    F .text	00000004 .hidden __aeabi_ldiv0
000089a0 g     F .text	0000020c .hidden __divdf3
00008710 g     F .text	00000290 .hidden __muldf3
00008000 g       .text	00000000 _text
00008180  w      .text	00000000 PrefetchHandler
00008cc0 g     F .text	00000064 .hidden __cmpsf2
0000b170 g     F .text	00000110 main
0000b560 g     O .bss	0000001c rlist
00008cb8 g     F .text	0000006c .hidden __ltsf2
0000a160 g     F .text	00000004 spiInit
000081c0 g     F .text	00000000 .hidden __aeabi_uidiv
00008c10 g     F .text	000000a0 .hidden __truncdfsf2
000086ac g     F .text	00000060 .hidden __aeabi_l2d
000096a0 g     F .text	00000014 chMtxInit
00008e30 g     F .text	00000020 _idle_thread
00009d30 g     F .text	000000ac chOQWriteTimeout
00008d34 g     F .text	00000018 .hidden __aeabi_cfcmple
0000b290 g     O .text	00000016 ch_debug
0000aa10 g     F .text	00000694 chprintf
00009900 g     F .text	00000054 chEvtSignalI
00008160 g       .text	00000000 _port_thread_start
0000a930 g     F .text	0000003c bcm2835_delay
000093a0 g     F .text	00000070 chSchDoRescheduleAhead
0000a710 g     F .text	0000001c i2c_lld_init
00008cb0 g     F .text	00000074 .hidden __gesf2
00008d4c g     F .text	00000018 .hidden __aeabi_fcmpeq
00009fa0 g     F .text	00000018 i2cObjectInit
00009640 g     F .text	00000054 chThdRelease
00008d24 g     F .text	00000028 .hidden __aeabi_cfrcmple
0000b4b4 g     O .bss	0000009c _idle_thread_wa
00009be0 g     F .text	00000034 chOQInit
00009ab0 g     F .text	00000074 chIQGetTimeout
0000b330 g       .data	00000000 _data
00008100 g       .text	00000000 _port_irq_common
00008180  w      .text	00000000 AbortHandler
00009a20 g     F .text	00000088 chIQPutI
0000a200 g     F .text	00000064 tmInit
00008d64 g     F .text	00000018 .hidden __aeabi_fcmplt
00009860 g     F .text	000000a0 chMtxUnlock
000082b4 g     F .text	00000020 .hidden __aeabi_uidivmod
0000b330 g       .data	00000000 _edata
06007fe0 g       *ABS*	00000000 __ram_end__
00008ff0 g     F .text	0000003c chVTResetI
00008180 g       .text	00000000 _unhandled_exception
0000a050 g     F .text	00000060 sdObjectInit
0000a400 g     F .text	000000ac sd_lld_serve_interrupt
0000a270 g     F .text	00000040 IrqHandler
00008bb0 g     F .text	0000005c .hidden __aeabi_d2iz
00008d34 g     F .text	00000018 .hidden __aeabi_cfcmpeq
00008180  w      .text	00000000 SwiHandler
000082e0  w    F .text	00000004 .hidden __aeabi_idiv0
000095f0 g     F .text	00000050 chThdWait
000092d0 g     F .text	00000044 chSchIsPreemptionRequired
0000b5ac g     O .bss	00000074 SD1
00000010 g       *ABS*	00000000 __fiq_stack_size__
00009430 g     F .text	00000070 _thread_init
00000004 g       *ABS*	00000000 __svc_stack_size__
00000004 g       *ABS*	00000000 __und_stack_size__
00009c20 g     F .text	0000008c chOQPutTimeout
00008658 g     F .text	00000040 .hidden __aeabi_f2d
0000a970 g     F .text	00000004 boardInit
0000a4d0 g     F .text	000000c4 sd_lld_start
000080c0  w      .text	00000000 _main_exit_handler
000082f8 g     F .text	00000314 .hidden __subdf3
00008184 g       .text	00000000 __early_init
00008180  w      .text	00000000 FiqHandler



Disassembly of section .text:

00008000 <_text>:
    8000:	e59ff018 	ldr	pc, [pc, #24]	; 8020 <_reset>
    8004:	e59ff018 	ldr	pc, [pc, #24]	; 8024 <_undefined>
    8008:	e59ff018 	ldr	pc, [pc, #24]	; 8028 <_swi>
    800c:	e59ff018 	ldr	pc, [pc, #24]	; 802c <_prefetch>
    8010:	e59ff018 	ldr	pc, [pc, #24]	; 8030 <_abort>
    8014:	e320f000 	nop	{0}
    8018:	e59ff018 	ldr	pc, [pc, #24]	; 8038 <_irq>
    801c:	e59ff018 	ldr	pc, [pc, #24]	; 803c <_fiq>

00008020 <_reset>:
    8020:	00008040 	andeq	r8, r0, r0, asr #32

00008024 <_undefined>:
    8024:	00008180 	andeq	r8, r0, r0, lsl #3

00008028 <_swi>:
    8028:	00008180 	andeq	r8, r0, r0, lsl #3

0000802c <_prefetch>:
    802c:	00008180 	andeq	r8, r0, r0, lsl #3

00008030 <_abort>:
    8030:	00008180 	andeq	r8, r0, r0, lsl #3
    8034:	00000000 	andeq	r0, r0, r0

00008038 <_irq>:
    8038:	0000a270 	andeq	sl, r0, r0, ror r2

0000803c <_fiq>:
    803c:	00008180 	andeq	r8, r0, r0, lsl #3

00008040 <ResetHandler>:
    8040:	e59f0080 	ldr	r0, [pc, #128]	; 80c8 <hwinit0+0x4>
    8044:	e321f0db 	msr	CPSR_c, #219	; 0xdb
    8048:	e1a0d000 	mov	sp, r0
    804c:	e59f1078 	ldr	r1, [pc, #120]	; 80cc <hwinit0+0x8>
    8050:	e0400001 	sub	r0, r0, r1
    8054:	e321f0d7 	msr	CPSR_c, #215	; 0xd7
    8058:	e1a0d000 	mov	sp, r0
    805c:	e59f106c 	ldr	r1, [pc, #108]	; 80d0 <hwinit0+0xc>
    8060:	e0400001 	sub	r0, r0, r1
    8064:	e321f0d1 	msr	CPSR_c, #209	; 0xd1
    8068:	e1a0d000 	mov	sp, r0
    806c:	e59f1060 	ldr	r1, [pc, #96]	; 80d4 <hwinit0+0x10>
    8070:	e0400001 	sub	r0, r0, r1
    8074:	e321f0d2 	msr	CPSR_c, #210	; 0xd2
    8078:	e1a0d000 	mov	sp, r0
    807c:	e59f1054 	ldr	r1, [pc, #84]	; 80d8 <hwinit0+0x14>
    8080:	e0400001 	sub	r0, r0, r1
    8084:	e321f0d3 	msr	CPSR_c, #211	; 0xd3
    8088:	e1a0d000 	mov	sp, r0
    808c:	e59f1048 	ldr	r1, [pc, #72]	; 80dc <hwinit0+0x18>
    8090:	e0400001 	sub	r0, r0, r1
    8094:	e321f0df 	msr	CPSR_c, #223	; 0xdf
    8098:	e1a0d000 	mov	sp, r0
    809c:	eb000038 	bl	8184 <__early_init>
    80a0:	e3a00000 	mov	r0, #0
    80a4:	e59f1034 	ldr	r1, [pc, #52]	; 80e0 <hwinit0+0x1c>
    80a8:	e59f2034 	ldr	r2, [pc, #52]	; 80e4 <hwinit0+0x20>

000080ac <bssloop>:
    80ac:	e1510002 	cmp	r1, r2
    80b0:	34810004 	strcc	r0, [r1], #4
    80b4:	3afffffc 	bcc	80ac <bssloop>
    80b8:	eb000c2c 	bl	b170 <main>
    80bc:	eaffffff 	b	80c0 <_main_exit_handler>

000080c0 <_main_exit_handler>:
    80c0:	eafffffe 	b	80c0 <_main_exit_handler>

000080c4 <hwinit0>:
    80c4:	e12fff1e 	bx	lr
    80c8:	06007fe0 	streq	r7, [r0], -r0, ror #31
    80cc:	00000004 	andeq	r0, r0, r4
    80d0:	00000004 	andeq	r0, r0, r4
    80d4:	00000010 	andeq	r0, r0, r0, lsl r0
    80d8:	00000080 	andeq	r0, r0, r0, lsl #1
    80dc:	00000004 	andeq	r0, r0, r4
    80e0:	0000b330 	andeq	fp, r0, r0, lsr r3
    80e4:	0000b6c8 	andeq	fp, r0, r8, asr #13
	...

000080f0 <_port_switch_arm>:
    80f0:	e92d4ff0 	push	{r4, r5, r6, r7, r8, r9, sl, fp, lr}
    80f4:	e581d00c 	str	sp, [r1, #12]
    80f8:	e590d00c 	ldr	sp, [r0, #12]
    80fc:	e8bd8ff0 	pop	{r4, r5, r6, r7, r8, r9, sl, fp, pc}

00008100 <_port_irq_common>:
    8100:	eb000472 	bl	92d0 <chSchIsPreemptionRequired>
    8104:	e3500000 	cmp	r0, #0
    8108:	08bd500f 	popeq	{r0, r1, r2, r3, ip, lr}
    810c:	025ef004 	subseq	pc, lr, #4
    8110:	e8bd500f 	pop	{r0, r1, r2, r3, ip, lr}
    8114:	e321f09f 	msr	CPSR_c, #159	; 0x9f
    8118:	e92d500f 	push	{r0, r1, r2, r3, ip, lr}
    811c:	e321f092 	msr	CPSR_c, #146	; 0x92
    8120:	e14f0000 	mrs	r0, SPSR
    8124:	e1a0100e 	mov	r1, lr
    8128:	e321f09f 	msr	CPSR_c, #159	; 0x9f
    812c:	e92d0003 	push	{r0, r1}
    8130:	eb0004b6 	bl	9410 <chSchDoReschedule>
    8134:	e8bd0003 	pop	{r0, r1}
    8138:	e321f092 	msr	CPSR_c, #146	; 0x92
    813c:	e16ff000 	msr	SPSR_fsxc, r0
    8140:	e1a0e001 	mov	lr, r1
    8144:	e321f09f 	msr	CPSR_c, #159	; 0x9f
    8148:	e8bd500f 	pop	{r0, r1, r2, r3, ip, lr}
    814c:	e321f092 	msr	CPSR_c, #146	; 0x92
    8150:	e25ef004 	subs	pc, lr, #4
    8154:	e320f000 	nop	{0}
    8158:	e320f000 	nop	{0}
    815c:	e320f000 	nop	{0}

00008160 <_port_thread_start>:
    8160:	e321f01f 	msr	CPSR_c, #31
    8164:	e1a00005 	mov	r0, r5
    8168:	e1a0e00f 	mov	lr, pc
    816c:	e12fff14 	bx	r4
    8170:	eb00051a 	bl	95e0 <chThdExit>
	...

00008180 <_unhandled_exception>:
    8180:	eafffffe 	b	8180 <_unhandled_exception>

00008184 <__early_init>:
    8184:	e3a00902 	mov	r0, #32768	; 0x8000
    8188:	e3a01000 	mov	r1, #0
    818c:	e8b003fc 	ldm	r0!, {r2, r3, r4, r5, r6, r7, r8, r9}
    8190:	e8a103fc 	stmia	r1!, {r2, r3, r4, r5, r6, r7, r8, r9}
    8194:	e8b003fc 	ldm	r0!, {r2, r3, r4, r5, r6, r7, r8, r9}
    8198:	e8a103fc 	stmia	r1!, {r2, r3, r4, r5, r6, r7, r8, r9}
    819c:	e12fff1e 	bx	lr

000081a0 <arm_enable_irq>:
    81a0:	e10f0000 	mrs	r0, CPSR
    81a4:	e3c00080 	bic	r0, r0, #128	; 0x80
    81a8:	e121f000 	msr	CPSR_c, r0
    81ac:	e12fff1e 	bx	lr

000081b0 <get_cpsr>:
    81b0:	e10f0000 	mrs	r0, CPSR
    81b4:	e12fff1e 	bx	lr
	...

000081c0 <__aeabi_uidiv>:
    81c0:	e2512001 	subs	r2, r1, #1
    81c4:	012fff1e 	bxeq	lr
    81c8:	3a000036 	bcc	82a8 <__aeabi_uidiv+0xe8>
    81cc:	e1500001 	cmp	r0, r1
    81d0:	9a000022 	bls	8260 <__aeabi_uidiv+0xa0>
    81d4:	e1110002 	tst	r1, r2
    81d8:	0a000023 	beq	826c <__aeabi_uidiv+0xac>
    81dc:	e311020e 	tst	r1, #-536870912	; 0xe0000000
    81e0:	01a01181 	lsleq	r1, r1, #3
    81e4:	03a03008 	moveq	r3, #8
    81e8:	13a03001 	movne	r3, #1
    81ec:	e3510201 	cmp	r1, #268435456	; 0x10000000
    81f0:	31510000 	cmpcc	r1, r0
    81f4:	31a01201 	lslcc	r1, r1, #4
    81f8:	31a03203 	lslcc	r3, r3, #4
    81fc:	3afffffa 	bcc	81ec <__aeabi_uidiv+0x2c>
    8200:	e3510102 	cmp	r1, #-2147483648	; 0x80000000
    8204:	31510000 	cmpcc	r1, r0
    8208:	31a01081 	lslcc	r1, r1, #1
    820c:	31a03083 	lslcc	r3, r3, #1
    8210:	3afffffa 	bcc	8200 <__aeabi_uidiv+0x40>
    8214:	e3a02000 	mov	r2, #0
    8218:	e1500001 	cmp	r0, r1
    821c:	20400001 	subcs	r0, r0, r1
    8220:	21822003 	orrcs	r2, r2, r3
    8224:	e15000a1 	cmp	r0, r1, lsr #1
    8228:	204000a1 	subcs	r0, r0, r1, lsr #1
    822c:	218220a3 	orrcs	r2, r2, r3, lsr #1
    8230:	e1500121 	cmp	r0, r1, lsr #2
    8234:	20400121 	subcs	r0, r0, r1, lsr #2
    8238:	21822123 	orrcs	r2, r2, r3, lsr #2
    823c:	e15001a1 	cmp	r0, r1, lsr #3
    8240:	204001a1 	subcs	r0, r0, r1, lsr #3
    8244:	218221a3 	orrcs	r2, r2, r3, lsr #3
    8248:	e3500000 	cmp	r0, #0
    824c:	11b03223 	lsrsne	r3, r3, #4
    8250:	11a01221 	lsrne	r1, r1, #4
    8254:	1affffef 	bne	8218 <__aeabi_uidiv+0x58>
    8258:	e1a00002 	mov	r0, r2
    825c:	e12fff1e 	bx	lr
    8260:	03a00001 	moveq	r0, #1
    8264:	13a00000 	movne	r0, #0
    8268:	e12fff1e 	bx	lr
    826c:	e3510801 	cmp	r1, #65536	; 0x10000
    8270:	21a01821 	lsrcs	r1, r1, #16
    8274:	23a02010 	movcs	r2, #16
    8278:	33a02000 	movcc	r2, #0
    827c:	e3510c01 	cmp	r1, #256	; 0x100
    8280:	21a01421 	lsrcs	r1, r1, #8
    8284:	22822008 	addcs	r2, r2, #8
    8288:	e3510010 	cmp	r1, #16
    828c:	21a01221 	lsrcs	r1, r1, #4
    8290:	22822004 	addcs	r2, r2, #4
    8294:	e3510004 	cmp	r1, #4
    8298:	82822003 	addhi	r2, r2, #3
    829c:	908220a1 	addls	r2, r2, r1, lsr #1
    82a0:	e1a00230 	lsr	r0, r0, r2
    82a4:	e12fff1e 	bx	lr
    82a8:	e3500000 	cmp	r0, #0
    82ac:	13e00000 	mvnne	r0, #0
    82b0:	ea00000a 	b	82e0 <__aeabi_idiv0>

000082b4 <__aeabi_uidivmod>:
    82b4:	e3510000 	cmp	r1, #0
    82b8:	0afffffa 	beq	82a8 <__aeabi_uidiv+0xe8>
    82bc:	e92d4003 	push	{r0, r1, lr}
    82c0:	ebffffbe 	bl	81c0 <__aeabi_uidiv>
    82c4:	e8bd4006 	pop	{r1, r2, lr}
    82c8:	e0030092 	mul	r3, r2, r0
    82cc:	e0411003 	sub	r1, r1, r3
    82d0:	e12fff1e 	bx	lr
	...

000082e0 <__aeabi_idiv0>:
    82e0:	e12fff1e 	bx	lr
	...

000082f0 <__aeabi_drsub>:
    82f0:	e2211102 	eor	r1, r1, #-2147483648	; 0x80000000
    82f4:	ea000000 	b	82fc <__adddf3>

000082f8 <__aeabi_dsub>:
    82f8:	e2233102 	eor	r3, r3, #-2147483648	; 0x80000000

000082fc <__adddf3>:
    82fc:	e92d4030 	push	{r4, r5, lr}
    8300:	e1a04081 	lsl	r4, r1, #1
    8304:	e1a05083 	lsl	r5, r3, #1
    8308:	e1340005 	teq	r4, r5
    830c:	01300002 	teqeq	r0, r2
    8310:	1194c000 	orrsne	ip, r4, r0
    8314:	1195c002 	orrsne	ip, r5, r2
    8318:	11f0cac4 	mvnsne	ip, r4, asr #21
    831c:	11f0cac5 	mvnsne	ip, r5, asr #21
    8320:	0a00008c 	beq	8558 <__adddf3+0x25c>
    8324:	e1a04aa4 	lsr	r4, r4, #21
    8328:	e0745aa5 	rsbs	r5, r4, r5, lsr #21
    832c:	b2655000 	rsblt	r5, r5, #0
    8330:	da000006 	ble	8350 <__adddf3+0x54>
    8334:	e0844005 	add	r4, r4, r5
    8338:	e0202002 	eor	r2, r0, r2
    833c:	e0213003 	eor	r3, r1, r3
    8340:	e0220000 	eor	r0, r2, r0
    8344:	e0231001 	eor	r1, r3, r1
    8348:	e0202002 	eor	r2, r0, r2
    834c:	e0213003 	eor	r3, r1, r3
    8350:	e3550036 	cmp	r5, #54	; 0x36
    8354:	88bd4030 	pophi	{r4, r5, lr}
    8358:	812fff1e 	bxhi	lr
    835c:	e3110102 	tst	r1, #-2147483648	; 0x80000000
    8360:	e1a01601 	lsl	r1, r1, #12
    8364:	e3a0c601 	mov	ip, #1048576	; 0x100000
    8368:	e18c1621 	orr	r1, ip, r1, lsr #12
    836c:	0a000001 	beq	8378 <__adddf3+0x7c>
    8370:	e2700000 	rsbs	r0, r0, #0
    8374:	e2e11000 	rsc	r1, r1, #0
    8378:	e3130102 	tst	r3, #-2147483648	; 0x80000000
    837c:	e1a03603 	lsl	r3, r3, #12
    8380:	e18c3623 	orr	r3, ip, r3, lsr #12
    8384:	0a000001 	beq	8390 <__adddf3+0x94>
    8388:	e2722000 	rsbs	r2, r2, #0
    838c:	e2e33000 	rsc	r3, r3, #0
    8390:	e1340005 	teq	r4, r5
    8394:	0a000069 	beq	8540 <__adddf3+0x244>
    8398:	e2444001 	sub	r4, r4, #1
    839c:	e275e020 	rsbs	lr, r5, #32
    83a0:	ba000005 	blt	83bc <__adddf3+0xc0>
    83a4:	e1a0ce12 	lsl	ip, r2, lr
    83a8:	e0900532 	adds	r0, r0, r2, lsr r5
    83ac:	e2a11000 	adc	r1, r1, #0
    83b0:	e0900e13 	adds	r0, r0, r3, lsl lr
    83b4:	e0b11553 	adcs	r1, r1, r3, asr r5
    83b8:	ea000006 	b	83d8 <__adddf3+0xdc>
    83bc:	e2455020 	sub	r5, r5, #32
    83c0:	e28ee020 	add	lr, lr, #32
    83c4:	e3520001 	cmp	r2, #1
    83c8:	e1a0ce13 	lsl	ip, r3, lr
    83cc:	238cc002 	orrcs	ip, ip, #2
    83d0:	e0900553 	adds	r0, r0, r3, asr r5
    83d4:	e0b11fc3 	adcs	r1, r1, r3, asr #31
    83d8:	e2015102 	and	r5, r1, #-2147483648	; 0x80000000
    83dc:	5a000002 	bpl	83ec <__adddf3+0xf0>
    83e0:	e27cc000 	rsbs	ip, ip, #0
    83e4:	e2f00000 	rscs	r0, r0, #0
    83e8:	e2e11000 	rsc	r1, r1, #0
    83ec:	e3510601 	cmp	r1, #1048576	; 0x100000
    83f0:	3a00000f 	bcc	8434 <__adddf3+0x138>
    83f4:	e3510602 	cmp	r1, #2097152	; 0x200000
    83f8:	3a000006 	bcc	8418 <__adddf3+0x11c>
    83fc:	e1b010a1 	lsrs	r1, r1, #1
    8400:	e1b00060 	rrxs	r0, r0
    8404:	e1a0c06c 	rrx	ip, ip
    8408:	e2844001 	add	r4, r4, #1
    840c:	e1a02a84 	lsl	r2, r4, #21
    8410:	e3720501 	cmn	r2, #4194304	; 0x400000
    8414:	2a00006b 	bcs	85c8 <__adddf3+0x2cc>
    8418:	e35c0102 	cmp	ip, #-2147483648	; 0x80000000
    841c:	01b0c0a0 	lsrseq	ip, r0, #1
    8420:	e2b00000 	adcs	r0, r0, #0
    8424:	e0a11a04 	adc	r1, r1, r4, lsl #20
    8428:	e1811005 	orr	r1, r1, r5
    842c:	e8bd4030 	pop	{r4, r5, lr}
    8430:	e12fff1e 	bx	lr
    8434:	e1b0c08c 	lsls	ip, ip, #1
    8438:	e0b00000 	adcs	r0, r0, r0
    843c:	e0a11001 	adc	r1, r1, r1
    8440:	e3110601 	tst	r1, #1048576	; 0x100000
    8444:	e2444001 	sub	r4, r4, #1
    8448:	1afffff2 	bne	8418 <__adddf3+0x11c>
    844c:	e3310000 	teq	r1, #0
    8450:	13a03014 	movne	r3, #20
    8454:	03a03034 	moveq	r3, #52	; 0x34
    8458:	01a01000 	moveq	r1, r0
    845c:	03a00000 	moveq	r0, #0
    8460:	e1a02001 	mov	r2, r1
    8464:	e3520801 	cmp	r2, #65536	; 0x10000
    8468:	21a02822 	lsrcs	r2, r2, #16
    846c:	22433010 	subcs	r3, r3, #16
    8470:	e3520c01 	cmp	r2, #256	; 0x100
    8474:	21a02422 	lsrcs	r2, r2, #8
    8478:	22433008 	subcs	r3, r3, #8
    847c:	e3520010 	cmp	r2, #16
    8480:	21a02222 	lsrcs	r2, r2, #4
    8484:	22433004 	subcs	r3, r3, #4
    8488:	e3520004 	cmp	r2, #4
    848c:	22433002 	subcs	r3, r3, #2
    8490:	304330a2 	subcc	r3, r3, r2, lsr #1
    8494:	e04331a2 	sub	r3, r3, r2, lsr #3
    8498:	e2532020 	subs	r2, r3, #32
    849c:	aa000007 	bge	84c0 <__adddf3+0x1c4>
    84a0:	e292200c 	adds	r2, r2, #12
    84a4:	da000004 	ble	84bc <__adddf3+0x1c0>
    84a8:	e282c014 	add	ip, r2, #20
    84ac:	e262200c 	rsb	r2, r2, #12
    84b0:	e1a00c11 	lsl	r0, r1, ip
    84b4:	e1a01231 	lsr	r1, r1, r2
    84b8:	ea000004 	b	84d0 <__adddf3+0x1d4>
    84bc:	e2822014 	add	r2, r2, #20
    84c0:	d262c020 	rsble	ip, r2, #32
    84c4:	e1a01211 	lsl	r1, r1, r2
    84c8:	d1811c30 	orrle	r1, r1, r0, lsr ip
    84cc:	d1a00210 	lslle	r0, r0, r2
    84d0:	e0544003 	subs	r4, r4, r3
    84d4:	a0811a04 	addge	r1, r1, r4, lsl #20
    84d8:	a1811005 	orrge	r1, r1, r5
    84dc:	a8bd4030 	popge	{r4, r5, lr}
    84e0:	a12fff1e 	bxge	lr
    84e4:	e1e04004 	mvn	r4, r4
    84e8:	e254401f 	subs	r4, r4, #31
    84ec:	aa00000f 	bge	8530 <__adddf3+0x234>
    84f0:	e294400c 	adds	r4, r4, #12
    84f4:	ca000006 	bgt	8514 <__adddf3+0x218>
    84f8:	e2844014 	add	r4, r4, #20
    84fc:	e2642020 	rsb	r2, r4, #32
    8500:	e1a00430 	lsr	r0, r0, r4
    8504:	e1800211 	orr	r0, r0, r1, lsl r2
    8508:	e1851431 	orr	r1, r5, r1, lsr r4
    850c:	e8bd4030 	pop	{r4, r5, lr}
    8510:	e12fff1e 	bx	lr
    8514:	e264400c 	rsb	r4, r4, #12
    8518:	e2642020 	rsb	r2, r4, #32
    851c:	e1a00230 	lsr	r0, r0, r2
    8520:	e1800411 	orr	r0, r0, r1, lsl r4
    8524:	e1a01005 	mov	r1, r5
    8528:	e8bd4030 	pop	{r4, r5, lr}
    852c:	e12fff1e 	bx	lr
    8530:	e1a00431 	lsr	r0, r1, r4
    8534:	e1a01005 	mov	r1, r5
    8538:	e8bd4030 	pop	{r4, r5, lr}
    853c:	e12fff1e 	bx	lr
    8540:	e3340000 	teq	r4, #0
    8544:	e2233601 	eor	r3, r3, #1048576	; 0x100000
    8548:	02211601 	eoreq	r1, r1, #1048576	; 0x100000
    854c:	02844001 	addeq	r4, r4, #1
    8550:	12455001 	subne	r5, r5, #1
    8554:	eaffff8f 	b	8398 <__adddf3+0x9c>
    8558:	e1f0cac4 	mvns	ip, r4, asr #21
    855c:	11f0cac5 	mvnsne	ip, r5, asr #21
    8560:	0a00001d 	beq	85dc <__adddf3+0x2e0>
    8564:	e1340005 	teq	r4, r5
    8568:	01300002 	teqeq	r0, r2
    856c:	0a000004 	beq	8584 <__adddf3+0x288>
    8570:	e194c000 	orrs	ip, r4, r0
    8574:	01a01003 	moveq	r1, r3
    8578:	01a00002 	moveq	r0, r2
    857c:	e8bd4030 	pop	{r4, r5, lr}
    8580:	e12fff1e 	bx	lr
    8584:	e1310003 	teq	r1, r3
    8588:	13a01000 	movne	r1, #0
    858c:	13a00000 	movne	r0, #0
    8590:	18bd4030 	popne	{r4, r5, lr}
    8594:	112fff1e 	bxne	lr
    8598:	e1b0caa4 	lsrs	ip, r4, #21
    859c:	1a000004 	bne	85b4 <__adddf3+0x2b8>
    85a0:	e1b00080 	lsls	r0, r0, #1
    85a4:	e0b11001 	adcs	r1, r1, r1
    85a8:	23811102 	orrcs	r1, r1, #-2147483648	; 0x80000000
    85ac:	e8bd4030 	pop	{r4, r5, lr}
    85b0:	e12fff1e 	bx	lr
    85b4:	e2944501 	adds	r4, r4, #4194304	; 0x400000
    85b8:	32811601 	addcc	r1, r1, #1048576	; 0x100000
    85bc:	38bd4030 	popcc	{r4, r5, lr}
    85c0:	312fff1e 	bxcc	lr
    85c4:	e2015102 	and	r5, r1, #-2147483648	; 0x80000000
    85c8:	e385147f 	orr	r1, r5, #2130706432	; 0x7f000000
    85cc:	e381160f 	orr	r1, r1, #15728640	; 0xf00000
    85d0:	e3a00000 	mov	r0, #0
    85d4:	e8bd4030 	pop	{r4, r5, lr}
    85d8:	e12fff1e 	bx	lr
    85dc:	e1f0cac4 	mvns	ip, r4, asr #21
    85e0:	11a01003 	movne	r1, r3
    85e4:	11a00002 	movne	r0, r2
    85e8:	01f0cac5 	mvnseq	ip, r5, asr #21
    85ec:	11a03001 	movne	r3, r1
    85f0:	11a02000 	movne	r2, r0
    85f4:	e1904601 	orrs	r4, r0, r1, lsl #12
    85f8:	01925603 	orrseq	r5, r2, r3, lsl #12
    85fc:	01310003 	teqeq	r1, r3
    8600:	13811702 	orrne	r1, r1, #524288	; 0x80000
    8604:	e8bd4030 	pop	{r4, r5, lr}
    8608:	e12fff1e 	bx	lr

0000860c <__aeabi_ui2d>:
    860c:	e3300000 	teq	r0, #0
    8610:	03a01000 	moveq	r1, #0
    8614:	012fff1e 	bxeq	lr
    8618:	e92d4030 	push	{r4, r5, lr}
    861c:	e3a04b01 	mov	r4, #1024	; 0x400
    8620:	e2844032 	add	r4, r4, #50	; 0x32
    8624:	e3a05000 	mov	r5, #0
    8628:	e3a01000 	mov	r1, #0
    862c:	eaffff86 	b	844c <__adddf3+0x150>

00008630 <__aeabi_i2d>:
    8630:	e3300000 	teq	r0, #0
    8634:	03a01000 	moveq	r1, #0
    8638:	012fff1e 	bxeq	lr
    863c:	e92d4030 	push	{r4, r5, lr}
    8640:	e3a04b01 	mov	r4, #1024	; 0x400
    8644:	e2844032 	add	r4, r4, #50	; 0x32
    8648:	e2105102 	ands	r5, r0, #-2147483648	; 0x80000000
    864c:	42600000 	rsbmi	r0, r0, #0
    8650:	e3a01000 	mov	r1, #0
    8654:	eaffff7c 	b	844c <__adddf3+0x150>

00008658 <__aeabi_f2d>:
    8658:	e1b02080 	lsls	r2, r0, #1
    865c:	e1a011c2 	asr	r1, r2, #3
    8660:	e1a01061 	rrx	r1, r1
    8664:	e1a00e02 	lsl	r0, r2, #28
    8668:	121234ff 	andsne	r3, r2, #-16777216	; 0xff000000
    866c:	133304ff 	teqne	r3, #-16777216	; 0xff000000
    8670:	1221130e 	eorne	r1, r1, #939524096	; 0x38000000
    8674:	112fff1e 	bxne	lr
    8678:	e3320000 	teq	r2, #0
    867c:	133304ff 	teqne	r3, #-16777216	; 0xff000000
    8680:	012fff1e 	bxeq	lr
    8684:	e92d4030 	push	{r4, r5, lr}
    8688:	e3a04d0e 	mov	r4, #896	; 0x380
    868c:	e2015102 	and	r5, r1, #-2147483648	; 0x80000000
    8690:	e3c11102 	bic	r1, r1, #-2147483648	; 0x80000000
    8694:	eaffff6c 	b	844c <__adddf3+0x150>

00008698 <__aeabi_ul2d>:
    8698:	e1902001 	orrs	r2, r0, r1
    869c:	012fff1e 	bxeq	lr
    86a0:	e92d4030 	push	{r4, r5, lr}
    86a4:	e3a05000 	mov	r5, #0
    86a8:	ea000006 	b	86c8 <__aeabi_l2d+0x1c>

000086ac <__aeabi_l2d>:
    86ac:	e1902001 	orrs	r2, r0, r1
    86b0:	012fff1e 	bxeq	lr
    86b4:	e92d4030 	push	{r4, r5, lr}
    86b8:	e2115102 	ands	r5, r1, #-2147483648	; 0x80000000
    86bc:	5a000001 	bpl	86c8 <__aeabi_l2d+0x1c>
    86c0:	e2700000 	rsbs	r0, r0, #0
    86c4:	e2e11000 	rsc	r1, r1, #0
    86c8:	e3a04b01 	mov	r4, #1024	; 0x400
    86cc:	e2844032 	add	r4, r4, #50	; 0x32
    86d0:	e1b0cb21 	lsrs	ip, r1, #22
    86d4:	0affff44 	beq	83ec <__adddf3+0xf0>
    86d8:	e3a02003 	mov	r2, #3
    86dc:	e1b0c1ac 	lsrs	ip, ip, #3
    86e0:	12822003 	addne	r2, r2, #3
    86e4:	e1b0c1ac 	lsrs	ip, ip, #3
    86e8:	12822003 	addne	r2, r2, #3
    86ec:	e08221ac 	add	r2, r2, ip, lsr #3
    86f0:	e2623020 	rsb	r3, r2, #32
    86f4:	e1a0c310 	lsl	ip, r0, r3
    86f8:	e1a00230 	lsr	r0, r0, r2
    86fc:	e1800311 	orr	r0, r0, r1, lsl r3
    8700:	e1a01231 	lsr	r1, r1, r2
    8704:	e0844002 	add	r4, r4, r2
    8708:	eaffff37 	b	83ec <__adddf3+0xf0>
    870c:	00000000 	andeq	r0, r0, r0

00008710 <__aeabi_dmul>:
    8710:	e92d4070 	push	{r4, r5, r6, lr}
    8714:	e3a0c0ff 	mov	ip, #255	; 0xff
    8718:	e38ccc07 	orr	ip, ip, #1792	; 0x700
    871c:	e01c4a21 	ands	r4, ip, r1, lsr #20
    8720:	101c5a23 	andsne	r5, ip, r3, lsr #20
    8724:	1134000c 	teqne	r4, ip
    8728:	1135000c 	teqne	r5, ip
    872c:	0b000075 	bleq	8908 <__aeabi_dmul+0x1f8>
    8730:	e0844005 	add	r4, r4, r5
    8734:	e0216003 	eor	r6, r1, r3
    8738:	e1c11a8c 	bic	r1, r1, ip, lsl #21
    873c:	e1c33a8c 	bic	r3, r3, ip, lsl #21
    8740:	e1905601 	orrs	r5, r0, r1, lsl #12
    8744:	11925603 	orrsne	r5, r2, r3, lsl #12
    8748:	e3811601 	orr	r1, r1, #1048576	; 0x100000
    874c:	e3833601 	orr	r3, r3, #1048576	; 0x100000
    8750:	0a00001d 	beq	87cc <__aeabi_dmul+0xbc>
    8754:	e08ec290 	umull	ip, lr, r0, r2
    8758:	e3a05000 	mov	r5, #0
    875c:	e0a5e291 	umlal	lr, r5, r1, r2
    8760:	e2062102 	and	r2, r6, #-2147483648	; 0x80000000
    8764:	e0a5e390 	umlal	lr, r5, r0, r3
    8768:	e3a06000 	mov	r6, #0
    876c:	e0a65391 	umlal	r5, r6, r1, r3
    8770:	e33c0000 	teq	ip, #0
    8774:	138ee001 	orrne	lr, lr, #1
    8778:	e24440ff 	sub	r4, r4, #255	; 0xff
    877c:	e3560c02 	cmp	r6, #512	; 0x200
    8780:	e2c44c03 	sbc	r4, r4, #768	; 0x300
    8784:	2a000002 	bcs	8794 <__aeabi_dmul+0x84>
    8788:	e1b0e08e 	lsls	lr, lr, #1
    878c:	e0b55005 	adcs	r5, r5, r5
    8790:	e0a66006 	adc	r6, r6, r6
    8794:	e1821586 	orr	r1, r2, r6, lsl #11
    8798:	e1811aa5 	orr	r1, r1, r5, lsr #21
    879c:	e1a00585 	lsl	r0, r5, #11
    87a0:	e1800aae 	orr	r0, r0, lr, lsr #21
    87a4:	e1a0e58e 	lsl	lr, lr, #11
    87a8:	e254c0fd 	subs	ip, r4, #253	; 0xfd
    87ac:	835c0c07 	cmphi	ip, #1792	; 0x700
    87b0:	8a000011 	bhi	87fc <__aeabi_dmul+0xec>
    87b4:	e35e0102 	cmp	lr, #-2147483648	; 0x80000000
    87b8:	01b0e0a0 	lsrseq	lr, r0, #1
    87bc:	e2b00000 	adcs	r0, r0, #0
    87c0:	e0a11a04 	adc	r1, r1, r4, lsl #20
    87c4:	e8bd4070 	pop	{r4, r5, r6, lr}
    87c8:	e12fff1e 	bx	lr
    87cc:	e2066102 	and	r6, r6, #-2147483648	; 0x80000000
    87d0:	e1861001 	orr	r1, r6, r1
    87d4:	e1800002 	orr	r0, r0, r2
    87d8:	e0211003 	eor	r1, r1, r3
    87dc:	e05440ac 	subs	r4, r4, ip, lsr #1
    87e0:	c074500c 	rsbsgt	r5, r4, ip
    87e4:	c1811a04 	orrgt	r1, r1, r4, lsl #20
    87e8:	c8bd4070 	popgt	{r4, r5, r6, lr}
    87ec:	c12fff1e 	bxgt	lr
    87f0:	e3811601 	orr	r1, r1, #1048576	; 0x100000
    87f4:	e3a0e000 	mov	lr, #0
    87f8:	e2544001 	subs	r4, r4, #1
    87fc:	ca00005d 	bgt	8978 <__aeabi_dmul+0x268>
    8800:	e3740036 	cmn	r4, #54	; 0x36
    8804:	d3a00000 	movle	r0, #0
    8808:	d2011102 	andle	r1, r1, #-2147483648	; 0x80000000
    880c:	d8bd4070 	pople	{r4, r5, r6, lr}
    8810:	d12fff1e 	bxle	lr
    8814:	e2644000 	rsb	r4, r4, #0
    8818:	e2544020 	subs	r4, r4, #32
    881c:	aa00001a 	bge	888c <__aeabi_dmul+0x17c>
    8820:	e294400c 	adds	r4, r4, #12
    8824:	ca00000c 	bgt	885c <__aeabi_dmul+0x14c>
    8828:	e2844014 	add	r4, r4, #20
    882c:	e2645020 	rsb	r5, r4, #32
    8830:	e1a03510 	lsl	r3, r0, r5
    8834:	e1a00430 	lsr	r0, r0, r4
    8838:	e1800511 	orr	r0, r0, r1, lsl r5
    883c:	e2012102 	and	r2, r1, #-2147483648	; 0x80000000
    8840:	e3c11102 	bic	r1, r1, #-2147483648	; 0x80000000
    8844:	e0900fa3 	adds	r0, r0, r3, lsr #31
    8848:	e0a21431 	adc	r1, r2, r1, lsr r4
    884c:	e19ee083 	orrs	lr, lr, r3, lsl #1
    8850:	01c00fa3 	biceq	r0, r0, r3, lsr #31
    8854:	e8bd4070 	pop	{r4, r5, r6, lr}
    8858:	e12fff1e 	bx	lr
    885c:	e264400c 	rsb	r4, r4, #12
    8860:	e2645020 	rsb	r5, r4, #32
    8864:	e1a03410 	lsl	r3, r0, r4
    8868:	e1a00530 	lsr	r0, r0, r5
    886c:	e1800411 	orr	r0, r0, r1, lsl r4
    8870:	e2011102 	and	r1, r1, #-2147483648	; 0x80000000
    8874:	e0900fa3 	adds	r0, r0, r3, lsr #31
    8878:	e2a11000 	adc	r1, r1, #0
    887c:	e19ee083 	orrs	lr, lr, r3, lsl #1
    8880:	01c00fa3 	biceq	r0, r0, r3, lsr #31
    8884:	e8bd4070 	pop	{r4, r5, r6, lr}
    8888:	e12fff1e 	bx	lr
    888c:	e2645020 	rsb	r5, r4, #32
    8890:	e18ee510 	orr	lr, lr, r0, lsl r5
    8894:	e1a03430 	lsr	r3, r0, r4
    8898:	e1833511 	orr	r3, r3, r1, lsl r5
    889c:	e1a00431 	lsr	r0, r1, r4
    88a0:	e2011102 	and	r1, r1, #-2147483648	; 0x80000000
    88a4:	e1c00431 	bic	r0, r0, r1, lsr r4
    88a8:	e0800fa3 	add	r0, r0, r3, lsr #31
    88ac:	e19ee083 	orrs	lr, lr, r3, lsl #1
    88b0:	01c00fa3 	biceq	r0, r0, r3, lsr #31
    88b4:	e8bd4070 	pop	{r4, r5, r6, lr}
    88b8:	e12fff1e 	bx	lr
    88bc:	e3340000 	teq	r4, #0
    88c0:	1a000008 	bne	88e8 <__aeabi_dmul+0x1d8>
    88c4:	e2016102 	and	r6, r1, #-2147483648	; 0x80000000
    88c8:	e1b00080 	lsls	r0, r0, #1
    88cc:	e0a11001 	adc	r1, r1, r1
    88d0:	e3110601 	tst	r1, #1048576	; 0x100000
    88d4:	02444001 	subeq	r4, r4, #1
    88d8:	0afffffa 	beq	88c8 <__aeabi_dmul+0x1b8>
    88dc:	e1811006 	orr	r1, r1, r6
    88e0:	e3350000 	teq	r5, #0
    88e4:	112fff1e 	bxne	lr
    88e8:	e2036102 	and	r6, r3, #-2147483648	; 0x80000000
    88ec:	e1b02082 	lsls	r2, r2, #1
    88f0:	e0a33003 	adc	r3, r3, r3
    88f4:	e3130601 	tst	r3, #1048576	; 0x100000
    88f8:	02455001 	subeq	r5, r5, #1
    88fc:	0afffffa 	beq	88ec <__aeabi_dmul+0x1dc>
    8900:	e1833006 	orr	r3, r3, r6
    8904:	e12fff1e 	bx	lr
    8908:	e134000c 	teq	r4, ip
    890c:	e00c5a23 	and	r5, ip, r3, lsr #20
    8910:	1135000c 	teqne	r5, ip
    8914:	0a000007 	beq	8938 <__aeabi_dmul+0x228>
    8918:	e1906081 	orrs	r6, r0, r1, lsl #1
    891c:	11926083 	orrsne	r6, r2, r3, lsl #1
    8920:	1affffe5 	bne	88bc <__aeabi_dmul+0x1ac>
    8924:	e0211003 	eor	r1, r1, r3
    8928:	e2011102 	and	r1, r1, #-2147483648	; 0x80000000
    892c:	e3a00000 	mov	r0, #0
    8930:	e8bd4070 	pop	{r4, r5, r6, lr}
    8934:	e12fff1e 	bx	lr
    8938:	e1906081 	orrs	r6, r0, r1, lsl #1
    893c:	01a00002 	moveq	r0, r2
    8940:	01a01003 	moveq	r1, r3
    8944:	11926083 	orrsne	r6, r2, r3, lsl #1
    8948:	0a000010 	beq	8990 <__aeabi_dmul+0x280>
    894c:	e134000c 	teq	r4, ip
    8950:	1a000001 	bne	895c <__aeabi_dmul+0x24c>
    8954:	e1906601 	orrs	r6, r0, r1, lsl #12
    8958:	1a00000c 	bne	8990 <__aeabi_dmul+0x280>
    895c:	e135000c 	teq	r5, ip
    8960:	1a000003 	bne	8974 <__aeabi_dmul+0x264>
    8964:	e1926603 	orrs	r6, r2, r3, lsl #12
    8968:	11a00002 	movne	r0, r2
    896c:	11a01003 	movne	r1, r3
    8970:	1a000006 	bne	8990 <__aeabi_dmul+0x280>
    8974:	e0211003 	eor	r1, r1, r3
    8978:	e2011102 	and	r1, r1, #-2147483648	; 0x80000000
    897c:	e381147f 	orr	r1, r1, #2130706432	; 0x7f000000
    8980:	e381160f 	orr	r1, r1, #15728640	; 0xf00000
    8984:	e3a00000 	mov	r0, #0
    8988:	e8bd4070 	pop	{r4, r5, r6, lr}
    898c:	e12fff1e 	bx	lr
    8990:	e381147f 	orr	r1, r1, #2130706432	; 0x7f000000
    8994:	e381173e 	orr	r1, r1, #16252928	; 0xf80000
    8998:	e8bd4070 	pop	{r4, r5, r6, lr}
    899c:	e12fff1e 	bx	lr

000089a0 <__aeabi_ddiv>:
    89a0:	e92d4070 	push	{r4, r5, r6, lr}
    89a4:	e3a0c0ff 	mov	ip, #255	; 0xff
    89a8:	e38ccc07 	orr	ip, ip, #1792	; 0x700
    89ac:	e01c4a21 	ands	r4, ip, r1, lsr #20
    89b0:	101c5a23 	andsne	r5, ip, r3, lsr #20
    89b4:	1134000c 	teqne	r4, ip
    89b8:	1135000c 	teqne	r5, ip
    89bc:	0b00005e 	bleq	8b3c <__aeabi_ddiv+0x19c>
    89c0:	e0444005 	sub	r4, r4, r5
    89c4:	e021e003 	eor	lr, r1, r3
    89c8:	e1925603 	orrs	r5, r2, r3, lsl #12
    89cc:	e1a01601 	lsl	r1, r1, #12
    89d0:	0a00004c 	beq	8b08 <__aeabi_ddiv+0x168>
    89d4:	e1a03603 	lsl	r3, r3, #12
    89d8:	e3a05201 	mov	r5, #268435456	; 0x10000000
    89dc:	e1853223 	orr	r3, r5, r3, lsr #4
    89e0:	e1833c22 	orr	r3, r3, r2, lsr #24
    89e4:	e1a02402 	lsl	r2, r2, #8
    89e8:	e1855221 	orr	r5, r5, r1, lsr #4
    89ec:	e1855c20 	orr	r5, r5, r0, lsr #24
    89f0:	e1a06400 	lsl	r6, r0, #8
    89f4:	e20e1102 	and	r1, lr, #-2147483648	; 0x80000000
    89f8:	e1550003 	cmp	r5, r3
    89fc:	01560002 	cmpeq	r6, r2
    8a00:	e2a440fd 	adc	r4, r4, #253	; 0xfd
    8a04:	e2844c03 	add	r4, r4, #768	; 0x300
    8a08:	2a000001 	bcs	8a14 <__aeabi_ddiv+0x74>
    8a0c:	e1b030a3 	lsrs	r3, r3, #1
    8a10:	e1a02062 	rrx	r2, r2
    8a14:	e0566002 	subs	r6, r6, r2
    8a18:	e0c55003 	sbc	r5, r5, r3
    8a1c:	e1b030a3 	lsrs	r3, r3, #1
    8a20:	e1a02062 	rrx	r2, r2
    8a24:	e3a00601 	mov	r0, #1048576	; 0x100000
    8a28:	e3a0c702 	mov	ip, #524288	; 0x80000
    8a2c:	e056e002 	subs	lr, r6, r2
    8a30:	e0d5e003 	sbcs	lr, r5, r3
    8a34:	20466002 	subcs	r6, r6, r2
    8a38:	21a0500e 	movcs	r5, lr
    8a3c:	2180000c 	orrcs	r0, r0, ip
    8a40:	e1b030a3 	lsrs	r3, r3, #1
    8a44:	e1a02062 	rrx	r2, r2
    8a48:	e056e002 	subs	lr, r6, r2
    8a4c:	e0d5e003 	sbcs	lr, r5, r3
    8a50:	20466002 	subcs	r6, r6, r2
    8a54:	21a0500e 	movcs	r5, lr
    8a58:	218000ac 	orrcs	r0, r0, ip, lsr #1
    8a5c:	e1b030a3 	lsrs	r3, r3, #1
    8a60:	e1a02062 	rrx	r2, r2
    8a64:	e056e002 	subs	lr, r6, r2
    8a68:	e0d5e003 	sbcs	lr, r5, r3
    8a6c:	20466002 	subcs	r6, r6, r2
    8a70:	21a0500e 	movcs	r5, lr
    8a74:	2180012c 	orrcs	r0, r0, ip, lsr #2
    8a78:	e1b030a3 	lsrs	r3, r3, #1
    8a7c:	e1a02062 	rrx	r2, r2
    8a80:	e056e002 	subs	lr, r6, r2
    8a84:	e0d5e003 	sbcs	lr, r5, r3
    8a88:	20466002 	subcs	r6, r6, r2
    8a8c:	21a0500e 	movcs	r5, lr
    8a90:	218001ac 	orrcs	r0, r0, ip, lsr #3
    8a94:	e195e006 	orrs	lr, r5, r6
    8a98:	0a00000d 	beq	8ad4 <__aeabi_ddiv+0x134>
    8a9c:	e1a05205 	lsl	r5, r5, #4
    8aa0:	e1855e26 	orr	r5, r5, r6, lsr #28
    8aa4:	e1a06206 	lsl	r6, r6, #4
    8aa8:	e1a03183 	lsl	r3, r3, #3
    8aac:	e1833ea2 	orr	r3, r3, r2, lsr #29
    8ab0:	e1a02182 	lsl	r2, r2, #3
    8ab4:	e1b0c22c 	lsrs	ip, ip, #4
    8ab8:	1affffdb 	bne	8a2c <__aeabi_ddiv+0x8c>
    8abc:	e3110601 	tst	r1, #1048576	; 0x100000
    8ac0:	1a000006 	bne	8ae0 <__aeabi_ddiv+0x140>
    8ac4:	e1811000 	orr	r1, r1, r0
    8ac8:	e3a00000 	mov	r0, #0
    8acc:	e3a0c102 	mov	ip, #-2147483648	; 0x80000000
    8ad0:	eaffffd5 	b	8a2c <__aeabi_ddiv+0x8c>
    8ad4:	e3110601 	tst	r1, #1048576	; 0x100000
    8ad8:	01811000 	orreq	r1, r1, r0
    8adc:	03a00000 	moveq	r0, #0
    8ae0:	e254c0fd 	subs	ip, r4, #253	; 0xfd
    8ae4:	835c0c07 	cmphi	ip, #1792	; 0x700
    8ae8:	8affff43 	bhi	87fc <__aeabi_dmul+0xec>
    8aec:	e055c003 	subs	ip, r5, r3
    8af0:	0056c002 	subseq	ip, r6, r2
    8af4:	01b0c0a0 	lsrseq	ip, r0, #1
    8af8:	e2b00000 	adcs	r0, r0, #0
    8afc:	e0a11a04 	adc	r1, r1, r4, lsl #20
    8b00:	e8bd4070 	pop	{r4, r5, r6, lr}
    8b04:	e12fff1e 	bx	lr
    8b08:	e20ee102 	and	lr, lr, #-2147483648	; 0x80000000
    8b0c:	e18e1621 	orr	r1, lr, r1, lsr #12
    8b10:	e09440ac 	adds	r4, r4, ip, lsr #1
    8b14:	c074500c 	rsbsgt	r5, r4, ip
    8b18:	c1811a04 	orrgt	r1, r1, r4, lsl #20
    8b1c:	c8bd4070 	popgt	{r4, r5, r6, lr}
    8b20:	c12fff1e 	bxgt	lr
    8b24:	e3811601 	orr	r1, r1, #1048576	; 0x100000
    8b28:	e3a0e000 	mov	lr, #0
    8b2c:	e2544001 	subs	r4, r4, #1
    8b30:	eaffff31 	b	87fc <__aeabi_dmul+0xec>
    8b34:	e185e006 	orr	lr, r5, r6
    8b38:	eaffff2f 	b	87fc <__aeabi_dmul+0xec>
    8b3c:	e00c5a23 	and	r5, ip, r3, lsr #20
    8b40:	e134000c 	teq	r4, ip
    8b44:	0135000c 	teqeq	r5, ip
    8b48:	0affff90 	beq	8990 <__aeabi_dmul+0x280>
    8b4c:	e134000c 	teq	r4, ip
    8b50:	1a000006 	bne	8b70 <__aeabi_ddiv+0x1d0>
    8b54:	e1904601 	orrs	r4, r0, r1, lsl #12
    8b58:	1affff8c 	bne	8990 <__aeabi_dmul+0x280>
    8b5c:	e135000c 	teq	r5, ip
    8b60:	1affff83 	bne	8974 <__aeabi_dmul+0x264>
    8b64:	e1a00002 	mov	r0, r2
    8b68:	e1a01003 	mov	r1, r3
    8b6c:	eaffff87 	b	8990 <__aeabi_dmul+0x280>
    8b70:	e135000c 	teq	r5, ip
    8b74:	1a000004 	bne	8b8c <__aeabi_ddiv+0x1ec>
    8b78:	e1925603 	orrs	r5, r2, r3, lsl #12
    8b7c:	0affff68 	beq	8924 <__aeabi_dmul+0x214>
    8b80:	e1a00002 	mov	r0, r2
    8b84:	e1a01003 	mov	r1, r3
    8b88:	eaffff80 	b	8990 <__aeabi_dmul+0x280>
    8b8c:	e1906081 	orrs	r6, r0, r1, lsl #1
    8b90:	11926083 	orrsne	r6, r2, r3, lsl #1
    8b94:	1affff48 	bne	88bc <__aeabi_dmul+0x1ac>
    8b98:	e1904081 	orrs	r4, r0, r1, lsl #1
    8b9c:	1affff74 	bne	8974 <__aeabi_dmul+0x264>
    8ba0:	e1925083 	orrs	r5, r2, r3, lsl #1
    8ba4:	1affff5e 	bne	8924 <__aeabi_dmul+0x214>
    8ba8:	eaffff78 	b	8990 <__aeabi_dmul+0x280>
    8bac:	00000000 	andeq	r0, r0, r0

00008bb0 <__aeabi_d2iz>:
    8bb0:	e1a02081 	lsl	r2, r1, #1
    8bb4:	e2922602 	adds	r2, r2, #2097152	; 0x200000
    8bb8:	2a00000c 	bcs	8bf0 <__aeabi_d2iz+0x40>
    8bbc:	5a000009 	bpl	8be8 <__aeabi_d2iz+0x38>
    8bc0:	e3e03e3e 	mvn	r3, #992	; 0x3e0
    8bc4:	e0532ac2 	subs	r2, r3, r2, asr #21
    8bc8:	9a00000a 	bls	8bf8 <__aeabi_d2iz+0x48>
    8bcc:	e1a03581 	lsl	r3, r1, #11
    8bd0:	e3833102 	orr	r3, r3, #-2147483648	; 0x80000000
    8bd4:	e1833aa0 	orr	r3, r3, r0, lsr #21
    8bd8:	e3110102 	tst	r1, #-2147483648	; 0x80000000
    8bdc:	e1a00233 	lsr	r0, r3, r2
    8be0:	12600000 	rsbne	r0, r0, #0
    8be4:	e12fff1e 	bx	lr
    8be8:	e3a00000 	mov	r0, #0
    8bec:	e12fff1e 	bx	lr
    8bf0:	e1900601 	orrs	r0, r0, r1, lsl #12
    8bf4:	1a000002 	bne	8c04 <__aeabi_d2iz+0x54>
    8bf8:	e2110102 	ands	r0, r1, #-2147483648	; 0x80000000
    8bfc:	03e00102 	mvneq	r0, #-2147483648	; 0x80000000
    8c00:	e12fff1e 	bx	lr
    8c04:	e3a00000 	mov	r0, #0
    8c08:	e12fff1e 	bx	lr
    8c0c:	00000000 	andeq	r0, r0, r0

00008c10 <__aeabi_d2f>:
    8c10:	e1a02081 	lsl	r2, r1, #1
    8c14:	e2523207 	subs	r3, r2, #1879048192	; 0x70000000
    8c18:	2253c602 	subscs	ip, r3, #2097152	; 0x200000
    8c1c:	227cc57f 	rsbscs	ip, ip, #532676608	; 0x1fc00000
    8c20:	9a000006 	bls	8c40 <__aeabi_d2f+0x30>
    8c24:	e201c102 	and	ip, r1, #-2147483648	; 0x80000000
    8c28:	e1a02180 	lsl	r2, r0, #3
    8c2c:	e18c0ea0 	orr	r0, ip, r0, lsr #29
    8c30:	e3520102 	cmp	r2, #-2147483648	; 0x80000000
    8c34:	e0a00103 	adc	r0, r0, r3, lsl #2
    8c38:	03c00001 	biceq	r0, r0, #1
    8c3c:	e12fff1e 	bx	lr
    8c40:	e3110101 	tst	r1, #1073741824	; 0x40000000
    8c44:	1a00000f 	bne	8c88 <__aeabi_d2f+0x78>
    8c48:	e293262e 	adds	r2, r3, #48234496	; 0x2e00000
    8c4c:	b2010102 	andlt	r0, r1, #-2147483648	; 0x80000000
    8c50:	b12fff1e 	bxlt	lr
    8c54:	e3811601 	orr	r1, r1, #1048576	; 0x100000
    8c58:	e1a02aa2 	lsr	r2, r2, #21
    8c5c:	e2622018 	rsb	r2, r2, #24
    8c60:	e262c020 	rsb	ip, r2, #32
    8c64:	e1b03c10 	lsls	r3, r0, ip
    8c68:	e1a00230 	lsr	r0, r0, r2
    8c6c:	13800001 	orrne	r0, r0, #1
    8c70:	e1a03581 	lsl	r3, r1, #11
    8c74:	e1a035a3 	lsr	r3, r3, #11
    8c78:	e1800c13 	orr	r0, r0, r3, lsl ip
    8c7c:	e1a03233 	lsr	r3, r3, r2
    8c80:	e1a03083 	lsl	r3, r3, #1
    8c84:	eaffffe6 	b	8c24 <__aeabi_d2f+0x14>
    8c88:	e1f03ac2 	mvns	r3, r2, asr #21
    8c8c:	1a000003 	bne	8ca0 <__aeabi_d2f+0x90>
    8c90:	e1903601 	orrs	r3, r0, r1, lsl #12
    8c94:	13a0047f 	movne	r0, #2130706432	; 0x7f000000
    8c98:	13800503 	orrne	r0, r0, #12582912	; 0xc00000
    8c9c:	112fff1e 	bxne	lr
    8ca0:	e2010102 	and	r0, r1, #-2147483648	; 0x80000000
    8ca4:	e380047f 	orr	r0, r0, #2130706432	; 0x7f000000
    8ca8:	e3800502 	orr	r0, r0, #8388608	; 0x800000
    8cac:	e12fff1e 	bx	lr

00008cb0 <__gesf2>:
    8cb0:	e3e0c000 	mvn	ip, #0
    8cb4:	ea000002 	b	8cc4 <__cmpsf2+0x4>

00008cb8 <__lesf2>:
    8cb8:	e3a0c001 	mov	ip, #1
    8cbc:	ea000000 	b	8cc4 <__cmpsf2+0x4>

00008cc0 <__cmpsf2>:
    8cc0:	e3a0c001 	mov	ip, #1
    8cc4:	e52dc004 	push	{ip}		; (str ip, [sp, #-4]!)
    8cc8:	e1a02080 	lsl	r2, r0, #1
    8ccc:	e1a03081 	lsl	r3, r1, #1
    8cd0:	e1f0cc42 	mvns	ip, r2, asr #24
    8cd4:	11f0cc43 	mvnsne	ip, r3, asr #24
    8cd8:	0a000007 	beq	8cfc <__cmpsf2+0x3c>
    8cdc:	e28dd004 	add	sp, sp, #4
    8ce0:	e192c0a3 	orrs	ip, r2, r3, lsr #1
    8ce4:	11300001 	teqne	r0, r1
    8ce8:	50520003 	subspl	r0, r2, r3
    8cec:	81a00fc1 	asrhi	r0, r1, #31
    8cf0:	31e00fc1 	mvncc	r0, r1, asr #31
    8cf4:	13800001 	orrne	r0, r0, #1
    8cf8:	e12fff1e 	bx	lr
    8cfc:	e1f0cc42 	mvns	ip, r2, asr #24
    8d00:	1a000001 	bne	8d0c <__cmpsf2+0x4c>
    8d04:	e1b0c480 	lsls	ip, r0, #9
    8d08:	1a000003 	bne	8d1c <__cmpsf2+0x5c>
    8d0c:	e1f0cc43 	mvns	ip, r3, asr #24
    8d10:	1afffff1 	bne	8cdc <__cmpsf2+0x1c>
    8d14:	e1b0c481 	lsls	ip, r1, #9
    8d18:	0affffef 	beq	8cdc <__cmpsf2+0x1c>
    8d1c:	e49d0004 	pop	{r0}		; (ldr r0, [sp], #4)
    8d20:	e12fff1e 	bx	lr

00008d24 <__aeabi_cfrcmple>:
    8d24:	e1a0c000 	mov	ip, r0
    8d28:	e1a00001 	mov	r0, r1
    8d2c:	e1a0100c 	mov	r1, ip
    8d30:	eaffffff 	b	8d34 <__aeabi_cfcmpeq>

00008d34 <__aeabi_cfcmpeq>:
    8d34:	e92d400f 	push	{r0, r1, r2, r3, lr}
    8d38:	ebffffe0 	bl	8cc0 <__cmpsf2>
    8d3c:	e3500000 	cmp	r0, #0
    8d40:	43700000 	cmnmi	r0, #0
    8d44:	e8bd400f 	pop	{r0, r1, r2, r3, lr}
    8d48:	e12fff1e 	bx	lr

00008d4c <__aeabi_fcmpeq>:
    8d4c:	e52de008 	str	lr, [sp, #-8]!
    8d50:	ebfffff7 	bl	8d34 <__aeabi_cfcmpeq>
    8d54:	03a00001 	moveq	r0, #1
    8d58:	13a00000 	movne	r0, #0
    8d5c:	e49de008 	ldr	lr, [sp], #8
    8d60:	e12fff1e 	bx	lr

00008d64 <__aeabi_fcmplt>:
    8d64:	e52de008 	str	lr, [sp, #-8]!
    8d68:	ebfffff1 	bl	8d34 <__aeabi_cfcmpeq>
    8d6c:	33a00001 	movcc	r0, #1
    8d70:	23a00000 	movcs	r0, #0
    8d74:	e49de008 	ldr	lr, [sp], #8
    8d78:	e12fff1e 	bx	lr

00008d7c <__aeabi_fcmple>:
    8d7c:	e52de008 	str	lr, [sp, #-8]!
    8d80:	ebffffeb 	bl	8d34 <__aeabi_cfcmpeq>
    8d84:	93a00001 	movls	r0, #1
    8d88:	83a00000 	movhi	r0, #0
    8d8c:	e49de008 	ldr	lr, [sp], #8
    8d90:	e12fff1e 	bx	lr

00008d94 <__aeabi_fcmpge>:
    8d94:	e52de008 	str	lr, [sp, #-8]!
    8d98:	ebffffe1 	bl	8d24 <__aeabi_cfrcmple>
    8d9c:	93a00001 	movls	r0, #1
    8da0:	83a00000 	movhi	r0, #0
    8da4:	e49de008 	ldr	lr, [sp], #8
    8da8:	e12fff1e 	bx	lr

00008dac <__aeabi_fcmpgt>:
    8dac:	e52de008 	str	lr, [sp, #-8]!
    8db0:	ebffffdb 	bl	8d24 <__aeabi_cfrcmple>
    8db4:	33a00001 	movcc	r0, #1
    8db8:	23a00000 	movcs	r0, #0
    8dbc:	e49de008 	ldr	lr, [sp], #8
    8dc0:	e12fff1e 	bx	lr
	...

00008dd0 <__aeabi_f2iz>:
    8dd0:	e1a02080 	lsl	r2, r0, #1
    8dd4:	e352047f 	cmp	r2, #2130706432	; 0x7f000000
    8dd8:	3a000008 	bcc	8e00 <__aeabi_f2iz+0x30>
    8ddc:	e3a0309e 	mov	r3, #158	; 0x9e
    8de0:	e0532c22 	subs	r2, r3, r2, lsr #24
    8de4:	9a000007 	bls	8e08 <__aeabi_f2iz+0x38>
    8de8:	e1a03400 	lsl	r3, r0, #8
    8dec:	e3833102 	orr	r3, r3, #-2147483648	; 0x80000000
    8df0:	e3100102 	tst	r0, #-2147483648	; 0x80000000
    8df4:	e1a00233 	lsr	r0, r3, r2
    8df8:	12600000 	rsbne	r0, r0, #0
    8dfc:	e12fff1e 	bx	lr
    8e00:	e3a00000 	mov	r0, #0
    8e04:	e12fff1e 	bx	lr
    8e08:	e3720061 	cmn	r2, #97	; 0x61
    8e0c:	1a000001 	bne	8e18 <__aeabi_f2iz+0x48>
    8e10:	e1b02480 	lsls	r2, r0, #9
    8e14:	1a000002 	bne	8e24 <__aeabi_f2iz+0x54>
    8e18:	e2100102 	ands	r0, r0, #-2147483648	; 0x80000000
    8e1c:	03e00102 	mvneq	r0, #-2147483648	; 0x80000000
    8e20:	e12fff1e 	bx	lr
    8e24:	e3a00000 	mov	r0, #0
    8e28:	e12fff1e 	bx	lr
    8e2c:	00000000 	andeq	r0, r0, r0

00008e30 <_idle_thread>:
    8e30:	e59f3010 	ldr	r3, [pc, #16]	; 8e48 <_idle_thread+0x18>
    8e34:	e59f2010 	ldr	r2, [pc, #16]	; 8e4c <_idle_thread+0x1c>
    8e38:	e5933018 	ldr	r3, [r3, #24]
    8e3c:	e5832018 	str	r2, [r3, #24]
    8e40:	ee070f90 	mcr	15, 0, r0, cr7, cr0, {4}
    8e44:	eafffffd 	b	8e40 <_idle_thread+0x10>
    8e48:	0000b560 	andeq	fp, r0, r0, ror #10
    8e4c:	0000b280 	andeq	fp, r0, r0, lsl #5

00008e50 <chSysInit>:
    8e50:	e52de004 	push	{lr}		; (str lr, [sp, #-4]!)
    8e54:	e24dd00c 	sub	sp, sp, #12
    8e58:	eb0000a0 	bl	90e0 <_scheduler_init>
    8e5c:	eb00003f 	bl	8f60 <_vt_init>
    8e60:	eb0003de 	bl	9de0 <_core_init>
    8e64:	eb000401 	bl	9e70 <_heap_init>
    8e68:	e3a01040 	mov	r1, #64	; 0x40
    8e6c:	e59f0040 	ldr	r0, [pc, #64]	; 8eb4 <chSysInit+0x64>
    8e70:	eb00016e 	bl	9430 <_thread_init>
    8e74:	e3a02001 	mov	r2, #1
    8e78:	e59f3038 	ldr	r3, [pc, #56]	; 8eb8 <chSysInit+0x68>
    8e7c:	e5c0201c 	strb	r2, [r0, #28]
    8e80:	e5830018 	str	r0, [r3, #24]
    8e84:	e321f01f 	msr	CPSR_c, #31
    8e88:	e3a01000 	mov	r1, #0
    8e8c:	e5933018 	ldr	r3, [r3, #24]
    8e90:	e59f0024 	ldr	r0, [pc, #36]	; 8ebc <chSysInit+0x6c>
    8e94:	e5830018 	str	r0, [r3, #24]
    8e98:	e58d1000 	str	r1, [sp]
    8e9c:	e59f301c 	ldr	r3, [pc, #28]	; 8ec0 <chSysInit+0x70>
    8ea0:	e3a0109c 	mov	r1, #156	; 0x9c
    8ea4:	e59f0018 	ldr	r0, [pc, #24]	; 8ec4 <chSysInit+0x74>
    8ea8:	eb00017c 	bl	94a0 <chThdCreateStatic>
    8eac:	e28dd00c 	add	sp, sp, #12
    8eb0:	e49df004 	pop	{pc}		; (ldr pc, [sp], #4)
    8eb4:	0000b330 	andeq	fp, r0, r0, lsr r3
    8eb8:	0000b560 	andeq	fp, r0, r0, ror #10
    8ebc:	0000b290 	muleq	r0, r0, r2
    8ec0:	00008e30 	andeq	r8, r0, r0, lsr lr
    8ec4:	0000b4b4 			; <UNDEFINED> instruction: 0x0000b4b4
	...

00008ed0 <chSysTimerHandlerI>:
    8ed0:	e92d4038 	push	{r3, r4, r5, lr}
    8ed4:	e59f307c 	ldr	r3, [pc, #124]	; 8f58 <chSysTimerHandlerI+0x88>
    8ed8:	e59f407c 	ldr	r4, [pc, #124]	; 8f5c <chSysTimerHandlerI+0x8c>
    8edc:	e5933018 	ldr	r3, [r3, #24]
    8ee0:	e5d3201f 	ldrb	r2, [r3, #31]
    8ee4:	e3520000 	cmp	r2, #0
    8ee8:	12422001 	subne	r2, r2, #1
    8eec:	15c3201f 	strbne	r2, [r3, #31]
    8ef0:	e5932020 	ldr	r2, [r3, #32]
    8ef4:	e2822001 	add	r2, r2, #1
    8ef8:	e5832020 	str	r2, [r3, #32]
    8efc:	e594200c 	ldr	r2, [r4, #12]
    8f00:	e5943000 	ldr	r3, [r4]
    8f04:	e2822001 	add	r2, r2, #1
    8f08:	e1530004 	cmp	r3, r4
    8f0c:	e584200c 	str	r2, [r4, #12]
    8f10:	08bd8038 	popeq	{r3, r4, r5, pc}
    8f14:	e5935008 	ldr	r5, [r3, #8]
    8f18:	e2455001 	sub	r5, r5, #1
    8f1c:	e3550000 	cmp	r5, #0
    8f20:	e5835008 	str	r5, [r3, #8]
    8f24:	18bd8038 	popne	{r3, r4, r5, pc}
    8f28:	e5932000 	ldr	r2, [r3]
    8f2c:	e593100c 	ldr	r1, [r3, #12]
    8f30:	e5930010 	ldr	r0, [r3, #16]
    8f34:	e583500c 	str	r5, [r3, #12]
    8f38:	e5842000 	str	r2, [r4]
    8f3c:	e5824004 	str	r4, [r2, #4]
    8f40:	e12fff31 	blx	r1
    8f44:	e5943000 	ldr	r3, [r4]
    8f48:	e5932008 	ldr	r2, [r3, #8]
    8f4c:	e3520000 	cmp	r2, #0
    8f50:	0afffff4 	beq	8f28 <chSysTimerHandlerI+0x58>
    8f54:	e8bd8038 	pop	{r3, r4, r5, pc}
    8f58:	0000b560 	andeq	fp, r0, r0, ror #10
    8f5c:	0000b550 	andeq	fp, r0, r0, asr r5

00008f60 <_vt_init>:
    8f60:	e3e01000 	mvn	r1, #0
    8f64:	e3a02000 	mov	r2, #0
    8f68:	e59f3010 	ldr	r3, [pc, #16]	; 8f80 <_vt_init+0x20>
    8f6c:	e5831008 	str	r1, [r3, #8]
    8f70:	e5833004 	str	r3, [r3, #4]
    8f74:	e5833000 	str	r3, [r3]
    8f78:	e583200c 	str	r2, [r3, #12]
    8f7c:	e12fff1e 	bx	lr
    8f80:	0000b550 	andeq	fp, r0, r0, asr r5
	...

00008f90 <chVTSetI>:
    8f90:	e59fc054 	ldr	ip, [pc, #84]	; 8fec <chVTSetI+0x5c>
    8f94:	e5803010 	str	r3, [r0, #16]
    8f98:	e59c3000 	ldr	r3, [ip]
    8f9c:	e580200c 	str	r2, [r0, #12]
    8fa0:	e5932008 	ldr	r2, [r3, #8]
    8fa4:	e1510002 	cmp	r1, r2
    8fa8:	9a000004 	bls	8fc0 <chVTSetI+0x30>
    8fac:	e5933000 	ldr	r3, [r3]
    8fb0:	e0621001 	rsb	r1, r2, r1
    8fb4:	e5932008 	ldr	r2, [r3, #8]
    8fb8:	e1520001 	cmp	r2, r1
    8fbc:	3afffffa 	bcc	8fac <chVTSetI+0x1c>
    8fc0:	e5932004 	ldr	r2, [r3, #4]
    8fc4:	e153000c 	cmp	r3, ip
    8fc8:	e5802004 	str	r2, [r0, #4]
    8fcc:	e5803000 	str	r3, [r0]
    8fd0:	e5830004 	str	r0, [r3, #4]
    8fd4:	e5820000 	str	r0, [r2]
    8fd8:	e5801008 	str	r1, [r0, #8]
    8fdc:	15932008 	ldrne	r2, [r3, #8]
    8fe0:	10611002 	rsbne	r1, r1, r2
    8fe4:	15831008 	strne	r1, [r3, #8]
    8fe8:	e12fff1e 	bx	lr
    8fec:	0000b550 	andeq	fp, r0, r0, asr r5

00008ff0 <chVTResetI>:
    8ff0:	e5903000 	ldr	r3, [r0]
    8ff4:	e59f202c 	ldr	r2, [pc, #44]	; 9028 <chVTResetI+0x38>
    8ff8:	e1530002 	cmp	r3, r2
    8ffc:	15932008 	ldrne	r2, [r3, #8]
    9000:	15901008 	ldrne	r1, [r0, #8]
    9004:	10822001 	addne	r2, r2, r1
    9008:	e3a01000 	mov	r1, #0
    900c:	15832008 	strne	r2, [r3, #8]
    9010:	e5902004 	ldr	r2, [r0, #4]
    9014:	e5823000 	str	r3, [r2]
    9018:	e5903000 	ldr	r3, [r0]
    901c:	e5832004 	str	r2, [r3, #4]
    9020:	e580100c 	str	r1, [r0, #12]
    9024:	e12fff1e 	bx	lr
    9028:	0000b550 	andeq	fp, r0, r0, asr r5
    902c:	00000000 	andeq	r0, r0, r0

00009030 <wakeup>:
    9030:	e5d0301c 	ldrb	r3, [r0, #28]
    9034:	e353000d 	cmp	r3, #13
    9038:	979ff103 	ldrls	pc, [pc, r3, lsl #2]
    903c:	ea000015 	b	9098 <wakeup+0x68>
    9040:	000090d4 	ldrdeq	r9, [r0], -r4
    9044:	00009098 	muleq	r0, r8, r0
    9048:	00009098 	muleq	r0, r8, r0
    904c:	00009078 	andeq	r9, r0, r8, ror r0
    9050:	00009098 	muleq	r0, r8, r0
    9054:	00009088 	andeq	r9, r0, r8, lsl #1
    9058:	00009098 	muleq	r0, r8, r0
    905c:	00009098 	muleq	r0, r8, r0
    9060:	00009098 	muleq	r0, r8, r0
    9064:	00009098 	muleq	r0, r8, r0
    9068:	00009098 	muleq	r0, r8, r0
    906c:	00009098 	muleq	r0, r8, r0
    9070:	00009098 	muleq	r0, r8, r0
    9074:	00009088 	andeq	r9, r0, r8, lsl #1
    9078:	e5902024 	ldr	r2, [r0, #36]	; 0x24
    907c:	e5923008 	ldr	r3, [r2, #8]
    9080:	e2833001 	add	r3, r3, #1
    9084:	e5823008 	str	r3, [r2, #8]
    9088:	e890000c 	ldm	r0, {r2, r3}
    908c:	e5832000 	str	r2, [r3]
    9090:	e5902000 	ldr	r2, [r0]
    9094:	e5823004 	str	r3, [r2, #4]
    9098:	e3e0c000 	mvn	ip, #0
    909c:	e3a02000 	mov	r2, #0
    90a0:	e5901008 	ldr	r1, [r0, #8]
    90a4:	e59f302c 	ldr	r3, [pc, #44]	; 90d8 <wakeup+0xa8>
    90a8:	e580c024 	str	ip, [r0, #36]	; 0x24
    90ac:	e5c0201c 	strb	r2, [r0, #28]
    90b0:	e5933000 	ldr	r3, [r3]
    90b4:	e5932008 	ldr	r2, [r3, #8]
    90b8:	e1520001 	cmp	r2, r1
    90bc:	2afffffb 	bcs	90b0 <wakeup+0x80>
    90c0:	e5932004 	ldr	r2, [r3, #4]
    90c4:	e5803000 	str	r3, [r0]
    90c8:	e5802004 	str	r2, [r0, #4]
    90cc:	e5830004 	str	r0, [r3, #4]
    90d0:	e5820000 	str	r0, [r2]
    90d4:	e12fff1e 	bx	lr
    90d8:	0000b560 	andeq	fp, r0, r0, ror #10
    90dc:	00000000 	andeq	r0, r0, r0

000090e0 <_scheduler_init>:
    90e0:	e3a02000 	mov	r2, #0
    90e4:	e59f3014 	ldr	r3, [pc, #20]	; 9100 <_scheduler_init+0x20>
    90e8:	e5832008 	str	r2, [r3, #8]
    90ec:	e5833004 	str	r3, [r3, #4]
    90f0:	e5833000 	str	r3, [r3]
    90f4:	e5833014 	str	r3, [r3, #20]
    90f8:	e5833010 	str	r3, [r3, #16]
    90fc:	e12fff1e 	bx	lr
    9100:	0000b560 	andeq	fp, r0, r0, ror #10
	...

00009110 <chSchReadyI>:
    9110:	e3a02000 	mov	r2, #0
    9114:	e1a0c000 	mov	ip, r0
    9118:	e5901008 	ldr	r1, [r0, #8]
    911c:	e59f302c 	ldr	r3, [pc, #44]	; 9150 <chSchReadyI+0x40>
    9120:	e5c0201c 	strb	r2, [r0, #28]
    9124:	e5933000 	ldr	r3, [r3]
    9128:	e5932008 	ldr	r2, [r3, #8]
    912c:	e1520001 	cmp	r2, r1
    9130:	2afffffb 	bcs	9124 <chSchReadyI+0x14>
    9134:	e5932004 	ldr	r2, [r3, #4]
    9138:	e1a0000c 	mov	r0, ip
    913c:	e58c3000 	str	r3, [ip]
    9140:	e58c2004 	str	r2, [ip, #4]
    9144:	e583c004 	str	ip, [r3, #4]
    9148:	e582c000 	str	ip, [r2]
    914c:	e12fff1e 	bx	lr
    9150:	0000b560 	andeq	fp, r0, r0, ror #10
	...

00009160 <chSchGoSleepS>:
    9160:	e92d4010 	push	{r4, lr}
    9164:	e3a04014 	mov	r4, #20
    9168:	e3a0e001 	mov	lr, #1
    916c:	e59f302c 	ldr	r3, [pc, #44]	; 91a0 <chSchGoSleepS+0x40>
    9170:	e5932000 	ldr	r2, [r3]
    9174:	e5931018 	ldr	r1, [r3, #24]
    9178:	e592c000 	ldr	ip, [r2]
    917c:	e5c1001c 	strb	r0, [r1, #28]
    9180:	e5c1401f 	strb	r4, [r1, #31]
    9184:	e58c3004 	str	r3, [ip, #4]
    9188:	e5c2e01c 	strb	lr, [r2, #28]
    918c:	e1a00002 	mov	r0, r2
    9190:	e8bd4010 	pop	{r4, lr}
    9194:	e583c000 	str	ip, [r3]
    9198:	e5832018 	str	r2, [r3, #24]
    919c:	eafffbd3 	b	80f0 <_port_switch_arm>
    91a0:	0000b560 	andeq	fp, r0, r0, ror #10
	...

000091b0 <chSchGoSleepTimeoutS>:
    91b0:	e92d4030 	push	{r4, r5, lr}
    91b4:	e3710001 	cmn	r1, #1
    91b8:	e24dd01c 	sub	sp, sp, #28
    91bc:	0a000010 	beq	9204 <chSchGoSleepTimeoutS+0x54>
    91c0:	e1a05000 	mov	r5, r0
    91c4:	e59f4050 	ldr	r4, [pc, #80]	; 921c <chSchGoSleepTimeoutS+0x6c>
    91c8:	e28d0004 	add	r0, sp, #4
    91cc:	e5943018 	ldr	r3, [r4, #24]
    91d0:	e59f2048 	ldr	r2, [pc, #72]	; 9220 <chSchGoSleepTimeoutS+0x70>
    91d4:	ebffff6d 	bl	8f90 <chVTSetI>
    91d8:	e1a00005 	mov	r0, r5
    91dc:	ebffffdf 	bl	9160 <chSchGoSleepS>
    91e0:	e59d3010 	ldr	r3, [sp, #16]
    91e4:	e3530000 	cmp	r3, #0
    91e8:	0a000001 	beq	91f4 <chSchGoSleepTimeoutS+0x44>
    91ec:	e28d0004 	add	r0, sp, #4
    91f0:	ebffff7e 	bl	8ff0 <chVTResetI>
    91f4:	e5943018 	ldr	r3, [r4, #24]
    91f8:	e5930024 	ldr	r0, [r3, #36]	; 0x24
    91fc:	e28dd01c 	add	sp, sp, #28
    9200:	e8bd8030 	pop	{r4, r5, pc}
    9204:	ebffffd5 	bl	9160 <chSchGoSleepS>
    9208:	e59f400c 	ldr	r4, [pc, #12]	; 921c <chSchGoSleepTimeoutS+0x6c>
    920c:	e5943018 	ldr	r3, [r4, #24]
    9210:	e5930024 	ldr	r0, [r3, #36]	; 0x24
    9214:	e28dd01c 	add	sp, sp, #28
    9218:	e8bd8030 	pop	{r4, r5, pc}
    921c:	0000b560 	andeq	fp, r0, r0, ror #10
    9220:	00009030 	andeq	r9, r0, r0, lsr r0
	...

00009230 <chSchWakeupS>:
    9230:	e59f3094 	ldr	r3, [pc, #148]	; 92cc <chSchWakeupS+0x9c>
    9234:	e92d4030 	push	{r4, r5, lr}
    9238:	e5934018 	ldr	r4, [r3, #24]
    923c:	e590c008 	ldr	ip, [r0, #8]
    9240:	e1a0e000 	mov	lr, r0
    9244:	e5801024 	str	r1, [r0, #36]	; 0x24
    9248:	e5940008 	ldr	r0, [r4, #8]
    924c:	e15c0000 	cmp	ip, r0
    9250:	8a00000b 	bhi	9284 <chSchWakeupS+0x54>
    9254:	e3a02000 	mov	r2, #0
    9258:	e5ce201c 	strb	r2, [lr, #28]
    925c:	e5933000 	ldr	r3, [r3]
    9260:	e5932008 	ldr	r2, [r3, #8]
    9264:	e15c0002 	cmp	ip, r2
    9268:	9afffffb 	bls	925c <chSchWakeupS+0x2c>
    926c:	e5932004 	ldr	r2, [r3, #4]
    9270:	e58e3000 	str	r3, [lr]
    9274:	e58e2004 	str	r2, [lr, #4]
    9278:	e583e004 	str	lr, [r3, #4]
    927c:	e582e000 	str	lr, [r2]
    9280:	e8bd8030 	pop	{r4, r5, pc}
    9284:	e3a01000 	mov	r1, #0
    9288:	e1a02003 	mov	r2, r3
    928c:	e5c4101c 	strb	r1, [r4, #28]
    9290:	e5922000 	ldr	r2, [r2]
    9294:	e5921008 	ldr	r1, [r2, #8]
    9298:	e1500001 	cmp	r0, r1
    929c:	9afffffb 	bls	9290 <chSchWakeupS+0x60>
    92a0:	e3a05001 	mov	r5, #1
    92a4:	e592c004 	ldr	ip, [r2, #4]
    92a8:	e1a01004 	mov	r1, r4
    92ac:	e8841004 	stm	r4, {r2, ip}
    92b0:	e5824004 	str	r4, [r2, #4]
    92b4:	e58c4000 	str	r4, [ip]
    92b8:	e5ce501c 	strb	r5, [lr, #28]
    92bc:	e1a0000e 	mov	r0, lr
    92c0:	e583e018 	str	lr, [r3, #24]
    92c4:	e8bd4030 	pop	{r4, r5, lr}
    92c8:	eafffb88 	b	80f0 <_port_switch_arm>
    92cc:	0000b560 	andeq	fp, r0, r0, ror #10

000092d0 <chSchIsPreemptionRequired>:
    92d0:	e59f3038 	ldr	r3, [pc, #56]	; 9310 <chSchIsPreemptionRequired+0x40>
    92d4:	e5932018 	ldr	r2, [r3, #24]
    92d8:	e5933000 	ldr	r3, [r3]
    92dc:	e5d2101f 	ldrb	r1, [r2, #31]
    92e0:	e5933008 	ldr	r3, [r3, #8]
    92e4:	e3510000 	cmp	r1, #0
    92e8:	e5920008 	ldr	r0, [r2, #8]
    92ec:	1a000003 	bne	9300 <chSchIsPreemptionRequired+0x30>
    92f0:	e1530000 	cmp	r3, r0
    92f4:	33a00000 	movcc	r0, #0
    92f8:	23a00001 	movcs	r0, #1
    92fc:	e12fff1e 	bx	lr
    9300:	e1530000 	cmp	r3, r0
    9304:	93a00000 	movls	r0, #0
    9308:	83a00001 	movhi	r0, #1
    930c:	e12fff1e 	bx	lr
    9310:	0000b560 	andeq	fp, r0, r0, ror #10
	...

00009320 <chSchDoRescheduleBehind>:
    9320:	e92d4070 	push	{r4, r5, r6, lr}
    9324:	e3a06001 	mov	r6, #1
    9328:	e3a05014 	mov	r5, #20
    932c:	e3a04000 	mov	r4, #0
    9330:	e59f205c 	ldr	r2, [pc, #92]	; 9394 <chSchDoRescheduleBehind+0x74>
    9334:	e5920000 	ldr	r0, [r2]
    9338:	e592c018 	ldr	ip, [r2, #24]
    933c:	e590e000 	ldr	lr, [r0]
    9340:	e59c1008 	ldr	r1, [ip, #8]
    9344:	e1a03000 	mov	r3, r0
    9348:	e58e2004 	str	r2, [lr, #4]
    934c:	e582e000 	str	lr, [r2]
    9350:	e5c0601c 	strb	r6, [r0, #28]
    9354:	e5820018 	str	r0, [r2, #24]
    9358:	e5cc501f 	strb	r5, [ip, #31]
    935c:	e5cc401c 	strb	r4, [ip, #28]
    9360:	ea000000 	b	9368 <chSchDoRescheduleBehind+0x48>
    9364:	e5933000 	ldr	r3, [r3]
    9368:	e5932008 	ldr	r2, [r3, #8]
    936c:	e1520001 	cmp	r2, r1
    9370:	2afffffb 	bcs	9364 <chSchDoRescheduleBehind+0x44>
    9374:	e5932004 	ldr	r2, [r3, #4]
    9378:	e1a0100c 	mov	r1, ip
    937c:	e8bd4070 	pop	{r4, r5, r6, lr}
    9380:	e58c3000 	str	r3, [ip]
    9384:	e58c2004 	str	r2, [ip, #4]
    9388:	e583c004 	str	ip, [r3, #4]
    938c:	e582c000 	str	ip, [r2]
    9390:	eafffb56 	b	80f0 <_port_switch_arm>
    9394:	0000b560 	andeq	fp, r0, r0, ror #10
	...

000093a0 <chSchDoRescheduleAhead>:
    93a0:	e92d4030 	push	{r4, r5, lr}
    93a4:	e3a05001 	mov	r5, #1
    93a8:	e3a04000 	mov	r4, #0
    93ac:	e59f2058 	ldr	r2, [pc, #88]	; 940c <chSchDoRescheduleAhead+0x6c>
    93b0:	e5920000 	ldr	r0, [r2]
    93b4:	e592c018 	ldr	ip, [r2, #24]
    93b8:	e590e000 	ldr	lr, [r0]
    93bc:	e59c1008 	ldr	r1, [ip, #8]
    93c0:	e1a03000 	mov	r3, r0
    93c4:	e58e2004 	str	r2, [lr, #4]
    93c8:	e582e000 	str	lr, [r2]
    93cc:	e5c0501c 	strb	r5, [r0, #28]
    93d0:	e5820018 	str	r0, [r2, #24]
    93d4:	e5cc401c 	strb	r4, [ip, #28]
    93d8:	ea000000 	b	93e0 <chSchDoRescheduleAhead+0x40>
    93dc:	e5933000 	ldr	r3, [r3]
    93e0:	e5932008 	ldr	r2, [r3, #8]
    93e4:	e1520001 	cmp	r2, r1
    93e8:	8afffffb 	bhi	93dc <chSchDoRescheduleAhead+0x3c>
    93ec:	e5932004 	ldr	r2, [r3, #4]
    93f0:	e1a0100c 	mov	r1, ip
    93f4:	e8bd4030 	pop	{r4, r5, lr}
    93f8:	e58c3000 	str	r3, [ip]
    93fc:	e58c2004 	str	r2, [ip, #4]
    9400:	e583c004 	str	ip, [r3, #4]
    9404:	e582c000 	str	ip, [r2]
    9408:	eafffb38 	b	80f0 <_port_switch_arm>
    940c:	0000b560 	andeq	fp, r0, r0, ror #10

00009410 <chSchDoReschedule>:
    9410:	e59f3014 	ldr	r3, [pc, #20]	; 942c <chSchDoReschedule+0x1c>
    9414:	e5933018 	ldr	r3, [r3, #24]
    9418:	e5d3301f 	ldrb	r3, [r3, #31]
    941c:	e3530000 	cmp	r3, #0
    9420:	0a000000 	beq	9428 <chSchDoReschedule+0x18>
    9424:	eaffffdd 	b	93a0 <chSchDoRescheduleAhead>
    9428:	eaffffbc 	b	9320 <chSchDoRescheduleBehind>
    942c:	0000b560 	andeq	fp, r0, r0, ror #10

00009430 <_thread_init>:
    9430:	e92d41f0 	push	{r4, r5, r6, r7, r8, lr}
    9434:	e3a02000 	mov	r2, #0
    9438:	e3a08002 	mov	r8, #2
    943c:	e3a07014 	mov	r7, #20
    9440:	e3a06001 	mov	r6, #1
    9444:	e59fc050 	ldr	ip, [pc, #80]	; 949c <_thread_init+0x6c>
    9448:	e280e02c 	add	lr, r0, #44	; 0x2c
    944c:	e59c4014 	ldr	r4, [ip, #20]
    9450:	e2805028 	add	r5, r0, #40	; 0x28
    9454:	e5804014 	str	r4, [r0, #20]
    9458:	e5801008 	str	r1, [r0, #8]
    945c:	e580c010 	str	ip, [r0, #16]
    9460:	e5801040 	str	r1, [r0, #64]	; 0x40
    9464:	e58c0014 	str	r0, [ip, #20]
    9468:	e5c0801c 	strb	r8, [r0, #28]
    946c:	e5c0701f 	strb	r7, [r0, #31]
    9470:	e5c0601e 	strb	r6, [r0, #30]
    9474:	e5c0201d 	strb	r2, [r0, #29]
    9478:	e580203c 	str	r2, [r0, #60]	; 0x3c
    947c:	e5802038 	str	r2, [r0, #56]	; 0x38
    9480:	e5802020 	str	r2, [r0, #32]
    9484:	e5802018 	str	r2, [r0, #24]
    9488:	e5840010 	str	r0, [r4, #16]
    948c:	e5805028 	str	r5, [r0, #40]	; 0x28
    9490:	e580e030 	str	lr, [r0, #48]	; 0x30
    9494:	e580e02c 	str	lr, [r0, #44]	; 0x2c
    9498:	e8bd81f0 	pop	{r4, r5, r6, r7, r8, pc}
    949c:	0000b560 	andeq	fp, r0, r0, ror #10

000094a0 <chThdCreateStatic>:
    94a0:	e92d4ff8 	push	{r3, r4, r5, r6, r7, r8, r9, sl, fp, lr}
    94a4:	e1a04000 	mov	r4, r0
    94a8:	e321f09f 	msr	CPSR_c, #159	; 0x9f
    94ac:	e3a0c000 	mov	ip, #0
    94b0:	e3a0a002 	mov	sl, #2
    94b4:	e3a09014 	mov	r9, #20
    94b8:	e3a08001 	mov	r8, #1
    94bc:	e59fe080 	ldr	lr, [pc, #128]	; 9544 <chThdCreateStatic+0xa4>
    94c0:	e2411024 	sub	r1, r1, #36	; 0x24
    94c4:	e0805001 	add	r5, r0, r1
    94c8:	e59e6014 	ldr	r6, [lr, #20]
    94cc:	e59fb074 	ldr	fp, [pc, #116]	; 9548 <chThdCreateStatic+0xa8>
    94d0:	e580500c 	str	r5, [r0, #12]
    94d4:	e7803001 	str	r3, [r0, r1]
    94d8:	e59d1028 	ldr	r1, [sp, #40]	; 0x28
    94dc:	e280302c 	add	r3, r0, #44	; 0x2c
    94e0:	e2807028 	add	r7, r0, #40	; 0x28
    94e4:	e5851004 	str	r1, [r5, #4]
    94e8:	e585b020 	str	fp, [r5, #32]
    94ec:	e1a0100c 	mov	r1, ip
    94f0:	e5802008 	str	r2, [r0, #8]
    94f4:	e580e010 	str	lr, [r0, #16]
    94f8:	e5806014 	str	r6, [r0, #20]
    94fc:	e5802040 	str	r2, [r0, #64]	; 0x40
    9500:	e5c0a01c 	strb	sl, [r0, #28]
    9504:	e5c0901f 	strb	r9, [r0, #31]
    9508:	e5c0801e 	strb	r8, [r0, #30]
    950c:	e5c0c01d 	strb	ip, [r0, #29]
    9510:	e58e0014 	str	r0, [lr, #20]
    9514:	e580c03c 	str	ip, [r0, #60]	; 0x3c
    9518:	e580c038 	str	ip, [r0, #56]	; 0x38
    951c:	e580c020 	str	ip, [r0, #32]
    9520:	e580c018 	str	ip, [r0, #24]
    9524:	e5860010 	str	r0, [r6, #16]
    9528:	e5807028 	str	r7, [r0, #40]	; 0x28
    952c:	e5803030 	str	r3, [r0, #48]	; 0x30
    9530:	e580302c 	str	r3, [r0, #44]	; 0x2c
    9534:	ebffff3d 	bl	9230 <chSchWakeupS>
    9538:	e321f01f 	msr	CPSR_c, #31
    953c:	e1a00004 	mov	r0, r4
    9540:	e8bd8ff8 	pop	{r3, r4, r5, r6, r7, r8, r9, sl, fp, pc}
    9544:	0000b560 	andeq	fp, r0, r0, ror #10
    9548:	00008160 	andeq	r8, r0, r0, ror #2
    954c:	00000000 	andeq	r0, r0, r0

00009550 <chThdSleep>:
    9550:	e92d4008 	push	{r3, lr}
    9554:	e1a01000 	mov	r1, r0
    9558:	e321f09f 	msr	CPSR_c, #159	; 0x9f
    955c:	e3a00006 	mov	r0, #6
    9560:	ebffff12 	bl	91b0 <chSchGoSleepTimeoutS>
    9564:	e321f01f 	msr	CPSR_c, #31
    9568:	e8bd8008 	pop	{r3, pc}
    956c:	00000000 	andeq	r0, r0, r0

00009570 <chThdExitS>:
    9570:	e92d4038 	push	{r3, r4, r5, lr}
    9574:	e59f305c 	ldr	r3, [pc, #92]	; 95d8 <chThdExitS+0x68>
    9578:	e5934018 	ldr	r4, [r3, #24]
    957c:	e1a05004 	mov	r5, r4
    9580:	e5b53028 	ldr	r3, [r5, #40]!	; 0x28
    9584:	e5840024 	str	r0, [r4, #36]	; 0x24
    9588:	e1530005 	cmp	r3, r5
    958c:	0a000006 	beq	95ac <chThdExitS+0x3c>
    9590:	e5932000 	ldr	r2, [r3]
    9594:	e1a00003 	mov	r0, r3
    9598:	e5842028 	str	r2, [r4, #40]	; 0x28
    959c:	ebfffedb 	bl	9110 <chSchReadyI>
    95a0:	e5943028 	ldr	r3, [r4, #40]	; 0x28
    95a4:	e1530005 	cmp	r3, r5
    95a8:	1afffff8 	bne	9590 <chThdExitS+0x20>
    95ac:	e5d4301d 	ldrb	r3, [r4, #29]
    95b0:	e3130003 	tst	r3, #3
    95b4:	1a000004 	bne	95cc <chThdExitS+0x5c>
    95b8:	e5942010 	ldr	r2, [r4, #16]
    95bc:	e5943014 	ldr	r3, [r4, #20]
    95c0:	e5832010 	str	r2, [r3, #16]
    95c4:	e5942010 	ldr	r2, [r4, #16]
    95c8:	e5823014 	str	r3, [r2, #20]
    95cc:	e3a0000e 	mov	r0, #14
    95d0:	e8bd4038 	pop	{r3, r4, r5, lr}
    95d4:	eafffee1 	b	9160 <chSchGoSleepS>
    95d8:	0000b560 	andeq	fp, r0, r0, ror #10
    95dc:	00000000 	andeq	r0, r0, r0

000095e0 <chThdExit>:
    95e0:	e321f09f 	msr	CPSR_c, #159	; 0x9f
    95e4:	eaffffe1 	b	9570 <chThdExitS>
	...

000095f0 <chThdWait>:
    95f0:	e92d4038 	push	{r3, r4, r5, lr}
    95f4:	e1a04000 	mov	r4, r0
    95f8:	e321f09f 	msr	CPSR_c, #159	; 0x9f
    95fc:	e5d0301c 	ldrb	r3, [r0, #28]
    9600:	e353000e 	cmp	r3, #14
    9604:	0a000006 	beq	9624 <chThdWait+0x34>
    9608:	e59f302c 	ldr	r3, [pc, #44]	; 963c <chThdWait+0x4c>
    960c:	e5902028 	ldr	r2, [r0, #40]	; 0x28
    9610:	e5933018 	ldr	r3, [r3, #24]
    9614:	e3a00007 	mov	r0, #7
    9618:	e5832000 	str	r2, [r3]
    961c:	e5843028 	str	r3, [r4, #40]	; 0x28
    9620:	ebfffece 	bl	9160 <chSchGoSleepS>
    9624:	e5945024 	ldr	r5, [r4, #36]	; 0x24
    9628:	e321f01f 	msr	CPSR_c, #31
    962c:	e1a00004 	mov	r0, r4
    9630:	eb000002 	bl	9640 <chThdRelease>
    9634:	e1a00005 	mov	r0, r5
    9638:	e8bd8038 	pop	{r3, r4, r5, pc}
    963c:	0000b560 	andeq	fp, r0, r0, ror #10

00009640 <chThdRelease>:
    9640:	e321f09f 	msr	CPSR_c, #159	; 0x9f
    9644:	e5d0301e 	ldrb	r3, [r0, #30]
    9648:	e2433001 	sub	r3, r3, #1
    964c:	e6ef3073 	uxtb	r3, r3
    9650:	e5c0301e 	strb	r3, [r0, #30]
    9654:	e321f01f 	msr	CPSR_c, #31
    9658:	e3530000 	cmp	r3, #0
    965c:	112fff1e 	bxne	lr
    9660:	e5d0301c 	ldrb	r3, [r0, #28]
    9664:	e353000e 	cmp	r3, #14
    9668:	112fff1e 	bxne	lr
    966c:	e5d0301d 	ldrb	r3, [r0, #29]
    9670:	e2033003 	and	r3, r3, #3
    9674:	e3530001 	cmp	r3, #1
    9678:	112fff1e 	bxne	lr
    967c:	e5903014 	ldr	r3, [r0, #20]
    9680:	e5901010 	ldr	r1, [r0, #16]
    9684:	e5831010 	str	r1, [r3, #16]
    9688:	e5902010 	ldr	r2, [r0, #16]
    968c:	e5823014 	str	r3, [r2, #20]
    9690:	ea000202 	b	9ea0 <chHeapFree>
	...

000096a0 <chMtxInit>:
    96a0:	e3a03000 	mov	r3, #0
    96a4:	e5800004 	str	r0, [r0, #4]
    96a8:	e5800000 	str	r0, [r0]
    96ac:	e5803008 	str	r3, [r0, #8]
    96b0:	e12fff1e 	bx	lr
	...

000096c0 <chMtxLockS>:
    96c0:	e5902008 	ldr	r2, [r0, #8]
    96c4:	e92d4038 	push	{r3, r4, r5, lr}
    96c8:	e59f3168 	ldr	r3, [pc, #360]	; 9838 <chMtxLockS+0x178>
    96cc:	e3520000 	cmp	r2, #0
    96d0:	e5934018 	ldr	r4, [r3, #24]
    96d4:	0a000052 	beq	9824 <chMtxLockS+0x164>
    96d8:	e5941008 	ldr	r1, [r4, #8]
    96dc:	e5923008 	ldr	r3, [r2, #8]
    96e0:	e1a05000 	mov	r5, r0
    96e4:	e1510003 	cmp	r1, r3
    96e8:	9a000007 	bls	970c <chMtxLockS+0x4c>
    96ec:	e5d2301c 	ldrb	r3, [r2, #28]
    96f0:	e5821008 	str	r1, [r2, #8]
    96f4:	e3530004 	cmp	r3, #4
    96f8:	0a000030 	beq	97c0 <chMtxLockS+0x100>
    96fc:	e3530005 	cmp	r3, #5
    9700:	0a00001a 	beq	9770 <chMtxLockS+0xb0>
    9704:	e3530000 	cmp	r3, #0
    9708:	0a000011 	beq	9754 <chMtxLockS+0x94>
    970c:	e1a03005 	mov	r3, r5
    9710:	ea000003 	b	9724 <chMtxLockS+0x64>
    9714:	e5931008 	ldr	r1, [r3, #8]
    9718:	e5942008 	ldr	r2, [r4, #8]
    971c:	e1510002 	cmp	r1, r2
    9720:	3a000002 	bcc	9730 <chMtxLockS+0x70>
    9724:	e5933000 	ldr	r3, [r3]
    9728:	e1550003 	cmp	r5, r3
    972c:	1afffff8 	bne	9714 <chMtxLockS+0x54>
    9730:	e5932004 	ldr	r2, [r3, #4]
    9734:	e5843000 	str	r3, [r4]
    9738:	e5842004 	str	r2, [r4, #4]
    973c:	e5834004 	str	r4, [r3, #4]
    9740:	e5824000 	str	r4, [r2]
    9744:	e5845024 	str	r5, [r4, #36]	; 0x24
    9748:	e3a00004 	mov	r0, #4
    974c:	e8bd4038 	pop	{r3, r4, r5, lr}
    9750:	eafffe82 	b	9160 <chSchGoSleepS>
    9754:	e892000a 	ldm	r2, {r1, r3}
    9758:	e5831000 	str	r1, [r3]
    975c:	e1a00002 	mov	r0, r2
    9760:	e5922000 	ldr	r2, [r2]
    9764:	e5823004 	str	r3, [r2, #4]
    9768:	ebfffe68 	bl	9110 <chSchReadyI>
    976c:	eaffffe6 	b	970c <chMtxLockS+0x4c>
    9770:	e592e000 	ldr	lr, [r2]
    9774:	e5920004 	ldr	r0, [r2, #4]
    9778:	e592c024 	ldr	ip, [r2, #36]	; 0x24
    977c:	e580e000 	str	lr, [r0]
    9780:	e592e000 	ldr	lr, [r2]
    9784:	e1a0300c 	mov	r3, ip
    9788:	e58e0004 	str	r0, [lr, #4]
    978c:	ea000002 	b	979c <chMtxLockS+0xdc>
    9790:	e5930008 	ldr	r0, [r3, #8]
    9794:	e1500001 	cmp	r0, r1
    9798:	3a000002 	bcc	97a8 <chMtxLockS+0xe8>
    979c:	e5933000 	ldr	r3, [r3]
    97a0:	e15c0003 	cmp	ip, r3
    97a4:	1afffff9 	bne	9790 <chMtxLockS+0xd0>
    97a8:	e5931004 	ldr	r1, [r3, #4]
    97ac:	e5823000 	str	r3, [r2]
    97b0:	e5821004 	str	r1, [r2, #4]
    97b4:	e5832004 	str	r2, [r3, #4]
    97b8:	e5812000 	str	r2, [r1]
    97bc:	eaffffd2 	b	970c <chMtxLockS+0x4c>
    97c0:	e592e000 	ldr	lr, [r2]
    97c4:	e5920004 	ldr	r0, [r2, #4]
    97c8:	e592c024 	ldr	ip, [r2, #36]	; 0x24
    97cc:	e580e000 	str	lr, [r0]
    97d0:	e592e000 	ldr	lr, [r2]
    97d4:	e1a0300c 	mov	r3, ip
    97d8:	e58e0004 	str	r0, [lr, #4]
    97dc:	ea000002 	b	97ec <chMtxLockS+0x12c>
    97e0:	e5930008 	ldr	r0, [r3, #8]
    97e4:	e1500001 	cmp	r0, r1
    97e8:	3a000002 	bcc	97f8 <chMtxLockS+0x138>
    97ec:	e5933000 	ldr	r3, [r3]
    97f0:	e15c0003 	cmp	ip, r3
    97f4:	1afffff9 	bne	97e0 <chMtxLockS+0x120>
    97f8:	e5931004 	ldr	r1, [r3, #4]
    97fc:	e5823000 	str	r3, [r2]
    9800:	e5821004 	str	r1, [r2, #4]
    9804:	e5832004 	str	r2, [r3, #4]
    9808:	e5812000 	str	r2, [r1]
    980c:	e59c2008 	ldr	r2, [ip, #8]
    9810:	e5941008 	ldr	r1, [r4, #8]
    9814:	e5923008 	ldr	r3, [r2, #8]
    9818:	e1530001 	cmp	r3, r1
    981c:	3affffb2 	bcc	96ec <chMtxLockS+0x2c>
    9820:	eaffffb9 	b	970c <chMtxLockS+0x4c>
    9824:	e594303c 	ldr	r3, [r4, #60]	; 0x3c
    9828:	e5804008 	str	r4, [r0, #8]
    982c:	e580300c 	str	r3, [r0, #12]
    9830:	e584003c 	str	r0, [r4, #60]	; 0x3c
    9834:	e8bd8038 	pop	{r3, r4, r5, pc}
    9838:	0000b560 	andeq	fp, r0, r0, ror #10
    983c:	00000000 	andeq	r0, r0, r0

00009840 <chMtxLock>:
    9840:	e92d4008 	push	{r3, lr}
    9844:	e321f09f 	msr	CPSR_c, #159	; 0x9f
    9848:	ebffff9c 	bl	96c0 <chMtxLockS>
    984c:	e321f01f 	msr	CPSR_c, #31
    9850:	e8bd8008 	pop	{r3, pc}
	...

00009860 <chMtxUnlock>:
    9860:	e59f3094 	ldr	r3, [pc, #148]	; 98fc <chMtxUnlock+0x9c>
    9864:	e92d4010 	push	{r4, lr}
    9868:	e5930018 	ldr	r0, [r3, #24]
    986c:	e321f09f 	msr	CPSR_c, #159	; 0x9f
    9870:	e590403c 	ldr	r4, [r0, #60]	; 0x3c
    9874:	e594c000 	ldr	ip, [r4]
    9878:	e594300c 	ldr	r3, [r4, #12]
    987c:	e15c0004 	cmp	ip, r4
    9880:	e580303c 	str	r3, [r0, #60]	; 0x3c
    9884:	0a000019 	beq	98f0 <chMtxUnlock+0x90>
    9888:	e3530000 	cmp	r3, #0
    988c:	e5901040 	ldr	r1, [r0, #64]	; 0x40
    9890:	0a000008 	beq	98b8 <chMtxUnlock+0x58>
    9894:	e5932000 	ldr	r2, [r3]
    9898:	e1520003 	cmp	r2, r3
    989c:	0a000002 	beq	98ac <chMtxUnlock+0x4c>
    98a0:	e5922008 	ldr	r2, [r2, #8]
    98a4:	e1510002 	cmp	r1, r2
    98a8:	31a01002 	movcc	r1, r2
    98ac:	e593300c 	ldr	r3, [r3, #12]
    98b0:	e3530000 	cmp	r3, #0
    98b4:	1afffff6 	bne	9894 <chMtxUnlock+0x34>
    98b8:	e59c203c 	ldr	r2, [ip, #60]	; 0x3c
    98bc:	e59c3000 	ldr	r3, [ip]
    98c0:	e5801008 	str	r1, [r0, #8]
    98c4:	e5843000 	str	r3, [r4]
    98c8:	e1a0000c 	mov	r0, ip
    98cc:	e5834004 	str	r4, [r3, #4]
    98d0:	e3a01000 	mov	r1, #0
    98d4:	e584c008 	str	ip, [r4, #8]
    98d8:	e584200c 	str	r2, [r4, #12]
    98dc:	e58c403c 	str	r4, [ip, #60]	; 0x3c
    98e0:	ebfffe52 	bl	9230 <chSchWakeupS>
    98e4:	e321f01f 	msr	CPSR_c, #31
    98e8:	e1a00004 	mov	r0, r4
    98ec:	e8bd8010 	pop	{r4, pc}
    98f0:	e3a03000 	mov	r3, #0
    98f4:	e5843008 	str	r3, [r4, #8]
    98f8:	eafffff9 	b	98e4 <chMtxUnlock+0x84>
    98fc:	0000b560 	andeq	fp, r0, r0, ror #10

00009900 <chEvtSignalI>:
    9900:	e92d4008 	push	{r3, lr}
    9904:	e5903038 	ldr	r3, [r0, #56]	; 0x38
    9908:	e5d0201c 	ldrb	r2, [r0, #28]
    990c:	e1811003 	orr	r1, r1, r3
    9910:	e3520008 	cmp	r2, #8
    9914:	e5801038 	str	r1, [r0, #56]	; 0x38
    9918:	0a000009 	beq	9944 <chEvtSignalI+0x44>
    991c:	e3520009 	cmp	r2, #9
    9920:	18bd8008 	popne	{r3, pc}
    9924:	e5903024 	ldr	r3, [r0, #36]	; 0x24
    9928:	e0011003 	and	r1, r1, r3
    992c:	e1530001 	cmp	r3, r1
    9930:	18bd8008 	popne	{r3, pc}
    9934:	ebfffdf5 	bl	9110 <chSchReadyI>
    9938:	e3a03000 	mov	r3, #0
    993c:	e5803024 	str	r3, [r0, #36]	; 0x24
    9940:	e8bd8008 	pop	{r3, pc}
    9944:	e5903024 	ldr	r3, [r0, #36]	; 0x24
    9948:	e1110003 	tst	r1, r3
    994c:	08bd8008 	popeq	{r3, pc}
    9950:	eafffff7 	b	9934 <chEvtSignalI+0x34>
	...

00009960 <chEvtBroadcastFlagsI>:
    9960:	e92d4070 	push	{r4, r5, r6, lr}
    9964:	e5904000 	ldr	r4, [r0]
    9968:	e1a05000 	mov	r5, r0
    996c:	e1500004 	cmp	r0, r4
    9970:	e1a06001 	mov	r6, r1
    9974:	08bd8070 	popeq	{r4, r5, r6, pc}
    9978:	e594300c 	ldr	r3, [r4, #12]
    997c:	e5940004 	ldr	r0, [r4, #4]
    9980:	e1833006 	orr	r3, r3, r6
    9984:	e584300c 	str	r3, [r4, #12]
    9988:	e5941008 	ldr	r1, [r4, #8]
    998c:	ebffffdb 	bl	9900 <chEvtSignalI>
    9990:	e5944000 	ldr	r4, [r4]
    9994:	e1550004 	cmp	r5, r4
    9998:	1afffff6 	bne	9978 <chEvtBroadcastFlagsI+0x18>
    999c:	e8bd8070 	pop	{r4, r5, r6, pc}

000099a0 <qwait>:
    99a0:	e3510000 	cmp	r1, #0
    99a4:	e1a02000 	mov	r2, r0
    99a8:	0a000008 	beq	99d0 <qwait+0x30>
    99ac:	e59f3024 	ldr	r3, [pc, #36]	; 99d8 <qwait+0x38>
    99b0:	e3a0000d 	mov	r0, #13
    99b4:	e5933018 	ldr	r3, [r3, #24]
    99b8:	e5832024 	str	r2, [r3, #36]	; 0x24
    99bc:	e592c004 	ldr	ip, [r2, #4]
    99c0:	e8831004 	stm	r3, {r2, ip}
    99c4:	e5823004 	str	r3, [r2, #4]
    99c8:	e58c3000 	str	r3, [ip]
    99cc:	eafffdf7 	b	91b0 <chSchGoSleepTimeoutS>
    99d0:	e3e00000 	mvn	r0, #0
    99d4:	e12fff1e 	bx	lr
    99d8:	0000b560 	andeq	fp, r0, r0, ror #10
    99dc:	00000000 	andeq	r0, r0, r0

000099e0 <chIQInit>:
    99e0:	e52de004 	push	{lr}		; (str lr, [sp, #-4]!)
    99e4:	e3a0e000 	mov	lr, #0
    99e8:	e59dc004 	ldr	ip, [sp, #4]
    99ec:	e0812002 	add	r2, r1, r2
    99f0:	e5802010 	str	r2, [r0, #16]
    99f4:	e5800004 	str	r0, [r0, #4]
    99f8:	e5800000 	str	r0, [r0]
    99fc:	e5801014 	str	r1, [r0, #20]
    9a00:	e5801018 	str	r1, [r0, #24]
    9a04:	e580100c 	str	r1, [r0, #12]
    9a08:	e580301c 	str	r3, [r0, #28]
    9a0c:	e580e008 	str	lr, [r0, #8]
    9a10:	e580c020 	str	ip, [r0, #32]
    9a14:	e49df004 	pop	{pc}		; (ldr pc, [sp], #4)
	...

00009a20 <chIQPutI>:
    9a20:	e92d4008 	push	{r3, lr}
    9a24:	e1a03000 	mov	r3, r0
    9a28:	e5900014 	ldr	r0, [r0, #20]
    9a2c:	e5932018 	ldr	r2, [r3, #24]
    9a30:	e1500002 	cmp	r0, r2
    9a34:	e5932008 	ldr	r2, [r3, #8]
    9a38:	0a000016 	beq	9a98 <chIQPutI+0x78>
    9a3c:	e2822001 	add	r2, r2, #1
    9a40:	e280c001 	add	ip, r0, #1
    9a44:	e583c014 	str	ip, [r3, #20]
    9a48:	e5832008 	str	r2, [r3, #8]
    9a4c:	e5c01000 	strb	r1, [r0]
    9a50:	e5932010 	ldr	r2, [r3, #16]
    9a54:	e5931014 	ldr	r1, [r3, #20]
    9a58:	e5930000 	ldr	r0, [r3]
    9a5c:	e1510002 	cmp	r1, r2
    9a60:	2593200c 	ldrcs	r2, [r3, #12]
    9a64:	25832014 	strcs	r2, [r3, #20]
    9a68:	e1500003 	cmp	r0, r3
    9a6c:	0a000007 	beq	9a90 <chIQPutI+0x70>
    9a70:	e5902000 	ldr	r2, [r0]
    9a74:	e5832000 	str	r2, [r3]
    9a78:	e5823004 	str	r3, [r2, #4]
    9a7c:	ebfffda3 	bl	9110 <chSchReadyI>
    9a80:	e3a03000 	mov	r3, #0
    9a84:	e5803024 	str	r3, [r0, #36]	; 0x24
    9a88:	e1a00003 	mov	r0, r3
    9a8c:	e8bd8008 	pop	{r3, pc}
    9a90:	e3a00000 	mov	r0, #0
    9a94:	e8bd8008 	pop	{r3, pc}
    9a98:	e3520000 	cmp	r2, #0
    9a9c:	0affffe6 	beq	9a3c <chIQPutI+0x1c>
    9aa0:	e3e00003 	mvn	r0, #3
    9aa4:	e8bd8008 	pop	{r3, pc}
	...

00009ab0 <chIQGetTimeout>:
    9ab0:	e92d4038 	push	{r3, r4, r5, lr}
    9ab4:	e1a05001 	mov	r5, r1
    9ab8:	e1a04000 	mov	r4, r0
    9abc:	e321f09f 	msr	CPSR_c, #159	; 0x9f
    9ac0:	e590301c 	ldr	r3, [r0, #28]
    9ac4:	e3530000 	cmp	r3, #0
    9ac8:	0a000006 	beq	9ae8 <chIQGetTimeout+0x38>
    9acc:	e12fff33 	blx	r3
    9ad0:	ea000004 	b	9ae8 <chIQGetTimeout+0x38>
    9ad4:	e1a00004 	mov	r0, r4
    9ad8:	e1a01005 	mov	r1, r5
    9adc:	ebffffaf 	bl	99a0 <qwait>
    9ae0:	e3500000 	cmp	r0, #0
    9ae4:	ba00000c 	blt	9b1c <chIQGetTimeout+0x6c>
    9ae8:	e5943008 	ldr	r3, [r4, #8]
    9aec:	e3530000 	cmp	r3, #0
    9af0:	0afffff7 	beq	9ad4 <chIQGetTimeout+0x24>
    9af4:	e5942018 	ldr	r2, [r4, #24]
    9af8:	e5940010 	ldr	r0, [r4, #16]
    9afc:	e2821001 	add	r1, r2, #1
    9b00:	e2433001 	sub	r3, r3, #1
    9b04:	e1510000 	cmp	r1, r0
    9b08:	e5843008 	str	r3, [r4, #8]
    9b0c:	2594300c 	ldrcs	r3, [r4, #12]
    9b10:	e5841018 	str	r1, [r4, #24]
    9b14:	e5d20000 	ldrb	r0, [r2]
    9b18:	25843018 	strcs	r3, [r4, #24]
    9b1c:	e321f01f 	msr	CPSR_c, #31
    9b20:	e8bd8038 	pop	{r3, r4, r5, pc}
	...

00009b30 <chIQReadTimeout>:
    9b30:	e92d43f8 	push	{r3, r4, r5, r6, r7, r8, r9, lr}
    9b34:	e1a04000 	mov	r4, r0
    9b38:	e1a08001 	mov	r8, r1
    9b3c:	e1a09002 	mov	r9, r2
    9b40:	e1a05003 	mov	r5, r3
    9b44:	e590701c 	ldr	r7, [r0, #28]
    9b48:	e321f09f 	msr	CPSR_c, #159	; 0x9f
    9b4c:	e3a06000 	mov	r6, #0
    9b50:	e3570000 	cmp	r7, #0
    9b54:	0a000007 	beq	9b78 <chIQReadTimeout+0x48>
    9b58:	e1a00004 	mov	r0, r4
    9b5c:	e12fff37 	blx	r7
    9b60:	ea000004 	b	9b78 <chIQReadTimeout+0x48>
    9b64:	e1a00004 	mov	r0, r4
    9b68:	e1a01005 	mov	r1, r5
    9b6c:	ebffff8b 	bl	99a0 <qwait>
    9b70:	e3500000 	cmp	r0, #0
    9b74:	1a000014 	bne	9bcc <chIQReadTimeout+0x9c>
    9b78:	e5943008 	ldr	r3, [r4, #8]
    9b7c:	e3530000 	cmp	r3, #0
    9b80:	0afffff7 	beq	9b64 <chIQReadTimeout+0x34>
    9b84:	e5942018 	ldr	r2, [r4, #24]
    9b88:	e2433001 	sub	r3, r3, #1
    9b8c:	e2821001 	add	r1, r2, #1
    9b90:	e5841018 	str	r1, [r4, #24]
    9b94:	e5843008 	str	r3, [r4, #8]
    9b98:	e5d23000 	ldrb	r3, [r2]
    9b9c:	e4c83001 	strb	r3, [r8], #1
    9ba0:	e5943010 	ldr	r3, [r4, #16]
    9ba4:	e5942018 	ldr	r2, [r4, #24]
    9ba8:	e1520003 	cmp	r2, r3
    9bac:	2594300c 	ldrcs	r3, [r4, #12]
    9bb0:	25843018 	strcs	r3, [r4, #24]
    9bb4:	e321f01f 	msr	CPSR_c, #31
    9bb8:	e2866001 	add	r6, r6, #1
    9bbc:	e1590006 	cmp	r9, r6
    9bc0:	0a000002 	beq	9bd0 <chIQReadTimeout+0xa0>
    9bc4:	e321f09f 	msr	CPSR_c, #159	; 0x9f
    9bc8:	eaffffe0 	b	9b50 <chIQReadTimeout+0x20>
    9bcc:	e321f01f 	msr	CPSR_c, #31
    9bd0:	e1a00006 	mov	r0, r6
    9bd4:	e8bd83f8 	pop	{r3, r4, r5, r6, r7, r8, r9, pc}
	...

00009be0 <chOQInit>:
    9be0:	e52de004 	push	{lr}		; (str lr, [sp, #-4]!)
    9be4:	e59dc004 	ldr	ip, [sp, #4]
    9be8:	e081e002 	add	lr, r1, r2
    9bec:	e5800004 	str	r0, [r0, #4]
    9bf0:	e5800000 	str	r0, [r0]
    9bf4:	e5802008 	str	r2, [r0, #8]
    9bf8:	e580e010 	str	lr, [r0, #16]
    9bfc:	e5801014 	str	r1, [r0, #20]
    9c00:	e5801018 	str	r1, [r0, #24]
    9c04:	e580100c 	str	r1, [r0, #12]
    9c08:	e580301c 	str	r3, [r0, #28]
    9c0c:	e580c020 	str	ip, [r0, #32]
    9c10:	e49df004 	pop	{pc}		; (ldr pc, [sp], #4)
	...

00009c20 <chOQPutTimeout>:
    9c20:	e92d4070 	push	{r4, r5, r6, lr}
    9c24:	e1a04000 	mov	r4, r0
    9c28:	e1a06001 	mov	r6, r1
    9c2c:	e1a05002 	mov	r5, r2
    9c30:	e321f09f 	msr	CPSR_c, #159	; 0x9f
    9c34:	ea000004 	b	9c4c <chOQPutTimeout+0x2c>
    9c38:	e1a00004 	mov	r0, r4
    9c3c:	e1a01005 	mov	r1, r5
    9c40:	ebffff56 	bl	99a0 <qwait>
    9c44:	e3500000 	cmp	r0, #0
    9c48:	ba000015 	blt	9ca4 <chOQPutTimeout+0x84>
    9c4c:	e5943008 	ldr	r3, [r4, #8]
    9c50:	e3530000 	cmp	r3, #0
    9c54:	0afffff7 	beq	9c38 <chOQPutTimeout+0x18>
    9c58:	e5942014 	ldr	r2, [r4, #20]
    9c5c:	e2433001 	sub	r3, r3, #1
    9c60:	e2821001 	add	r1, r2, #1
    9c64:	e5841014 	str	r1, [r4, #20]
    9c68:	e5843008 	str	r3, [r4, #8]
    9c6c:	e5c26000 	strb	r6, [r2]
    9c70:	e5943010 	ldr	r3, [r4, #16]
    9c74:	e5942014 	ldr	r2, [r4, #20]
    9c78:	e1520003 	cmp	r2, r3
    9c7c:	2594300c 	ldrcs	r3, [r4, #12]
    9c80:	25843014 	strcs	r3, [r4, #20]
    9c84:	e594301c 	ldr	r3, [r4, #28]
    9c88:	e3530000 	cmp	r3, #0
    9c8c:	0a000001 	beq	9c98 <chOQPutTimeout+0x78>
    9c90:	e1a00004 	mov	r0, r4
    9c94:	e12fff33 	blx	r3
    9c98:	e321f01f 	msr	CPSR_c, #31
    9c9c:	e3a00000 	mov	r0, #0
    9ca0:	e8bd8070 	pop	{r4, r5, r6, pc}
    9ca4:	e321f01f 	msr	CPSR_c, #31
    9ca8:	e8bd8070 	pop	{r4, r5, r6, pc}
    9cac:	00000000 	andeq	r0, r0, r0

00009cb0 <chOQGetI>:
    9cb0:	e5903014 	ldr	r3, [r0, #20]
    9cb4:	e5902018 	ldr	r2, [r0, #24]
    9cb8:	e92d4010 	push	{r4, lr}
    9cbc:	e1530002 	cmp	r3, r2
    9cc0:	e5903008 	ldr	r3, [r0, #8]
    9cc4:	0a000015 	beq	9d20 <chOQGetI+0x70>
    9cc8:	e590c010 	ldr	ip, [r0, #16]
    9ccc:	e2833001 	add	r3, r3, #1
    9cd0:	e2821001 	add	r1, r2, #1
    9cd4:	e151000c 	cmp	r1, ip
    9cd8:	e5803008 	str	r3, [r0, #8]
    9cdc:	e5801018 	str	r1, [r0, #24]
    9ce0:	e5d24000 	ldrb	r4, [r2]
    9ce4:	2590300c 	ldrcs	r3, [r0, #12]
    9ce8:	e5902000 	ldr	r2, [r0]
    9cec:	25803018 	strcs	r3, [r0, #24]
    9cf0:	e1520000 	cmp	r2, r0
    9cf4:	0a000007 	beq	9d18 <chOQGetI+0x68>
    9cf8:	e1a03000 	mov	r3, r0
    9cfc:	e5921000 	ldr	r1, [r2]
    9d00:	e1a00002 	mov	r0, r2
    9d04:	e5831000 	str	r1, [r3]
    9d08:	e5813004 	str	r3, [r1, #4]
    9d0c:	ebfffcff 	bl	9110 <chSchReadyI>
    9d10:	e3a03000 	mov	r3, #0
    9d14:	e5803024 	str	r3, [r0, #36]	; 0x24
    9d18:	e1a00004 	mov	r0, r4
    9d1c:	e8bd8010 	pop	{r4, pc}
    9d20:	e3530000 	cmp	r3, #0
    9d24:	0affffe7 	beq	9cc8 <chOQGetI+0x18>
    9d28:	e3e00002 	mvn	r0, #2
    9d2c:	e8bd8010 	pop	{r4, pc}

00009d30 <chOQWriteTimeout>:
    9d30:	e92d47f0 	push	{r4, r5, r6, r7, r8, r9, sl, lr}
    9d34:	e1a04000 	mov	r4, r0
    9d38:	e1a05001 	mov	r5, r1
    9d3c:	e1a06002 	mov	r6, r2
    9d40:	e1a09003 	mov	r9, r3
    9d44:	e590801c 	ldr	r8, [r0, #28]
    9d48:	e321f09f 	msr	CPSR_c, #159	; 0x9f
    9d4c:	e3a07000 	mov	r7, #0
    9d50:	e5943008 	ldr	r3, [r4, #8]
    9d54:	e285a001 	add	sl, r5, #1
    9d58:	e3530000 	cmp	r3, #0
    9d5c:	e2432001 	sub	r2, r3, #1
    9d60:	0a000015 	beq	9dbc <chOQWriteTimeout+0x8c>
    9d64:	e5943014 	ldr	r3, [r4, #20]
    9d68:	e5842008 	str	r2, [r4, #8]
    9d6c:	e2832001 	add	r2, r3, #1
    9d70:	e5842014 	str	r2, [r4, #20]
    9d74:	e5d52000 	ldrb	r2, [r5]
    9d78:	e5c32000 	strb	r2, [r3]
    9d7c:	e5943010 	ldr	r3, [r4, #16]
    9d80:	e5942014 	ldr	r2, [r4, #20]
    9d84:	e1520003 	cmp	r2, r3
    9d88:	2594300c 	ldrcs	r3, [r4, #12]
    9d8c:	25843014 	strcs	r3, [r4, #20]
    9d90:	e3580000 	cmp	r8, #0
    9d94:	0a000001 	beq	9da0 <chOQWriteTimeout+0x70>
    9d98:	e1a00004 	mov	r0, r4
    9d9c:	e12fff38 	blx	r8
    9da0:	e321f01f 	msr	CPSR_c, #31
    9da4:	e2566001 	subs	r6, r6, #1
    9da8:	e2877001 	add	r7, r7, #1
    9dac:	0a000008 	beq	9dd4 <chOQWriteTimeout+0xa4>
    9db0:	e321f09f 	msr	CPSR_c, #159	; 0x9f
    9db4:	e1a0500a 	mov	r5, sl
    9db8:	eaffffe4 	b	9d50 <chOQWriteTimeout+0x20>
    9dbc:	e1a00004 	mov	r0, r4
    9dc0:	e1a01009 	mov	r1, r9
    9dc4:	ebfffef5 	bl	99a0 <qwait>
    9dc8:	e3500000 	cmp	r0, #0
    9dcc:	0affffdf 	beq	9d50 <chOQWriteTimeout+0x20>
    9dd0:	e321f01f 	msr	CPSR_c, #31
    9dd4:	e1a00007 	mov	r0, r7
    9dd8:	e8bd87f0 	pop	{r4, r5, r6, r7, r8, r9, sl, pc}
    9ddc:	00000000 	andeq	r0, r0, r0

00009de0 <_core_init>:
    9de0:	e59f201c 	ldr	r2, [pc, #28]	; 9e04 <_core_init+0x24>
    9de4:	e59f301c 	ldr	r3, [pc, #28]	; 9e08 <_core_init+0x28>
    9de8:	e59f001c 	ldr	r0, [pc, #28]	; 9e0c <_core_init+0x2c>
    9dec:	e59f101c 	ldr	r1, [pc, #28]	; 9e10 <_core_init+0x30>
    9df0:	e3c22003 	bic	r2, r2, #3
    9df4:	e3c33003 	bic	r3, r3, #3
    9df8:	e5802000 	str	r2, [r0]
    9dfc:	e5813000 	str	r3, [r1]
    9e00:	e12fff1e 	bx	lr
    9e04:	0000b6cb 	andeq	fp, r0, fp, asr #13
    9e08:	06007b44 	streq	r7, [r0], -r4, asr #22
    9e0c:	0000b378 	andeq	fp, r0, r8, ror r3
    9e10:	0000b374 	andeq	fp, r0, r4, ror r3
	...

00009e20 <chCoreAlloc>:
    9e20:	e321f09f 	msr	CPSR_c, #159	; 0x9f
    9e24:	e59fc030 	ldr	ip, [pc, #48]	; 9e5c <chCoreAlloc+0x3c>
    9e28:	e59f3030 	ldr	r3, [pc, #48]	; 9e60 <chCoreAlloc+0x40>
    9e2c:	e59c2000 	ldr	r2, [ip]
    9e30:	e5931000 	ldr	r1, [r3]
    9e34:	e2803003 	add	r3, r0, #3
    9e38:	e3c33003 	bic	r3, r3, #3
    9e3c:	e0621001 	rsb	r1, r2, r1
    9e40:	e1530001 	cmp	r3, r1
    9e44:	90823003 	addls	r3, r2, r3
    9e48:	958c3000 	strls	r3, [ip]
    9e4c:	91a00002 	movls	r0, r2
    9e50:	83a00000 	movhi	r0, #0
    9e54:	e321f01f 	msr	CPSR_c, #31
    9e58:	e12fff1e 	bx	lr
    9e5c:	0000b378 	andeq	fp, r0, r8, ror r3
    9e60:	0000b374 	andeq	fp, r0, r4, ror r3
	...

00009e70 <_heap_init>:
    9e70:	e3a02000 	mov	r2, #0
    9e74:	e59f3014 	ldr	r3, [pc, #20]	; 9e90 <_heap_init+0x20>
    9e78:	e59f1014 	ldr	r1, [pc, #20]	; 9e94 <_heap_init+0x24>
    9e7c:	e283000c 	add	r0, r3, #12
    9e80:	e5832004 	str	r2, [r3, #4]
    9e84:	e5832008 	str	r2, [r3, #8]
    9e88:	e5831000 	str	r1, [r3]
    9e8c:	eafffe03 	b	96a0 <chMtxInit>
    9e90:	0000b37c 	andeq	fp, r0, ip, ror r3
    9e94:	00009e20 	andeq	r9, r0, r0, lsr #28
	...

00009ea0 <chHeapFree>:
    9ea0:	e92d4070 	push	{r4, r5, r6, lr}
    9ea4:	e1a06000 	mov	r6, r0
    9ea8:	e5100008 	ldr	r0, [r0, #-8]
    9eac:	e2464008 	sub	r4, r6, #8
    9eb0:	e2805004 	add	r5, r0, #4
    9eb4:	e280000c 	add	r0, r0, #12
    9eb8:	ebfffe60 	bl	9840 <chMtxLock>
    9ebc:	e1a03005 	mov	r3, r5
    9ec0:	e1530004 	cmp	r3, r4
    9ec4:	23a02000 	movcs	r2, #0
    9ec8:	33a02001 	movcc	r2, #1
    9ecc:	e1530005 	cmp	r3, r5
    9ed0:	03822001 	orreq	r2, r2, #1
    9ed4:	e3520000 	cmp	r2, #0
    9ed8:	05933000 	ldreq	r3, [r3]
    9edc:	0afffff7 	beq	9ec0 <chHeapFree+0x20>
    9ee0:	e5932000 	ldr	r2, [r3]
    9ee4:	e3520000 	cmp	r2, #0
    9ee8:	0a000002 	beq	9ef8 <chHeapFree+0x58>
    9eec:	e1540002 	cmp	r4, r2
    9ef0:	21a03002 	movcs	r3, r2
    9ef4:	2afffff1 	bcs	9ec0 <chHeapFree+0x20>
    9ef8:	e5161004 	ldr	r1, [r6, #-4]
    9efc:	e5062008 	str	r2, [r6, #-8]
    9f00:	e5834000 	str	r4, [r3]
    9f04:	e2810008 	add	r0, r1, #8
    9f08:	e516c008 	ldr	ip, [r6, #-8]
    9f0c:	e0842000 	add	r2, r4, r0
    9f10:	e152000c 	cmp	r2, ip
    9f14:	05922004 	ldreq	r2, [r2, #4]
    9f18:	07940000 	ldreq	r0, [r4, r0]
    9f1c:	00812002 	addeq	r2, r1, r2
    9f20:	02822008 	addeq	r2, r2, #8
    9f24:	09060005 	stmdbeq	r6, {r0, r2}
    9f28:	e5931004 	ldr	r1, [r3, #4]
    9f2c:	e2812008 	add	r2, r1, #8
    9f30:	e0832002 	add	r2, r3, r2
    9f34:	e1540002 	cmp	r4, r2
    9f38:	0a000001 	beq	9f44 <chHeapFree+0xa4>
    9f3c:	e8bd4070 	pop	{r4, r5, r6, lr}
    9f40:	eafffe46 	b	9860 <chMtxUnlock>
    9f44:	e9160005 	ldmdb	r6, {r0, r2}
    9f48:	e0812002 	add	r2, r1, r2
    9f4c:	e2822008 	add	r2, r2, #8
    9f50:	e8830005 	stm	r3, {r0, r2}
    9f54:	e8bd4070 	pop	{r4, r5, r6, lr}
    9f58:	eafffe40 	b	9860 <chMtxUnlock>
    9f5c:	00000000 	andeq	r0, r0, r0

00009f60 <halInit>:
    9f60:	e92d4008 	push	{r3, lr}
    9f64:	eb0000d1 	bl	a2b0 <hal_lld_init>
    9f68:	eb0000a4 	bl	a200 <tmInit>
    9f6c:	e59f0014 	ldr	r0, [pc, #20]	; 9f88 <halInit+0x28>
    9f70:	eb0000f6 	bl	a350 <_pal_lld_init>
    9f74:	eb000005 	bl	9f90 <i2cInit>
    9f78:	eb000030 	bl	a040 <sdInit>
    9f7c:	eb000077 	bl	a160 <spiInit>
    9f80:	e8bd4008 	pop	{r3, lr}
    9f84:	ea000279 	b	a970 <boardInit>
    9f88:	0000b2e0 	andeq	fp, r0, r0, ror #5
    9f8c:	00000000 	andeq	r0, r0, r0

00009f90 <i2cInit>:
    9f90:	ea0001de 	b	a710 <i2c_lld_init>
	...

00009fa0 <i2cObjectInit>:
    9fa0:	e3a02001 	mov	r2, #1
    9fa4:	e3a03000 	mov	r3, #0
    9fa8:	e5c02000 	strb	r2, [r0]
    9fac:	e5803004 	str	r3, [r0, #4]
    9fb0:	e2800010 	add	r0, r0, #16
    9fb4:	eafffdb9 	b	96a0 <chMtxInit>
	...

00009fc0 <readt>:
    9fc0:	e280000c 	add	r0, r0, #12
    9fc4:	eafffed9 	b	9b30 <chIQReadTimeout>
	...

00009fd0 <read>:
    9fd0:	e280000c 	add	r0, r0, #12
    9fd4:	e3e03000 	mvn	r3, #0
    9fd8:	eafffed4 	b	9b30 <chIQReadTimeout>
    9fdc:	00000000 	andeq	r0, r0, r0

00009fe0 <writet>:
    9fe0:	e2800030 	add	r0, r0, #48	; 0x30
    9fe4:	eaffff51 	b	9d30 <chOQWriteTimeout>
	...

00009ff0 <write>:
    9ff0:	e2800030 	add	r0, r0, #48	; 0x30
    9ff4:	e3e03000 	mvn	r3, #0
    9ff8:	eaffff4c 	b	9d30 <chOQWriteTimeout>
    9ffc:	00000000 	andeq	r0, r0, r0

0000a000 <gett>:
    a000:	e280000c 	add	r0, r0, #12
    a004:	eafffea9 	b	9ab0 <chIQGetTimeout>
	...

0000a010 <get>:
    a010:	e280000c 	add	r0, r0, #12
    a014:	e3e01000 	mvn	r1, #0
    a018:	eafffea4 	b	9ab0 <chIQGetTimeout>
    a01c:	00000000 	andeq	r0, r0, r0

0000a020 <putt>:
    a020:	e2800030 	add	r0, r0, #48	; 0x30
    a024:	eafffefd 	b	9c20 <chOQPutTimeout>
	...

0000a030 <put>:
    a030:	e2800030 	add	r0, r0, #48	; 0x30
    a034:	e3e02000 	mvn	r2, #0
    a038:	eafffef8 	b	9c20 <chOQPutTimeout>
    a03c:	00000000 	andeq	r0, r0, r0

0000a040 <sdInit>:
    a040:	ea00011a 	b	a4b0 <sd_lld_init>
	...

0000a050 <sdObjectInit>:
    a050:	e92d4030 	push	{r4, r5, lr}
    a054:	e1a04000 	mov	r4, r0
    a058:	e3a0c001 	mov	ip, #1
    a05c:	e1a05002 	mov	r5, r2
    a060:	e59f2044 	ldr	r2, [pc, #68]	; a0ac <sdObjectInit+0x5c>
    a064:	e24dd00c 	sub	sp, sp, #12
    a068:	e58d4000 	str	r4, [sp]
    a06c:	e4802004 	str	r2, [r0], #4
    a070:	e1a03001 	mov	r3, r1
    a074:	e5840004 	str	r0, [r4, #4]
    a078:	e5c4c008 	strb	ip, [r4, #8]
    a07c:	e284000c 	add	r0, r4, #12
    a080:	e2841054 	add	r1, r4, #84	; 0x54
    a084:	e3a02010 	mov	r2, #16
    a088:	ebfffe54 	bl	99e0 <chIQInit>
    a08c:	e58d4000 	str	r4, [sp]
    a090:	e1a03005 	mov	r3, r5
    a094:	e2840030 	add	r0, r4, #48	; 0x30
    a098:	e2841064 	add	r1, r4, #100	; 0x64
    a09c:	e3a02010 	mov	r2, #16
    a0a0:	ebfffece 	bl	9be0 <chOQInit>
    a0a4:	e28dd00c 	add	sp, sp, #12
    a0a8:	e8bd8030 	pop	{r4, r5, pc}
    a0ac:	0000b2b0 			; <UNDEFINED> instruction: 0x0000b2b0

0000a0b0 <sdStart>:
    a0b0:	e92d4010 	push	{r4, lr}
    a0b4:	e1a04000 	mov	r4, r0
    a0b8:	e321f09f 	msr	CPSR_c, #159	; 0x9f
    a0bc:	eb000103 	bl	a4d0 <sd_lld_start>
    a0c0:	e3a03002 	mov	r3, #2
    a0c4:	e5c43008 	strb	r3, [r4, #8]
    a0c8:	e321f01f 	msr	CPSR_c, #31
    a0cc:	e8bd8010 	pop	{r4, pc}

0000a0d0 <sdIncomingDataI>:
    a0d0:	e92d4038 	push	{r3, r4, r5, lr}
    a0d4:	e5903014 	ldr	r3, [r0, #20]
    a0d8:	e1a04000 	mov	r4, r0
    a0dc:	e3530000 	cmp	r3, #0
    a0e0:	e1a05001 	mov	r5, r1
    a0e4:	0a000008 	beq	a10c <sdIncomingDataI+0x3c>
    a0e8:	e1a01005 	mov	r1, r5
    a0ec:	e284000c 	add	r0, r4, #12
    a0f0:	ebfffe4a 	bl	9a20 <chIQPutI>
    a0f4:	e3500000 	cmp	r0, #0
    a0f8:	a8bd8038 	popge	{r3, r4, r5, pc}
    a0fc:	e2840004 	add	r0, r4, #4
    a100:	e3a01080 	mov	r1, #128	; 0x80
    a104:	e8bd4038 	pop	{r3, r4, r5, lr}
    a108:	eafffe14 	b	9960 <chEvtBroadcastFlagsI>
    a10c:	e2800004 	add	r0, r0, #4
    a110:	e3a01004 	mov	r1, #4
    a114:	ebfffe11 	bl	9960 <chEvtBroadcastFlagsI>
    a118:	eafffff2 	b	a0e8 <sdIncomingDataI+0x18>
    a11c:	00000000 	andeq	r0, r0, r0

0000a120 <sdRequestDataI>:
    a120:	e92d4038 	push	{r3, r4, r5, lr}
    a124:	e1a04000 	mov	r4, r0
    a128:	e2800030 	add	r0, r0, #48	; 0x30
    a12c:	ebfffedf 	bl	9cb0 <chOQGetI>
    a130:	e2505000 	subs	r5, r0, #0
    a134:	ba000001 	blt	a140 <sdRequestDataI+0x20>
    a138:	e1a00005 	mov	r0, r5
    a13c:	e8bd8038 	pop	{r3, r4, r5, pc}
    a140:	e2840004 	add	r0, r4, #4
    a144:	e3a01008 	mov	r1, #8
    a148:	ebfffe04 	bl	9960 <chEvtBroadcastFlagsI>
    a14c:	e1a00005 	mov	r0, r5
    a150:	e8bd8038 	pop	{r3, r4, r5, pc}
	...

0000a160 <spiInit>:
    a160:	ea0001da 	b	a8d0 <spi_lld_init>
	...

0000a170 <spiObjectInit>:
    a170:	e3a03000 	mov	r3, #0
    a174:	e3a02001 	mov	r2, #1
    a178:	e5803004 	str	r3, [r0, #4]
    a17c:	e5c02000 	strb	r2, [r0]
    a180:	e5803008 	str	r3, [r0, #8]
    a184:	e280000c 	add	r0, r0, #12
    a188:	eafffd44 	b	96a0 <chMtxInit>
    a18c:	00000000 	andeq	r0, r0, r0

0000a190 <tm_start>:
    a190:	e59f3008 	ldr	r3, [pc, #8]	; a1a0 <tm_start+0x10>
    a194:	e5933004 	ldr	r3, [r3, #4]
    a198:	e5803008 	str	r3, [r0, #8]
    a19c:	e12fff1e 	bx	lr
    a1a0:	20003000 	andcs	r3, r0, r0
	...

0000a1b0 <tm_stop>:
    a1b0:	e59f2038 	ldr	r2, [pc, #56]	; a1f0 <tm_stop+0x40>
    a1b4:	e59f1038 	ldr	r1, [pc, #56]	; a1f4 <tm_stop+0x44>
    a1b8:	e5922004 	ldr	r2, [r2, #4]
    a1bc:	e5903008 	ldr	r3, [r0, #8]
    a1c0:	e5911000 	ldr	r1, [r1]
    a1c4:	e0633002 	rsb	r3, r3, r2
    a1c8:	e590200c 	ldr	r2, [r0, #12]
    a1cc:	e0613003 	rsb	r3, r1, r3
    a1d0:	e1530002 	cmp	r3, r2
    a1d4:	e5803008 	str	r3, [r0, #8]
    a1d8:	8580300c 	strhi	r3, [r0, #12]
    a1dc:	812fff1e 	bxhi	lr
    a1e0:	e5902010 	ldr	r2, [r0, #16]
    a1e4:	e1530002 	cmp	r3, r2
    a1e8:	35803010 	strcc	r3, [r0, #16]
    a1ec:	e12fff1e 	bx	lr
    a1f0:	20003000 	andcs	r3, r0, r0
    a1f4:	0000b398 	muleq	r0, r8, r3
	...

0000a200 <tmInit>:
    a200:	e3a03000 	mov	r3, #0
    a204:	e3e01000 	mvn	r1, #0
    a208:	e92d4010 	push	{r4, lr}
    a20c:	e59f4040 	ldr	r4, [pc, #64]	; a254 <tmInit+0x54>
    a210:	e24dd018 	sub	sp, sp, #24
    a214:	e59f203c 	ldr	r2, [pc, #60]	; a258 <tmInit+0x58>
    a218:	e58d300c 	str	r3, [sp, #12]
    a21c:	e58d3010 	str	r3, [sp, #16]
    a220:	e5843000 	str	r3, [r4]
    a224:	e58d1014 	str	r1, [sp, #20]
    a228:	e5921004 	ldr	r1, [r2, #4]
    a22c:	e59f3028 	ldr	r3, [pc, #40]	; a25c <tmInit+0x5c>
    a230:	e59f2028 	ldr	r2, [pc, #40]	; a260 <tmInit+0x60>
    a234:	e28d0004 	add	r0, sp, #4
    a238:	e98d000c 	stmib	sp, {r2, r3}
    a23c:	e58d100c 	str	r1, [sp, #12]
    a240:	ebffffda 	bl	a1b0 <tm_stop>
    a244:	e59d300c 	ldr	r3, [sp, #12]
    a248:	e5843000 	str	r3, [r4]
    a24c:	e28dd018 	add	sp, sp, #24
    a250:	e8bd8010 	pop	{r4, pc}
    a254:	0000b398 	muleq	r0, r8, r3
    a258:	20003000 	andcs	r3, r0, r0
    a25c:	0000a1b0 			; <UNDEFINED> instruction: 0x0000a1b0
    a260:	0000a190 	muleq	r0, r0, r1
	...

0000a270 <IrqHandler>:
    a270:	e92d500f 	push	{r0, r1, r2, r3, ip, lr}
    a274:	ebfffb15 	bl	8ed0 <chSysTimerHandlerI>
    a278:	e3a02000 	mov	r2, #0
    a27c:	e59f301c 	ldr	r3, [pc, #28]	; a2a0 <IrqHandler+0x30>
    a280:	e59f001c 	ldr	r0, [pc, #28]	; a2a4 <IrqHandler+0x34>
    a284:	e583240c 	str	r2, [r3, #1036]	; 0x40c
    a288:	eb00005c 	bl	a400 <sd_lld_serve_interrupt>
    a28c:	e59f0014 	ldr	r0, [pc, #20]	; a2a8 <IrqHandler+0x38>
    a290:	eb0000c2 	bl	a5a0 <i2c_lld_serve_interrupt>
    a294:	e59f0010 	ldr	r0, [pc, #16]	; a2ac <IrqHandler+0x3c>
    a298:	eb000124 	bl	a730 <spi_lld_serve_interrupt>
    a29c:	eafff797 	b	8100 <_port_irq_common>
    a2a0:	2000b000 	andcs	fp, r0, r0
    a2a4:	0000b5ac 	andeq	fp, r0, ip, lsr #11
    a2a8:	0000b660 	andeq	fp, r0, r0, ror #12
    a2ac:	0000b6a0 	andeq	fp, r0, r0, lsr #13

0000a2b0 <hal_lld_init>:
    a2b0:	e52de004 	push	{lr}		; (str lr, [sp, #-4]!)
    a2b4:	e3a0c0f9 	mov	ip, #249	; 0xf9
    a2b8:	e3a0e83e 	mov	lr, #4063232	; 0x3e0000
    a2bc:	e3a00000 	mov	r0, #0
    a2c0:	e59f302c 	ldr	r3, [pc, #44]	; a2f4 <hal_lld_init+0x44>
    a2c4:	e59f202c 	ldr	r2, [pc, #44]	; a2f8 <hal_lld_init+0x48>
    a2c8:	e59f102c 	ldr	r1, [pc, #44]	; a2fc <hal_lld_init+0x4c>
    a2cc:	e583e408 	str	lr, [r3, #1032]	; 0x408
    a2d0:	e5832400 	str	r2, [r3, #1024]	; 0x400
    a2d4:	e5832418 	str	r2, [r3, #1048]	; 0x418
    a2d8:	e583c41c 	str	ip, [r3, #1052]	; 0x41c
    a2dc:	e583040c 	str	r0, [r3, #1036]	; 0x40c
    a2e0:	e5831408 	str	r1, [r3, #1032]	; 0x408
    a2e4:	e5932218 	ldr	r2, [r3, #536]	; 0x218
    a2e8:	e3822001 	orr	r2, r2, #1
    a2ec:	e5832218 	str	r2, [r3, #536]	; 0x218
    a2f0:	e49df004 	pop	{pc}		; (ldr pc, [sp], #4)
    a2f4:	2000b000 	andcs	fp, r0, r0
    a2f8:	000003e7 	andeq	r0, r0, r7, ror #7
    a2fc:	003e00a2 	eorseq	r0, lr, r2, lsr #1

0000a300 <set_gpio_in.isra.0>:
    a300:	e92d4070 	push	{r4, r5, r6, lr}
    a304:	e1a06000 	mov	r6, r0
    a308:	e1a05001 	mov	r5, r1
    a30c:	e3a04000 	mov	r4, #0
    a310:	ea000003 	b	a324 <set_gpio_in.isra.0+0x24>
    a314:	e2844001 	add	r4, r4, #1
    a318:	e3540020 	cmp	r4, #32
    a31c:	e1a050a5 	lsr	r5, r5, #1
    a320:	0a000009 	beq	a34c <set_gpio_in.isra.0+0x4c>
    a324:	e3150001 	tst	r5, #1
    a328:	0afffff9 	beq	a314 <set_gpio_in.isra.0+0x14>
    a32c:	e5960000 	ldr	r0, [r6]
    a330:	e3a01000 	mov	r1, #0
    a334:	e0840000 	add	r0, r4, r0
    a338:	e2844001 	add	r4, r4, #1
    a33c:	eb000167 	bl	a8e0 <bcm2835_gpio_fnsel>
    a340:	e3540020 	cmp	r4, #32
    a344:	e1a050a5 	lsr	r5, r5, #1
    a348:	1afffff5 	bne	a324 <set_gpio_in.isra.0+0x24>
    a34c:	e8bd8070 	pop	{r4, r5, r6, pc}

0000a350 <_pal_lld_init>:
    a350:	e59f3060 	ldr	r3, [pc, #96]	; a3b8 <_pal_lld_init+0x68>
    a354:	e92d4010 	push	{r4, lr}
    a358:	e59fc05c 	ldr	ip, [pc, #92]	; a3bc <_pal_lld_init+0x6c>
    a35c:	e59fe05c 	ldr	lr, [pc, #92]	; a3c0 <_pal_lld_init+0x70>
    a360:	e59f205c 	ldr	r2, [pc, #92]	; a3c4 <_pal_lld_init+0x74>
    a364:	e59f405c 	ldr	r4, [pc, #92]	; a3c8 <_pal_lld_init+0x78>
    a368:	e2830014 	add	r0, r3, #20
    a36c:	e3e01000 	mvn	r1, #0
    a370:	e9834010 	stmib	r3, {r4, lr}
    a374:	e583c00c 	str	ip, [r3, #12]
    a378:	e5832010 	str	r2, [r3, #16]
    a37c:	ebffffdf 	bl	a300 <set_gpio_in.isra.0>
    a380:	e59f3044 	ldr	r3, [pc, #68]	; a3cc <_pal_lld_init+0x7c>
    a384:	e3a01020 	mov	r1, #32
    a388:	e1a00003 	mov	r0, r3
    a38c:	e59fe03c 	ldr	lr, [pc, #60]	; a3d0 <_pal_lld_init+0x80>
    a390:	e2844004 	add	r4, r4, #4
    a394:	e59fc038 	ldr	ip, [pc, #56]	; a3d4 <_pal_lld_init+0x84>
    a398:	e59f2038 	ldr	r2, [pc, #56]	; a3d8 <_pal_lld_init+0x88>
    a39c:	e5a01014 	str	r1, [r0, #20]!
    a3a0:	e9834010 	stmib	r3, {r4, lr}
    a3a4:	e8bd4010 	pop	{r4, lr}
    a3a8:	e3e01000 	mvn	r1, #0
    a3ac:	e583c00c 	str	ip, [r3, #12]
    a3b0:	e5832010 	str	r2, [r3, #16]
    a3b4:	eaffffd1 	b	a300 <set_gpio_in.isra.0>
    a3b8:	0000b594 	muleq	r0, r4, r5
    a3bc:	20200034 	eorcs	r0, r0, r4, lsr r0
    a3c0:	20200028 	eorcs	r0, r0, r8, lsr #32
    a3c4:	20200098 	mlacs	r0, r8, r0, r0
    a3c8:	2020001c 	eorcs	r0, r0, ip, lsl r0
    a3cc:	0000b57c 	andeq	fp, r0, ip, ror r5
    a3d0:	2020002c 	eorcs	r0, r0, ip, lsr #32
    a3d4:	20200038 	eorcs	r0, r0, r8, lsr r0
    a3d8:	2020009c 	mlacs	r0, ip, r0, r0
    a3dc:	00000000 	andeq	r0, r0, r0

0000a3e0 <output_notify>:
    a3e0:	e59f200c 	ldr	r2, [pc, #12]	; a3f4 <output_notify+0x14>
    a3e4:	e5923044 	ldr	r3, [r2, #68]	; 0x44
    a3e8:	e3833002 	orr	r3, r3, #2
    a3ec:	e5823044 	str	r3, [r2, #68]	; 0x44
    a3f0:	e12fff1e 	bx	lr
    a3f4:	20215000 	eorcs	r5, r1, r0
	...

0000a400 <sd_lld_serve_interrupt>:
    a400:	e59f20a0 	ldr	r2, [pc, #160]	; a4a8 <sd_lld_serve_interrupt+0xa8>
    a404:	e92d4038 	push	{r3, r4, r5, lr}
    a408:	e5923048 	ldr	r3, [r2, #72]	; 0x48
    a40c:	e1a05000 	mov	r5, r0
    a410:	e2033007 	and	r3, r3, #7
    a414:	e3530004 	cmp	r3, #4
    a418:	0a000012 	beq	a468 <sd_lld_serve_interrupt+0x68>
    a41c:	e59f2084 	ldr	r2, [pc, #132]	; a4a8 <sd_lld_serve_interrupt+0xa8>
    a420:	e5923048 	ldr	r3, [r2, #72]	; 0x48
    a424:	e2033007 	and	r3, r3, #7
    a428:	e3530002 	cmp	r3, #2
    a42c:	18bd8038 	popne	{r3, r4, r5, pc}
    a430:	e5923054 	ldr	r3, [r2, #84]	; 0x54
    a434:	e59f406c 	ldr	r4, [pc, #108]	; a4a8 <sd_lld_serve_interrupt+0xa8>
    a438:	e3130020 	tst	r3, #32
    a43c:	0afffffb 	beq	a430 <sd_lld_serve_interrupt+0x30>
    a440:	e1a00005 	mov	r0, r5
    a444:	ebffff35 	bl	a120 <sdRequestDataI>
    a448:	e3500000 	cmp	r0, #0
    a44c:	ba000011 	blt	a498 <sd_lld_serve_interrupt+0x98>
    a450:	e5943054 	ldr	r3, [r4, #84]	; 0x54
    a454:	e59f204c 	ldr	r2, [pc, #76]	; a4a8 <sd_lld_serve_interrupt+0xa8>
    a458:	e3130020 	tst	r3, #32
    a45c:	0afffffb 	beq	a450 <sd_lld_serve_interrupt+0x50>
    a460:	e5820040 	str	r0, [r2, #64]	; 0x40
    a464:	e8bd8038 	pop	{r3, r4, r5, pc}
    a468:	e5923054 	ldr	r3, [r2, #84]	; 0x54
    a46c:	e3130001 	tst	r3, #1
    a470:	0afffffc 	beq	a468 <sd_lld_serve_interrupt+0x68>
    a474:	e59f402c 	ldr	r4, [pc, #44]	; a4a8 <sd_lld_serve_interrupt+0xa8>
    a478:	e5941040 	ldr	r1, [r4, #64]	; 0x40
    a47c:	e1a00005 	mov	r0, r5
    a480:	e6ef1071 	uxtb	r1, r1
    a484:	ebffff11 	bl	a0d0 <sdIncomingDataI>
    a488:	e5943054 	ldr	r3, [r4, #84]	; 0x54
    a48c:	e3130001 	tst	r3, #1
    a490:	1afffff8 	bne	a478 <sd_lld_serve_interrupt+0x78>
    a494:	eaffffe0 	b	a41c <sd_lld_serve_interrupt+0x1c>
    a498:	e5943044 	ldr	r3, [r4, #68]	; 0x44
    a49c:	e3c33002 	bic	r3, r3, #2
    a4a0:	e5843044 	str	r3, [r4, #68]	; 0x44
    a4a4:	e8bd8038 	pop	{r3, r4, r5, pc}
    a4a8:	20215000 	eorcs	r5, r1, r0
    a4ac:	00000000 	andeq	r0, r0, r0

0000a4b0 <sd_lld_init>:
    a4b0:	e59f0008 	ldr	r0, [pc, #8]	; a4c0 <sd_lld_init+0x10>
    a4b4:	e3a01000 	mov	r1, #0
    a4b8:	e59f2004 	ldr	r2, [pc, #4]	; a4c4 <sd_lld_init+0x14>
    a4bc:	eafffee3 	b	a050 <sdObjectInit>
    a4c0:	0000b5ac 	andeq	fp, r0, ip, lsr #11
    a4c4:	0000a3e0 	andeq	sl, r0, r0, ror #7
	...

0000a4d0 <sd_lld_start>:
    a4d0:	e92d43f8 	push	{r3, r4, r5, r6, r7, r8, r9, lr}
    a4d4:	e3a05000 	mov	r5, #0
    a4d8:	e59f30a0 	ldr	r3, [pc, #160]	; a580 <sd_lld_start+0xb0>
    a4dc:	e1510005 	cmp	r1, r5
    a4e0:	e3a0c001 	mov	ip, #1
    a4e4:	e3a020c6 	mov	r2, #198	; 0xc6
    a4e8:	e3a09003 	mov	r9, #3
    a4ec:	e3a08202 	mov	r8, #536870912	; 0x20000000
    a4f0:	e3a00005 	mov	r0, #5
    a4f4:	01a01003 	moveq	r1, r3
    a4f8:	e59f4084 	ldr	r4, [pc, #132]	; a584 <sd_lld_start+0xb4>
    a4fc:	e59f7084 	ldr	r7, [pc, #132]	; a588 <sd_lld_start+0xb8>
    a500:	e59f6084 	ldr	r6, [pc, #132]	; a58c <sd_lld_start+0xbc>
    a504:	e587821c 	str	r8, [r7, #540]	; 0x21c
    a508:	e584c004 	str	ip, [r4, #4]
    a50c:	e5845044 	str	r5, [r4, #68]	; 0x44
    a510:	e5845060 	str	r5, [r4, #96]	; 0x60
    a514:	e584904c 	str	r9, [r4, #76]	; 0x4c
    a518:	e5845050 	str	r5, [r4, #80]	; 0x50
    a51c:	e5840044 	str	r0, [r4, #68]	; 0x44
    a520:	e5842048 	str	r2, [r4, #72]	; 0x48
    a524:	e5911000 	ldr	r1, [r1]
    a528:	e59f0060 	ldr	r0, [pc, #96]	; a590 <sd_lld_start+0xc0>
    a52c:	e1a01911 	lsl	r1, r1, r9
    a530:	ebfff722 	bl	81c0 <__aeabi_uidiv>
    a534:	e2400001 	sub	r0, r0, #1
    a538:	e5840068 	str	r0, [r4, #104]	; 0x68
    a53c:	e3a01002 	mov	r1, #2
    a540:	e3a0000e 	mov	r0, #14
    a544:	eb0000e5 	bl	a8e0 <bcm2835_gpio_fnsel>
    a548:	e3a01002 	mov	r1, #2
    a54c:	e3a0000f 	mov	r0, #15
    a550:	eb0000e2 	bl	a8e0 <bcm2835_gpio_fnsel>
    a554:	e3a00096 	mov	r0, #150	; 0x96
    a558:	e5865094 	str	r5, [r6, #148]	; 0x94
    a55c:	eb0000f3 	bl	a930 <bcm2835_delay>
    a560:	e3a03903 	mov	r3, #49152	; 0xc000
    a564:	e3a00096 	mov	r0, #150	; 0x96
    a568:	e5863098 	str	r3, [r6, #152]	; 0x98
    a56c:	eb0000ef 	bl	a930 <bcm2835_delay>
    a570:	e5865098 	str	r5, [r6, #152]	; 0x98
    a574:	e5849060 	str	r9, [r4, #96]	; 0x60
    a578:	e5878210 	str	r8, [r7, #528]	; 0x210
    a57c:	e8bd83f8 	pop	{r3, r4, r5, r6, r7, r8, r9, pc}
    a580:	0000b2d0 	ldrdeq	fp, [r0], -r0
    a584:	20215000 	eorcs	r5, r1, r0
    a588:	2000b000 	andcs	fp, r0, r0
    a58c:	20200000 	eorcs	r0, r0, r0
    a590:	0ee6b280 	cdpeq	2, 14, cr11, cr6, cr0, {4}
	...

0000a5a0 <i2c_lld_serve_interrupt>:
    a5a0:	e590200c 	ldr	r2, [r0, #12]
    a5a4:	e52de004 	push	{lr}		; (str lr, [sp, #-4]!)
    a5a8:	e5921004 	ldr	r1, [r2, #4]
    a5ac:	e3110c03 	tst	r1, #768	; 0x300
    a5b0:	0a000009 	beq	a5dc <i2c_lld_serve_interrupt+0x3c>
    a5b4:	e5903020 	ldr	r3, [r0, #32]
    a5b8:	e3530000 	cmp	r3, #0
    a5bc:	049df004 	popeq	{pc}		; (ldreq pc, [sp], #4)
    a5c0:	e3a01000 	mov	r1, #0
    a5c4:	e3e02001 	mvn	r2, #1
    a5c8:	e5801020 	str	r1, [r0, #32]
    a5cc:	e5832024 	str	r2, [r3, #36]	; 0x24
    a5d0:	e1a00003 	mov	r0, r3
    a5d4:	e49de004 	pop	{lr}		; (ldr lr, [sp], #4)
    a5d8:	eafffacc 	b	9110 <chSchReadyI>
    a5dc:	e3110002 	tst	r1, #2
    a5e0:	0a000020 	beq	a668 <i2c_lld_serve_interrupt+0xc8>
    a5e4:	e3110020 	tst	r1, #32
    a5e8:	0a000012 	beq	a638 <i2c_lld_serve_interrupt+0x98>
    a5ec:	e590303c 	ldr	r3, [r0, #60]	; 0x3c
    a5f0:	e5901038 	ldr	r1, [r0, #56]	; 0x38
    a5f4:	e1510003 	cmp	r1, r3
    a5f8:	9a00000e 	bls	a638 <i2c_lld_serve_interrupt+0x98>
    a5fc:	e592c010 	ldr	ip, [r2, #16]
    a600:	e5901034 	ldr	r1, [r0, #52]	; 0x34
    a604:	e283e001 	add	lr, r3, #1
    a608:	e580e03c 	str	lr, [r0, #60]	; 0x3c
    a60c:	e7c1c003 	strb	ip, [r1, r3]
    a610:	ea000003 	b	a624 <i2c_lld_serve_interrupt+0x84>
    a614:	e592e010 	ldr	lr, [r2, #16]
    a618:	e5901034 	ldr	r1, [r0, #52]	; 0x34
    a61c:	e580c03c 	str	ip, [r0, #60]	; 0x3c
    a620:	e7c1e003 	strb	lr, [r1, r3]
    a624:	e590303c 	ldr	r3, [r0, #60]	; 0x3c
    a628:	e5901038 	ldr	r1, [r0, #56]	; 0x38
    a62c:	e283c001 	add	ip, r3, #1
    a630:	e1530001 	cmp	r3, r1
    a634:	3afffff6 	bcc	a614 <i2c_lld_serve_interrupt+0x74>
    a638:	e3a01000 	mov	r1, #0
    a63c:	e5903020 	ldr	r3, [r0, #32]
    a640:	e59fc0b8 	ldr	ip, [pc, #184]	; a700 <i2c_lld_serve_interrupt+0x160>
    a644:	e1530001 	cmp	r3, r1
    a648:	e5821000 	str	r1, [r2]
    a64c:	e582c004 	str	ip, [r2, #4]
    a650:	0a000029 	beq	a6fc <i2c_lld_serve_interrupt+0x15c>
    a654:	e5801020 	str	r1, [r0, #32]
    a658:	e5831024 	str	r1, [r3, #36]	; 0x24
    a65c:	e1a00003 	mov	r0, r3
    a660:	e49de004 	pop	{lr}		; (ldr lr, [sp], #4)
    a664:	eafffaa9 	b	9110 <chSchReadyI>
    a668:	e3110004 	tst	r1, #4
    a66c:	0a000010 	beq	a6b4 <i2c_lld_serve_interrupt+0x114>
    a670:	e5903030 	ldr	r3, [r0, #48]	; 0x30
    a674:	e590e02c 	ldr	lr, [r0, #44]	; 0x2c
    a678:	e15e0003 	cmp	lr, r3
    a67c:	949df004 	popls	{pc}		; (ldrls pc, [sp], #4)
    a680:	e3110010 	tst	r1, #16
    a684:	049df004 	popeq	{pc}		; (ldreq pc, [sp], #4)
    a688:	e590c028 	ldr	ip, [r0, #40]	; 0x28
    a68c:	e08c3003 	add	r3, ip, r3
    a690:	e08ce00e 	add	lr, ip, lr
    a694:	e26cc001 	rsb	ip, ip, #1
    a698:	e08c1003 	add	r1, ip, r3
    a69c:	e5801030 	str	r1, [r0, #48]	; 0x30
    a6a0:	e4d31001 	ldrb	r1, [r3], #1
    a6a4:	e153000e 	cmp	r3, lr
    a6a8:	e5821010 	str	r1, [r2, #16]
    a6ac:	1afffff9 	bne	a698 <i2c_lld_serve_interrupt+0xf8>
    a6b0:	e49df004 	pop	{pc}		; (ldr pc, [sp], #4)
    a6b4:	e3110008 	tst	r1, #8
    a6b8:	049df004 	popeq	{pc}		; (ldreq pc, [sp], #4)
    a6bc:	e590303c 	ldr	r3, [r0, #60]	; 0x3c
    a6c0:	e590c038 	ldr	ip, [r0, #56]	; 0x38
    a6c4:	e153000c 	cmp	r3, ip
    a6c8:	249df004 	popcs	{pc}		; (ldrcs pc, [sp], #4)
    a6cc:	e3110020 	tst	r1, #32
    a6d0:	049df004 	popeq	{pc}		; (ldreq pc, [sp], #4)
    a6d4:	e5901034 	ldr	r1, [r0, #52]	; 0x34
    a6d8:	e592c010 	ldr	ip, [r2, #16]
    a6dc:	e283e001 	add	lr, r3, #1
    a6e0:	e580e03c 	str	lr, [r0, #60]	; 0x3c
    a6e4:	e7c1c003 	strb	ip, [r1, r3]
    a6e8:	e590303c 	ldr	r3, [r0, #60]	; 0x3c
    a6ec:	e5901038 	ldr	r1, [r0, #56]	; 0x38
    a6f0:	e1530001 	cmp	r3, r1
    a6f4:	3afffff6 	bcc	a6d4 <i2c_lld_serve_interrupt+0x134>
    a6f8:	e49df004 	pop	{pc}		; (ldr pc, [sp], #4)
    a6fc:	e49df004 	pop	{pc}		; (ldr pc, [sp], #4)
    a700:	00000302 	andeq	r0, r0, r2, lsl #6
	...

0000a710 <i2c_lld_init>:
    a710:	e59f300c 	ldr	r3, [pc, #12]	; a724 <i2c_lld_init+0x14>
    a714:	e59f200c 	ldr	r2, [pc, #12]	; a728 <i2c_lld_init+0x18>
    a718:	e1a00003 	mov	r0, r3
    a71c:	e583200c 	str	r2, [r3, #12]
    a720:	eafffe1e 	b	9fa0 <i2cObjectInit>
    a724:	0000b660 	andeq	fp, r0, r0, ror #12
    a728:	20804000 	addcs	r4, r0, r0
    a72c:	00000000 	andeq	r0, r0, r0

0000a730 <spi_lld_serve_interrupt>:
    a730:	e59f318c 	ldr	r3, [pc, #396]	; a8c4 <spi_lld_serve_interrupt+0x194>
    a734:	e5933208 	ldr	r3, [r3, #520]	; 0x208
    a738:	e3130501 	tst	r3, #4194304	; 0x400000
    a73c:	012fff1e 	bxeq	lr
    a740:	e59f3180 	ldr	r3, [pc, #384]	; a8c8 <spi_lld_serve_interrupt+0x198>
    a744:	e92d4010 	push	{r4, lr}
    a748:	e5932000 	ldr	r2, [r3]
    a74c:	e1a04000 	mov	r4, r0
    a750:	e3120801 	tst	r2, #65536	; 0x10000
    a754:	0a000018 	beq	a7bc <spi_lld_serve_interrupt+0x8c>
    a758:	e5902024 	ldr	r2, [r0, #36]	; 0x24
    a75c:	e3520000 	cmp	r2, #0
    a760:	0a000026 	beq	a800 <spi_lld_serve_interrupt+0xd0>
    a764:	e5901004 	ldr	r1, [r0, #4]
    a768:	e590c020 	ldr	ip, [r0, #32]
    a76c:	e5d11004 	ldrb	r1, [r1, #4]
    a770:	e3510000 	cmp	r1, #0
    a774:	e5931000 	ldr	r1, [r3]
    a778:	0a00003d 	beq	a874 <spi_lld_serve_interrupt+0x144>
    a77c:	e3110701 	tst	r1, #262144	; 0x40000
    a780:	0a00000d 	beq	a7bc <spi_lld_serve_interrupt+0x8c>
    a784:	e1a0100c 	mov	r1, ip
    a788:	ea000001 	b	a794 <spi_lld_serve_interrupt+0x64>
    a78c:	e3520000 	cmp	r2, #0
    a790:	0a000008 	beq	a7b8 <spi_lld_serve_interrupt+0x88>
    a794:	e35c0000 	cmp	ip, #0
    a798:	01a0000c 	moveq	r0, ip
    a79c:	11d100b0 	ldrhne	r0, [r1]
    a7a0:	12811002 	addne	r1, r1, #2
    a7a4:	e5830004 	str	r0, [r3, #4]
    a7a8:	e5930000 	ldr	r0, [r3]
    a7ac:	e2422002 	sub	r2, r2, #2
    a7b0:	e3100701 	tst	r0, #262144	; 0x40000
    a7b4:	1afffff4 	bne	a78c <spi_lld_serve_interrupt+0x5c>
    a7b8:	e5842024 	str	r2, [r4, #36]	; 0x24
    a7bc:	e59f3104 	ldr	r3, [pc, #260]	; a8c8 <spi_lld_serve_interrupt+0x198>
    a7c0:	e5932000 	ldr	r2, [r3]
    a7c4:	e3120702 	tst	r2, #524288	; 0x80000
    a7c8:	1a000004 	bne	a7e0 <spi_lld_serve_interrupt+0xb0>
    a7cc:	e8bd8010 	pop	{r4, pc}
    a7d0:	e594201c 	ldr	r2, [r4, #28]
    a7d4:	e5931004 	ldr	r1, [r3, #4]
    a7d8:	e3520000 	cmp	r2, #0
    a7dc:	15c21000 	strbne	r1, [r2]
    a7e0:	e5932000 	ldr	r2, [r3]
    a7e4:	e3120802 	tst	r2, #131072	; 0x20000
    a7e8:	1afffff8 	bne	a7d0 <spi_lld_serve_interrupt+0xa0>
    a7ec:	e8bd8010 	pop	{r4, pc}
    a7f0:	e594201c 	ldr	r2, [r4, #28]
    a7f4:	e5931004 	ldr	r1, [r3, #4]
    a7f8:	e3520000 	cmp	r2, #0
    a7fc:	15c21000 	strbne	r1, [r2]
    a800:	e5932000 	ldr	r2, [r3]
    a804:	e59f10bc 	ldr	r1, [pc, #188]	; a8c8 <spi_lld_serve_interrupt+0x198>
    a808:	e3120802 	tst	r2, #131072	; 0x20000
    a80c:	1afffff7 	bne	a7f0 <spi_lld_serve_interrupt+0xc0>
    a810:	e5942004 	ldr	r2, [r4, #4]
    a814:	e5913000 	ldr	r3, [r1]
    a818:	e5922000 	ldr	r2, [r2]
    a81c:	e3c33d1a 	bic	r3, r3, #1664	; 0x680
    a820:	e3520000 	cmp	r2, #0
    a824:	e5813000 	str	r3, [r1]
    a828:	0a000022 	beq	a8b8 <spi_lld_serve_interrupt+0x188>
    a82c:	e3a03004 	mov	r3, #4
    a830:	e1a00004 	mov	r0, r4
    a834:	e5c43000 	strb	r3, [r4]
    a838:	e12fff32 	blx	r2
    a83c:	e5d43000 	ldrb	r3, [r4]
    a840:	e3530004 	cmp	r3, #4
    a844:	0a00001b 	beq	a8b8 <spi_lld_serve_interrupt+0x188>
    a848:	e5940008 	ldr	r0, [r4, #8]
    a84c:	e3500000 	cmp	r0, #0
    a850:	0affffd9 	beq	a7bc <spi_lld_serve_interrupt+0x8c>
    a854:	e3a03000 	mov	r3, #0
    a858:	e5843008 	str	r3, [r4, #8]
    a85c:	ebfffa2b 	bl	9110 <chSchReadyI>
    a860:	e59f3060 	ldr	r3, [pc, #96]	; a8c8 <spi_lld_serve_interrupt+0x198>
    a864:	e5932000 	ldr	r2, [r3]
    a868:	e3120702 	tst	r2, #524288	; 0x80000
    a86c:	1affffdb 	bne	a7e0 <spi_lld_serve_interrupt+0xb0>
    a870:	eaffffd5 	b	a7cc <spi_lld_serve_interrupt+0x9c>
    a874:	e3110701 	tst	r1, #262144	; 0x40000
    a878:	0affffcf 	beq	a7bc <spi_lld_serve_interrupt+0x8c>
    a87c:	e1a0100c 	mov	r1, ip
    a880:	ea000001 	b	a88c <spi_lld_serve_interrupt+0x15c>
    a884:	e3520000 	cmp	r2, #0
    a888:	0affffcb 	beq	a7bc <spi_lld_serve_interrupt+0x8c>
    a88c:	e35c0000 	cmp	ip, #0
    a890:	01a0000c 	moveq	r0, ip
    a894:	15d10000 	ldrbne	r0, [r1]
    a898:	e2422001 	sub	r2, r2, #1
    a89c:	e5830004 	str	r0, [r3, #4]
    a8a0:	e5930000 	ldr	r0, [r3]
    a8a4:	12811001 	addne	r1, r1, #1
    a8a8:	e3100701 	tst	r0, #262144	; 0x40000
    a8ac:	e5842024 	str	r2, [r4, #36]	; 0x24
    a8b0:	1afffff3 	bne	a884 <spi_lld_serve_interrupt+0x154>
    a8b4:	eaffffc0 	b	a7bc <spi_lld_serve_interrupt+0x8c>
    a8b8:	e3a03002 	mov	r3, #2
    a8bc:	e5c43000 	strb	r3, [r4]
    a8c0:	eaffffe0 	b	a848 <spi_lld_serve_interrupt+0x118>
    a8c4:	2000b000 	andcs	fp, r0, r0
    a8c8:	20204000 	eorcs	r4, r0, r0
    a8cc:	00000000 	andeq	r0, r0, r0

0000a8d0 <spi_lld_init>:
    a8d0:	e59f0000 	ldr	r0, [pc]	; a8d8 <spi_lld_init+0x8>
    a8d4:	eafffe25 	b	a170 <spiObjectInit>
    a8d8:	0000b6a0 	andeq	fp, r0, r0, lsr #13
    a8dc:	00000000 	andeq	r0, r0, r0

0000a8e0 <bcm2835_gpio_fnsel>:
    a8e0:	e52de004 	push	{lr}		; (str lr, [sp, #-4]!)
    a8e4:	e3a0e007 	mov	lr, #7
    a8e8:	e59f2038 	ldr	r2, [pc, #56]	; a928 <bcm2835_gpio_fnsel+0x48>
    a8ec:	e0823092 	umull	r3, r2, r2, r0
    a8f0:	e1a021a2 	lsr	r2, r2, #3
    a8f4:	e1a0c102 	lsl	ip, r2, #2
    a8f8:	e28c3202 	add	r3, ip, #536870912	; 0x20000000
    a8fc:	e2833602 	add	r3, r3, #2097152	; 0x200000
    a900:	e08c2002 	add	r2, ip, r2
    a904:	e0400082 	sub	r0, r0, r2, lsl #1
    a908:	e5932000 	ldr	r2, [r3]
    a90c:	e0800080 	add	r0, r0, r0, lsl #1
    a910:	e1c2201e 	bic	r2, r2, lr, lsl r0
    a914:	e5832000 	str	r2, [r3]
    a918:	e5932000 	ldr	r2, [r3]
    a91c:	e1821011 	orr	r1, r2, r1, lsl r0
    a920:	e5831000 	str	r1, [r3]
    a924:	e49df004 	pop	{pc}		; (ldr pc, [sp], #4)
    a928:	cccccccd 	stclgt	12, cr12, [ip], {205}	; 0xcd
    a92c:	00000000 	andeq	r0, r0, r0

0000a930 <bcm2835_delay>:
    a930:	e3a03000 	mov	r3, #0
    a934:	e24dd008 	sub	sp, sp, #8
    a938:	e58d3004 	str	r3, [sp, #4]
    a93c:	e58d3004 	str	r3, [sp, #4]
    a940:	e59d3004 	ldr	r3, [sp, #4]
    a944:	e1500003 	cmp	r0, r3
    a948:	9a000005 	bls	a964 <bcm2835_delay+0x34>
    a94c:	e59d3004 	ldr	r3, [sp, #4]
    a950:	e2833001 	add	r3, r3, #1
    a954:	e58d3004 	str	r3, [sp, #4]
    a958:	e59d3004 	ldr	r3, [sp, #4]
    a95c:	e1530000 	cmp	r3, r0
    a960:	3afffff9 	bcc	a94c <bcm2835_delay+0x1c>
    a964:	e28dd008 	add	sp, sp, #8
    a968:	e12fff1e 	bx	lr
    a96c:	00000000 	andeq	r0, r0, r0

0000a970 <boardInit>:
    a970:	e12fff1e 	bx	lr
	...

0000a980 <long_to_string_with_divisor>:
    a980:	e92d47f0 	push	{r4, r5, r6, r7, r8, r9, sl, lr}
    a984:	e3530000 	cmp	r3, #0
    a988:	e280900b 	add	r9, r0, #11
    a98c:	e1a06000 	mov	r6, r0
    a990:	e1a07001 	mov	r7, r1
    a994:	11a0a003 	movne	sl, r3
    a998:	01a0a001 	moveq	sl, r1
    a99c:	e1a08002 	mov	r8, r2
    a9a0:	e1a05009 	mov	r5, r9
    a9a4:	e1a00007 	mov	r0, r7
    a9a8:	e1a01008 	mov	r1, r8
    a9ac:	ebfff640 	bl	82b4 <__aeabi_uidivmod>
    a9b0:	e1a03001 	mov	r3, r1
    a9b4:	e2834030 	add	r4, r3, #48	; 0x30
    a9b8:	e3540039 	cmp	r4, #57	; 0x39
    a9bc:	c2834037 	addgt	r4, r3, #55	; 0x37
    a9c0:	e6ef4074 	uxtb	r4, r4
    a9c4:	e1a00007 	mov	r0, r7
    a9c8:	e1a01008 	mov	r1, r8
    a9cc:	e5654001 	strb	r4, [r5, #-1]!
    a9d0:	ebfff5fa 	bl	81c0 <__aeabi_uidiv>
    a9d4:	e1a01008 	mov	r1, r8
    a9d8:	e1a07000 	mov	r7, r0
    a9dc:	e1a0000a 	mov	r0, sl
    a9e0:	ebfff5f6 	bl	81c0 <__aeabi_uidiv>
    a9e4:	e250a000 	subs	sl, r0, #0
    a9e8:	1affffed 	bne	a9a4 <long_to_string_with_divisor+0x24>
    a9ec:	e0659009 	rsb	r9, r5, r9
    a9f0:	e0869009 	add	r9, r6, r9
    a9f4:	ea000000 	b	a9fc <long_to_string_with_divisor+0x7c>
    a9f8:	e5f54001 	ldrb	r4, [r5, #1]!
    a9fc:	e4c64001 	strb	r4, [r6], #1
    aa00:	e1560009 	cmp	r6, r9
    aa04:	1afffffb 	bne	a9f8 <long_to_string_with_divisor+0x78>
    aa08:	e1a00006 	mov	r0, r6
    aa0c:	e8bd87f0 	pop	{r4, r5, r6, r7, r8, r9, sl, pc}

0000aa10 <chprintf>:
    aa10:	e92d000e 	push	{r1, r2, r3}
    aa14:	e92d4ff0 	push	{r4, r5, r6, r7, r8, r9, sl, fp, lr}
    aa18:	e1a06000 	mov	r6, r0
    aa1c:	e24dd030 	sub	sp, sp, #48	; 0x30
    aa20:	e28d3058 	add	r3, sp, #88	; 0x58
    aa24:	e28d8018 	add	r8, sp, #24
    aa28:	e58d3014 	str	r3, [sp, #20]
    aa2c:	e59d5054 	ldr	r5, [sp, #84]	; 0x54
    aa30:	e28d3019 	add	r3, sp, #25
    aa34:	e068b003 	rsb	fp, r8, r3
    aa38:	e5d51000 	ldrb	r1, [r5]
    aa3c:	e2852001 	add	r2, r5, #1
    aa40:	e3510000 	cmp	r1, #0
    aa44:	0a00000a 	beq	aa74 <chprintf+0x64>
    aa48:	e3510025 	cmp	r1, #37	; 0x25
    aa4c:	0a00000c 	beq	aa84 <chprintf+0x74>
    aa50:	e1a05002 	mov	r5, r2
    aa54:	e5963000 	ldr	r3, [r6]
    aa58:	e1a00006 	mov	r0, r6
    aa5c:	e5933008 	ldr	r3, [r3, #8]
    aa60:	e12fff33 	blx	r3
    aa64:	e5d51000 	ldrb	r1, [r5]
    aa68:	e2852001 	add	r2, r5, #1
    aa6c:	e3510000 	cmp	r1, #0
    aa70:	1afffff4 	bne	aa48 <chprintf+0x38>
    aa74:	e28dd030 	add	sp, sp, #48	; 0x30
    aa78:	e8bd4ff0 	pop	{r4, r5, r6, r7, r8, r9, sl, fp, lr}
    aa7c:	e28dd00c 	add	sp, sp, #12
    aa80:	e12fff1e 	bx	lr
    aa84:	e5d51001 	ldrb	r1, [r5, #1]
    aa88:	e3a04000 	mov	r4, #0
    aa8c:	e351002d 	cmp	r1, #45	; 0x2d
    aa90:	05d51002 	ldrbeq	r1, [r5, #2]
    aa94:	02852002 	addeq	r2, r5, #2
    aa98:	03a09001 	moveq	r9, #1
    aa9c:	13a09000 	movne	r9, #0
    aaa0:	e351002e 	cmp	r1, #46	; 0x2e
    aaa4:	05d21001 	ldrbeq	r1, [r2, #1]
    aaa8:	02822001 	addeq	r2, r2, #1
    aaac:	03a07030 	moveq	r7, #48	; 0x30
    aab0:	13a07020 	movne	r7, #32
    aab4:	e59d0014 	ldr	r0, [sp, #20]
    aab8:	e2822001 	add	r2, r2, #1
    aabc:	ea000004 	b	aad4 <chprintf+0xc4>
    aac0:	e5d03000 	ldrb	r3, [r0]
    aac4:	e2800004 	add	r0, r0, #4
    aac8:	e5d51000 	ldrb	r1, [r5]
    aacc:	e083408c 	add	r4, r3, ip, lsl #1
    aad0:	e2822001 	add	r2, r2, #1
    aad4:	e2413030 	sub	r3, r1, #48	; 0x30
    aad8:	e6ef3073 	uxtb	r3, r3
    aadc:	e3530009 	cmp	r3, #9
    aae0:	e084c104 	add	ip, r4, r4, lsl #2
    aae4:	e1a05002 	mov	r5, r2
    aae8:	9afffff6 	bls	aac8 <chprintf+0xb8>
    aaec:	e351002a 	cmp	r1, #42	; 0x2a
    aaf0:	0afffff2 	beq	aac0 <chprintf+0xb0>
    aaf4:	e351002e 	cmp	r1, #46	; 0x2e
    aaf8:	e3a02000 	mov	r2, #0
    aafc:	e58d0014 	str	r0, [sp, #20]
    ab00:	0a000042 	beq	ac10 <chprintf+0x200>
    ab04:	e20130df 	and	r3, r1, #223	; 0xdf
    ab08:	e353004c 	cmp	r3, #76	; 0x4c
    ab0c:	1a00004b 	bne	ac40 <chprintf+0x230>
    ab10:	e5d53000 	ldrb	r3, [r5]
    ab14:	e3530000 	cmp	r3, #0
    ab18:	11a01003 	movne	r1, r3
    ab1c:	e2413044 	sub	r3, r1, #68	; 0x44
    ab20:	12855001 	addne	r5, r5, #1
    ab24:	e3530034 	cmp	r3, #52	; 0x34
    ab28:	979ff103 	ldrls	pc, [pc, r3, lsl #2]
    ab2c:	ea000108 	b	af54 <chprintf+0x544>
    ab30:	0000afd0 	ldrdeq	sl, [r0], -r0
    ab34:	0000af54 	andeq	sl, r0, r4, asr pc
    ab38:	0000af54 	andeq	sl, r0, r4, asr pc
    ab3c:	0000af54 	andeq	sl, r0, r4, asr pc
    ab40:	0000af54 	andeq	sl, r0, r4, asr pc
    ab44:	0000af54 	andeq	sl, r0, r4, asr pc
    ab48:	0000af54 	andeq	sl, r0, r4, asr pc
    ab4c:	0000af54 	andeq	sl, r0, r4, asr pc
    ab50:	0000af54 	andeq	sl, r0, r4, asr pc
    ab54:	0000af54 	andeq	sl, r0, r4, asr pc
    ab58:	0000af54 	andeq	sl, r0, r4, asr pc
    ab5c:	0000afa4 	andeq	sl, r0, r4, lsr #31
    ab60:	0000af54 	andeq	sl, r0, r4, asr pc
    ab64:	0000af54 	andeq	sl, r0, r4, asr pc
    ab68:	0000af54 	andeq	sl, r0, r4, asr pc
    ab6c:	0000af54 	andeq	sl, r0, r4, asr pc
    ab70:	0000af54 	andeq	sl, r0, r4, asr pc
    ab74:	0000af68 	andeq	sl, r0, r8, ror #30
    ab78:	0000af54 	andeq	sl, r0, r4, asr pc
    ab7c:	0000af54 	andeq	sl, r0, r4, asr pc
    ab80:	0000b014 	andeq	fp, r0, r4, lsl r0
    ab84:	0000af54 	andeq	sl, r0, r4, asr pc
    ab88:	0000af54 	andeq	sl, r0, r4, asr pc
    ab8c:	0000af54 	andeq	sl, r0, r4, asr pc
    ab90:	0000af54 	andeq	sl, r0, r4, asr pc
    ab94:	0000af54 	andeq	sl, r0, r4, asr pc
    ab98:	0000af54 	andeq	sl, r0, r4, asr pc
    ab9c:	0000af54 	andeq	sl, r0, r4, asr pc
    aba0:	0000af54 	andeq	sl, r0, r4, asr pc
    aba4:	0000af54 	andeq	sl, r0, r4, asr pc
    aba8:	0000af54 	andeq	sl, r0, r4, asr pc
    abac:	0000af2c 	andeq	sl, r0, ip, lsr #30
    abb0:	0000afd0 	ldrdeq	sl, [r0], -r0
    abb4:	0000af54 	andeq	sl, r0, r4, asr pc
    abb8:	0000addc 	ldrdeq	sl, [r0], -ip
    abbc:	0000af54 	andeq	sl, r0, r4, asr pc
    abc0:	0000af54 	andeq	sl, r0, r4, asr pc
    abc4:	0000af54 	andeq	sl, r0, r4, asr pc
    abc8:	0000af54 	andeq	sl, r0, r4, asr pc
    abcc:	0000af54 	andeq	sl, r0, r4, asr pc
    abd0:	0000af54 	andeq	sl, r0, r4, asr pc
    abd4:	0000af54 	andeq	sl, r0, r4, asr pc
    abd8:	0000af54 	andeq	sl, r0, r4, asr pc
    abdc:	0000afa4 	andeq	sl, r0, r4, lsr #31
    abe0:	0000af54 	andeq	sl, r0, r4, asr pc
    abe4:	0000af54 	andeq	sl, r0, r4, asr pc
    abe8:	0000af54 	andeq	sl, r0, r4, asr pc
    abec:	0000ad3c 	andeq	sl, r0, ip, lsr sp
    abf0:	0000af54 	andeq	sl, r0, r4, asr pc
    abf4:	0000af68 	andeq	sl, r0, r8, ror #30
    abf8:	0000af54 	andeq	sl, r0, r4, asr pc
    abfc:	0000af54 	andeq	sl, r0, r4, asr pc
    ac00:	0000b014 	andeq	fp, r0, r4, lsl r0
    ac04:	e5d03000 	ldrb	r3, [r0]
    ac08:	e2800004 	add	r0, r0, #4
    ac0c:	e083208c 	add	r2, r3, ip, lsl #1
    ac10:	e4d51001 	ldrb	r1, [r5], #1
    ac14:	e082c102 	add	ip, r2, r2, lsl #2
    ac18:	e2413030 	sub	r3, r1, #48	; 0x30
    ac1c:	e6ef3073 	uxtb	r3, r3
    ac20:	e3530009 	cmp	r3, #9
    ac24:	9afffff8 	bls	ac0c <chprintf+0x1fc>
    ac28:	e351002a 	cmp	r1, #42	; 0x2a
    ac2c:	0afffff4 	beq	ac04 <chprintf+0x1f4>
    ac30:	e20130df 	and	r3, r1, #223	; 0xdf
    ac34:	e353004c 	cmp	r3, #76	; 0x4c
    ac38:	e58d0014 	str	r0, [sp, #20]
    ac3c:	0affffb3 	beq	ab10 <chprintf+0x100>
    ac40:	e2413041 	sub	r3, r1, #65	; 0x41
    ac44:	e6ef3073 	uxtb	r3, r3
    ac48:	e3530019 	cmp	r3, #25
    ac4c:	83a03000 	movhi	r3, #0
    ac50:	93a03001 	movls	r3, #1
    ac54:	e2410044 	sub	r0, r1, #68	; 0x44
    ac58:	e1a0c003 	mov	ip, r3
    ac5c:	e3500034 	cmp	r0, #52	; 0x34
    ac60:	979ff100 	ldrls	pc, [pc, r0, lsl #2]
    ac64:	ea0000ba 	b	af54 <chprintf+0x544>
    ac68:	0000afc8 	andeq	sl, r0, r8, asr #31
    ac6c:	0000af54 	andeq	sl, r0, r4, asr pc
    ac70:	0000af54 	andeq	sl, r0, r4, asr pc
    ac74:	0000af54 	andeq	sl, r0, r4, asr pc
    ac78:	0000af54 	andeq	sl, r0, r4, asr pc
    ac7c:	0000af54 	andeq	sl, r0, r4, asr pc
    ac80:	0000af54 	andeq	sl, r0, r4, asr pc
    ac84:	0000af54 	andeq	sl, r0, r4, asr pc
    ac88:	0000af54 	andeq	sl, r0, r4, asr pc
    ac8c:	0000af54 	andeq	sl, r0, r4, asr pc
    ac90:	0000af54 	andeq	sl, r0, r4, asr pc
    ac94:	0000afa8 	andeq	sl, r0, r8, lsr #31
    ac98:	0000af54 	andeq	sl, r0, r4, asr pc
    ac9c:	0000af54 	andeq	sl, r0, r4, asr pc
    aca0:	0000af54 	andeq	sl, r0, r4, asr pc
    aca4:	0000af54 	andeq	sl, r0, r4, asr pc
    aca8:	0000af54 	andeq	sl, r0, r4, asr pc
    acac:	0000af6c 	andeq	sl, r0, ip, ror #30
    acb0:	0000af54 	andeq	sl, r0, r4, asr pc
    acb4:	0000af54 	andeq	sl, r0, r4, asr pc
    acb8:	0000b00c 	andeq	fp, r0, ip
    acbc:	0000af54 	andeq	sl, r0, r4, asr pc
    acc0:	0000af54 	andeq	sl, r0, r4, asr pc
    acc4:	0000af54 	andeq	sl, r0, r4, asr pc
    acc8:	0000af54 	andeq	sl, r0, r4, asr pc
    accc:	0000af54 	andeq	sl, r0, r4, asr pc
    acd0:	0000af54 	andeq	sl, r0, r4, asr pc
    acd4:	0000af54 	andeq	sl, r0, r4, asr pc
    acd8:	0000af54 	andeq	sl, r0, r4, asr pc
    acdc:	0000af54 	andeq	sl, r0, r4, asr pc
    ace0:	0000af54 	andeq	sl, r0, r4, asr pc
    ace4:	0000af2c 	andeq	sl, r0, ip, lsr #30
    ace8:	0000afc8 	andeq	sl, r0, r8, asr #31
    acec:	0000af54 	andeq	sl, r0, r4, asr pc
    acf0:	0000addc 	ldrdeq	sl, [r0], -ip
    acf4:	0000af54 	andeq	sl, r0, r4, asr pc
    acf8:	0000af54 	andeq	sl, r0, r4, asr pc
    acfc:	0000af54 	andeq	sl, r0, r4, asr pc
    ad00:	0000af54 	andeq	sl, r0, r4, asr pc
    ad04:	0000af54 	andeq	sl, r0, r4, asr pc
    ad08:	0000af54 	andeq	sl, r0, r4, asr pc
    ad0c:	0000af54 	andeq	sl, r0, r4, asr pc
    ad10:	0000af54 	andeq	sl, r0, r4, asr pc
    ad14:	0000afa8 	andeq	sl, r0, r8, lsr #31
    ad18:	0000af54 	andeq	sl, r0, r4, asr pc
    ad1c:	0000af54 	andeq	sl, r0, r4, asr pc
    ad20:	0000af54 	andeq	sl, r0, r4, asr pc
    ad24:	0000ad3c 	andeq	sl, r0, ip, lsr sp
    ad28:	0000af54 	andeq	sl, r0, r4, asr pc
    ad2c:	0000af6c 	andeq	sl, r0, ip, ror #30
    ad30:	0000af54 	andeq	sl, r0, r4, asr pc
    ad34:	0000af54 	andeq	sl, r0, r4, asr pc
    ad38:	0000b00c 	andeq	fp, r0, ip
    ad3c:	e59d3014 	ldr	r3, [sp, #20]
    ad40:	e59f134c 	ldr	r1, [pc, #844]	; b094 <chprintf+0x684>
    ad44:	e593a000 	ldr	sl, [r3]
    ad48:	e2833004 	add	r3, r3, #4
    ad4c:	e35a0000 	cmp	sl, #0
    ad50:	01a0a001 	moveq	sl, r1
    ad54:	e3520000 	cmp	r2, #0
    ad58:	e58d3014 	str	r3, [sp, #20]
    ad5c:	e5da3000 	ldrb	r3, [sl]
    ad60:	0a0000b6 	beq	b040 <chprintf+0x630>
    ad64:	e3530000 	cmp	r3, #0
    ad68:	0a0000b7 	beq	b04c <chprintf+0x63c>
    ad6c:	e2422001 	sub	r2, r2, #1
    ad70:	e1a0000a 	mov	r0, sl
    ad74:	ea000001 	b	ad80 <chprintf+0x370>
    ad78:	e3720001 	cmn	r2, #1
    ad7c:	0a000003 	beq	ad90 <chprintf+0x380>
    ad80:	e5f03001 	ldrb	r3, [r0, #1]!
    ad84:	e2422001 	sub	r2, r2, #1
    ad88:	e3530000 	cmp	r3, #0
    ad8c:	1afffff9 	bne	ad78 <chprintf+0x368>
    ad90:	e06a0000 	rsb	r0, sl, r0
    ad94:	e0604004 	rsb	r4, r0, r4
    ad98:	e3590000 	cmp	r9, #0
    ad9c:	e2403001 	sub	r3, r0, #1
    ada0:	e3a07020 	mov	r7, #32
    ada4:	e1c44fc4 	bic	r4, r4, r4, asr #31
    ada8:	0a000045 	beq	aec4 <chprintf+0x4b4>
    adac:	e2539000 	subs	r9, r3, #0
    adb0:	aa000054 	bge	af08 <chprintf+0x4f8>
    adb4:	e3540000 	cmp	r4, #0
    adb8:	0affff1e 	beq	aa38 <chprintf+0x28>
    adbc:	e5963000 	ldr	r3, [r6]
    adc0:	e1a00006 	mov	r0, r6
    adc4:	e5933008 	ldr	r3, [r3, #8]
    adc8:	e1a01007 	mov	r1, r7
    adcc:	e12fff33 	blx	r3
    add0:	e2544001 	subs	r4, r4, #1
    add4:	1afffff8 	bne	adbc <chprintf+0x3ac>
    add8:	eaffff16 	b	aa38 <chprintf+0x28>
    addc:	e59d3014 	ldr	r3, [sp, #20]
    ade0:	e2833007 	add	r3, r3, #7
    ade4:	e3c33007 	bic	r3, r3, #7
    ade8:	e2832008 	add	r2, r3, #8
    adec:	e1c300d0 	ldrd	r0, [r3]
    adf0:	e58d2014 	str	r2, [sp, #20]
    adf4:	ebfff785 	bl	8c10 <__aeabi_d2f>
    adf8:	e3a01000 	mov	r1, #0
    adfc:	e1a0a000 	mov	sl, r0
    ae00:	ebfff7d7 	bl	8d64 <__aeabi_fcmplt>
    ae04:	e3500000 	cmp	r0, #0
    ae08:	13a0302d 	movne	r3, #45	; 0x2d
    ae0c:	01a03008 	moveq	r3, r8
    ae10:	128aa102 	addne	sl, sl, #-2147483648	; 0x80000000
    ae14:	15cd3018 	strbne	r3, [sp, #24]
    ae18:	e1a0000a 	mov	r0, sl
    ae1c:	128d3019 	addne	r3, sp, #25
    ae20:	e58d3008 	str	r3, [sp, #8]
    ae24:	ebfff7e9 	bl	8dd0 <__aeabi_f2iz>
    ae28:	e1a02000 	mov	r2, r0
    ae2c:	e59d3008 	ldr	r3, [sp, #8]
    ae30:	e1a01002 	mov	r1, r2
    ae34:	e1a00003 	mov	r0, r3
    ae38:	e58d2008 	str	r2, [sp, #8]
    ae3c:	e3a03000 	mov	r3, #0
    ae40:	e3a0200a 	mov	r2, #10
    ae44:	ebfffecd 	bl	a980 <long_to_string_with_divisor>
    ae48:	e3a0302e 	mov	r3, #46	; 0x2e
    ae4c:	e1a0c000 	mov	ip, r0
    ae50:	e1a0000a 	mov	r0, sl
    ae54:	e4cc3001 	strb	r3, [ip], #1
    ae58:	e58dc00c 	str	ip, [sp, #12]
    ae5c:	e58dc000 	str	ip, [sp]
    ae60:	ebfff5fc 	bl	8658 <__aeabi_f2d>
    ae64:	e1cd00f0 	strd	r0, [sp]
    ae68:	e59d0008 	ldr	r0, [sp, #8]
    ae6c:	ebfff5ef 	bl	8630 <__aeabi_i2d>
    ae70:	e1a02000 	mov	r2, r0
    ae74:	e1a03001 	mov	r3, r1
    ae78:	e1cd00d0 	ldrd	r0, [sp]
    ae7c:	ebfff51d 	bl	82f8 <__aeabi_dsub>
    ae80:	e3a02000 	mov	r2, #0
    ae84:	e59f320c 	ldr	r3, [pc, #524]	; b098 <chprintf+0x688>
    ae88:	ebfff620 	bl	8710 <__aeabi_dmul>
    ae8c:	ebfff747 	bl	8bb0 <__aeabi_d2iz>
    ae90:	e59dc00c 	ldr	ip, [sp, #12]
    ae94:	e1a01000 	mov	r1, r0
    ae98:	e59f31fc 	ldr	r3, [pc, #508]	; b09c <chprintf+0x68c>
    ae9c:	e1a0000c 	mov	r0, ip
    aea0:	e3a0200a 	mov	r2, #10
    aea4:	ebfffeb5 	bl	a980 <long_to_string_with_divisor>
    aea8:	e1a0a008 	mov	sl, r8
    aeac:	e0680000 	rsb	r0, r8, r0
    aeb0:	e2403001 	sub	r3, r0, #1
    aeb4:	e0604004 	rsb	r4, r0, r4
    aeb8:	e3590000 	cmp	r9, #0
    aebc:	e1c44fc4 	bic	r4, r4, r4, asr #31
    aec0:	1affffb9 	bne	adac <chprintf+0x39c>
    aec4:	e2644000 	rsb	r4, r4, #0
    aec8:	e3540000 	cmp	r4, #0
    aecc:	0a00004b 	beq	b000 <chprintf+0x5f0>
    aed0:	e5da2000 	ldrb	r2, [sl]
    aed4:	e352002d 	cmp	r2, #45	; 0x2d
    aed8:	03570030 	cmpeq	r7, #48	; 0x30
    aedc:	11a09003 	movne	r9, r3
    aee0:	0a000063 	beq	b074 <chprintf+0x664>
    aee4:	e5963000 	ldr	r3, [r6]
    aee8:	e1a00006 	mov	r0, r6
    aeec:	e5933008 	ldr	r3, [r3, #8]
    aef0:	e1a01007 	mov	r1, r7
    aef4:	e12fff33 	blx	r3
    aef8:	e2944001 	adds	r4, r4, #1
    aefc:	1afffff8 	bne	aee4 <chprintf+0x4d4>
    af00:	e3590000 	cmp	r9, #0
    af04:	bafffecb 	blt	aa38 <chprintf+0x28>
    af08:	e5963000 	ldr	r3, [r6]
    af0c:	e2499001 	sub	r9, r9, #1
    af10:	e5933008 	ldr	r3, [r3, #8]
    af14:	e1a00006 	mov	r0, r6
    af18:	e4da1001 	ldrb	r1, [sl], #1
    af1c:	e12fff33 	blx	r3
    af20:	e3790001 	cmn	r9, #1
    af24:	1afffff7 	bne	af08 <chprintf+0x4f8>
    af28:	eaffffa1 	b	adb4 <chprintf+0x3a4>
    af2c:	e59d3014 	ldr	r3, [sp, #20]
    af30:	e1a0000b 	mov	r0, fp
    af34:	e5932000 	ldr	r2, [r3]
    af38:	e2833004 	add	r3, r3, #4
    af3c:	e58d3014 	str	r3, [sp, #20]
    af40:	e5cd2018 	strb	r2, [sp, #24]
    af44:	e24b3001 	sub	r3, fp, #1
    af48:	e3a07020 	mov	r7, #32
    af4c:	e1a0a008 	mov	sl, r8
    af50:	eaffffd7 	b	aeb4 <chprintf+0x4a4>
    af54:	e1a0000b 	mov	r0, fp
    af58:	e1a0a008 	mov	sl, r8
    af5c:	e5cd1018 	strb	r1, [sp, #24]
    af60:	e24b3001 	sub	r3, fp, #1
    af64:	eaffffd2 	b	aeb4 <chprintf+0x4a4>
    af68:	e3a0c001 	mov	ip, #1
    af6c:	e3a0200a 	mov	r2, #10
    af70:	e35c0000 	cmp	ip, #0
    af74:	1a00000e 	bne	afb4 <chprintf+0x5a4>
    af78:	e59d3014 	ldr	r3, [sp, #20]
    af7c:	e2830004 	add	r0, r3, #4
    af80:	e5931000 	ldr	r1, [r3]
    af84:	e58d0014 	str	r0, [sp, #20]
    af88:	e1a00008 	mov	r0, r8
    af8c:	e3a03000 	mov	r3, #0
    af90:	ebfffe7a 	bl	a980 <long_to_string_with_divisor>
    af94:	e0680000 	rsb	r0, r8, r0
    af98:	e2403001 	sub	r3, r0, #1
    af9c:	e1a0a008 	mov	sl, r8
    afa0:	eaffffc3 	b	aeb4 <chprintf+0x4a4>
    afa4:	e3a0c001 	mov	ip, #1
    afa8:	e35c0000 	cmp	ip, #0
    afac:	e3a02008 	mov	r2, #8
    afb0:	0afffff0 	beq	af78 <chprintf+0x568>
    afb4:	e59d3014 	ldr	r3, [sp, #20]
    afb8:	e2831004 	add	r1, r3, #4
    afbc:	e58d1014 	str	r1, [sp, #20]
    afc0:	e5931000 	ldr	r1, [r3]
    afc4:	eaffffef 	b	af88 <chprintf+0x578>
    afc8:	e3530000 	cmp	r3, #0
    afcc:	0a000016 	beq	b02c <chprintf+0x61c>
    afd0:	e59d3014 	ldr	r3, [sp, #20]
    afd4:	e2832004 	add	r2, r3, #4
    afd8:	e5931000 	ldr	r1, [r3]
    afdc:	e58d2014 	str	r2, [sp, #20]
    afe0:	e3510000 	cmp	r1, #0
    afe4:	b3a0302d 	movlt	r3, #45	; 0x2d
    afe8:	b2611000 	rsblt	r1, r1, #0
    afec:	b5cd3018 	strblt	r3, [sp, #24]
    aff0:	b28d0019 	addlt	r0, sp, #25
    aff4:	a1a00008 	movge	r0, r8
    aff8:	e3a0200a 	mov	r2, #10
    affc:	eaffffe2 	b	af8c <chprintf+0x57c>
    b000:	e2539000 	subs	r9, r3, #0
    b004:	aaffffbf 	bge	af08 <chprintf+0x4f8>
    b008:	eafffe8a 	b	aa38 <chprintf+0x28>
    b00c:	e3a02010 	mov	r2, #16
    b010:	eaffffd6 	b	af70 <chprintf+0x560>
    b014:	e59d3014 	ldr	r3, [sp, #20]
    b018:	e3a02010 	mov	r2, #16
    b01c:	e2831004 	add	r1, r3, #4
    b020:	e58d1014 	str	r1, [sp, #20]
    b024:	e5931000 	ldr	r1, [r3]
    b028:	eaffffd6 	b	af88 <chprintf+0x578>
    b02c:	e59d3014 	ldr	r3, [sp, #20]
    b030:	e2832004 	add	r2, r3, #4
    b034:	e5931000 	ldr	r1, [r3]
    b038:	e58d2014 	str	r2, [sp, #20]
    b03c:	eaffffe7 	b	afe0 <chprintf+0x5d0>
    b040:	e3530000 	cmp	r3, #0
    b044:	159f2054 	ldrne	r2, [pc, #84]	; b0a0 <chprintf+0x690>
    b048:	1affff48 	bne	ad70 <chprintf+0x360>
    b04c:	e3590000 	cmp	r9, #0
    b050:	e1c44fc4 	bic	r4, r4, r4, asr #31
    b054:	13a07020 	movne	r7, #32
    b058:	1affff55 	bne	adb4 <chprintf+0x3a4>
    b05c:	e2644000 	rsb	r4, r4, #0
    b060:	e3540000 	cmp	r4, #0
    b064:	e3a07020 	mov	r7, #32
    b068:	13e09000 	mvnne	r9, #0
    b06c:	1affff9c 	bne	aee4 <chprintf+0x4d4>
    b070:	eafffe70 	b	aa38 <chprintf+0x28>
    b074:	e5962000 	ldr	r2, [r6]
    b078:	e1a00006 	mov	r0, r6
    b07c:	e5922008 	ldr	r2, [r2, #8]
    b080:	e3a0102d 	mov	r1, #45	; 0x2d
    b084:	e28aa001 	add	sl, sl, #1
    b088:	e2439001 	sub	r9, r3, #1
    b08c:	e12fff32 	blx	r2
    b090:	eaffff93 	b	aee4 <chprintf+0x4d4>
    b094:	0000b2e0 	andeq	fp, r0, r0, ror #5
    b098:	40f86a00 	rscsmi	r6, r8, r0, lsl #20
    b09c:	00002710 	andeq	r2, r0, r0, lsl r7
    b0a0:	00007ffe 	strdeq	r7, [r0], -lr
	...

0000b0b0 <Thread_LCD>:
    b0b0:	e92d4010 	push	{r4, lr}
    b0b4:	e3a04000 	mov	r4, #0
    b0b8:	e59f309c 	ldr	r3, [pc, #156]	; b15c <Thread_LCD+0xac>
    b0bc:	e59f209c 	ldr	r2, [pc, #156]	; b160 <Thread_LCD+0xb0>
    b0c0:	e5933018 	ldr	r3, [r3, #24]
    b0c4:	e5832018 	str	r2, [r3, #24]
    b0c8:	e3a0107c 	mov	r1, #124	; 0x7c
    b0cc:	e3e02000 	mvn	r2, #0
    b0d0:	e59f008c 	ldr	r0, [pc, #140]	; b164 <Thread_LCD+0xb4>
    b0d4:	ebfffad1 	bl	9c20 <chOQPutTimeout>
    b0d8:	e3a01018 	mov	r1, #24
    b0dc:	e3e02000 	mvn	r2, #0
    b0e0:	e59f007c 	ldr	r0, [pc, #124]	; b164 <Thread_LCD+0xb4>
    b0e4:	ebfffacd 	bl	9c20 <chOQPutTimeout>
    b0e8:	e3a01020 	mov	r1, #32
    b0ec:	e3e02000 	mvn	r2, #0
    b0f0:	e59f006c 	ldr	r0, [pc, #108]	; b164 <Thread_LCD+0xb4>
    b0f4:	ebfffac9 	bl	9c20 <chOQPutTimeout>
    b0f8:	e3a0000a 	mov	r0, #10
    b0fc:	ebfff913 	bl	9550 <chThdSleep>
    b100:	e3a0107c 	mov	r1, #124	; 0x7c
    b104:	e3e02000 	mvn	r2, #0
    b108:	e59f0054 	ldr	r0, [pc, #84]	; b164 <Thread_LCD+0xb4>
    b10c:	ebfffac3 	bl	9c20 <chOQPutTimeout>
    b110:	e3a01019 	mov	r1, #25
    b114:	e3e02000 	mvn	r2, #0
    b118:	e59f0044 	ldr	r0, [pc, #68]	; b164 <Thread_LCD+0xb4>
    b11c:	ebfffabf 	bl	9c20 <chOQPutTimeout>
    b120:	e3a01020 	mov	r1, #32
    b124:	e3e02000 	mvn	r2, #0
    b128:	e59f0034 	ldr	r0, [pc, #52]	; b164 <Thread_LCD+0xb4>
    b12c:	ebfffabb 	bl	9c20 <chOQPutTimeout>
    b130:	e3a0000a 	mov	r0, #10
    b134:	ebfff905 	bl	9550 <chThdSleep>
    b138:	e1a02004 	mov	r2, r4
    b13c:	e59f0024 	ldr	r0, [pc, #36]	; b168 <Thread_LCD+0xb8>
    b140:	e59f1024 	ldr	r1, [pc, #36]	; b16c <Thread_LCD+0xbc>
    b144:	ebfffe31 	bl	aa10 <chprintf>
    b148:	e2844001 	add	r4, r4, #1
    b14c:	e3a00e7d 	mov	r0, #2000	; 0x7d0
    b150:	e6ff4074 	uxth	r4, r4
    b154:	ebfff8fd 	bl	9550 <chThdSleep>
    b158:	eaffffda 	b	b0c8 <Thread_LCD+0x18>
    b15c:	0000b560 	andeq	fp, r0, r0, ror #10
    b160:	0000b2f0 	strdeq	fp, [r0], -r0
    b164:	0000b5dc 	ldrdeq	fp, [r0], -ip
    b168:	0000b5ac 	andeq	fp, r0, ip, lsr #11
    b16c:	0000b2fc 	strdeq	fp, [r0], -ip

0000b170 <main>:
    b170:	e92d4070 	push	{r4, r5, r6, lr}
    b174:	e3a06000 	mov	r6, #0
    b178:	e24dd020 	sub	sp, sp, #32
    b17c:	ebfffb77 	bl	9f60 <halInit>
    b180:	ebfff732 	bl	8e50 <chSysInit>
    b184:	e59fe0dc 	ldr	lr, [pc, #220]	; b268 <main+0xf8>
    b188:	e28dc00c 	add	ip, sp, #12
    b18c:	e8be000f 	ldm	lr!, {r0, r1, r2, r3}
    b190:	e8ac000f 	stmia	ip!, {r0, r1, r2, r3}
    b194:	e59f50d0 	ldr	r5, [pc, #208]	; b26c <main+0xfc>
    b198:	e59e3000 	ldr	r3, [lr]
    b19c:	e1a00005 	mov	r0, r5
    b1a0:	e1a01006 	mov	r1, r6
    b1a4:	e1cc30b0 	strh	r3, [ip]
    b1a8:	e2854030 	add	r4, r5, #48	; 0x30
    b1ac:	ebfffbbf 	bl	a0b0 <sdStart>
    b1b0:	e1a00005 	mov	r0, r5
    b1b4:	e59f10b4 	ldr	r1, [pc, #180]	; b270 <main+0x100>
    b1b8:	ebfffe14 	bl	aa10 <chprintf>
    b1bc:	e1a00004 	mov	r0, r4
    b1c0:	e3a0107c 	mov	r1, #124	; 0x7c
    b1c4:	e3e02000 	mvn	r2, #0
    b1c8:	ebfffa94 	bl	9c20 <chOQPutTimeout>
    b1cc:	e1a00004 	mov	r0, r4
    b1d0:	e3a01018 	mov	r1, #24
    b1d4:	e3e02000 	mvn	r2, #0
    b1d8:	ebfffa90 	bl	9c20 <chOQPutTimeout>
    b1dc:	e1a01006 	mov	r1, r6
    b1e0:	e3e02000 	mvn	r2, #0
    b1e4:	e1a00004 	mov	r0, r4
    b1e8:	ebfffa8c 	bl	9c20 <chOQPutTimeout>
    b1ec:	e3a0000a 	mov	r0, #10
    b1f0:	ebfff8d6 	bl	9550 <chThdSleep>
    b1f4:	e1a00004 	mov	r0, r4
    b1f8:	e3a0107c 	mov	r1, #124	; 0x7c
    b1fc:	e3e02000 	mvn	r2, #0
    b200:	ebfffa86 	bl	9c20 <chOQPutTimeout>
    b204:	e1a00004 	mov	r0, r4
    b208:	e3a01019 	mov	r1, #25
    b20c:	e3e02000 	mvn	r2, #0
    b210:	ebfffa82 	bl	9c20 <chOQPutTimeout>
    b214:	e3e02000 	mvn	r2, #0
    b218:	e3a0100a 	mov	r1, #10
    b21c:	e1a00004 	mov	r0, r4
    b220:	ebfffa7e 	bl	9c20 <chOQPutTimeout>
    b224:	e3a0000a 	mov	r0, #10
    b228:	ebfff8c8 	bl	9550 <chThdSleep>
    b22c:	e1a00005 	mov	r0, r5
    b230:	e28d100c 	add	r1, sp, #12
    b234:	ebfffdf5 	bl	aa10 <chprintf>
    b238:	e3a01f46 	mov	r1, #280	; 0x118
    b23c:	e3a0207f 	mov	r2, #127	; 0x7f
    b240:	e58d6000 	str	r6, [sp]
    b244:	e59f3028 	ldr	r3, [pc, #40]	; b274 <main+0x104>
    b248:	e59f0028 	ldr	r0, [pc, #40]	; b278 <main+0x108>
    b24c:	ebfff893 	bl	94a0 <chThdCreateStatic>
    b250:	e59f3024 	ldr	r3, [pc, #36]	; b27c <main+0x10c>
    b254:	e5930018 	ldr	r0, [r3, #24]
    b258:	ebfff8e4 	bl	95f0 <chThdWait>
    b25c:	e1a00006 	mov	r0, r6
    b260:	e28dd020 	add	sp, sp, #32
    b264:	e8bd8070 	pop	{r4, r5, r6, pc}
    b268:	0000b31c 	andeq	fp, r0, ip, lsl r3
    b26c:	0000b5ac 	andeq	fp, r0, ip, lsr #11
    b270:	0000b308 	andeq	fp, r0, r8, lsl #6
    b274:	0000b0b0 	strheq	fp, [r0], -r0
    b278:	0000b39c 	muleq	r0, ip, r3
    b27c:	0000b560 	andeq	fp, r0, r0, ror #10
    b280:	656c6469 	strbvs	r6, [ip, #-1129]!	; 0x469
	...

0000b290 <ch_debug>:
    b290:	6e69616d 	powvsez	f6, f1, #5.0
    b294:	11411600 	cmpne	r1, r0, lsl #12
    b298:	08440404 	stmdaeq	r4, {r2, sl}^
    b29c:	1814100c 	ldmdane	r4, {r2, r3, ip}
    b2a0:	1e1d1c00 	cdpne	12, 1, cr1, cr13, cr0, {0}
    b2a4:	0000201f 	andeq	r2, r0, pc, lsl r0
	...

0000b2b0 <vmt>:
    b2b0:	00009ff0 	strdeq	r9, [r0], -r0
    b2b4:	00009fd0 	ldrdeq	r9, [r0], -r0
    b2b8:	0000a030 	andeq	sl, r0, r0, lsr r0
    b2bc:	0000a010 	andeq	sl, r0, r0, lsl r0
    b2c0:	0000a020 	andeq	sl, r0, r0, lsr #32
    b2c4:	0000a000 	andeq	sl, r0, r0
    b2c8:	00009fe0 	andeq	r9, r0, r0, ror #31
    b2cc:	00009fc0 	andeq	r9, r0, r0, asr #31

0000b2d0 <default_config>:
    b2d0:	0001c200 	andeq	ip, r1, r0, lsl #4
	...

0000b2e0 <pal_default_config>:
    b2e0:	6c756e28 	ldclvs	14, cr6, [r5], #-160	; 0xffffff60
    b2e4:	0000296c 	andeq	r2, r0, ip, ror #18
	...
    b2f0:	69726553 	ldmdbvs	r2!, {r0, r1, r4, r6, r8, sl, sp, lr}^
    b2f4:	72506c61 	subsvc	r6, r0, #24832	; 0x6100
    b2f8:	00746e69 	rsbseq	r6, r4, r9, ror #28
    b2fc:	72657449 	rsbvc	r7, r5, #1224736768	; 0x49000000
    b300:	25203a2e 	strcs	r3, [r0, #-2606]!	; 0xa2e
    b304:	00000075 	andeq	r0, r0, r5, ror r0
    b308:	6e69614d 	powvsem	f6, f1, #5.0
    b30c:	44532820 	ldrbmi	r2, [r3], #-2080	; 0x820
    b310:	74732031 	ldrbtvc	r2, [r3], #-49	; 0x31
    b314:	65747261 	ldrbvs	r7, [r4, #-609]!	; 0x261
    b318:	00002964 	andeq	r2, r0, r4, ror #18
    b31c:	6c6c6548 	cfstr64vs	mvdx6, [ip], #-288	; 0xfffffee0
    b320:	6843206f 	stmdavs	r3, {r0, r1, r2, r3, r5, r6, sp}^
    b324:	2d696269 	sfmcs	f6, 2, [r9, #-420]!	; 0xfffffe5c
    b328:	6c726f57 	ldclvs	15, cr6, [r2], #-348	; 0xfffffea4
    b32c:	00000064 	andeq	r0, r0, r4, rrx
