ARM GAS  /var/folders/l5/0x54b2c10074c8bt31ycjvl80000gp/T//ccbiey8U.s 			page 1


   1              		.file	"i2c_lld.c"
   2              		.text
   3              	.Ltext0:
   4              		.cfi_sections	.debug_frame
   5              		.section	.text.i2c_lld_safety_timeout,"ax",%progbits
   6              		.align	2
   7              		.arch armv6kz
   8              		.syntax unified
   9              		.arm
  10              		.fpu softvfp
  11              		.type	i2c_lld_safety_timeout, %function
  12              	i2c_lld_safety_timeout:
  13              	.LVL0:
  14              	.LFB7:
  15              		.file 1 "../../../os/hal/platforms/BCM2835/i2c_lld.c"
  16              		.loc 1 78 45 view -0
  17              		.cfi_startproc
  18              		@ args = 0, pretend = 0, frame = 0
  19              		@ frame_needed = 0, uses_anonymous_args = 0
  20              		.loc 1 79 3 view .LVU1
  21              		.loc 1 80 3 view .LVU2
  22              		.loc 1 80 3 view .LVU3
  23              		.loc 1 80 21 view .LVU4
  24              		.loc 1 81 3 view .LVU5
  25              		.loc 1 81 11 is_stmt 0 view .LVU6
  26 0000 201090E5 		ldr	r1, [r0, #32]
  27              		.loc 1 81 6 view .LVU7
  28 0004 000051E3 		cmp	r1, #0
  29 0008 1EFF2F01 		bxeq	lr
  30              	.LBB2:
  31              		.loc 1 82 5 is_stmt 1 view .LVU8
  32 000c 0030A0E1 		mov	r3, r0
  33              		.loc 1 82 18 is_stmt 0 view .LVU9
  34 0010 0C2090E5 		ldr	r2, [r0, #12]
  35              	.LVL1:
  36              		.loc 1 84 5 is_stmt 1 view .LVU10
  37              		.loc 1 84 18 is_stmt 0 view .LVU11
  38 0014 080090E5 		ldr	r0, [r0, #8]
  39              	.LVL2:
  40              		.loc 1 84 18 view .LVU12
  41              	.LBE2:
  42              		.loc 1 78 45 view .LVU13
  43 0018 04E02DE5 		str	lr, [sp, #-4]!
  44              		.cfi_def_cfa_offset 4
  45              		.cfi_offset 14, -4
  46              	.LBB3:
  47              		.loc 1 85 15 view .LVU14
  48 001c 04E092E5 		ldr	lr, [r2, #4]
  49              		.loc 1 84 18 view .LVU15
  50 0020 20C080E3 		orr	ip, r0, #32
  51 0024 08C083E5 		str	ip, [r3, #8]
  52              		.loc 1 85 5 is_stmt 1 view .LVU16
  53              		.loc 1 86 7 view .LVU17
  54              		.loc 1 87 5 view .LVU18
  55              		.loc 1 85 8 is_stmt 0 view .LVU19
  56 0028 020C1EE3 		tst	lr, #512
  57              		.loc 1 90 21 view .LVU20
ARM GAS  /var/folders/l5/0x54b2c10074c8bt31ycjvl80000gp/T//ccbiey8U.s 			page 2


  58 002c 00C0A0E3 		mov	ip, #0
  59              		.loc 1 95 20 view .LVU21
  60 0030 00E0E0E3 		mvn	lr, #0
  61              		.loc 1 86 20 view .LVU22
  62 0034 21008013 		orrne	r0, r0, #33
  63 0038 08008315 		strne	r0, [r3, #8]
  64              		.loc 1 87 15 view .LVU23
  65 003c 040092E5 		ldr	r0, [r2, #4]
  66              		.loc 1 87 8 view .LVU24
  67 0040 010C10E3 		tst	r0, #256
  68              		.loc 1 88 7 is_stmt 1 view .LVU25
  69              		.loc 1 88 20 is_stmt 0 view .LVU26
  70 0044 08009315 		ldrne	r0, [r3, #8]
  71 0048 04008013 		orrne	r0, r0, #4
  72 004c 08008315 		strne	r0, [r3, #8]
  73              		.loc 1 90 5 is_stmt 1 view .LVU27
  74              		.loc 1 91 20 is_stmt 0 view .LVU28
  75 0050 18009FE5 		ldr	r0, .L15
  76              		.loc 1 90 21 view .LVU29
  77 0054 00C082E5 		str	ip, [r2]
  78              		.loc 1 91 5 is_stmt 1 view .LVU30
  79              		.loc 1 91 20 is_stmt 0 view .LVU31
  80 0058 040082E5 		str	r0, [r2, #4]
  81              		.loc 1 93 5 is_stmt 1 view .LVU32
  82              	.LVL3:
  83              		.loc 1 94 5 view .LVU33
  84              		.loc 1 94 18 is_stmt 0 view .LVU34
  85 005c 20C083E5 		str	ip, [r3, #32]
  86              		.loc 1 95 5 is_stmt 1 view .LVU35
  87              		.loc 1 96 5 is_stmt 0 view .LVU36
  88 0060 0100A0E1 		mov	r0, r1
  89              		.loc 1 95 20 view .LVU37
  90 0064 14E081E5 		str	lr, [r1, #20]
  91              		.loc 1 96 5 is_stmt 1 view .LVU38
  92              	.LBE3:
  93              		.loc 1 99 1 is_stmt 0 view .LVU39
  94 0068 04E09DE4 		ldr	lr, [sp], #4
  95              		.cfi_restore 14
  96              		.cfi_def_cfa_offset 0
  97              	.LBB4:
  98              		.loc 1 96 5 view .LVU40
  99 006c FEFFFFEA 		b	chSchReadyI
 100              	.LVL4:
 101              	.L16:
 102              		.loc 1 96 5 view .LVU41
 103              		.align	2
 104              	.L15:
 105 0070 02030000 		.word	770
 106              	.LBE4:
 107              		.cfi_endproc
 108              	.LFE7:
 109              		.size	i2c_lld_safety_timeout, .-i2c_lld_safety_timeout
 110              		.section	.text.i2c_lld_serve_interrupt,"ax",%progbits
 111              		.align	2
 112              		.global	i2c_lld_serve_interrupt
 113              		.syntax unified
 114              		.arm
ARM GAS  /var/folders/l5/0x54b2c10074c8bt31ycjvl80000gp/T//ccbiey8U.s 			page 3


 115              		.fpu softvfp
 116              		.type	i2c_lld_serve_interrupt, %function
 117              	i2c_lld_serve_interrupt:
 118              	.LVL5:
 119              	.LFB8:
 120              		.loc 1 105 47 is_stmt 1 view -0
 121              		.cfi_startproc
 122              		@ args = 0, pretend = 0, frame = 0
 123              		@ frame_needed = 0, uses_anonymous_args = 0
 124              		.loc 1 106 3 view .LVU43
 125              		.loc 1 107 3 view .LVU44
 126              		.loc 1 107 16 is_stmt 0 view .LVU45
 127 0000 0C2090E5 		ldr	r2, [r0, #12]
 128              	.LVL6:
 129              		.loc 1 108 3 is_stmt 1 view .LVU46
 130              		.loc 1 108 12 is_stmt 0 view .LVU47
 131 0004 041092E5 		ldr	r1, [r2, #4]
 132              	.LVL7:
 133              		.loc 1 110 3 is_stmt 1 view .LVU48
 134              		.loc 1 110 6 is_stmt 0 view .LVU49
 135 0008 030C11E3 		tst	r1, #768
 136 000c 0800000A 		beq	.L18
 137              		.loc 1 112 5 is_stmt 1 view .LVU50
 138              		.loc 1 112 5 view .LVU51
 139              		.loc 1 112 5 view .LVU52
 140              		.loc 1 112 5 view .LVU53
 141 0010 203090E5 		ldr	r3, [r0, #32]
 142 0014 000053E3 		cmp	r3, #0
 143 0018 1EFF2F01 		bxeq	lr
 144              	.LBB5:
 145              		.loc 1 112 5 discriminator 1 view .LVU54
 146              	.LVL8:
 147              		.loc 1 112 5 discriminator 1 view .LVU55
 148 001c 0010A0E3 		mov	r1, #0
 149              	.LVL9:
 150              		.loc 1 112 5 is_stmt 0 discriminator 1 view .LVU56
 151 0020 0120E0E3 		mvn	r2, #1
 152              	.LVL10:
 153              		.loc 1 112 5 discriminator 1 view .LVU57
 154 0024 201080E5 		str	r1, [r0, #32]
 155              		.loc 1 112 5 is_stmt 1 discriminator 1 view .LVU58
 156 0028 0300A0E1 		mov	r0, r3
 157              	.LVL11:
 158              		.loc 1 112 5 is_stmt 0 discriminator 1 view .LVU59
 159 002c 142083E5 		str	r2, [r3, #20]
 160              		.loc 1 112 5 is_stmt 1 discriminator 1 view .LVU60
 161 0030 FEFFFFEA 		b	chSchReadyI
 162              	.LVL12:
 163              	.L18:
 164              		.loc 1 112 5 is_stmt 0 discriminator 1 view .LVU61
 165              	.LBE5:
 166              		.loc 1 114 8 is_stmt 1 view .LVU62
 167              		.loc 1 114 11 is_stmt 0 view .LVU63
 168 0034 020011E3 		tst	r1, #2
 169              		.loc 1 105 47 view .LVU64
 170 0038 04E02DE5 		str	lr, [sp, #-4]!
 171              		.cfi_def_cfa_offset 4
ARM GAS  /var/folders/l5/0x54b2c10074c8bt31ycjvl80000gp/T//ccbiey8U.s 			page 4


 172              		.cfi_offset 14, -4
 173              		.loc 1 114 11 view .LVU65
 174 003c 1A00000A 		beq	.L20
 175              		.loc 1 115 11 view .LVU66
 176 0040 200011E3 		tst	r1, #32
 177 0044 0C00000A 		beq	.L21
 178              		.loc 1 115 39 view .LVU67
 179 0048 3C3090E5 		ldr	r3, [r0, #60]
 180              		.loc 1 115 31 view .LVU68
 181 004c 381090E5 		ldr	r1, [r0, #56]
 182              	.LVL13:
 183              		.loc 1 115 31 view .LVU69
 184 0050 030051E1 		cmp	r1, r3
 185 0054 0800009A 		bls	.L21
 186              	.L22:
 187              		.loc 1 116 7 is_stmt 1 view .LVU70
 188              		.loc 1 116 42 is_stmt 0 view .LVU71
 189 0058 10C092E5 		ldr	ip, [r2, #16]
 190              		.loc 1 116 11 view .LVU72
 191 005c 341090E5 		ldr	r1, [r0, #52]
 192              		.loc 1 116 30 view .LVU73
 193 0060 01E083E2 		add	lr, r3, #1
 194 0064 3CE080E5 		str	lr, [r0, #60]
 195              		.loc 1 116 34 view .LVU74
 196 0068 03C0C1E7 		strb	ip, [r1, r3]
 197              		.loc 1 115 39 view .LVU75
 198 006c 3C3090E5 		ldr	r3, [r0, #60]
 199              		.loc 1 115 31 view .LVU76
 200 0070 381090E5 		ldr	r1, [r0, #56]
 201 0074 010053E1 		cmp	r3, r1
 202 0078 F6FFFF3A 		bcc	.L22
 203              	.L21:
 204              		.loc 1 117 5 is_stmt 1 view .LVU77
 205              		.loc 1 117 21 is_stmt 0 view .LVU78
 206 007c 0010A0E3 		mov	r1, #0
 207              		.loc 1 119 5 view .LVU79
 208 0080 203090E5 		ldr	r3, [r0, #32]
 209              		.loc 1 118 20 view .LVU80
 210 0084 BCC09FE5 		ldr	ip, .L51
 211              		.loc 1 119 5 view .LVU81
 212 0088 010053E1 		cmp	r3, r1
 213              		.loc 1 117 21 view .LVU82
 214 008c 001082E5 		str	r1, [r2]
 215              		.loc 1 118 5 is_stmt 1 view .LVU83
 216              		.loc 1 118 20 is_stmt 0 view .LVU84
 217 0090 04C082E5 		str	ip, [r2, #4]
 218              		.loc 1 119 5 is_stmt 1 view .LVU85
 219              		.loc 1 119 5 view .LVU86
 220              		.loc 1 119 5 view .LVU87
 221              		.loc 1 119 5 view .LVU88
 222 0094 04F09D04 		ldreq	pc, [sp], #4
 223              	.LBB6:
 224              		.loc 1 119 5 discriminator 1 view .LVU89
 225              	.LVL14:
 226              		.loc 1 119 5 discriminator 1 view .LVU90
 227 0098 201080E5 		str	r1, [r0, #32]
 228              		.loc 1 119 5 discriminator 1 view .LVU91
ARM GAS  /var/folders/l5/0x54b2c10074c8bt31ycjvl80000gp/T//ccbiey8U.s 			page 5


 229              	.LBE6:
 230              		.loc 1 129 1 is_stmt 0 discriminator 1 view .LVU92
 231 009c 04E09DE4 		ldr	lr, [sp], #4
 232              		.cfi_remember_state
 233              		.cfi_restore 14
 234              		.cfi_def_cfa_offset 0
 235              	.LBB7:
 236              		.loc 1 119 5 discriminator 1 view .LVU93
 237 00a0 0300A0E1 		mov	r0, r3
 238              	.LVL15:
 239              		.loc 1 119 5 discriminator 1 view .LVU94
 240 00a4 141083E5 		str	r1, [r3, #20]
 241              		.loc 1 119 5 is_stmt 1 discriminator 1 view .LVU95
 242 00a8 FEFFFFEA 		b	chSchReadyI
 243              	.LVL16:
 244              	.L20:
 245              		.cfi_restore_state
 246              		.loc 1 119 5 is_stmt 0 discriminator 1 view .LVU96
 247              	.LBE7:
 248              		.loc 1 121 8 is_stmt 1 view .LVU97
 249              		.loc 1 121 11 is_stmt 0 view .LVU98
 250 00ac 040011E3 		tst	r1, #4
 251 00b0 1200000A 		beq	.L23
 252              		.loc 1 122 17 view .LVU99
 253 00b4 303090E5 		ldr	r3, [r0, #48]
 254              		.loc 1 122 31 view .LVU100
 255 00b8 2CC090E5 		ldr	ip, [r0, #44]
 256              		.loc 1 122 11 view .LVU101
 257 00bc 0C0053E1 		cmp	r3, ip
 258 00c0 04F09D24 		ldrcs	pc, [sp], #4
 259              		.loc 1 122 42 view .LVU102
 260 00c4 100011E3 		tst	r1, #16
 261 00c8 04F09D04 		ldreq	pc, [sp], #4
 262              		.loc 1 123 30 view .LVU103
 263 00cc 28E090E5 		ldr	lr, [r0, #40]
 264 00d0 013043E2 		sub	r3, r3, #1
 265 00d4 01C04CE2 		sub	ip, ip, #1
 266 00d8 03308EE0 		add	r3, lr, r3
 267 00dc 0CC08EE0 		add	ip, lr, ip
 268 00e0 02E06EE2 		rsb	lr, lr, #2
 269              	.LVL17:
 270              	.L24:
 271              		.loc 1 123 7 is_stmt 1 view .LVU104
 272              		.loc 1 123 49 is_stmt 0 view .LVU105
 273 00e4 03108EE0 		add	r1, lr, r3
 274 00e8 301080E5 		str	r1, [r0, #48]
 275              		.loc 1 123 37 view .LVU106
 276 00ec 0110F3E5 		ldrb	r1, [r3, #1]!	@ zero_extendqisi2
 277              		.loc 1 122 11 view .LVU107
 278 00f0 0C0053E1 		cmp	r3, ip
 279              		.loc 1 123 24 view .LVU108
 280 00f4 101082E5 		str	r1, [r2, #16]
 281              		.loc 1 122 11 view .LVU109
 282 00f8 F9FFFF1A 		bne	.L24
 283 00fc 04F09DE4 		ldr	pc, [sp], #4
 284              	.LVL18:
 285              	.L23:
ARM GAS  /var/folders/l5/0x54b2c10074c8bt31ycjvl80000gp/T//ccbiey8U.s 			page 6


 286              		.loc 1 125 8 is_stmt 1 view .LVU110
 287              		.loc 1 125 11 is_stmt 0 view .LVU111
 288 0100 080011E3 		tst	r1, #8
 289 0104 04F09D04 		ldreq	pc, [sp], #4
 290              		.loc 1 126 17 view .LVU112
 291 0108 3C3090E5 		ldr	r3, [r0, #60]
 292              		.loc 1 126 11 view .LVU113
 293 010c 38C090E5 		ldr	ip, [r0, #56]
 294 0110 03005CE1 		cmp	ip, r3
 295 0114 04F09D94 		ldrls	pc, [sp], #4
 296              		.loc 1 126 42 view .LVU114
 297 0118 200011E3 		tst	r1, #32
 298 011c 04F09D04 		ldreq	pc, [sp], #4
 299              	.LVL19:
 300              	.L25:
 301              		.loc 1 127 7 is_stmt 1 view .LVU115
 302              		.loc 1 127 42 is_stmt 0 view .LVU116
 303 0120 10C092E5 		ldr	ip, [r2, #16]
 304              		.loc 1 127 11 view .LVU117
 305 0124 341090E5 		ldr	r1, [r0, #52]
 306              		.loc 1 127 30 view .LVU118
 307 0128 01E083E2 		add	lr, r3, #1
 308 012c 3CE080E5 		str	lr, [r0, #60]
 309              		.loc 1 127 34 view .LVU119
 310 0130 03C0C1E7 		strb	ip, [r1, r3]
 311              		.loc 1 126 17 view .LVU120
 312 0134 3C3090E5 		ldr	r3, [r0, #60]
 313              		.loc 1 126 11 view .LVU121
 314 0138 381090E5 		ldr	r1, [r0, #56]
 315 013c 010053E1 		cmp	r3, r1
 316 0140 F6FFFF3A 		bcc	.L25
 317 0144 04F09DE4 		ldr	pc, [sp], #4
 318              	.L52:
 319              		.align	2
 320              	.L51:
 321 0148 02030000 		.word	770
 322              		.cfi_endproc
 323              	.LFE8:
 324              		.size	i2c_lld_serve_interrupt, .-i2c_lld_serve_interrupt
 325              		.section	.text.i2c_lld_init,"ax",%progbits
 326              		.align	2
 327              		.global	i2c_lld_init
 328              		.syntax unified
 329              		.arm
 330              		.fpu softvfp
 331              		.type	i2c_lld_init, %function
 332              	i2c_lld_init:
 333              	.LFB9:
 334              		.loc 1 140 25 is_stmt 1 view -0
 335              		.cfi_startproc
 336              		@ args = 0, pretend = 0, frame = 0
 337              		@ frame_needed = 0, uses_anonymous_args = 0
 338              		@ link register save eliminated.
 339              		.loc 1 141 3 view .LVU123
 340              		.loc 1 141 15 is_stmt 0 view .LVU124
 341 0000 0C309FE5 		ldr	r3, .L54
 342 0004 0C209FE5 		ldr	r2, .L54+4
ARM GAS  /var/folders/l5/0x54b2c10074c8bt31ycjvl80000gp/T//ccbiey8U.s 			page 7


 343              		.loc 1 142 3 view .LVU125
 344 0008 0300A0E1 		mov	r0, r3
 345              		.loc 1 141 15 view .LVU126
 346 000c 0C2083E5 		str	r2, [r3, #12]
 347              		.loc 1 142 3 is_stmt 1 view .LVU127
 348 0010 FEFFFFEA 		b	i2cObjectInit
 349              	.LVL20:
 350              	.L55:
 351              		.align	2
 352              	.L54:
 353 0014 00000000 		.word	I2C0
 354 0018 00502020 		.word	538988544
 355              		.cfi_endproc
 356              	.LFE9:
 357              		.size	i2c_lld_init, .-i2c_lld_init
 358              		.global	__udivsi3
 359              		.section	.text.i2c_lld_start,"ax",%progbits
 360              		.align	2
 361              		.global	i2c_lld_start
 362              		.syntax unified
 363              		.arm
 364              		.fpu softvfp
 365              		.type	i2c_lld_start, %function
 366              	i2c_lld_start:
 367              	.LVL21:
 368              	.LFB10:
 369              		.loc 1 152 37 view -0
 370              		.cfi_startproc
 371              		@ args = 0, pretend = 0, frame = 0
 372              		@ frame_needed = 0, uses_anonymous_args = 0
 373              		.loc 1 154 3 view .LVU129
 374              		.loc 1 152 37 is_stmt 0 view .LVU130
 375 0000 10402DE9 		push	{r4, lr}
 376              		.cfi_def_cfa_offset 8
 377              		.cfi_offset 4, -8
 378              		.cfi_offset 14, -4
 379              		.loc 1 152 37 view .LVU131
 380 0004 0040A0E1 		mov	r4, r0
 381              		.loc 1 154 3 view .LVU132
 382 0008 0410A0E3 		mov	r1, #4
 383 000c 0000A0E3 		mov	r0, #0
 384              	.LVL22:
 385              		.loc 1 154 3 view .LVU133
 386 0010 FEFFFFEB 		bl	bcm2835_gpio_fnsel
 387              	.LVL23:
 388              		.loc 1 155 3 is_stmt 1 view .LVU134
 389 0014 0410A0E3 		mov	r1, #4
 390 0018 0100A0E3 		mov	r0, #1
 391 001c FEFFFFEB 		bl	bcm2835_gpio_fnsel
 392              	.LVL24:
 393              		.loc 1 157 3 view .LVU135
 394              		.loc 1 157 12 is_stmt 0 view .LVU136
 395 0020 042094E5 		ldr	r2, [r4, #4]
 396              		.loc 1 158 27 view .LVU137
 397 0024 34309FE5 		ldr	r3, .L60
 398              		.loc 1 157 12 view .LVU138
 399 0028 001092E5 		ldr	r1, [r2]
ARM GAS  /var/folders/l5/0x54b2c10074c8bt31ycjvl80000gp/T//ccbiey8U.s 			page 8


 400              	.LVL25:
 401              		.loc 1 158 3 is_stmt 1 view .LVU139
 402              		.loc 1 158 6 is_stmt 0 view .LVU140
 403 002c 000051E3 		cmp	r1, #0
 404 0030 03005111 		cmpne	r1, r3
 405 0034 0400001A 		bne	.L57
 406 0038 0C2094E5 		ldr	r2, [r4, #12]
 407              	.LVL26:
 408              	.L58:
 409              		.loc 1 161 3 is_stmt 1 view .LVU141
 410              		.loc 1 161 25 is_stmt 0 view .LVU142
 411 003c 003092E5 		ldr	r3, [r2]
 412 0040 023983E3 		orr	r3, r3, #32768
 413 0044 003082E5 		str	r3, [r2]
 414              		.loc 1 162 1 view .LVU143
 415 0048 1080BDE8 		pop	{r4, pc}
 416              	.LVL27:
 417              	.L57:
 418              		.loc 1 159 5 is_stmt 1 view .LVU144
 419              		.loc 1 159 49 is_stmt 0 view .LVU145
 420 004c 10009FE5 		ldr	r0, .L60+4
 421 0050 FEFFFFEB 		bl	__udivsi3
 422              	.LVL28:
 423              		.loc 1 159 9 view .LVU146
 424 0054 0C2094E5 		ldr	r2, [r4, #12]
 425              		.loc 1 159 32 view .LVU147
 426 0058 140082E5 		str	r0, [r2, #20]
 427 005c F6FFFFEA 		b	.L58
 428              	.L61:
 429              		.align	2
 430              	.L60:
 431 0060 A0860100 		.word	100000
 432 0064 80D1F008 		.word	150000000
 433              		.cfi_endproc
 434              	.LFE10:
 435              		.size	i2c_lld_start, .-i2c_lld_start
 436              		.section	.text.i2c_lld_stop,"ax",%progbits
 437              		.align	2
 438              		.global	i2c_lld_stop
 439              		.syntax unified
 440              		.arm
 441              		.fpu softvfp
 442              		.type	i2c_lld_stop, %function
 443              	i2c_lld_stop:
 444              	.LVL29:
 445              	.LFB11:
 446              		.loc 1 171 36 is_stmt 1 view -0
 447              		.cfi_startproc
 448              		@ args = 0, pretend = 0, frame = 0
 449              		@ frame_needed = 0, uses_anonymous_args = 0
 450              		.loc 1 173 3 view .LVU149
 451 0000 0010A0E3 		mov	r1, #0
 452              		.loc 1 171 36 is_stmt 0 view .LVU150
 453 0004 10402DE9 		push	{r4, lr}
 454              		.cfi_def_cfa_offset 8
 455              		.cfi_offset 4, -8
 456              		.cfi_offset 14, -4
ARM GAS  /var/folders/l5/0x54b2c10074c8bt31ycjvl80000gp/T//ccbiey8U.s 			page 9


 457              		.loc 1 171 36 view .LVU151
 458 0008 0040A0E1 		mov	r4, r0
 459              		.loc 1 173 3 view .LVU152
 460 000c 0100A0E1 		mov	r0, r1
 461              	.LVL30:
 462              		.loc 1 173 3 view .LVU153
 463 0010 FEFFFFEB 		bl	bcm2835_gpio_fnsel
 464              	.LVL31:
 465              		.loc 1 174 3 is_stmt 1 view .LVU154
 466 0014 0010A0E3 		mov	r1, #0
 467 0018 0100A0E3 		mov	r0, #1
 468 001c FEFFFFEB 		bl	bcm2835_gpio_fnsel
 469              	.LVL32:
 470              		.loc 1 176 3 view .LVU155
 471              		.loc 1 176 7 is_stmt 0 view .LVU156
 472 0020 0C2094E5 		ldr	r2, [r4, #12]
 473              		.loc 1 176 25 view .LVU157
 474 0024 003092E5 		ldr	r3, [r2]
 475 0028 0239C3E3 		bic	r3, r3, #32768
 476 002c 003082E5 		str	r3, [r2]
 477              		.loc 1 177 1 view .LVU158
 478 0030 1080BDE8 		pop	{r4, pc}
 479              		.cfi_endproc
 480              	.LFE11:
 481              		.size	i2c_lld_stop, .-i2c_lld_stop
 482              		.section	.text.i2c_lld_master_receive_timeout,"ax",%progbits
 483              		.align	2
 484              		.global	i2c_lld_master_receive_timeout
 485              		.syntax unified
 486              		.arm
 487              		.fpu softvfp
 488              		.type	i2c_lld_master_receive_timeout, %function
 489              	i2c_lld_master_receive_timeout:
 490              	.LVL33:
 491              	.LFB13:
 492              		.loc 1 261 29 is_stmt 1 view -0
 493              		.cfi_startproc
 494              		@ args = 4, pretend = 0, frame = 20
 495              		@ frame_needed = 0, uses_anonymous_args = 0
 496              		.loc 1 262 3 view .LVU160
 497              		.loc 1 265 3 view .LVU161
 498              		.loc 1 261 29 is_stmt 0 view .LVU162
 499 0000 F0412DE9 		push	{r4, r5, r6, r7, r8, lr}
 500              		.cfi_def_cfa_offset 24
 501              		.cfi_offset 4, -24
 502              		.cfi_offset 5, -20
 503              		.cfi_offset 6, -16
 504              		.cfi_offset 7, -12
 505              		.cfi_offset 8, -8
 506              		.cfi_offset 14, -4
 507 0004 14D04DE2 		sub	sp, sp, #20
 508              		.cfi_def_cfa_offset 44
 509              		.loc 1 261 29 view .LVU163
 510 0008 2C509DE5 		ldr	r5, [sp, #44]
 511 000c 0040A0E1 		mov	r4, r0
 512              		.loc 1 265 6 view .LVU164
 513 0010 010075E3 		cmn	r5, #1
ARM GAS  /var/folders/l5/0x54b2c10074c8bt31ycjvl80000gp/T//ccbiey8U.s 			page 10


 514              		.loc 1 261 29 view .LVU165
 515 0014 0280A0E1 		mov	r8, r2
 516 0018 0360A0E1 		mov	r6, r3
 517 001c 7170FFE6 		uxth	r7, r1
 518              		.loc 1 265 6 view .LVU166
 519 0020 0400000A 		beq	.L65
 520              		.loc 1 266 5 is_stmt 1 view .LVU167
 521 0024 0030A0E1 		mov	r3, r0
 522              	.LVL34:
 523              		.loc 1 266 5 is_stmt 0 view .LVU168
 524 0028 8C209FE5 		ldr	r2, .L77
 525              	.LVL35:
 526              		.loc 1 266 5 view .LVU169
 527 002c 0510A0E1 		mov	r1, r5
 528              	.LVL36:
 529              		.loc 1 266 5 view .LVU170
 530 0030 0D00A0E1 		mov	r0, sp
 531              	.LVL37:
 532              		.loc 1 266 5 view .LVU171
 533 0034 FEFFFFEB 		bl	chVTSetI
 534              	.LVL38:
 535              	.L65:
 536              		.loc 1 268 3 is_stmt 1 view .LVU172
 537              		.loc 1 269 15 is_stmt 0 view .LVU173
 538 0038 0020A0E3 		mov	r2, #0
 539              		.loc 1 277 16 view .LVU174
 540 003c 0C3094E5 		ldr	r3, [r4, #12]
 541              		.loc 1 269 15 view .LVU175
 542 0040 282084E5 		str	r2, [r4, #40]
 543              		.loc 1 270 17 view .LVU176
 544 0044 2C2084E5 		str	r2, [r4, #44]
 545              		.loc 1 271 15 view .LVU177
 546 0048 302084E5 		str	r2, [r4, #48]
 547              		.loc 1 274 15 view .LVU178
 548 004c 3C2084E5 		str	r2, [r4, #60]
 549              		.loc 1 280 18 view .LVU179
 550 0050 68109FE5 		ldr	r1, .L77+4
 551              		.loc 1 283 19 view .LVU180
 552 0054 68209FE5 		ldr	r2, .L77+8
 553              		.loc 1 268 14 view .LVU181
 554 0058 B472C4E1 		strh	r7, [r4, #36]	@ movhi
 555              		.loc 1 269 3 is_stmt 1 view .LVU182
 556              		.loc 1 270 3 view .LVU183
 557              		.loc 1 271 3 view .LVU184
 558              		.loc 1 272 3 view .LVU185
 559              		.loc 1 273 3 view .LVU186
 560              		.loc 1 274 3 view .LVU187
 561              		.loc 1 277 3 view .LVU188
 562              	.LVL39:
 563              		.loc 1 278 3 view .LVU189
 564              		.loc 1 272 15 is_stmt 0 view .LVU190
 565 005c 348084E5 		str	r8, [r4, #52]
 566              		.loc 1 273 17 view .LVU191
 567 0060 386084E5 		str	r6, [r4, #56]
 568              		.loc 1 278 24 view .LVU192
 569 0064 0C7083E5 		str	r7, [r3, #12]
 570              		.loc 1 279 3 is_stmt 1 view .LVU193
ARM GAS  /var/folders/l5/0x54b2c10074c8bt31ycjvl80000gp/T//ccbiey8U.s 			page 11


 571              		.loc 1 279 22 is_stmt 0 view .LVU194
 572 0068 086083E5 		str	r6, [r3, #8]
 573              		.loc 1 280 3 is_stmt 1 view .LVU195
 574              		.loc 1 280 18 is_stmt 0 view .LVU196
 575 006c 041083E5 		str	r1, [r3, #4]
 576              		.loc 1 283 3 is_stmt 1 view .LVU197
 577              		.loc 1 283 19 is_stmt 0 view .LVU198
 578 0070 002083E5 		str	r2, [r3]
 579              		.loc 1 286 3 is_stmt 1 view .LVU199
 580              		.syntax divided
 581              	@ 286 "../../../os/hal/platforms/BCM2835/i2c_lld.c" 1
 582 0074 9FF021E3 		msr     CPSR_c, #0x9F
 583              	@ 0 "" 2
 584              		.loc 1 286 3 view .LVU200
 585              		.loc 1 286 14 view .LVU201
 586              		.loc 1 287 3 view .LVU202
 587              		.loc 1 287 18 is_stmt 0 view .LVU203
 588              		.arm
 589              		.syntax unified
 590 0078 48609FE5 		ldr	r6, .L77+12
 591              	.LVL40:
 592              		.loc 1 288 3 view .LVU204
 593 007c 0200A0E3 		mov	r0, #2
 594              		.loc 1 287 16 view .LVU205
 595 0080 103096E5 		ldr	r3, [r6, #16]
 596              	.LVL41:
 597              		.loc 1 287 16 view .LVU206
 598 0084 203084E5 		str	r3, [r4, #32]
 599              		.loc 1 288 3 is_stmt 1 view .LVU207
 600 0088 FEFFFFEB 		bl	chSchGoSleepS
 601              	.LVL42:
 602              		.loc 1 289 3 view .LVU208
 603              		.loc 1 289 6 is_stmt 0 view .LVU209
 604 008c 010075E3 		cmn	r5, #1
 605 0090 0400000A 		beq	.L66
 606              		.loc 1 289 34 discriminator 1 view .LVU210
 607 0094 0C309DE5 		ldr	r3, [sp, #12]
 608 0098 000053E3 		cmp	r3, #0
 609 009c 0100000A 		beq	.L66
 610              		.loc 1 290 5 is_stmt 1 view .LVU211
 611 00a0 0D00A0E1 		mov	r0, sp
 612 00a4 FEFFFFEB 		bl	chVTResetI
 613              	.LVL43:
 614              	.L66:
 615              		.loc 1 291 3 view .LVU212
 616              		.loc 1 291 3 view .LVU213
 617              		.syntax divided
 618              	@ 291 "../../../os/hal/platforms/BCM2835/i2c_lld.c" 1
 619 00a8 1FF021E3 		msr     CPSR_c, #0x1F
 620              	@ 0 "" 2
 621              		.loc 1 291 16 view .LVU214
 622              		.loc 1 293 3 view .LVU215
 623              		.loc 1 293 26 is_stmt 0 view .LVU216
 624              		.arm
 625              		.syntax unified
 626 00ac 103096E5 		ldr	r3, [r6, #16]
 627              		.loc 1 294 1 view .LVU217
ARM GAS  /var/folders/l5/0x54b2c10074c8bt31ycjvl80000gp/T//ccbiey8U.s 			page 12


 628 00b0 140093E5 		ldr	r0, [r3, #20]
 629 00b4 14D08DE2 		add	sp, sp, #20
 630              		.cfi_def_cfa_offset 24
 631              		@ sp needed
 632 00b8 F081BDE8 		pop	{r4, r5, r6, r7, r8, pc}
 633              	.LVL44:
 634              	.L78:
 635              		.loc 1 294 1 view .LVU218
 636              		.align	2
 637              	.L77:
 638 00bc 00000000 		.word	i2c_lld_safety_timeout
 639 00c0 02030000 		.word	770
 640 00c4 91850000 		.word	34193
 641 00c8 00000000 		.word	rlist
 642              		.cfi_endproc
 643              	.LFE13:
 644              		.size	i2c_lld_master_receive_timeout, .-i2c_lld_master_receive_timeout
 645              		.section	.text.i2c_lld_master_transmit_timeout,"ax",%progbits
 646              		.align	2
 647              		.global	i2c_lld_master_transmit_timeout
 648              		.syntax unified
 649              		.arm
 650              		.fpu softvfp
 651              		.type	i2c_lld_master_transmit_timeout, %function
 652              	i2c_lld_master_transmit_timeout:
 653              	.LVL45:
 654              	.LFB12:
 655              		.loc 1 198 59 is_stmt 1 view -0
 656              		.cfi_startproc
 657              		@ args = 12, pretend = 0, frame = 20
 658              		@ frame_needed = 0, uses_anonymous_args = 0
 659              		.loc 1 199 3 view .LVU220
 660              		.loc 1 202 3 view .LVU221
 661              		.loc 1 198 59 is_stmt 0 view .LVU222
 662 0000 F0472DE9 		push	{r4, r5, r6, r7, r8, r9, r10, lr}
 663              		.cfi_def_cfa_offset 32
 664              		.cfi_offset 4, -32
 665              		.cfi_offset 5, -28
 666              		.cfi_offset 6, -24
 667              		.cfi_offset 7, -20
 668              		.cfi_offset 8, -16
 669              		.cfi_offset 9, -12
 670              		.cfi_offset 10, -8
 671              		.cfi_offset 14, -4
 672 0004 18D04DE2 		sub	sp, sp, #24
 673              		.cfi_def_cfa_offset 56
 674              		.loc 1 198 59 view .LVU223
 675 0008 40509DE5 		ldr	r5, [sp, #64]
 676 000c 0040A0E1 		mov	r4, r0
 677              		.loc 1 202 6 view .LVU224
 678 0010 010075E3 		cmn	r5, #1
 679              		.loc 1 198 59 view .LVU225
 680 0014 02A0A0E1 		mov	r10, r2
 681 0018 0390A0E1 		mov	r9, r3
 682 001c 7160FFE6 		uxth	r6, r1
 683 0020 38809DE5 		ldr	r8, [sp, #56]
 684 0024 3C70DDE5 		ldrb	r7, [sp, #60]	@ zero_extendqisi2
ARM GAS  /var/folders/l5/0x54b2c10074c8bt31ycjvl80000gp/T//ccbiey8U.s 			page 13


 685              		.loc 1 202 6 view .LVU226
 686 0028 0400000A 		beq	.L80
 687              		.loc 1 203 5 is_stmt 1 view .LVU227
 688 002c 0030A0E1 		mov	r3, r0
 689              	.LVL46:
 690              		.loc 1 203 5 is_stmt 0 view .LVU228
 691 0030 F8209FE5 		ldr	r2, .L103
 692              	.LVL47:
 693              		.loc 1 203 5 view .LVU229
 694 0034 0510A0E1 		mov	r1, r5
 695              	.LVL48:
 696              		.loc 1 203 5 view .LVU230
 697 0038 04008DE2 		add	r0, sp, #4
 698              	.LVL49:
 699              		.loc 1 203 5 view .LVU231
 700 003c FEFFFFEB 		bl	chVTSetI
 701              	.LVL50:
 702              	.L80:
 703              		.loc 1 205 3 is_stmt 1 view .LVU232
 704              		.loc 1 208 15 is_stmt 0 view .LVU233
 705 0040 0020A0E3 		mov	r2, #0
 706              		.loc 1 213 16 view .LVU234
 707 0044 0C3094E5 		ldr	r3, [r4, #12]
 708              		.loc 1 216 18 view .LVU235
 709 0048 E4109FE5 		ldr	r1, .L103+4
 710              		.loc 1 208 15 view .LVU236
 711 004c 302084E5 		str	r2, [r4, #48]
 712              		.loc 1 211 15 view .LVU237
 713 0050 3C2084E5 		str	r2, [r4, #60]
 714              		.loc 1 205 14 view .LVU238
 715 0054 B462C4E1 		strh	r6, [r4, #36]	@ movhi
 716              		.loc 1 206 3 is_stmt 1 view .LVU239
 717              		.loc 1 206 15 is_stmt 0 view .LVU240
 718 0058 28A084E5 		str	r10, [r4, #40]
 719              		.loc 1 207 3 is_stmt 1 view .LVU241
 720              		.loc 1 207 17 is_stmt 0 view .LVU242
 721 005c 2C9084E5 		str	r9, [r4, #44]
 722              		.loc 1 208 3 is_stmt 1 view .LVU243
 723              		.loc 1 209 3 view .LVU244
 724              		.loc 1 210 3 view .LVU245
 725              		.loc 1 211 3 view .LVU246
 726              		.loc 1 213 3 view .LVU247
 727              	.LVL51:
 728              		.loc 1 214 3 view .LVU248
 729              		.loc 1 209 15 is_stmt 0 view .LVU249
 730 0060 348084E5 		str	r8, [r4, #52]
 731              		.loc 1 210 17 view .LVU250
 732 0064 387084E5 		str	r7, [r4, #56]
 733              		.loc 1 214 24 view .LVU251
 734 0068 0C6083E5 		str	r6, [r3, #12]
 735              		.loc 1 215 3 is_stmt 1 view .LVU252
 736              		.loc 1 215 22 is_stmt 0 view .LVU253
 737 006c 089083E5 		str	r9, [r3, #8]
 738              		.loc 1 216 3 is_stmt 1 view .LVU254
 739              		.loc 1 216 18 is_stmt 0 view .LVU255
 740 0070 041083E5 		str	r1, [r3, #4]
 741              		.loc 1 219 3 is_stmt 1 view .LVU256
ARM GAS  /var/folders/l5/0x54b2c10074c8bt31ycjvl80000gp/T//ccbiey8U.s 			page 14


 742              		.loc 1 219 19 is_stmt 0 view .LVU257
 743 0074 002093E5 		ldr	r2, [r3]
 744 0078 832C82E3 		orr	r2, r2, #33536
 745 007c 802082E3 		orr	r2, r2, #128
 746 0080 002083E5 		str	r2, [r3]
 747              		.loc 1 222 3 is_stmt 1 view .LVU258
 748              		.syntax divided
 749              	@ 222 "../../../os/hal/platforms/BCM2835/i2c_lld.c" 1
 750 0084 9FF021E3 		msr     CPSR_c, #0x9F
 751              	@ 0 "" 2
 752              		.loc 1 222 3 view .LVU259
 753              		.loc 1 222 14 view .LVU260
 754              		.loc 1 224 3 view .LVU261
 755              		.loc 1 224 18 is_stmt 0 view .LVU262
 756              		.arm
 757              		.syntax unified
 758 0088 A8909FE5 		ldr	r9, .L103+8
 759              	.LVL52:
 760              		.loc 1 225 3 view .LVU263
 761 008c 0200A0E3 		mov	r0, #2
 762              		.loc 1 224 16 view .LVU264
 763 0090 103099E5 		ldr	r3, [r9, #16]
 764              	.LVL53:
 765              		.loc 1 224 16 view .LVU265
 766 0094 203084E5 		str	r3, [r4, #32]
 767              		.loc 1 225 3 is_stmt 1 view .LVU266
 768 0098 FEFFFFEB 		bl	chSchGoSleepS
 769              	.LVL54:
 770              		.loc 1 226 3 view .LVU267
 771              		.loc 1 226 6 is_stmt 0 view .LVU268
 772 009c 010075E3 		cmn	r5, #1
 773 00a0 0400000A 		beq	.L81
 774              		.loc 1 226 34 discriminator 1 view .LVU269
 775 00a4 10309DE5 		ldr	r3, [sp, #16]
 776 00a8 000053E3 		cmp	r3, #0
 777 00ac 0100000A 		beq	.L81
 778              		.loc 1 227 5 is_stmt 1 view .LVU270
 779 00b0 04008DE2 		add	r0, sp, #4
 780 00b4 FEFFFFEB 		bl	chVTResetI
 781              	.LVL55:
 782              	.L81:
 783              		.loc 1 229 3 view .LVU271
 784              		.loc 1 229 3 view .LVU272
 785              		.syntax divided
 786              	@ 229 "../../../os/hal/platforms/BCM2835/i2c_lld.c" 1
 787 00b8 1FF021E3 		msr     CPSR_c, #0x1F
 788              	@ 0 "" 2
 789              		.loc 1 229 16 view .LVU273
 790              		.loc 1 231 3 view .LVU274
 791              		.loc 1 231 9 is_stmt 0 view .LVU275
 792              		.arm
 793              		.syntax unified
 794 00bc 102099E5 		ldr	r2, [r9, #16]
 795              		.loc 1 233 35 view .LVU276
 796 00c0 003097E2 		adds	r3, r7, #0
 797              		.loc 1 231 9 view .LVU277
 798 00c4 149092E5 		ldr	r9, [r2, #20]
ARM GAS  /var/folders/l5/0x54b2c10074c8bt31ycjvl80000gp/T//ccbiey8U.s 			page 15


 799              	.LVL56:
 800              		.loc 1 233 3 is_stmt 1 view .LVU278
 801              		.loc 1 233 35 is_stmt 0 view .LVU279
 802 00c8 0130A013 		movne	r3, #1
 803              		.loc 1 233 6 view .LVU280
 804 00cc 000059E3 		cmp	r9, #0
 805 00d0 0030A013 		movne	r3, #0
 806 00d4 000053E3 		cmp	r3, #0
 807 00d8 0200001A 		bne	.L102
 808              	.L79:
 809              		.loc 1 242 1 view .LVU281
 810 00dc 0900A0E1 		mov	r0, r9
 811 00e0 18D08DE2 		add	sp, sp, #24
 812              		.cfi_remember_state
 813              		.cfi_def_cfa_offset 32
 814              		@ sp needed
 815 00e4 F087BDE8 		pop	{r4, r5, r6, r7, r8, r9, r10, pc}
 816              	.LVL57:
 817              	.L102:
 818              		.cfi_restore_state
 819              		.loc 1 235 5 is_stmt 1 view .LVU282
 820              		.loc 1 235 14 is_stmt 0 view .LVU283
 821 00e8 00C0E0E3 		mvn	ip, #0
 822 00ec 0730A0E1 		mov	r3, r7
 823 00f0 0820A0E1 		mov	r2, r8
 824 00f4 0610A0E1 		mov	r1, r6
 825 00f8 0400A0E1 		mov	r0, r4
 826 00fc 00C08DE5 		str	ip, [sp]
 827 0100 FEFFFFEB 		bl	i2c_lld_master_receive_timeout
 828              	.LVL58:
 829              		.loc 1 237 8 view .LVU284
 830 0104 010075E3 		cmn	r5, #1
 831              		.loc 1 235 14 view .LVU285
 832 0108 0090A0E1 		mov	r9, r0
 833              	.LVL59:
 834              		.loc 1 237 5 is_stmt 1 view .LVU286
 835              		.loc 1 237 8 is_stmt 0 view .LVU287
 836 010c F2FFFF0A 		beq	.L79
 837              		.loc 1 237 36 discriminator 1 view .LVU288
 838 0110 10309DE5 		ldr	r3, [sp, #16]
 839 0114 000053E3 		cmp	r3, #0
 840 0118 EFFFFF0A 		beq	.L79
 841              		.loc 1 238 7 is_stmt 1 view .LVU289
 842 011c 04008DE2 		add	r0, sp, #4
 843              	.LVL60:
 844              		.loc 1 238 7 is_stmt 0 view .LVU290
 845 0120 FEFFFFEB 		bl	chVTResetI
 846              	.LVL61:
 847              		.loc 1 241 3 is_stmt 1 view .LVU291
 848              		.loc 1 242 1 is_stmt 0 view .LVU292
 849 0124 0900A0E1 		mov	r0, r9
 850 0128 18D08DE2 		add	sp, sp, #24
 851              		.cfi_def_cfa_offset 32
 852              		@ sp needed
 853 012c F087BDE8 		pop	{r4, r5, r6, r7, r8, r9, r10, pc}
 854              	.LVL62:
 855              	.L104:
ARM GAS  /var/folders/l5/0x54b2c10074c8bt31ycjvl80000gp/T//ccbiey8U.s 			page 16


 856              		.loc 1 242 1 view .LVU293
 857              		.align	2
 858              	.L103:
 859 0130 00000000 		.word	i2c_lld_safety_timeout
 860 0134 02030000 		.word	770
 861 0138 00000000 		.word	rlist
 862              		.cfi_endproc
 863              	.LFE12:
 864              		.size	i2c_lld_master_transmit_timeout, .-i2c_lld_master_transmit_timeout
 865              		.comm	I2C0,64,4
 866              		.text
 867              	.Letext0:
 868              		.file 2 "/usr/local/Cellar/arm-gcc-bin/8-2019-q3-update/lib/gcc/arm-none-eabi/8.3.1/include/stddef
 869              		.file 3 "/usr/local/Cellar/arm-gcc-bin/8-2019-q3-update/arm-none-eabi/include/machine/_default_typ
 870              		.file 4 "/usr/local/Cellar/arm-gcc-bin/8-2019-q3-update/arm-none-eabi/include/sys/_stdint.h"
 871              		.file 5 "../../../os/ports/GCC/ARM/chtypes.h"
 872              		.file 6 "../../../os/kernel/include/chlists.h"
 873              		.file 7 "../../../os/kernel/include/chthreads.h"
 874              		.file 8 "../../../os/ports/GCC/ARM/chcore.h"
 875              		.file 9 "../../../os/kernel/include/chvt.h"
 876              		.file 10 "../../../os/kernel/include/chschd.h"
 877              		.file 11 "../../../os/kernel/include/chmtx.h"
 878              		.file 12 "../../../os/kernel/include/chevents.h"
 879              		.file 13 "../../../os/kernel/include/chqueues.h"
 880              		.file 14 "../../../os/kernel/include/ch.h"
 881              		.file 15 "../../../os/hal/platforms/BCM2835/bcm2835.h"
 882              		.file 16 "../../../os/hal/platforms/BCM2835/pal_lld.h"
 883              		.file 17 "../../../os/hal/include/i2c.h"
 884              		.file 18 "../../../os/hal/platforms/BCM2835/i2c_lld.h"
 885              		.file 19 "../../../os/hal/include/serial.h"
 886              		.file 20 "../../../os/hal/platforms/BCM2835/serial_lld.h"
 887              		.section	.debug_info,"",%progbits
 888              	.Ldebug_info0:
 889 0000 770F0000 		.4byte	0xf77
 890 0004 0400     		.2byte	0x4
 891 0006 00000000 		.4byte	.Ldebug_abbrev0
 892 000a 04       		.byte	0x4
 893 000b 01       		.uleb128 0x1
 894 000c B1010000 		.4byte	.LASF164
 895 0010 0C       		.byte	0xc
 896 0011 F5030000 		.4byte	.LASF165
 897 0015 3A030000 		.4byte	.LASF166
 898 0019 38000000 		.4byte	.Ldebug_ranges0+0x38
 899 001d 00000000 		.4byte	0
 900 0021 00000000 		.4byte	.Ldebug_line0
 901 0025 02       		.uleb128 0x2
 902 0026 04       		.byte	0x4
 903 0027 05       		.byte	0x5
 904 0028 22010000 		.4byte	.LASF0
 905 002c 03       		.uleb128 0x3
 906 002d 00000000 		.4byte	.LASF3
 907 0031 02       		.byte	0x2
 908 0032 D8       		.byte	0xd8
 909 0033 17       		.byte	0x17
 910 0034 38000000 		.4byte	0x38
 911 0038 02       		.uleb128 0x2
 912 0039 04       		.byte	0x4
ARM GAS  /var/folders/l5/0x54b2c10074c8bt31ycjvl80000gp/T//ccbiey8U.s 			page 17


 913 003a 07       		.byte	0x7
 914 003b DA020000 		.4byte	.LASF1
 915 003f 02       		.uleb128 0x2
 916 0040 01       		.byte	0x1
 917 0041 06       		.byte	0x6
 918 0042 A2000000 		.4byte	.LASF2
 919 0046 03       		.uleb128 0x3
 920 0047 20000000 		.4byte	.LASF4
 921 004b 03       		.byte	0x3
 922 004c 2B       		.byte	0x2b
 923 004d 18       		.byte	0x18
 924 004e 52000000 		.4byte	0x52
 925 0052 02       		.uleb128 0x2
 926 0053 01       		.byte	0x1
 927 0054 08       		.byte	0x8
 928 0055 2D050000 		.4byte	.LASF5
 929 0059 02       		.uleb128 0x2
 930 005a 02       		.byte	0x2
 931 005b 05       		.byte	0x5
 932 005c 5A050000 		.4byte	.LASF6
 933 0060 03       		.uleb128 0x3
 934 0061 4C060000 		.4byte	.LASF7
 935 0065 03       		.byte	0x3
 936 0066 39       		.byte	0x39
 937 0067 19       		.byte	0x19
 938 0068 6C000000 		.4byte	0x6c
 939 006c 02       		.uleb128 0x2
 940 006d 02       		.byte	0x2
 941 006e 07       		.byte	0x7
 942 006f 08030000 		.4byte	.LASF8
 943 0073 03       		.uleb128 0x3
 944 0074 73060000 		.4byte	.LASF9
 945 0078 03       		.byte	0x3
 946 0079 4D       		.byte	0x4d
 947 007a 18       		.byte	0x18
 948 007b 25000000 		.4byte	0x25
 949 007f 03       		.uleb128 0x3
 950 0080 88010000 		.4byte	.LASF10
 951 0084 03       		.byte	0x3
 952 0085 4F       		.byte	0x4f
 953 0086 19       		.byte	0x19
 954 0087 38000000 		.4byte	0x38
 955 008b 02       		.uleb128 0x2
 956 008c 08       		.byte	0x8
 957 008d 05       		.byte	0x5
 958 008e 94000000 		.4byte	.LASF11
 959 0092 02       		.uleb128 0x2
 960 0093 08       		.byte	0x8
 961 0094 07       		.byte	0x7
 962 0095 43000000 		.4byte	.LASF12
 963 0099 03       		.uleb128 0x3
 964 009a 1F070000 		.4byte	.LASF13
 965 009e 04       		.byte	0x4
 966 009f 18       		.byte	0x18
 967 00a0 13       		.byte	0x13
 968 00a1 46000000 		.4byte	0x46
 969 00a5 04       		.uleb128 0x4
ARM GAS  /var/folders/l5/0x54b2c10074c8bt31ycjvl80000gp/T//ccbiey8U.s 			page 18


 970 00a6 99000000 		.4byte	0x99
 971 00aa 03       		.uleb128 0x3
 972 00ab 4E010000 		.4byte	.LASF14
 973 00af 04       		.byte	0x4
 974 00b0 24       		.byte	0x24
 975 00b1 14       		.byte	0x14
 976 00b2 60000000 		.4byte	0x60
 977 00b6 03       		.uleb128 0x3
 978 00b7 25050000 		.4byte	.LASF15
 979 00bb 04       		.byte	0x4
 980 00bc 2C       		.byte	0x2c
 981 00bd 13       		.byte	0x13
 982 00be 73000000 		.4byte	0x73
 983 00c2 03       		.uleb128 0x3
 984 00c3 E4050000 		.4byte	.LASF16
 985 00c7 04       		.byte	0x4
 986 00c8 30       		.byte	0x30
 987 00c9 14       		.byte	0x14
 988 00ca 7F000000 		.4byte	0x7f
 989 00ce 05       		.uleb128 0x5
 990 00cf C2000000 		.4byte	0xc2
 991 00d3 06       		.uleb128 0x6
 992 00d4 04       		.byte	0x4
 993 00d5 05       		.byte	0x5
 994 00d6 696E7400 		.ascii	"int\000"
 995 00da 02       		.uleb128 0x2
 996 00db 04       		.byte	0x4
 997 00dc 07       		.byte	0x7
 998 00dd A1020000 		.4byte	.LASF17
 999 00e1 05       		.uleb128 0x5
 1000 00e2 DA000000 		.4byte	0xda
 1001 00e6 03       		.uleb128 0x3
 1002 00e7 99030000 		.4byte	.LASF18
 1003 00eb 05       		.byte	0x5
 1004 00ec 2A       		.byte	0x2a
 1005 00ed 19       		.byte	0x19
 1006 00ee 99000000 		.4byte	0x99
 1007 00f2 03       		.uleb128 0x3
 1008 00f3 2B010000 		.4byte	.LASF19
 1009 00f7 05       		.byte	0x5
 1010 00f8 2B       		.byte	0x2b
 1011 00f9 19       		.byte	0x19
 1012 00fa 99000000 		.4byte	0x99
 1013 00fe 03       		.uleb128 0x3
 1014 00ff FD000000 		.4byte	.LASF20
 1015 0103 05       		.byte	0x5
 1016 0104 2D       		.byte	0x2d
 1017 0105 19       		.byte	0x19
 1018 0106 99000000 		.4byte	0x99
 1019 010a 03       		.uleb128 0x3
 1020 010b F6040000 		.4byte	.LASF21
 1021 010f 05       		.byte	0x5
 1022 0110 2E       		.byte	0x2e
 1023 0111 19       		.byte	0x19
 1024 0112 C2000000 		.4byte	0xc2
 1025 0116 03       		.uleb128 0x3
 1026 0117 2D030000 		.4byte	.LASF22
ARM GAS  /var/folders/l5/0x54b2c10074c8bt31ycjvl80000gp/T//ccbiey8U.s 			page 19


 1027 011b 05       		.byte	0x5
 1028 011c 2F       		.byte	0x2f
 1029 011d 19       		.byte	0x19
 1030 011e B6000000 		.4byte	0xb6
 1031 0122 03       		.uleb128 0x3
 1032 0123 AD030000 		.4byte	.LASF23
 1033 0127 05       		.byte	0x5
 1034 0128 31       		.byte	0x31
 1035 0129 19       		.byte	0x19
 1036 012a C2000000 		.4byte	0xc2
 1037 012e 03       		.uleb128 0x3
 1038 012f BE060000 		.4byte	.LASF24
 1039 0133 05       		.byte	0x5
 1040 0134 32       		.byte	0x32
 1041 0135 19       		.byte	0x19
 1042 0136 C2000000 		.4byte	0xc2
 1043 013a 03       		.uleb128 0x3
 1044 013b 5E060000 		.4byte	.LASF25
 1045 013f 05       		.byte	0x5
 1046 0140 33       		.byte	0x33
 1047 0141 19       		.byte	0x19
 1048 0142 C2000000 		.4byte	0xc2
 1049 0146 05       		.uleb128 0x5
 1050 0147 3A010000 		.4byte	0x13a
 1051 014b 03       		.uleb128 0x3
 1052 014c A4050000 		.4byte	.LASF26
 1053 0150 06       		.byte	0x6
 1054 0151 23       		.byte	0x23
 1055 0152 17       		.byte	0x17
 1056 0153 57010000 		.4byte	0x157
 1057 0157 07       		.uleb128 0x7
 1058 0158 A4050000 		.4byte	.LASF26
 1059 015c 28       		.byte	0x28
 1060 015d 07       		.byte	0x7
 1061 015e 57       		.byte	0x57
 1062 015f 08       		.byte	0x8
 1063 0160 01020000 		.4byte	0x201
 1064 0164 08       		.uleb128 0x8
 1065 0165 8D050000 		.4byte	.LASF27
 1066 0169 07       		.byte	0x7
 1067 016a 58       		.byte	0x58
 1068 016b 1A       		.byte	0x1a
 1069 016c 25020000 		.4byte	0x225
 1070 0170 00       		.byte	0
 1071 0171 08       		.uleb128 0x8
 1072 0172 EF040000 		.4byte	.LASF28
 1073 0176 07       		.byte	0x7
 1074 0177 5A       		.byte	0x5a
 1075 0178 1A       		.byte	0x1a
 1076 0179 25020000 		.4byte	0x225
 1077 017d 04       		.byte	0x4
 1078 017e 08       		.uleb128 0x8
 1079 017f 76000000 		.4byte	.LASF29
 1080 0183 07       		.byte	0x7
 1081 0184 5C       		.byte	0x5c
 1082 0185 19       		.byte	0x19
 1083 0186 0A010000 		.4byte	0x10a
ARM GAS  /var/folders/l5/0x54b2c10074c8bt31ycjvl80000gp/T//ccbiey8U.s 			page 20


 1084 018a 08       		.byte	0x8
 1085 018b 08       		.uleb128 0x8
 1086 018c 91070000 		.4byte	.LASF30
 1087 0190 07       		.byte	0x7
 1088 0191 5D       		.byte	0x5d
 1089 0192 19       		.byte	0x19
 1090 0193 F0020000 		.4byte	0x2f0
 1091 0197 0C       		.byte	0xc
 1092 0198 08       		.uleb128 0x8
 1093 0199 64050000 		.4byte	.LASF31
 1094 019d 07       		.byte	0x7
 1095 019e 72       		.byte	0x72
 1096 019f 19       		.byte	0x19
 1097 01a0 F2000000 		.4byte	0xf2
 1098 01a4 10       		.byte	0x10
 1099 01a5 08       		.uleb128 0x8
 1100 01a6 9C050000 		.4byte	.LASF32
 1101 01aa 07       		.byte	0x7
 1102 01ab 76       		.byte	0x76
 1103 01ac 19       		.byte	0x19
 1104 01ad E6000000 		.4byte	0xe6
 1105 01b1 11       		.byte	0x11
 1106 01b2 08       		.uleb128 0x8
 1107 01b3 6C050000 		.4byte	.LASF33
 1108 01b7 07       		.byte	0x7
 1109 01b8 81       		.byte	0x81
 1110 01b9 19       		.byte	0x19
 1111 01ba FE000000 		.4byte	0xfe
 1112 01be 12       		.byte	0x12
 1113 01bf 09       		.uleb128 0x9
 1114 01c0 705F7500 		.ascii	"p_u\000"
 1115 01c4 07       		.byte	0x7
 1116 01c5 AD       		.byte	0xad
 1117 01c6 19       		.byte	0x19
 1118 01c7 FD040000 		.4byte	0x4fd
 1119 01cb 14       		.byte	0x14
 1120 01cc 08       		.uleb128 0x8
 1121 01cd 97070000 		.4byte	.LASF34
 1122 01d1 07       		.byte	0x7
 1123 01d2 B2       		.byte	0xb2
 1124 01d3 19       		.byte	0x19
 1125 01d4 4E020000 		.4byte	0x24e
 1126 01d8 18       		.byte	0x18
 1127 01d9 08       		.uleb128 0x8
 1128 01da CF050000 		.4byte	.LASF35
 1129 01de 07       		.byte	0x7
 1130 01df C2       		.byte	0xc2
 1131 01e0 19       		.byte	0x19
 1132 01e1 22010000 		.4byte	0x122
 1133 01e5 1C       		.byte	0x1c
 1134 01e6 08       		.uleb128 0x8
 1135 01e7 50050000 		.4byte	.LASF36
 1136 01eb 07       		.byte	0x7
 1137 01ec C9       		.byte	0xc9
 1138 01ed 1A       		.byte	0x1a
 1139 01ee 37050000 		.4byte	0x537
 1140 01f2 20       		.byte	0x20
ARM GAS  /var/folders/l5/0x54b2c10074c8bt31ycjvl80000gp/T//ccbiey8U.s 			page 21


 1141 01f3 08       		.uleb128 0x8
 1142 01f4 68060000 		.4byte	.LASF37
 1143 01f8 07       		.byte	0x7
 1144 01f9 CD       		.byte	0xcd
 1145 01fa 19       		.byte	0x19
 1146 01fb 0A010000 		.4byte	0x10a
 1147 01ff 24       		.byte	0x24
 1148 0200 00       		.byte	0
 1149 0201 0A       		.uleb128 0xa
 1150 0202 08       		.byte	0x8
 1151 0203 06       		.byte	0x6
 1152 0204 5A       		.byte	0x5a
 1153 0205 09       		.byte	0x9
 1154 0206 25020000 		.4byte	0x225
 1155 020a 08       		.uleb128 0x8
 1156 020b 8D050000 		.4byte	.LASF27
 1157 020f 06       		.byte	0x6
 1158 0210 5B       		.byte	0x5b
 1159 0211 1A       		.byte	0x1a
 1160 0212 25020000 		.4byte	0x225
 1161 0216 00       		.byte	0
 1162 0217 08       		.uleb128 0x8
 1163 0218 EF040000 		.4byte	.LASF28
 1164 021c 06       		.byte	0x6
 1165 021d 5D       		.byte	0x5d
 1166 021e 1A       		.byte	0x1a
 1167 021f 25020000 		.4byte	0x225
 1168 0223 04       		.byte	0x4
 1169 0224 00       		.byte	0
 1170 0225 0B       		.uleb128 0xb
 1171 0226 04       		.byte	0x4
 1172 0227 4B010000 		.4byte	0x14b
 1173 022b 03       		.uleb128 0x3
 1174 022c 8B040000 		.4byte	.LASF38
 1175 0230 06       		.byte	0x6
 1176 0231 5F       		.byte	0x5f
 1177 0232 03       		.byte	0x3
 1178 0233 01020000 		.4byte	0x201
 1179 0237 0A       		.uleb128 0xa
 1180 0238 04       		.byte	0x4
 1181 0239 06       		.byte	0x6
 1182 023a 64       		.byte	0x64
 1183 023b 09       		.byte	0x9
 1184 023c 4E020000 		.4byte	0x24e
 1185 0240 08       		.uleb128 0x8
 1186 0241 8D050000 		.4byte	.LASF27
 1187 0245 06       		.byte	0x6
 1188 0246 66       		.byte	0x66
 1189 0247 16       		.byte	0x16
 1190 0248 25020000 		.4byte	0x225
 1191 024c 00       		.byte	0
 1192 024d 00       		.byte	0
 1193 024e 03       		.uleb128 0x3
 1194 024f A1030000 		.4byte	.LASF39
 1195 0253 06       		.byte	0x6
 1196 0254 69       		.byte	0x69
 1197 0255 03       		.byte	0x3
ARM GAS  /var/folders/l5/0x54b2c10074c8bt31ycjvl80000gp/T//ccbiey8U.s 			page 22


 1198 0256 37020000 		.4byte	0x237
 1199 025a 03       		.uleb128 0x3
 1200 025b DD030000 		.4byte	.LASF40
 1201 025f 08       		.byte	0x8
 1202 0260 9D       		.byte	0x9d
 1203 0261 12       		.byte	0x12
 1204 0262 C2000000 		.4byte	0xc2
 1205 0266 03       		.uleb128 0x3
 1206 0267 93010000 		.4byte	.LASF41
 1207 026b 08       		.byte	0x8
 1208 026c A2       		.byte	0xa2
 1209 026d 0F       		.byte	0xf
 1210 026e 72020000 		.4byte	0x272
 1211 0272 0C       		.uleb128 0xc
 1212 0273 04       		.byte	0x4
 1213 0274 07       		.uleb128 0x7
 1214 0275 A7060000 		.4byte	.LASF42
 1215 0279 24       		.byte	0x24
 1216 027a 08       		.byte	0x8
 1217 027b B9       		.byte	0xb9
 1218 027c 08       		.byte	0x8
 1219 027d F0020000 		.4byte	0x2f0
 1220 0281 09       		.uleb128 0x9
 1221 0282 723400   		.ascii	"r4\000"
 1222 0285 08       		.byte	0x8
 1223 0286 BA       		.byte	0xba
 1224 0287 11       		.byte	0x11
 1225 0288 66020000 		.4byte	0x266
 1226 028c 00       		.byte	0
 1227 028d 09       		.uleb128 0x9
 1228 028e 723500   		.ascii	"r5\000"
 1229 0291 08       		.byte	0x8
 1230 0292 BB       		.byte	0xbb
 1231 0293 11       		.byte	0x11
 1232 0294 66020000 		.4byte	0x266
 1233 0298 04       		.byte	0x4
 1234 0299 09       		.uleb128 0x9
 1235 029a 723600   		.ascii	"r6\000"
 1236 029d 08       		.byte	0x8
 1237 029e BC       		.byte	0xbc
 1238 029f 11       		.byte	0x11
 1239 02a0 66020000 		.4byte	0x266
 1240 02a4 08       		.byte	0x8
 1241 02a5 09       		.uleb128 0x9
 1242 02a6 723700   		.ascii	"r7\000"
 1243 02a9 08       		.byte	0x8
 1244 02aa BD       		.byte	0xbd
 1245 02ab 11       		.byte	0x11
 1246 02ac 66020000 		.4byte	0x266
 1247 02b0 0C       		.byte	0xc
 1248 02b1 09       		.uleb128 0x9
 1249 02b2 723800   		.ascii	"r8\000"
 1250 02b5 08       		.byte	0x8
 1251 02b6 BE       		.byte	0xbe
 1252 02b7 11       		.byte	0x11
 1253 02b8 66020000 		.4byte	0x266
 1254 02bc 10       		.byte	0x10
ARM GAS  /var/folders/l5/0x54b2c10074c8bt31ycjvl80000gp/T//ccbiey8U.s 			page 23


 1255 02bd 09       		.uleb128 0x9
 1256 02be 723900   		.ascii	"r9\000"
 1257 02c1 08       		.byte	0x8
 1258 02c2 BF       		.byte	0xbf
 1259 02c3 11       		.byte	0x11
 1260 02c4 66020000 		.4byte	0x266
 1261 02c8 14       		.byte	0x14
 1262 02c9 09       		.uleb128 0x9
 1263 02ca 72313000 		.ascii	"r10\000"
 1264 02ce 08       		.byte	0x8
 1265 02cf C0       		.byte	0xc0
 1266 02d0 11       		.byte	0x11
 1267 02d1 66020000 		.4byte	0x266
 1268 02d5 18       		.byte	0x18
 1269 02d6 09       		.uleb128 0x9
 1270 02d7 72313100 		.ascii	"r11\000"
 1271 02db 08       		.byte	0x8
 1272 02dc C1       		.byte	0xc1
 1273 02dd 11       		.byte	0x11
 1274 02de 66020000 		.4byte	0x266
 1275 02e2 1C       		.byte	0x1c
 1276 02e3 09       		.uleb128 0x9
 1277 02e4 6C7200   		.ascii	"lr\000"
 1278 02e7 08       		.byte	0x8
 1279 02e8 C2       		.byte	0xc2
 1280 02e9 11       		.byte	0x11
 1281 02ea 66020000 		.4byte	0x266
 1282 02ee 20       		.byte	0x20
 1283 02ef 00       		.byte	0
 1284 02f0 07       		.uleb128 0x7
 1285 02f1 91060000 		.4byte	.LASF43
 1286 02f5 04       		.byte	0x4
 1287 02f6 08       		.byte	0x8
 1288 02f7 CA       		.byte	0xca
 1289 02f8 08       		.byte	0x8
 1290 02f9 0B030000 		.4byte	0x30b
 1291 02fd 09       		.uleb128 0x9
 1292 02fe 72313300 		.ascii	"r13\000"
 1293 0302 08       		.byte	0x8
 1294 0303 CB       		.byte	0xcb
 1295 0304 12       		.byte	0x12
 1296 0305 0B030000 		.4byte	0x30b
 1297 0309 00       		.byte	0
 1298 030a 00       		.byte	0
 1299 030b 0B       		.uleb128 0xb
 1300 030c 04       		.byte	0x4
 1301 030d 74020000 		.4byte	0x274
 1302 0311 03       		.uleb128 0x3
 1303 0312 F9020000 		.4byte	.LASF44
 1304 0316 09       		.byte	0x9
 1305 0317 4E       		.byte	0x4e
 1306 0318 10       		.byte	0x10
 1307 0319 1D030000 		.4byte	0x31d
 1308 031d 0B       		.uleb128 0xb
 1309 031e 04       		.byte	0x4
 1310 031f 23030000 		.4byte	0x323
 1311 0323 0D       		.uleb128 0xd
ARM GAS  /var/folders/l5/0x54b2c10074c8bt31ycjvl80000gp/T//ccbiey8U.s 			page 24


 1312 0324 2E030000 		.4byte	0x32e
 1313 0328 0E       		.uleb128 0xe
 1314 0329 72020000 		.4byte	0x272
 1315 032d 00       		.byte	0
 1316 032e 03       		.uleb128 0x3
 1317 032f F5050000 		.4byte	.LASF45
 1318 0333 09       		.byte	0x9
 1319 0334 53       		.byte	0x53
 1320 0335 1D       		.byte	0x1d
 1321 0336 3A030000 		.4byte	0x33a
 1322 033a 07       		.uleb128 0x7
 1323 033b F5050000 		.4byte	.LASF45
 1324 033f 14       		.byte	0x14
 1325 0340 09       		.byte	0x9
 1326 0341 5A       		.byte	0x5a
 1327 0342 08       		.byte	0x8
 1328 0343 89030000 		.4byte	0x389
 1329 0347 08       		.uleb128 0x8
 1330 0348 AE020000 		.4byte	.LASF46
 1331 034c 09       		.byte	0x9
 1332 034d 5B       		.byte	0x5b
 1333 034e 1A       		.byte	0x1a
 1334 034f 89030000 		.4byte	0x389
 1335 0353 00       		.byte	0
 1336 0354 08       		.uleb128 0x8
 1337 0355 9C010000 		.4byte	.LASF47
 1338 0359 09       		.byte	0x9
 1339 035a 5D       		.byte	0x5d
 1340 035b 1A       		.byte	0x1a
 1341 035c 89030000 		.4byte	0x389
 1342 0360 04       		.byte	0x4
 1343 0361 08       		.uleb128 0x8
 1344 0362 2C040000 		.4byte	.LASF48
 1345 0366 09       		.byte	0x9
 1346 0367 5F       		.byte	0x5f
 1347 0368 19       		.byte	0x19
 1348 0369 3A010000 		.4byte	0x13a
 1349 036d 08       		.byte	0x8
 1350 036e 08       		.uleb128 0x8
 1351 036f 54040000 		.4byte	.LASF49
 1352 0373 09       		.byte	0x9
 1353 0374 60       		.byte	0x60
 1354 0375 19       		.byte	0x19
 1355 0376 11030000 		.4byte	0x311
 1356 037a 0C       		.byte	0xc
 1357 037b 08       		.uleb128 0x8
 1358 037c B7060000 		.4byte	.LASF50
 1359 0380 09       		.byte	0x9
 1360 0381 62       		.byte	0x62
 1361 0382 1A       		.byte	0x1a
 1362 0383 72020000 		.4byte	0x272
 1363 0387 10       		.byte	0x10
 1364 0388 00       		.byte	0
 1365 0389 0B       		.uleb128 0xb
 1366 038a 04       		.byte	0x4
 1367 038b 2E030000 		.4byte	0x32e
 1368 038f 0A       		.uleb128 0xa
ARM GAS  /var/folders/l5/0x54b2c10074c8bt31ycjvl80000gp/T//ccbiey8U.s 			page 25


 1369 0390 10       		.byte	0x10
 1370 0391 09       		.byte	0x9
 1371 0392 6C       		.byte	0x6c
 1372 0393 09       		.byte	0x9
 1373 0394 CD030000 		.4byte	0x3cd
 1374 0398 08       		.uleb128 0x8
 1375 0399 AE020000 		.4byte	.LASF46
 1376 039d 09       		.byte	0x9
 1377 039e 6D       		.byte	0x6d
 1378 039f 1A       		.byte	0x1a
 1379 03a0 89030000 		.4byte	0x389
 1380 03a4 00       		.byte	0
 1381 03a5 08       		.uleb128 0x8
 1382 03a6 9C010000 		.4byte	.LASF47
 1383 03aa 09       		.byte	0x9
 1384 03ab 6F       		.byte	0x6f
 1385 03ac 1A       		.byte	0x1a
 1386 03ad 89030000 		.4byte	0x389
 1387 03b1 04       		.byte	0x4
 1388 03b2 08       		.uleb128 0x8
 1389 03b3 2C040000 		.4byte	.LASF48
 1390 03b7 09       		.byte	0x9
 1391 03b8 71       		.byte	0x71
 1392 03b9 19       		.byte	0x19
 1393 03ba 3A010000 		.4byte	0x13a
 1394 03be 08       		.byte	0x8
 1395 03bf 08       		.uleb128 0x8
 1396 03c0 42070000 		.4byte	.LASF51
 1397 03c4 09       		.byte	0x9
 1398 03c5 72       		.byte	0x72
 1399 03c6 19       		.byte	0x19
 1400 03c7 46010000 		.4byte	0x146
 1401 03cb 0C       		.byte	0xc
 1402 03cc 00       		.byte	0
 1403 03cd 03       		.uleb128 0x3
 1404 03ce 6E040000 		.4byte	.LASF52
 1405 03d2 09       		.byte	0x9
 1406 03d3 73       		.byte	0x73
 1407 03d4 03       		.byte	0x3
 1408 03d5 8F030000 		.4byte	0x38f
 1409 03d9 0F       		.uleb128 0xf
 1410 03da 2A000000 		.4byte	.LASF58
 1411 03de 09       		.byte	0x9
 1412 03df D1       		.byte	0xd1
 1413 03e0 0F       		.byte	0xf
 1414 03e1 CD030000 		.4byte	0x3cd
 1415 03e5 0A       		.uleb128 0xa
 1416 03e6 14       		.byte	0x14
 1417 03e7 0A       		.byte	0xa
 1418 03e8 57       		.byte	0x57
 1419 03e9 09       		.byte	0x9
 1420 03ea 23040000 		.4byte	0x423
 1421 03ee 08       		.uleb128 0x8
 1422 03ef ED050000 		.4byte	.LASF53
 1423 03f3 0A       		.byte	0xa
 1424 03f4 58       		.byte	0x58
 1425 03f5 19       		.byte	0x19
ARM GAS  /var/folders/l5/0x54b2c10074c8bt31ycjvl80000gp/T//ccbiey8U.s 			page 26


 1426 03f6 2B020000 		.4byte	0x22b
 1427 03fa 00       		.byte	0
 1428 03fb 08       		.uleb128 0x8
 1429 03fc 76050000 		.4byte	.LASF54
 1430 0400 0A       		.byte	0xa
 1431 0401 59       		.byte	0x59
 1432 0402 19       		.byte	0x19
 1433 0403 0A010000 		.4byte	0x10a
 1434 0407 08       		.byte	0x8
 1435 0408 08       		.uleb128 0x8
 1436 0409 85040000 		.4byte	.LASF55
 1437 040d 0A       		.byte	0xa
 1438 040e 5B       		.byte	0x5b
 1439 040f 19       		.byte	0x19
 1440 0410 F0020000 		.4byte	0x2f0
 1441 0414 0C       		.byte	0xc
 1442 0415 08       		.uleb128 0x8
 1443 0416 A0040000 		.4byte	.LASF56
 1444 041a 0A       		.byte	0xa
 1445 041b 62       		.byte	0x62
 1446 041c 1A       		.byte	0x1a
 1447 041d 25020000 		.4byte	0x225
 1448 0421 10       		.byte	0x10
 1449 0422 00       		.byte	0
 1450 0423 03       		.uleb128 0x3
 1451 0424 06070000 		.4byte	.LASF57
 1452 0428 0A       		.byte	0xa
 1453 0429 64       		.byte	0x64
 1454 042a 03       		.byte	0x3
 1455 042b E5030000 		.4byte	0x3e5
 1456 042f 0F       		.uleb128 0xf
 1457 0430 19070000 		.4byte	.LASF59
 1458 0434 0A       		.byte	0xa
 1459 0435 68       		.byte	0x68
 1460 0436 12       		.byte	0x12
 1461 0437 23040000 		.4byte	0x423
 1462 043b 07       		.uleb128 0x7
 1463 043c C4030000 		.4byte	.LASF60
 1464 0440 10       		.byte	0x10
 1465 0441 0B       		.byte	0xb
 1466 0442 25       		.byte	0x25
 1467 0443 10       		.byte	0x10
 1468 0444 70040000 		.4byte	0x470
 1469 0448 08       		.uleb128 0x8
 1470 0449 B6000000 		.4byte	.LASF61
 1471 044d 0B       		.byte	0xb
 1472 044e 26       		.byte	0x26
 1473 044f 19       		.byte	0x19
 1474 0450 2B020000 		.4byte	0x22b
 1475 0454 00       		.byte	0
 1476 0455 08       		.uleb128 0x8
 1477 0456 76070000 		.4byte	.LASF62
 1478 045a 0B       		.byte	0xb
 1479 045b 28       		.byte	0x28
 1480 045c 1A       		.byte	0x1a
 1481 045d 25020000 		.4byte	0x225
 1482 0461 08       		.byte	0x8
ARM GAS  /var/folders/l5/0x54b2c10074c8bt31ycjvl80000gp/T//ccbiey8U.s 			page 27


 1483 0462 08       		.uleb128 0x8
 1484 0463 57060000 		.4byte	.LASF63
 1485 0467 0B       		.byte	0xb
 1486 0468 2A       		.byte	0x2a
 1487 0469 1A       		.byte	0x1a
 1488 046a 70040000 		.4byte	0x470
 1489 046e 0C       		.byte	0xc
 1490 046f 00       		.byte	0
 1491 0470 0B       		.uleb128 0xb
 1492 0471 04       		.byte	0x4
 1493 0472 3B040000 		.4byte	0x43b
 1494 0476 03       		.uleb128 0x3
 1495 0477 C4030000 		.4byte	.LASF60
 1496 047b 0B       		.byte	0xb
 1497 047c 2C       		.byte	0x2c
 1498 047d 03       		.byte	0x3
 1499 047e 3B040000 		.4byte	0x43b
 1500 0482 03       		.uleb128 0x3
 1501 0483 2D070000 		.4byte	.LASF64
 1502 0487 0C       		.byte	0xc
 1503 0488 25       		.byte	0x25
 1504 0489 1E       		.byte	0x1e
 1505 048a 8E040000 		.4byte	0x48e
 1506 048e 07       		.uleb128 0x7
 1507 048f 2D070000 		.4byte	.LASF64
 1508 0493 10       		.byte	0x10
 1509 0494 0C       		.byte	0xc
 1510 0495 2A       		.byte	0x2a
 1511 0496 08       		.byte	0x8
 1512 0497 D0040000 		.4byte	0x4d0
 1513 049b 08       		.uleb128 0x8
 1514 049c 8A030000 		.4byte	.LASF65
 1515 04a0 0C       		.byte	0xc
 1516 04a1 2B       		.byte	0x2b
 1517 04a2 1A       		.byte	0x1a
 1518 04a3 D0040000 		.4byte	0x4d0
 1519 04a7 00       		.byte	0
 1520 04a8 08       		.uleb128 0x8
 1521 04a9 3B050000 		.4byte	.LASF66
 1522 04ad 0C       		.byte	0xc
 1523 04ae 2E       		.byte	0x2e
 1524 04af 1A       		.byte	0x1a
 1525 04b0 25020000 		.4byte	0x225
 1526 04b4 04       		.byte	0x4
 1527 04b5 08       		.uleb128 0x8
 1528 04b6 AA040000 		.4byte	.LASF67
 1529 04ba 0C       		.byte	0xc
 1530 04bb 30       		.byte	0x30
 1531 04bc 19       		.byte	0x19
 1532 04bd 22010000 		.4byte	0x122
 1533 04c1 08       		.byte	0x8
 1534 04c2 08       		.uleb128 0x8
 1535 04c3 47050000 		.4byte	.LASF68
 1536 04c7 0C       		.byte	0xc
 1537 04c8 33       		.byte	0x33
 1538 04c9 19       		.byte	0x19
 1539 04ca 2E010000 		.4byte	0x12e
ARM GAS  /var/folders/l5/0x54b2c10074c8bt31ycjvl80000gp/T//ccbiey8U.s 			page 28


 1540 04ce 0C       		.byte	0xc
 1541 04cf 00       		.byte	0
 1542 04d0 0B       		.uleb128 0xb
 1543 04d1 04       		.byte	0x4
 1544 04d2 82040000 		.4byte	0x482
 1545 04d6 07       		.uleb128 0x7
 1546 04d7 95020000 		.4byte	.LASF69
 1547 04db 04       		.byte	0x4
 1548 04dc 0C       		.byte	0xc
 1549 04dd 3A       		.byte	0x3a
 1550 04de 10       		.byte	0x10
 1551 04df F1040000 		.4byte	0x4f1
 1552 04e3 08       		.uleb128 0x8
 1553 04e4 F7060000 		.4byte	.LASF70
 1554 04e8 0C       		.byte	0xc
 1555 04e9 3B       		.byte	0x3b
 1556 04ea 1A       		.byte	0x1a
 1557 04eb D0040000 		.4byte	0x4d0
 1558 04ef 00       		.byte	0
 1559 04f0 00       		.byte	0
 1560 04f1 03       		.uleb128 0x3
 1561 04f2 95020000 		.4byte	.LASF69
 1562 04f6 0C       		.byte	0xc
 1563 04f7 3E       		.byte	0x3e
 1564 04f8 03       		.byte	0x3
 1565 04f9 D6040000 		.4byte	0x4d6
 1566 04fd 10       		.uleb128 0x10
 1567 04fe 04       		.byte	0x4
 1568 04ff 07       		.byte	0x7
 1569 0500 8F       		.byte	0x8f
 1570 0501 03       		.byte	0x3
 1571 0502 37050000 		.4byte	0x537
 1572 0506 11       		.uleb128 0x11
 1573 0507 07000000 		.4byte	.LASF71
 1574 050b 07       		.byte	0x7
 1575 050c 96       		.byte	0x96
 1576 050d 19       		.byte	0x19
 1577 050e 16010000 		.4byte	0x116
 1578 0512 11       		.uleb128 0x11
 1579 0513 5F000000 		.4byte	.LASF72
 1580 0517 07       		.byte	0x7
 1581 0518 9D       		.byte	0x9d
 1582 0519 19       		.byte	0x19
 1583 051a 16010000 		.4byte	0x116
 1584 051e 11       		.uleb128 0x11
 1585 051f 3B070000 		.4byte	.LASF73
 1586 0523 07       		.byte	0x7
 1587 0524 A4       		.byte	0xa4
 1588 0525 1A       		.byte	0x1a
 1589 0526 72020000 		.4byte	0x272
 1590 052a 11       		.uleb128 0x11
 1591 052b 86050000 		.4byte	.LASF74
 1592 052f 07       		.byte	0x7
 1593 0530 AB       		.byte	0xab
 1594 0531 19       		.byte	0x19
 1595 0532 22010000 		.4byte	0x122
 1596 0536 00       		.byte	0
ARM GAS  /var/folders/l5/0x54b2c10074c8bt31ycjvl80000gp/T//ccbiey8U.s 			page 29


 1597 0537 0B       		.uleb128 0xb
 1598 0538 04       		.byte	0x4
 1599 0539 76040000 		.4byte	0x476
 1600 053d 0B       		.uleb128 0xb
 1601 053e 04       		.byte	0x4
 1602 053f 43050000 		.4byte	0x543
 1603 0543 12       		.uleb128 0x12
 1604 0544 16010000 		.4byte	0x116
 1605 0548 52050000 		.4byte	0x552
 1606 054c 0E       		.uleb128 0xe
 1607 054d 72020000 		.4byte	0x272
 1608 0551 00       		.byte	0
 1609 0552 03       		.uleb128 0x3
 1610 0553 D0030000 		.4byte	.LASF75
 1611 0557 0D       		.byte	0xd
 1612 0558 30       		.byte	0x30
 1613 0559 1D       		.byte	0x1d
 1614 055a 5E050000 		.4byte	0x55e
 1615 055e 07       		.uleb128 0x7
 1616 055f D0030000 		.4byte	.LASF75
 1617 0563 24       		.byte	0x24
 1618 0564 0D       		.byte	0xd
 1619 0565 3E       		.byte	0x3e
 1620 0566 08       		.byte	0x8
 1621 0567 D4050000 		.4byte	0x5d4
 1622 056b 08       		.uleb128 0x8
 1623 056c 8A000000 		.4byte	.LASF76
 1624 0570 0D       		.byte	0xd
 1625 0571 3F       		.byte	0x3f
 1626 0572 19       		.byte	0x19
 1627 0573 2B020000 		.4byte	0x22b
 1628 0577 00       		.byte	0
 1629 0578 08       		.uleb128 0x8
 1630 0579 4A040000 		.4byte	.LASF77
 1631 057d 0D       		.byte	0xd
 1632 057e 40       		.byte	0x40
 1633 057f 19       		.byte	0x19
 1634 0580 2C000000 		.4byte	0x2c
 1635 0584 08       		.byte	0x8
 1636 0585 08       		.uleb128 0x8
 1637 0586 45010000 		.4byte	.LASF78
 1638 058a 0D       		.byte	0xd
 1639 058b 41       		.byte	0x41
 1640 058c 1A       		.byte	0x1a
 1641 058d F7050000 		.4byte	0x5f7
 1642 0591 0C       		.byte	0xc
 1643 0592 08       		.uleb128 0x8
 1644 0593 E4060000 		.4byte	.LASF79
 1645 0597 0D       		.byte	0xd
 1646 0598 42       		.byte	0x42
 1647 0599 1A       		.byte	0x1a
 1648 059a F7050000 		.4byte	0x5f7
 1649 059e 10       		.byte	0x10
 1650 059f 08       		.uleb128 0x8
 1651 05a0 7D040000 		.4byte	.LASF80
 1652 05a4 0D       		.byte	0xd
 1653 05a5 44       		.byte	0x44
ARM GAS  /var/folders/l5/0x54b2c10074c8bt31ycjvl80000gp/T//ccbiey8U.s 			page 30


 1654 05a6 1A       		.byte	0x1a
 1655 05a7 F7050000 		.4byte	0x5f7
 1656 05ab 14       		.byte	0x14
 1657 05ac 08       		.uleb128 0x8
 1658 05ad FE040000 		.4byte	.LASF81
 1659 05b1 0D       		.byte	0xd
 1660 05b2 45       		.byte	0x45
 1661 05b3 1A       		.byte	0x1a
 1662 05b4 F7050000 		.4byte	0x5f7
 1663 05b8 18       		.byte	0x18
 1664 05b9 08       		.uleb128 0x8
 1665 05ba 10070000 		.4byte	.LASF82
 1666 05be 0D       		.byte	0xd
 1667 05bf 46       		.byte	0x46
 1668 05c0 19       		.byte	0x19
 1669 05c1 D4050000 		.4byte	0x5d4
 1670 05c5 1C       		.byte	0x1c
 1671 05c6 08       		.uleb128 0x8
 1672 05c7 65070000 		.4byte	.LASF83
 1673 05cb 0D       		.byte	0xd
 1674 05cc 47       		.byte	0x47
 1675 05cd 1A       		.byte	0x1a
 1676 05ce 72020000 		.4byte	0x272
 1677 05d2 20       		.byte	0x20
 1678 05d3 00       		.byte	0
 1679 05d4 03       		.uleb128 0x3
 1680 05d5 E5040000 		.4byte	.LASF84
 1681 05d9 0D       		.byte	0xd
 1682 05da 33       		.byte	0x33
 1683 05db 10       		.byte	0x10
 1684 05dc E0050000 		.4byte	0x5e0
 1685 05e0 0B       		.uleb128 0xb
 1686 05e1 04       		.byte	0x4
 1687 05e2 E6050000 		.4byte	0x5e6
 1688 05e6 0D       		.uleb128 0xd
 1689 05e7 F1050000 		.4byte	0x5f1
 1690 05eb 0E       		.uleb128 0xe
 1691 05ec F1050000 		.4byte	0x5f1
 1692 05f0 00       		.byte	0
 1693 05f1 0B       		.uleb128 0xb
 1694 05f2 04       		.byte	0x4
 1695 05f3 52050000 		.4byte	0x552
 1696 05f7 0B       		.uleb128 0xb
 1697 05f8 04       		.byte	0x4
 1698 05f9 99000000 		.4byte	0x99
 1699 05fd 03       		.uleb128 0x3
 1700 05fe B9030000 		.4byte	.LASF85
 1701 0602 0D       		.byte	0xd
 1702 0603 7B       		.byte	0x7b
 1703 0604 16       		.byte	0x16
 1704 0605 52050000 		.4byte	0x552
 1705 0609 03       		.uleb128 0x3
 1706 060a 14000000 		.4byte	.LASF86
 1707 060e 0D       		.byte	0xd
 1708 060f EE       		.byte	0xee
 1709 0610 16       		.byte	0x16
 1710 0611 52050000 		.4byte	0x552
ARM GAS  /var/folders/l5/0x54b2c10074c8bt31ycjvl80000gp/T//ccbiey8U.s 			page 31


 1711 0615 12       		.uleb128 0x12
 1712 0616 2C000000 		.4byte	0x2c
 1713 061a 2E060000 		.4byte	0x62e
 1714 061e 0E       		.uleb128 0xe
 1715 061f 72020000 		.4byte	0x272
 1716 0623 0E       		.uleb128 0xe
 1717 0624 2E060000 		.4byte	0x62e
 1718 0628 0E       		.uleb128 0xe
 1719 0629 2C000000 		.4byte	0x2c
 1720 062d 00       		.byte	0
 1721 062e 0B       		.uleb128 0xb
 1722 062f 04       		.byte	0x4
 1723 0630 A5000000 		.4byte	0xa5
 1724 0634 0B       		.uleb128 0xb
 1725 0635 04       		.byte	0x4
 1726 0636 15060000 		.4byte	0x615
 1727 063a 12       		.uleb128 0x12
 1728 063b 2C000000 		.4byte	0x2c
 1729 063f 53060000 		.4byte	0x653
 1730 0643 0E       		.uleb128 0xe
 1731 0644 72020000 		.4byte	0x272
 1732 0648 0E       		.uleb128 0xe
 1733 0649 F7050000 		.4byte	0x5f7
 1734 064d 0E       		.uleb128 0xe
 1735 064e 2C000000 		.4byte	0x2c
 1736 0652 00       		.byte	0
 1737 0653 0B       		.uleb128 0xb
 1738 0654 04       		.byte	0x4
 1739 0655 3A060000 		.4byte	0x63a
 1740 0659 12       		.uleb128 0x12
 1741 065a 16010000 		.4byte	0x116
 1742 065e 6D060000 		.4byte	0x66d
 1743 0662 0E       		.uleb128 0xe
 1744 0663 72020000 		.4byte	0x272
 1745 0667 0E       		.uleb128 0xe
 1746 0668 99000000 		.4byte	0x99
 1747 066c 00       		.byte	0
 1748 066d 0B       		.uleb128 0xb
 1749 066e 04       		.byte	0x4
 1750 066f 59060000 		.4byte	0x659
 1751 0673 13       		.uleb128 0x13
 1752 0674 5A020000 		.4byte	0x25a
 1753 0678 83060000 		.4byte	0x683
 1754 067c 14       		.uleb128 0x14
 1755 067d 38000000 		.4byte	0x38
 1756 0681 1F       		.byte	0x1f
 1757 0682 00       		.byte	0
 1758 0683 0F       		.uleb128 0xf
 1759 0684 70010000 		.4byte	.LASF87
 1760 0688 0E       		.byte	0xe
 1761 0689 82       		.byte	0x82
 1762 068a 08       		.byte	0x8
 1763 068b 73060000 		.4byte	0x673
 1764 068f 07       		.uleb128 0x7
 1765 0690 31000000 		.4byte	.LASF88
 1766 0694 20       		.byte	0x20
 1767 0695 0F       		.byte	0xf
ARM GAS  /var/folders/l5/0x54b2c10074c8bt31ycjvl80000gp/T//ccbiey8U.s 			page 32


 1768 0696 FD       		.byte	0xfd
 1769 0697 08       		.byte	0x8
 1770 0698 0B070000 		.4byte	0x70b
 1771 069c 08       		.uleb128 0x8
 1772 069d 80010000 		.4byte	.LASF89
 1773 06a1 0F       		.byte	0xf
 1774 06a2 FE       		.byte	0xfe
 1775 06a3 19       		.byte	0x19
 1776 06a4 E1000000 		.4byte	0xe1
 1777 06a8 00       		.byte	0
 1778 06a9 08       		.uleb128 0x8
 1779 06aa FF060000 		.4byte	.LASF90
 1780 06ae 0F       		.byte	0xf
 1781 06af FF       		.byte	0xff
 1782 06b0 19       		.byte	0x19
 1783 06b1 E1000000 		.4byte	0xe1
 1784 06b5 04       		.byte	0x4
 1785 06b6 15       		.uleb128 0x15
 1786 06b7 65010000 		.4byte	.LASF91
 1787 06bb 0F       		.byte	0xf
 1788 06bc 0001     		.2byte	0x100
 1789 06be 19       		.byte	0x19
 1790 06bf E1000000 		.4byte	0xe1
 1791 06c3 08       		.byte	0x8
 1792 06c4 15       		.uleb128 0x15
 1793 06c5 A4010000 		.4byte	.LASF92
 1794 06c9 0F       		.byte	0xf
 1795 06ca 0101     		.2byte	0x101
 1796 06cc 19       		.byte	0x19
 1797 06cd E1000000 		.4byte	0xe1
 1798 06d1 0C       		.byte	0xc
 1799 06d2 15       		.uleb128 0x15
 1800 06d3 6D000000 		.4byte	.LASF93
 1801 06d7 0F       		.byte	0xf
 1802 06d8 0201     		.2byte	0x102
 1803 06da 19       		.byte	0x19
 1804 06db E1000000 		.4byte	0xe1
 1805 06df 10       		.byte	0x10
 1806 06e0 15       		.uleb128 0x15
 1807 06e1 3D040000 		.4byte	.LASF94
 1808 06e5 0F       		.byte	0xf
 1809 06e6 0301     		.2byte	0x103
 1810 06e8 19       		.byte	0x19
 1811 06e9 E1000000 		.4byte	0xe1
 1812 06ed 14       		.byte	0x14
 1813 06ee 15       		.uleb128 0x15
 1814 06ef 3B010000 		.4byte	.LASF95
 1815 06f3 0F       		.byte	0xf
 1816 06f4 0401     		.2byte	0x104
 1817 06f6 19       		.byte	0x19
 1818 06f7 E1000000 		.4byte	0xe1
 1819 06fb 18       		.byte	0x18
 1820 06fc 15       		.uleb128 0x15
 1821 06fd A9070000 		.4byte	.LASF96
 1822 0701 0F       		.byte	0xf
 1823 0702 0501     		.2byte	0x105
 1824 0704 19       		.byte	0x19
ARM GAS  /var/folders/l5/0x54b2c10074c8bt31ycjvl80000gp/T//ccbiey8U.s 			page 33


 1825 0705 E1000000 		.4byte	0xe1
 1826 0709 1C       		.byte	0x1c
 1827 070a 00       		.byte	0
 1828 070b 16       		.uleb128 0x16
 1829 070c 31000000 		.4byte	.LASF88
 1830 0710 0F       		.byte	0xf
 1831 0711 0801     		.2byte	0x108
 1832 0713 1C       		.byte	0x1c
 1833 0714 8F060000 		.4byte	0x68f
 1834 0718 12       		.uleb128 0x12
 1835 0719 16010000 		.4byte	0x116
 1836 071d 31070000 		.4byte	0x731
 1837 0721 0E       		.uleb128 0xe
 1838 0722 72020000 		.4byte	0x272
 1839 0726 0E       		.uleb128 0xe
 1840 0727 99000000 		.4byte	0x99
 1841 072b 0E       		.uleb128 0xe
 1842 072c 3A010000 		.4byte	0x13a
 1843 0730 00       		.byte	0
 1844 0731 0B       		.uleb128 0xb
 1845 0732 04       		.byte	0x4
 1846 0733 18070000 		.4byte	0x718
 1847 0737 12       		.uleb128 0x12
 1848 0738 16010000 		.4byte	0x116
 1849 073c 4B070000 		.4byte	0x74b
 1850 0740 0E       		.uleb128 0xe
 1851 0741 72020000 		.4byte	0x272
 1852 0745 0E       		.uleb128 0xe
 1853 0746 3A010000 		.4byte	0x13a
 1854 074a 00       		.byte	0
 1855 074b 0B       		.uleb128 0xb
 1856 074c 04       		.byte	0x4
 1857 074d 37070000 		.4byte	0x737
 1858 0751 12       		.uleb128 0x12
 1859 0752 2C000000 		.4byte	0x2c
 1860 0756 6F070000 		.4byte	0x76f
 1861 075a 0E       		.uleb128 0xe
 1862 075b 72020000 		.4byte	0x272
 1863 075f 0E       		.uleb128 0xe
 1864 0760 2E060000 		.4byte	0x62e
 1865 0764 0E       		.uleb128 0xe
 1866 0765 2C000000 		.4byte	0x2c
 1867 0769 0E       		.uleb128 0xe
 1868 076a 3A010000 		.4byte	0x13a
 1869 076e 00       		.byte	0
 1870 076f 0B       		.uleb128 0xb
 1871 0770 04       		.byte	0x4
 1872 0771 51070000 		.4byte	0x751
 1873 0775 12       		.uleb128 0x12
 1874 0776 2C000000 		.4byte	0x2c
 1875 077a 93070000 		.4byte	0x793
 1876 077e 0E       		.uleb128 0xe
 1877 077f 72020000 		.4byte	0x272
 1878 0783 0E       		.uleb128 0xe
 1879 0784 F7050000 		.4byte	0x5f7
 1880 0788 0E       		.uleb128 0xe
 1881 0789 2C000000 		.4byte	0x2c
ARM GAS  /var/folders/l5/0x54b2c10074c8bt31ycjvl80000gp/T//ccbiey8U.s 			page 34


 1882 078d 0E       		.uleb128 0xe
 1883 078e 3A010000 		.4byte	0x13a
 1884 0792 00       		.byte	0
 1885 0793 0B       		.uleb128 0xb
 1886 0794 04       		.byte	0x4
 1887 0795 75070000 		.4byte	0x775
 1888 0799 0A       		.uleb128 0xa
 1889 079a 18       		.byte	0x18
 1890 079b 10       		.byte	0x10
 1891 079c 2A       		.byte	0x2a
 1892 079d 09       		.byte	0x9
 1893 079e F1070000 		.4byte	0x7f1
 1894 07a2 08       		.uleb128 0x8
 1895 07a3 27070000 		.4byte	.LASF97
 1896 07a7 10       		.byte	0x10
 1897 07a8 2F       		.byte	0x2f
 1898 07a9 15       		.byte	0x15
 1899 07aa C2000000 		.4byte	0xc2
 1900 07ae 00       		.byte	0
 1901 07af 08       		.uleb128 0x8
 1902 07b0 B2040000 		.4byte	.LASF98
 1903 07b4 10       		.byte	0x10
 1904 07b5 31       		.byte	0x31
 1905 07b6 16       		.byte	0x16
 1906 07b7 F1070000 		.4byte	0x7f1
 1907 07bb 04       		.byte	0x4
 1908 07bc 08       		.uleb128 0x8
 1909 07bd 27030000 		.4byte	.LASF99
 1910 07c1 10       		.byte	0x10
 1911 07c2 32       		.byte	0x32
 1912 07c3 16       		.byte	0x16
 1913 07c4 F1070000 		.4byte	0x7f1
 1914 07c8 08       		.byte	0x8
 1915 07c9 08       		.uleb128 0x8
 1916 07ca 21040000 		.4byte	.LASF100
 1917 07ce 10       		.byte	0x10
 1918 07cf 33       		.byte	0x33
 1919 07d0 16       		.byte	0x16
 1920 07d1 F1070000 		.4byte	0x7f1
 1921 07d5 0C       		.byte	0xc
 1922 07d6 08       		.uleb128 0x8
 1923 07d7 B8040000 		.4byte	.LASF101
 1924 07db 10       		.byte	0x10
 1925 07dc 34       		.byte	0x34
 1926 07dd 16       		.byte	0x16
 1927 07de F1070000 		.4byte	0x7f1
 1928 07e2 10       		.byte	0x10
 1929 07e3 08       		.uleb128 0x8
 1930 07e4 7D050000 		.4byte	.LASF102
 1931 07e8 10       		.byte	0x10
 1932 07e9 35       		.byte	0x35
 1933 07ea 10       		.byte	0x10
 1934 07eb DA000000 		.4byte	0xda
 1935 07ef 14       		.byte	0x14
 1936 07f0 00       		.byte	0
 1937 07f1 0B       		.uleb128 0xb
 1938 07f2 04       		.byte	0x4
ARM GAS  /var/folders/l5/0x54b2c10074c8bt31ycjvl80000gp/T//ccbiey8U.s 			page 35


 1939 07f3 CE000000 		.4byte	0xce
 1940 07f7 03       		.uleb128 0x3
 1941 07f8 1B030000 		.4byte	.LASF103
 1942 07fc 10       		.byte	0x10
 1943 07fd 37       		.byte	0x37
 1944 07fe 03       		.byte	0x3
 1945 07ff 99070000 		.4byte	0x799
 1946 0803 17       		.uleb128 0x17
 1947 0804 00       		.byte	0
 1948 0805 10       		.byte	0x10
 1949 0806 43       		.byte	0x43
 1950 0807 09       		.byte	0x9
 1951 0808 03       		.uleb128 0x3
 1952 0809 6C070000 		.4byte	.LASF104
 1953 080d 10       		.byte	0x10
 1954 080e 45       		.byte	0x45
 1955 080f 03       		.byte	0x3
 1956 0810 03080000 		.4byte	0x803
 1957 0814 04       		.uleb128 0x4
 1958 0815 08080000 		.4byte	0x808
 1959 0819 0F       		.uleb128 0xf
 1960 081a 98040000 		.4byte	.LASF105
 1961 081e 10       		.byte	0x10
 1962 081f 6D       		.byte	0x6d
 1963 0820 14       		.byte	0x14
 1964 0821 F7070000 		.4byte	0x7f7
 1965 0825 0F       		.uleb128 0xf
 1966 0826 94050000 		.4byte	.LASF106
 1967 082a 10       		.byte	0x10
 1968 082b 6E       		.byte	0x6e
 1969 082c 14       		.byte	0x14
 1970 082d F7070000 		.4byte	0x7f7
 1971 0831 0F       		.uleb128 0xf
 1972 0832 7E070000 		.4byte	.LASF107
 1973 0836 10       		.byte	0x10
 1974 0837 75       		.byte	0x75
 1975 0838 18       		.byte	0x18
 1976 0839 14080000 		.4byte	0x814
 1977 083d 18       		.uleb128 0x18
 1978 083e 07       		.byte	0x7
 1979 083f 04       		.byte	0x4
 1980 0840 DA000000 		.4byte	0xda
 1981 0844 11       		.byte	0x11
 1982 0845 54       		.byte	0x54
 1983 0846 0E       		.byte	0xe
 1984 0847 70080000 		.4byte	0x870
 1985 084b 19       		.uleb128 0x19
 1986 084c 07010000 		.4byte	.LASF108
 1987 0850 00       		.byte	0
 1988 0851 19       		.uleb128 0x19
 1989 0852 34040000 		.4byte	.LASF109
 1990 0856 01       		.byte	0x1
 1991 0857 19       		.uleb128 0x19
 1992 0858 7D060000 		.4byte	.LASF110
 1993 085c 02       		.byte	0x2
 1994 085d 19       		.uleb128 0x19
 1995 085e 57010000 		.4byte	.LASF111
ARM GAS  /var/folders/l5/0x54b2c10074c8bt31ycjvl80000gp/T//ccbiey8U.s 			page 36


 1996 0862 03       		.byte	0x3
 1997 0863 19       		.uleb128 0x19
 1998 0864 0F060000 		.4byte	.LASF112
 1999 0868 04       		.byte	0x4
 2000 0869 19       		.uleb128 0x19
 2001 086a B6050000 		.4byte	.LASF113
 2002 086e 05       		.byte	0x5
 2003 086f 00       		.byte	0
 2004 0870 03       		.uleb128 0x3
 2005 0871 DA040000 		.4byte	.LASF114
 2006 0875 11       		.byte	0x11
 2007 0876 5B       		.byte	0x5b
 2008 0877 03       		.byte	0x3
 2009 0878 3D080000 		.4byte	0x83d
 2010 087c 03       		.uleb128 0x3
 2011 087d 87060000 		.4byte	.LASF115
 2012 0881 12       		.byte	0x12
 2013 0882 38       		.byte	0x38
 2014 0883 1A       		.byte	0x1a
 2015 0884 88080000 		.4byte	0x888
 2016 0888 07       		.uleb128 0x7
 2017 0889 87060000 		.4byte	.LASF115
 2018 088d 40       		.byte	0x40
 2019 088e 12       		.byte	0x12
 2020 088f 62       		.byte	0x62
 2021 0890 08       		.byte	0x8
 2022 0891 3F090000 		.4byte	0x93f
 2023 0895 08       		.uleb128 0x8
 2024 0896 1C010000 		.4byte	.LASF116
 2025 089a 12       		.byte	0x12
 2026 089b 64       		.byte	0x64
 2027 089c 1D       		.byte	0x1d
 2028 089d 70080000 		.4byte	0x870
 2029 08a1 00       		.byte	0
 2030 08a2 08       		.uleb128 0x8
 2031 08a3 45060000 		.4byte	.LASF117
 2032 08a7 12       		.byte	0x12
 2033 08a8 66       		.byte	0x66
 2034 08a9 1E       		.byte	0x1e
 2035 08aa 85090000 		.4byte	0x985
 2036 08ae 04       		.byte	0x4
 2037 08af 08       		.uleb128 0x8
 2038 08b0 CC020000 		.4byte	.LASF118
 2039 08b4 12       		.byte	0x12
 2040 08b5 68       		.byte	0x68
 2041 08b6 1D       		.byte	0x1d
 2042 08b7 3F090000 		.4byte	0x93f
 2043 08bb 08       		.byte	0x8
 2044 08bc 08       		.uleb128 0x8
 2045 08bd 83000000 		.4byte	.LASF119
 2046 08c1 12       		.byte	0x12
 2047 08c2 6A       		.byte	0x6a
 2048 08c3 1E       		.byte	0x1e
 2049 08c4 8B090000 		.4byte	0x98b
 2050 08c8 0C       		.byte	0xc
 2051 08c9 08       		.uleb128 0x8
 2052 08ca 11050000 		.4byte	.LASF120
ARM GAS  /var/folders/l5/0x54b2c10074c8bt31ycjvl80000gp/T//ccbiey8U.s 			page 37


 2053 08ce 12       		.byte	0x12
 2054 08cf 6D       		.byte	0x6d
 2055 08d0 1D       		.byte	0x1d
 2056 08d1 76040000 		.4byte	0x476
 2057 08d5 10       		.byte	0x10
 2058 08d6 08       		.uleb128 0x8
 2059 08d7 34010000 		.4byte	.LASF121
 2060 08db 12       		.byte	0x12
 2061 08dc 77       		.byte	0x77
 2062 08dd 1E       		.byte	0x1e
 2063 08de 25020000 		.4byte	0x225
 2064 08e2 20       		.byte	0x20
 2065 08e3 08       		.uleb128 0x8
 2066 08e4 5A000000 		.4byte	.LASF122
 2067 08e8 12       		.byte	0x12
 2068 08e9 7B       		.byte	0x7b
 2069 08ea 1D       		.byte	0x1d
 2070 08eb 4B090000 		.4byte	0x94b
 2071 08ef 24       		.byte	0x24
 2072 08f0 08       		.uleb128 0x8
 2073 08f1 B6020000 		.4byte	.LASF123
 2074 08f5 12       		.byte	0x12
 2075 08f6 7F       		.byte	0x7f
 2076 08f7 1E       		.byte	0x1e
 2077 08f8 2E060000 		.4byte	0x62e
 2078 08fc 28       		.byte	0x28
 2079 08fd 08       		.uleb128 0x8
 2080 08fe A1070000 		.4byte	.LASF124
 2081 0902 12       		.byte	0x12
 2082 0903 83       		.byte	0x83
 2083 0904 1D       		.byte	0x1d
 2084 0905 2C000000 		.4byte	0x2c
 2085 0909 2C       		.byte	0x2c
 2086 090a 08       		.uleb128 0x8
 2087 090b DE060000 		.4byte	.LASF125
 2088 090f 12       		.byte	0x12
 2089 0910 87       		.byte	0x87
 2090 0911 1D       		.byte	0x1d
 2091 0912 2C000000 		.4byte	0x2c
 2092 0916 30       		.byte	0x30
 2093 0917 08       		.uleb128 0x8
 2094 0918 3D000000 		.4byte	.LASF126
 2095 091c 12       		.byte	0x12
 2096 091d 8B       		.byte	0x8b
 2097 091e 1E       		.byte	0x1e
 2098 091f F7050000 		.4byte	0x5f7
 2099 0923 34       		.byte	0x34
 2100 0924 08       		.uleb128 0x8
 2101 0925 75040000 		.4byte	.LASF127
 2102 0929 12       		.byte	0x12
 2103 092a 8F       		.byte	0x8f
 2104 092b 1D       		.byte	0x1d
 2105 092c 2C000000 		.4byte	0x2c
 2106 0930 38       		.byte	0x38
 2107 0931 08       		.uleb128 0x8
 2108 0932 D4040000 		.4byte	.LASF128
 2109 0936 12       		.byte	0x12
ARM GAS  /var/folders/l5/0x54b2c10074c8bt31ycjvl80000gp/T//ccbiey8U.s 			page 38


 2110 0937 93       		.byte	0x93
 2111 0938 1D       		.byte	0x1d
 2112 0939 2C000000 		.4byte	0x2c
 2113 093d 3C       		.byte	0x3c
 2114 093e 00       		.byte	0
 2115 093f 03       		.uleb128 0x3
 2116 0940 06050000 		.4byte	.LASF129
 2117 0944 12       		.byte	0x12
 2118 0945 42       		.byte	0x42
 2119 0946 12       		.byte	0x12
 2120 0947 C2000000 		.4byte	0xc2
 2121 094b 03       		.uleb128 0x3
 2122 094c 12010000 		.4byte	.LASF130
 2123 0950 12       		.byte	0x12
 2124 0951 48       		.byte	0x48
 2125 0952 12       		.byte	0x12
 2126 0953 AA000000 		.4byte	0xaa
 2127 0957 0B       		.uleb128 0xb
 2128 0958 04       		.byte	0x4
 2129 0959 7C080000 		.4byte	0x87c
 2130 095d 0A       		.uleb128 0xa
 2131 095e 04       		.byte	0x4
 2132 095f 12       		.byte	0x12
 2133 0960 57       		.byte	0x57
 2134 0961 09       		.byte	0x9
 2135 0962 74090000 		.4byte	0x974
 2136 0966 08       		.uleb128 0x8
 2137 0967 5C040000 		.4byte	.LASF131
 2138 096b 12       		.byte	0x12
 2139 096c 59       		.byte	0x59
 2140 096d 1D       		.byte	0x1d
 2141 096e C2000000 		.4byte	0xc2
 2142 0972 00       		.byte	0
 2143 0973 00       		.byte	0
 2144 0974 03       		.uleb128 0x3
 2145 0975 CA060000 		.4byte	.LASF132
 2146 0979 12       		.byte	0x12
 2147 097a 5B       		.byte	0x5b
 2148 097b 03       		.byte	0x3
 2149 097c 5D090000 		.4byte	0x95d
 2150 0980 04       		.uleb128 0x4
 2151 0981 74090000 		.4byte	0x974
 2152 0985 0B       		.uleb128 0xb
 2153 0986 04       		.byte	0x4
 2154 0987 80090000 		.4byte	0x980
 2155 098b 0B       		.uleb128 0xb
 2156 098c 04       		.byte	0x4
 2157 098d 0B070000 		.4byte	0x70b
 2158 0991 0F       		.uleb128 0xf
 2159 0992 90020000 		.4byte	.LASF133
 2160 0996 12       		.byte	0x12
 2161 0997 A6       		.byte	0xa6
 2162 0998 12       		.byte	0x12
 2163 0999 7C080000 		.4byte	0x87c
 2164 099d 18       		.uleb128 0x18
 2165 099e 07       		.byte	0x7
 2166 099f 04       		.byte	0x4
ARM GAS  /var/folders/l5/0x54b2c10074c8bt31ycjvl80000gp/T//ccbiey8U.s 			page 39


 2167 09a0 DA000000 		.4byte	0xda
 2168 09a4 13       		.byte	0x13
 2169 09a5 5D       		.byte	0x5d
 2170 09a6 0E       		.byte	0xe
 2171 09a7 BE090000 		.4byte	0x9be
 2172 09ab 19       		.uleb128 0x19
 2173 09ac DA050000 		.4byte	.LASF134
 2174 09b0 00       		.byte	0
 2175 09b1 19       		.uleb128 0x19
 2176 09b2 AE000000 		.4byte	.LASF135
 2177 09b6 01       		.byte	0x1
 2178 09b7 19       		.uleb128 0x19
 2179 09b8 AE060000 		.4byte	.LASF136
 2180 09bc 02       		.byte	0x2
 2181 09bd 00       		.byte	0
 2182 09be 03       		.uleb128 0x3
 2183 09bf D4060000 		.4byte	.LASF137
 2184 09c3 13       		.byte	0x13
 2185 09c4 61       		.byte	0x61
 2186 09c5 03       		.byte	0x3
 2187 09c6 9D090000 		.4byte	0x99d
 2188 09ca 03       		.uleb128 0x3
 2189 09cb 02060000 		.4byte	.LASF138
 2190 09cf 13       		.byte	0x13
 2191 09d0 66       		.byte	0x66
 2192 09d1 1D       		.byte	0x1d
 2193 09d2 D6090000 		.4byte	0x9d6
 2194 09d6 07       		.uleb128 0x7
 2195 09d7 02060000 		.4byte	.LASF138
 2196 09db 74       		.byte	0x74
 2197 09dc 13       		.byte	0x13
 2198 09dd 80       		.byte	0x80
 2199 09de 08       		.byte	0x8
 2200 09df 3D0A0000 		.4byte	0xa3d
 2201 09e3 09       		.uleb128 0x9
 2202 09e4 766D7400 		.ascii	"vmt\000"
 2203 09e8 13       		.byte	0x13
 2204 09e9 82       		.byte	0x82
 2205 09ea 21       		.byte	0x21
 2206 09eb C40A0000 		.4byte	0xac4
 2207 09ef 00       		.byte	0
 2208 09f0 08       		.uleb128 0x8
 2209 09f1 02030000 		.4byte	.LASF139
 2210 09f5 13       		.byte	0x13
 2211 09f6 83       		.byte	0x83
 2212 09f7 03       		.byte	0x3
 2213 09f8 F1040000 		.4byte	0x4f1
 2214 09fc 04       		.byte	0x4
 2215 09fd 08       		.uleb128 0x8
 2216 09fe 1C010000 		.4byte	.LASF116
 2217 0a02 13       		.byte	0x13
 2218 0a03 83       		.byte	0x83
 2219 0a04 03       		.byte	0x3
 2220 0a05 BE090000 		.4byte	0x9be
 2221 0a09 08       		.byte	0x8
 2222 0a0a 08       		.uleb128 0x8
 2223 0a0b D3020000 		.4byte	.LASF140
ARM GAS  /var/folders/l5/0x54b2c10074c8bt31ycjvl80000gp/T//ccbiey8U.s 			page 40


 2224 0a0f 13       		.byte	0x13
 2225 0a10 83       		.byte	0x83
 2226 0a11 03       		.byte	0x3
 2227 0a12 FD050000 		.4byte	0x5fd
 2228 0a16 0C       		.byte	0xc
 2229 0a17 08       		.uleb128 0x8
 2230 0a18 33030000 		.4byte	.LASF141
 2231 0a1c 13       		.byte	0x13
 2232 0a1d 83       		.byte	0x83
 2233 0a1e 03       		.byte	0x3
 2234 0a1f 09060000 		.4byte	0x609
 2235 0a23 30       		.byte	0x30
 2236 0a24 09       		.uleb128 0x9
 2237 0a25 696200   		.ascii	"ib\000"
 2238 0a28 13       		.byte	0x13
 2239 0a29 83       		.byte	0x83
 2240 0a2a 03       		.byte	0x3
 2241 0a2b CA0A0000 		.4byte	0xaca
 2242 0a2f 54       		.byte	0x54
 2243 0a30 09       		.uleb128 0x9
 2244 0a31 6F6200   		.ascii	"ob\000"
 2245 0a34 13       		.byte	0x13
 2246 0a35 83       		.byte	0x83
 2247 0a36 03       		.byte	0x3
 2248 0a37 CA0A0000 		.4byte	0xaca
 2249 0a3b 64       		.byte	0x64
 2250 0a3c 00       		.byte	0
 2251 0a3d 1A       		.uleb128 0x1a
 2252 0a3e 53443100 		.ascii	"SD1\000"
 2253 0a42 14       		.byte	0x14
 2254 0a43 62       		.byte	0x62
 2255 0a44 15       		.byte	0x15
 2256 0a45 CA090000 		.4byte	0x9ca
 2257 0a49 07       		.uleb128 0x7
 2258 0a4a BC020000 		.4byte	.LASF142
 2259 0a4e 20       		.byte	0x20
 2260 0a4f 13       		.byte	0x13
 2261 0a50 75       		.byte	0x75
 2262 0a51 08       		.byte	0x8
 2263 0a52 BF0A0000 		.4byte	0xabf
 2264 0a56 08       		.uleb128 0x8
 2265 0a57 0E000000 		.4byte	.LASF143
 2266 0a5b 13       		.byte	0x13
 2267 0a5c 76       		.byte	0x76
 2268 0a5d 03       		.byte	0x3
 2269 0a5e 34060000 		.4byte	0x634
 2270 0a62 00       		.byte	0
 2271 0a63 08       		.uleb128 0x8
 2272 0a64 1D060000 		.4byte	.LASF144
 2273 0a68 13       		.byte	0x13
 2274 0a69 76       		.byte	0x76
 2275 0a6a 03       		.byte	0x3
 2276 0a6b 53060000 		.4byte	0x653
 2277 0a6f 04       		.byte	0x4
 2278 0a70 09       		.uleb128 0x9
 2279 0a71 70757400 		.ascii	"put\000"
 2280 0a75 13       		.byte	0x13
ARM GAS  /var/folders/l5/0x54b2c10074c8bt31ycjvl80000gp/T//ccbiey8U.s 			page 41


 2281 0a76 76       		.byte	0x76
 2282 0a77 03       		.byte	0x3
 2283 0a78 6D060000 		.4byte	0x66d
 2284 0a7c 08       		.byte	0x8
 2285 0a7d 09       		.uleb128 0x9
 2286 0a7e 67657400 		.ascii	"get\000"
 2287 0a82 13       		.byte	0x13
 2288 0a83 76       		.byte	0x76
 2289 0a84 03       		.byte	0x3
 2290 0a85 3D050000 		.4byte	0x53d
 2291 0a89 0C       		.byte	0xc
 2292 0a8a 08       		.uleb128 0x8
 2293 0a8b 27040000 		.4byte	.LASF145
 2294 0a8f 13       		.byte	0x13
 2295 0a90 76       		.byte	0x76
 2296 0a91 03       		.byte	0x3
 2297 0a92 31070000 		.4byte	0x731
 2298 0a96 10       		.byte	0x10
 2299 0a97 08       		.uleb128 0x8
 2300 0a98 F4020000 		.4byte	.LASF146
 2301 0a9c 13       		.byte	0x13
 2302 0a9d 76       		.byte	0x76
 2303 0a9e 03       		.byte	0x3
 2304 0a9f 4B070000 		.4byte	0x74b
 2305 0aa3 14       		.byte	0x14
 2306 0aa4 08       		.uleb128 0x8
 2307 0aa5 92030000 		.4byte	.LASF147
 2308 0aa9 13       		.byte	0x13
 2309 0aaa 76       		.byte	0x76
 2310 0aab 03       		.byte	0x3
 2311 0aac 6F070000 		.4byte	0x76f
 2312 0ab0 18       		.byte	0x18
 2313 0ab1 08       		.uleb128 0x8
 2314 0ab2 7D000000 		.4byte	.LASF148
 2315 0ab6 13       		.byte	0x13
 2316 0ab7 76       		.byte	0x76
 2317 0ab8 03       		.byte	0x3
 2318 0ab9 93070000 		.4byte	0x793
 2319 0abd 1C       		.byte	0x1c
 2320 0abe 00       		.byte	0
 2321 0abf 04       		.uleb128 0x4
 2322 0ac0 490A0000 		.4byte	0xa49
 2323 0ac4 0B       		.uleb128 0xb
 2324 0ac5 04       		.byte	0x4
 2325 0ac6 BF0A0000 		.4byte	0xabf
 2326 0aca 13       		.uleb128 0x13
 2327 0acb 99000000 		.4byte	0x99
 2328 0acf DA0A0000 		.4byte	0xada
 2329 0ad3 14       		.uleb128 0x14
 2330 0ad4 38000000 		.4byte	0x38
 2331 0ad8 0F       		.byte	0xf
 2332 0ad9 00       		.byte	0
 2333 0ada 1B       		.uleb128 0x1b
 2334 0adb 91090000 		.4byte	0x991
 2335 0adf 01       		.byte	0x1
 2336 0ae0 2A       		.byte	0x2a
 2337 0ae1 0B       		.byte	0xb
ARM GAS  /var/folders/l5/0x54b2c10074c8bt31ycjvl80000gp/T//ccbiey8U.s 			page 42


 2338 0ae2 05       		.uleb128 0x5
 2339 0ae3 03       		.byte	0x3
 2340 0ae4 00000000 		.4byte	I2C0
 2341 0ae8 1C       		.uleb128 0x1c
 2342 0ae9 BE000000 		.4byte	.LASF150
 2343 0aed 01       		.byte	0x1
 2344 0aee 0301     		.2byte	0x103
 2345 0af0 07       		.byte	0x7
 2346 0af1 16010000 		.4byte	0x116
 2347 0af5 00000000 		.4byte	.LFB13
 2348 0af9 CC000000 		.4byte	.LFE13-.LFB13
 2349 0afd 01       		.uleb128 0x1
 2350 0afe 9C       		.byte	0x9c
 2351 0aff D80B0000 		.4byte	0xbd8
 2352 0b03 1D       		.uleb128 0x1d
 2353 0b04 68000000 		.4byte	.LASF149
 2354 0b08 01       		.byte	0x1
 2355 0b09 0301     		.2byte	0x103
 2356 0b0b 31       		.byte	0x31
 2357 0b0c 57090000 		.4byte	0x957
 2358 0b10 08000000 		.4byte	.LLST12
 2359 0b14 00000000 		.4byte	.LVUS12
 2360 0b18 1D       		.uleb128 0x1d
 2361 0b19 5A000000 		.4byte	.LASF122
 2362 0b1d 01       		.byte	0x1
 2363 0b1e 0301     		.2byte	0x103
 2364 0b20 41       		.byte	0x41
 2365 0b21 4B090000 		.4byte	0x94b
 2366 0b25 45000000 		.4byte	.LLST13
 2367 0b29 3F000000 		.4byte	.LVUS13
 2368 0b2d 1D       		.uleb128 0x1d
 2369 0b2e 3D000000 		.4byte	.LASF126
 2370 0b32 01       		.byte	0x1
 2371 0b33 0401     		.2byte	0x104
 2372 0b35 13       		.byte	0x13
 2373 0b36 F7050000 		.4byte	0x5f7
 2374 0b3a 77000000 		.4byte	.LLST14
 2375 0b3e 71000000 		.4byte	.LVUS14
 2376 0b42 1D       		.uleb128 0x1d
 2377 0b43 75040000 		.4byte	.LASF127
 2378 0b47 01       		.byte	0x1
 2379 0b48 0401     		.2byte	0x104
 2380 0b4a 21       		.byte	0x21
 2381 0b4b 2C000000 		.4byte	0x2c
 2382 0b4f AB000000 		.4byte	.LLST15
 2383 0b53 A3000000 		.4byte	.LVUS15
 2384 0b57 1E       		.uleb128 0x1e
 2385 0b58 EC020000 		.4byte	.LASF152
 2386 0b5c 01       		.byte	0x1
 2387 0b5d 0501     		.2byte	0x105
 2388 0b5f 14       		.byte	0x14
 2389 0b60 3A010000 		.4byte	0x13a
 2390 0b64 02       		.uleb128 0x2
 2391 0b65 91       		.byte	0x91
 2392 0b66 00       		.sleb128 0
 2393 0b67 1F       		.uleb128 0x1f
 2394 0b68 767400   		.ascii	"vt\000"
ARM GAS  /var/folders/l5/0x54b2c10074c8bt31ycjvl80000gp/T//ccbiey8U.s 			page 43


 2395 0b6b 01       		.byte	0x1
 2396 0b6c 0601     		.2byte	0x106
 2397 0b6e 10       		.byte	0x10
 2398 0b6f 2E030000 		.4byte	0x32e
 2399 0b73 02       		.uleb128 0x2
 2400 0b74 91       		.byte	0x91
 2401 0b75 54       		.sleb128 -44
 2402 0b76 20       		.uleb128 0x20
 2403 0b77 83000000 		.4byte	.LASF119
 2404 0b7b 01       		.byte	0x1
 2405 0b7c 1501     		.2byte	0x115
 2406 0b7e 10       		.byte	0x10
 2407 0b7f 8B090000 		.4byte	0x98b
 2408 0b83 E7000000 		.4byte	.LLST16
 2409 0b87 E3000000 		.4byte	.LVUS16
 2410 0b8b 21       		.uleb128 0x21
 2411 0b8c 38000000 		.4byte	.LVL38
 2412 0b90 310F0000 		.4byte	0xf31
 2413 0b94 B40B0000 		.4byte	0xbb4
 2414 0b98 22       		.uleb128 0x22
 2415 0b99 01       		.uleb128 0x1
 2416 0b9a 50       		.byte	0x50
 2417 0b9b 02       		.uleb128 0x2
 2418 0b9c 7D       		.byte	0x7d
 2419 0b9d 00       		.sleb128 0
 2420 0b9e 22       		.uleb128 0x22
 2421 0b9f 01       		.uleb128 0x1
 2422 0ba0 51       		.byte	0x51
 2423 0ba1 02       		.uleb128 0x2
 2424 0ba2 75       		.byte	0x75
 2425 0ba3 00       		.sleb128 0
 2426 0ba4 22       		.uleb128 0x22
 2427 0ba5 01       		.uleb128 0x1
 2428 0ba6 52       		.byte	0x52
 2429 0ba7 05       		.uleb128 0x5
 2430 0ba8 03       		.byte	0x3
 2431 0ba9 00000000 		.4byte	i2c_lld_safety_timeout
 2432 0bad 22       		.uleb128 0x22
 2433 0bae 01       		.uleb128 0x1
 2434 0baf 53       		.byte	0x53
 2435 0bb0 02       		.uleb128 0x2
 2436 0bb1 74       		.byte	0x74
 2437 0bb2 00       		.sleb128 0
 2438 0bb3 00       		.byte	0
 2439 0bb4 21       		.uleb128 0x21
 2440 0bb5 8C000000 		.4byte	.LVL42
 2441 0bb9 3D0F0000 		.4byte	0xf3d
 2442 0bbd C70B0000 		.4byte	0xbc7
 2443 0bc1 22       		.uleb128 0x22
 2444 0bc2 01       		.uleb128 0x1
 2445 0bc3 50       		.byte	0x50
 2446 0bc4 01       		.uleb128 0x1
 2447 0bc5 32       		.byte	0x32
 2448 0bc6 00       		.byte	0
 2449 0bc7 23       		.uleb128 0x23
 2450 0bc8 A8000000 		.4byte	.LVL43
 2451 0bcc 490F0000 		.4byte	0xf49
ARM GAS  /var/folders/l5/0x54b2c10074c8bt31ycjvl80000gp/T//ccbiey8U.s 			page 44


 2452 0bd0 22       		.uleb128 0x22
 2453 0bd1 01       		.uleb128 0x1
 2454 0bd2 50       		.byte	0x50
 2455 0bd3 02       		.uleb128 0x2
 2456 0bd4 7D       		.byte	0x7d
 2457 0bd5 00       		.sleb128 0
 2458 0bd6 00       		.byte	0
 2459 0bd7 00       		.byte	0
 2460 0bd8 24       		.uleb128 0x24
 2461 0bd9 DD000000 		.4byte	.LASF151
 2462 0bdd 01       		.byte	0x1
 2463 0bde C3       		.byte	0xc3
 2464 0bdf 07       		.byte	0x7
 2465 0be0 16010000 		.4byte	0x116
 2466 0be4 00000000 		.4byte	.LFB12
 2467 0be8 3C010000 		.4byte	.LFE12-.LFB12
 2468 0bec 01       		.uleb128 0x1
 2469 0bed 9C       		.byte	0x9c
 2470 0bee 330D0000 		.4byte	0xd33
 2471 0bf2 25       		.uleb128 0x25
 2472 0bf3 68000000 		.4byte	.LASF149
 2473 0bf7 01       		.byte	0x1
 2474 0bf8 C3       		.byte	0xc3
 2475 0bf9 32       		.byte	0x32
 2476 0bfa 57090000 		.4byte	0x957
 2477 0bfe 0E010000 		.4byte	.LLST17
 2478 0c02 06010000 		.4byte	.LVUS17
 2479 0c06 25       		.uleb128 0x25
 2480 0c07 5A000000 		.4byte	.LASF122
 2481 0c0b 01       		.byte	0x1
 2482 0c0c C3       		.byte	0xc3
 2483 0c0d 42       		.byte	0x42
 2484 0c0e 4B090000 		.4byte	0x94b
 2485 0c12 4B010000 		.4byte	.LLST18
 2486 0c16 45010000 		.4byte	.LVUS18
 2487 0c1a 25       		.uleb128 0x25
 2488 0c1b B6020000 		.4byte	.LASF123
 2489 0c1f 01       		.byte	0x1
 2490 0c20 C4       		.byte	0xc4
 2491 0c21 37       		.byte	0x37
 2492 0c22 2E060000 		.4byte	0x62e
 2493 0c26 7D010000 		.4byte	.LLST19
 2494 0c2a 77010000 		.4byte	.LVUS19
 2495 0c2e 25       		.uleb128 0x25
 2496 0c2f A1070000 		.4byte	.LASF124
 2497 0c33 01       		.byte	0x1
 2498 0c34 C4       		.byte	0xc4
 2499 0c35 45       		.byte	0x45
 2500 0c36 2C000000 		.4byte	0x2c
 2501 0c3a B1010000 		.4byte	.LLST20
 2502 0c3e A9010000 		.4byte	.LVUS20
 2503 0c42 26       		.uleb128 0x26
 2504 0c43 3D000000 		.4byte	.LASF126
 2505 0c47 01       		.byte	0x1
 2506 0c48 C5       		.byte	0xc5
 2507 0c49 31       		.byte	0x31
 2508 0c4a F7050000 		.4byte	0x5f7
ARM GAS  /var/folders/l5/0x54b2c10074c8bt31ycjvl80000gp/T//ccbiey8U.s 			page 45


 2509 0c4e 02       		.uleb128 0x2
 2510 0c4f 91       		.byte	0x91
 2511 0c50 00       		.sleb128 0
 2512 0c51 26       		.uleb128 0x26
 2513 0c52 75040000 		.4byte	.LASF127
 2514 0c56 01       		.byte	0x1
 2515 0c57 C5       		.byte	0xc5
 2516 0c58 46       		.byte	0x46
 2517 0c59 A5000000 		.4byte	0xa5
 2518 0c5d 02       		.uleb128 0x2
 2519 0c5e 91       		.byte	0x91
 2520 0c5f 04       		.sleb128 4
 2521 0c60 26       		.uleb128 0x26
 2522 0c61 EC020000 		.4byte	.LASF152
 2523 0c65 01       		.byte	0x1
 2524 0c66 C6       		.byte	0xc6
 2525 0c67 32       		.byte	0x32
 2526 0c68 3A010000 		.4byte	0x13a
 2527 0c6c 02       		.uleb128 0x2
 2528 0c6d 91       		.byte	0x91
 2529 0c6e 08       		.sleb128 8
 2530 0c6f 27       		.uleb128 0x27
 2531 0c70 767400   		.ascii	"vt\000"
 2532 0c73 01       		.byte	0x1
 2533 0c74 C7       		.byte	0xc7
 2534 0c75 10       		.byte	0x10
 2535 0c76 2E030000 		.4byte	0x32e
 2536 0c7a 02       		.uleb128 0x2
 2537 0c7b 91       		.byte	0x91
 2538 0c7c 4C       		.sleb128 -52
 2539 0c7d 28       		.uleb128 0x28
 2540 0c7e 83000000 		.4byte	.LASF119
 2541 0c82 01       		.byte	0x1
 2542 0c83 D5       		.byte	0xd5
 2543 0c84 10       		.byte	0x10
 2544 0c85 8B090000 		.4byte	0x98b
 2545 0c89 ED010000 		.4byte	.LLST21
 2546 0c8d E9010000 		.4byte	.LVUS21
 2547 0c91 28       		.uleb128 0x28
 2548 0c92 FF060000 		.4byte	.LASF90
 2549 0c96 01       		.byte	0x1
 2550 0c97 E7       		.byte	0xe7
 2551 0c98 09       		.byte	0x9
 2552 0c99 16010000 		.4byte	0x116
 2553 0c9d 14020000 		.4byte	.LLST22
 2554 0ca1 0C020000 		.4byte	.LVUS22
 2555 0ca5 21       		.uleb128 0x21
 2556 0ca6 40000000 		.4byte	.LVL50
 2557 0caa 310F0000 		.4byte	0xf31
 2558 0cae CE0C0000 		.4byte	0xcce
 2559 0cb2 22       		.uleb128 0x22
 2560 0cb3 01       		.uleb128 0x1
 2561 0cb4 50       		.byte	0x50
 2562 0cb5 02       		.uleb128 0x2
 2563 0cb6 91       		.byte	0x91
 2564 0cb7 44       		.sleb128 -60
 2565 0cb8 22       		.uleb128 0x22
ARM GAS  /var/folders/l5/0x54b2c10074c8bt31ycjvl80000gp/T//ccbiey8U.s 			page 46


 2566 0cb9 01       		.uleb128 0x1
 2567 0cba 51       		.byte	0x51
 2568 0cbb 02       		.uleb128 0x2
 2569 0cbc 75       		.byte	0x75
 2570 0cbd 00       		.sleb128 0
 2571 0cbe 22       		.uleb128 0x22
 2572 0cbf 01       		.uleb128 0x1
 2573 0cc0 52       		.byte	0x52
 2574 0cc1 05       		.uleb128 0x5
 2575 0cc2 03       		.byte	0x3
 2576 0cc3 00000000 		.4byte	i2c_lld_safety_timeout
 2577 0cc7 22       		.uleb128 0x22
 2578 0cc8 01       		.uleb128 0x1
 2579 0cc9 53       		.byte	0x53
 2580 0cca 02       		.uleb128 0x2
 2581 0ccb 74       		.byte	0x74
 2582 0ccc 00       		.sleb128 0
 2583 0ccd 00       		.byte	0
 2584 0cce 21       		.uleb128 0x21
 2585 0ccf 9C000000 		.4byte	.LVL54
 2586 0cd3 3D0F0000 		.4byte	0xf3d
 2587 0cd7 E10C0000 		.4byte	0xce1
 2588 0cdb 22       		.uleb128 0x22
 2589 0cdc 01       		.uleb128 0x1
 2590 0cdd 50       		.byte	0x50
 2591 0cde 01       		.uleb128 0x1
 2592 0cdf 32       		.byte	0x32
 2593 0ce0 00       		.byte	0
 2594 0ce1 21       		.uleb128 0x21
 2595 0ce2 B8000000 		.4byte	.LVL55
 2596 0ce6 490F0000 		.4byte	0xf49
 2597 0cea F50C0000 		.4byte	0xcf5
 2598 0cee 22       		.uleb128 0x22
 2599 0cef 01       		.uleb128 0x1
 2600 0cf0 50       		.byte	0x50
 2601 0cf1 02       		.uleb128 0x2
 2602 0cf2 91       		.byte	0x91
 2603 0cf3 44       		.sleb128 -60
 2604 0cf4 00       		.byte	0
 2605 0cf5 21       		.uleb128 0x21
 2606 0cf6 04010000 		.4byte	.LVL58
 2607 0cfa E80A0000 		.4byte	0xae8
 2608 0cfe 220D0000 		.4byte	0xd22
 2609 0d02 22       		.uleb128 0x22
 2610 0d03 01       		.uleb128 0x1
 2611 0d04 50       		.byte	0x50
 2612 0d05 02       		.uleb128 0x2
 2613 0d06 74       		.byte	0x74
 2614 0d07 00       		.sleb128 0
 2615 0d08 22       		.uleb128 0x22
 2616 0d09 01       		.uleb128 0x1
 2617 0d0a 51       		.byte	0x51
 2618 0d0b 02       		.uleb128 0x2
 2619 0d0c 76       		.byte	0x76
 2620 0d0d 00       		.sleb128 0
 2621 0d0e 22       		.uleb128 0x22
 2622 0d0f 01       		.uleb128 0x1
ARM GAS  /var/folders/l5/0x54b2c10074c8bt31ycjvl80000gp/T//ccbiey8U.s 			page 47


 2623 0d10 52       		.byte	0x52
 2624 0d11 02       		.uleb128 0x2
 2625 0d12 78       		.byte	0x78
 2626 0d13 00       		.sleb128 0
 2627 0d14 22       		.uleb128 0x22
 2628 0d15 01       		.uleb128 0x1
 2629 0d16 53       		.byte	0x53
 2630 0d17 02       		.uleb128 0x2
 2631 0d18 77       		.byte	0x77
 2632 0d19 00       		.sleb128 0
 2633 0d1a 22       		.uleb128 0x22
 2634 0d1b 02       		.uleb128 0x2
 2635 0d1c 7D       		.byte	0x7d
 2636 0d1d 00       		.sleb128 0
 2637 0d1e 02       		.uleb128 0x2
 2638 0d1f 09       		.byte	0x9
 2639 0d20 FF       		.byte	0xff
 2640 0d21 00       		.byte	0
 2641 0d22 23       		.uleb128 0x23
 2642 0d23 24010000 		.4byte	.LVL61
 2643 0d27 490F0000 		.4byte	0xf49
 2644 0d2b 22       		.uleb128 0x22
 2645 0d2c 01       		.uleb128 0x1
 2646 0d2d 50       		.byte	0x50
 2647 0d2e 02       		.uleb128 0x2
 2648 0d2f 91       		.byte	0x91
 2649 0d30 44       		.sleb128 -60
 2650 0d31 00       		.byte	0
 2651 0d32 00       		.byte	0
 2652 0d33 29       		.uleb128 0x29
 2653 0d34 E8030000 		.4byte	.LASF153
 2654 0d38 01       		.byte	0x1
 2655 0d39 AB       		.byte	0xab
 2656 0d3a 06       		.byte	0x6
 2657 0d3b 00000000 		.4byte	.LFB11
 2658 0d3f 34000000 		.4byte	.LFE11-.LFB11
 2659 0d43 01       		.uleb128 0x1
 2660 0d44 9C       		.byte	0x9c
 2661 0d45 8A0D0000 		.4byte	0xd8a
 2662 0d49 25       		.uleb128 0x25
 2663 0d4a 68000000 		.4byte	.LASF149
 2664 0d4e 01       		.byte	0x1
 2665 0d4f AB       		.byte	0xab
 2666 0d50 1E       		.byte	0x1e
 2667 0d51 57090000 		.4byte	0x957
 2668 0d55 4C020000 		.4byte	.LLST11
 2669 0d59 48020000 		.4byte	.LVUS11
 2670 0d5d 21       		.uleb128 0x21
 2671 0d5e 14000000 		.4byte	.LVL31
 2672 0d62 550F0000 		.4byte	0xf55
 2673 0d66 750D0000 		.4byte	0xd75
 2674 0d6a 22       		.uleb128 0x22
 2675 0d6b 01       		.uleb128 0x1
 2676 0d6c 50       		.byte	0x50
 2677 0d6d 01       		.uleb128 0x1
 2678 0d6e 30       		.byte	0x30
 2679 0d6f 22       		.uleb128 0x22
ARM GAS  /var/folders/l5/0x54b2c10074c8bt31ycjvl80000gp/T//ccbiey8U.s 			page 48


 2680 0d70 01       		.uleb128 0x1
 2681 0d71 51       		.byte	0x51
 2682 0d72 01       		.uleb128 0x1
 2683 0d73 30       		.byte	0x30
 2684 0d74 00       		.byte	0
 2685 0d75 23       		.uleb128 0x23
 2686 0d76 20000000 		.4byte	.LVL32
 2687 0d7a 550F0000 		.4byte	0xf55
 2688 0d7e 22       		.uleb128 0x22
 2689 0d7f 01       		.uleb128 0x1
 2690 0d80 50       		.byte	0x50
 2691 0d81 01       		.uleb128 0x1
 2692 0d82 31       		.byte	0x31
 2693 0d83 22       		.uleb128 0x22
 2694 0d84 01       		.uleb128 0x1
 2695 0d85 51       		.byte	0x51
 2696 0d86 01       		.uleb128 0x1
 2697 0d87 30       		.byte	0x30
 2698 0d88 00       		.byte	0
 2699 0d89 00       		.byte	0
 2700 0d8a 2A       		.uleb128 0x2a
 2701 0d8b 17050000 		.4byte	.LASF154
 2702 0d8f 01       		.byte	0x1
 2703 0d90 98       		.byte	0x98
 2704 0d91 06       		.byte	0x6
 2705 0d92 00000000 		.4byte	.LFB10
 2706 0d96 68000000 		.4byte	.LFE10-.LFB10
 2707 0d9a 01       		.uleb128 0x1
 2708 0d9b 9C       		.byte	0x9c
 2709 0d9c F50D0000 		.4byte	0xdf5
 2710 0da0 25       		.uleb128 0x25
 2711 0da1 68000000 		.4byte	.LASF149
 2712 0da5 01       		.byte	0x1
 2713 0da6 98       		.byte	0x98
 2714 0da7 1F       		.byte	0x1f
 2715 0da8 57090000 		.4byte	0x957
 2716 0dac 6E020000 		.4byte	.LLST9
 2717 0db0 6A020000 		.4byte	.LVUS9
 2718 0db4 28       		.uleb128 0x28
 2719 0db5 CA030000 		.4byte	.LASF155
 2720 0db9 01       		.byte	0x1
 2721 0dba 9D       		.byte	0x9d
 2722 0dbb 0C       		.byte	0xc
 2723 0dbc C2000000 		.4byte	0xc2
 2724 0dc0 90020000 		.4byte	.LLST10
 2725 0dc4 8C020000 		.4byte	.LVUS10
 2726 0dc8 21       		.uleb128 0x21
 2727 0dc9 14000000 		.4byte	.LVL23
 2728 0dcd 550F0000 		.4byte	0xf55
 2729 0dd1 E00D0000 		.4byte	0xde0
 2730 0dd5 22       		.uleb128 0x22
 2731 0dd6 01       		.uleb128 0x1
 2732 0dd7 50       		.byte	0x50
 2733 0dd8 01       		.uleb128 0x1
 2734 0dd9 30       		.byte	0x30
 2735 0dda 22       		.uleb128 0x22
 2736 0ddb 01       		.uleb128 0x1
ARM GAS  /var/folders/l5/0x54b2c10074c8bt31ycjvl80000gp/T//ccbiey8U.s 			page 49


 2737 0ddc 51       		.byte	0x51
 2738 0ddd 01       		.uleb128 0x1
 2739 0dde 34       		.byte	0x34
 2740 0ddf 00       		.byte	0
 2741 0de0 23       		.uleb128 0x23
 2742 0de1 20000000 		.4byte	.LVL24
 2743 0de5 550F0000 		.4byte	0xf55
 2744 0de9 22       		.uleb128 0x22
 2745 0dea 01       		.uleb128 0x1
 2746 0deb 50       		.byte	0x50
 2747 0dec 01       		.uleb128 0x1
 2748 0ded 31       		.byte	0x31
 2749 0dee 22       		.uleb128 0x22
 2750 0def 01       		.uleb128 0x1
 2751 0df0 51       		.byte	0x51
 2752 0df1 01       		.uleb128 0x1
 2753 0df2 34       		.byte	0x34
 2754 0df3 00       		.byte	0
 2755 0df4 00       		.byte	0
 2756 0df5 29       		.uleb128 0x29
 2757 0df6 EA060000 		.4byte	.LASF156
 2758 0dfa 01       		.byte	0x1
 2759 0dfb 8C       		.byte	0x8c
 2760 0dfc 06       		.byte	0x6
 2761 0dfd 00000000 		.4byte	.LFB9
 2762 0e01 1C000000 		.4byte	.LFE9-.LFB9
 2763 0e05 01       		.uleb128 0x1
 2764 0e06 9C       		.byte	0x9c
 2765 0e07 1F0E0000 		.4byte	0xe1f
 2766 0e0b 2B       		.uleb128 0x2b
 2767 0e0c 14000000 		.4byte	.LVL20
 2768 0e10 620F0000 		.4byte	0xf62
 2769 0e14 22       		.uleb128 0x22
 2770 0e15 01       		.uleb128 0x1
 2771 0e16 50       		.byte	0x50
 2772 0e17 05       		.uleb128 0x5
 2773 0e18 03       		.byte	0x3
 2774 0e19 00000000 		.4byte	I2C0
 2775 0e1d 00       		.byte	0
 2776 0e1e 00       		.byte	0
 2777 0e1f 29       		.uleb128 0x29
 2778 0e20 4D070000 		.4byte	.LASF157
 2779 0e24 01       		.byte	0x1
 2780 0e25 69       		.byte	0x69
 2781 0e26 06       		.byte	0x6
 2782 0e27 00000000 		.4byte	.LFB8
 2783 0e2b 4C010000 		.4byte	.LFE8-.LFB8
 2784 0e2f 01       		.uleb128 0x1
 2785 0e30 9C       		.byte	0x9c
 2786 0e31 BE0E0000 		.4byte	0xebe
 2787 0e35 25       		.uleb128 0x25
 2788 0e36 68000000 		.4byte	.LASF149
 2789 0e3a 01       		.byte	0x1
 2790 0e3b 69       		.byte	0x69
 2791 0e3c 29       		.byte	0x29
 2792 0e3d 57090000 		.4byte	0x957
 2793 0e41 B8020000 		.4byte	.LLST4
ARM GAS  /var/folders/l5/0x54b2c10074c8bt31ycjvl80000gp/T//ccbiey8U.s 			page 50


 2794 0e45 AE020000 		.4byte	.LVUS4
 2795 0e49 28       		.uleb128 0x28
 2796 0e4a 83000000 		.4byte	.LASF119
 2797 0e4e 01       		.byte	0x1
 2798 0e4f 6B       		.byte	0x6b
 2799 0e50 10       		.byte	0x10
 2800 0e51 8B090000 		.4byte	0x98b
 2801 0e55 07030000 		.4byte	.LLST5
 2802 0e59 FD020000 		.4byte	.LVUS5
 2803 0e5d 28       		.uleb128 0x28
 2804 0e5e FF060000 		.4byte	.LASF90
 2805 0e62 01       		.byte	0x1
 2806 0e63 6C       		.byte	0x6c
 2807 0e64 0C       		.byte	0xc
 2808 0e65 C2000000 		.4byte	0xc2
 2809 0e69 53030000 		.4byte	.LLST6
 2810 0e6d 4B030000 		.4byte	.LVUS6
 2811 0e71 2C       		.uleb128 0x2c
 2812 0e72 1C000000 		.4byte	.LBB5
 2813 0e76 18000000 		.4byte	.LBE5-.LBB5
 2814 0e7a 9B0E0000 		.4byte	0xe9b
 2815 0e7e 2D       		.uleb128 0x2d
 2816 0e7f 747000   		.ascii	"tp\000"
 2817 0e82 01       		.byte	0x1
 2818 0e83 70       		.byte	0x70
 2819 0e84 05       		.byte	0x5
 2820 0e85 25020000 		.4byte	0x225
 2821 0e89 89030000 		.4byte	.LLST7
 2822 0e8d 87030000 		.4byte	.LVUS7
 2823 0e91 2E       		.uleb128 0x2e
 2824 0e92 34000000 		.4byte	.LVL12
 2825 0e96 6E0F0000 		.4byte	0xf6e
 2826 0e9a 00       		.byte	0
 2827 0e9b 2F       		.uleb128 0x2f
 2828 0e9c 20000000 		.4byte	.Ldebug_ranges0+0x20
 2829 0ea0 2D       		.uleb128 0x2d
 2830 0ea1 747000   		.ascii	"tp\000"
 2831 0ea4 01       		.byte	0x1
 2832 0ea5 77       		.byte	0x77
 2833 0ea6 05       		.byte	0x5
 2834 0ea7 25020000 		.4byte	0x225
 2835 0eab 9E030000 		.4byte	.LLST8
 2836 0eaf 9C030000 		.4byte	.LVUS8
 2837 0eb3 2E       		.uleb128 0x2e
 2838 0eb4 AC000000 		.4byte	.LVL16
 2839 0eb8 6E0F0000 		.4byte	0xf6e
 2840 0ebc 00       		.byte	0
 2841 0ebd 00       		.byte	0
 2842 0ebe 30       		.uleb128 0x30
 2843 0ebf 2E060000 		.4byte	.LASF167
 2844 0ec3 01       		.byte	0x1
 2845 0ec4 4E       		.byte	0x4e
 2846 0ec5 0D       		.byte	0xd
 2847 0ec6 00000000 		.4byte	.LFB7
 2848 0eca 74000000 		.4byte	.LFE7-.LFB7
 2849 0ece 01       		.uleb128 0x1
 2850 0ecf 9C       		.byte	0x9c
ARM GAS  /var/folders/l5/0x54b2c10074c8bt31ycjvl80000gp/T//ccbiey8U.s 			page 51


 2851 0ed0 310F0000 		.4byte	0xf31
 2852 0ed4 31       		.uleb128 0x31
 2853 0ed5 7000     		.ascii	"p\000"
 2854 0ed7 01       		.byte	0x1
 2855 0ed8 4E       		.byte	0x4e
 2856 0ed9 2A       		.byte	0x2a
 2857 0eda 72020000 		.4byte	0x272
 2858 0ede B7030000 		.4byte	.LLST0
 2859 0ee2 B1030000 		.4byte	.LVUS0
 2860 0ee6 28       		.uleb128 0x28
 2861 0ee7 68000000 		.4byte	.LASF149
 2862 0eeb 01       		.byte	0x1
 2863 0eec 4F       		.byte	0x4f
 2864 0eed 0E       		.byte	0xe
 2865 0eee 57090000 		.4byte	0x957
 2866 0ef2 E9030000 		.4byte	.LLST1
 2867 0ef6 E3030000 		.4byte	.LVUS1
 2868 0efa 2F       		.uleb128 0x2f
 2869 0efb 00000000 		.4byte	.Ldebug_ranges0+0
 2870 0eff 28       		.uleb128 0x28
 2871 0f00 83000000 		.4byte	.LASF119
 2872 0f04 01       		.byte	0x1
 2873 0f05 52       		.byte	0x52
 2874 0f06 12       		.byte	0x12
 2875 0f07 8B090000 		.4byte	0x98b
 2876 0f0b 17040000 		.4byte	.LLST2
 2877 0f0f 15040000 		.4byte	.LVUS2
 2878 0f13 2D       		.uleb128 0x2d
 2879 0f14 747000   		.ascii	"tp\000"
 2880 0f17 01       		.byte	0x1
 2881 0f18 5D       		.byte	0x5d
 2882 0f19 0D       		.byte	0xd
 2883 0f1a 25020000 		.4byte	0x225
 2884 0f1e 2C040000 		.4byte	.LLST3
 2885 0f22 2A040000 		.4byte	.LVUS3
 2886 0f26 2E       		.uleb128 0x2e
 2887 0f27 70000000 		.4byte	.LVL4
 2888 0f2b 6E0F0000 		.4byte	0xf6e
 2889 0f2f 00       		.byte	0
 2890 0f30 00       		.byte	0
 2891 0f31 32       		.uleb128 0x32
 2892 0f32 65040000 		.4byte	.LASF158
 2893 0f36 65040000 		.4byte	.LASF158
 2894 0f3a 09       		.byte	0x9
 2895 0f3b DA       		.byte	0xda
 2896 0f3c 08       		.byte	0x8
 2897 0f3d 32       		.uleb128 0x32
 2898 0f3e C1050000 		.4byte	.LASF159
 2899 0f42 C1050000 		.4byte	.LASF159
 2900 0f46 0A       		.byte	0xa
 2901 0f47 8C       		.byte	0x8c
 2902 0f48 08       		.byte	0x8
 2903 0f49 32       		.uleb128 0x32
 2904 0f4a AB050000 		.4byte	.LASF160
 2905 0f4e AB050000 		.4byte	.LASF160
 2906 0f52 09       		.byte	0x9
 2907 0f53 DB       		.byte	0xdb
ARM GAS  /var/folders/l5/0x54b2c10074c8bt31ycjvl80000gp/T//ccbiey8U.s 			page 52


 2908 0f54 08       		.byte	0x8
 2909 0f55 33       		.uleb128 0x33
 2910 0f56 C1040000 		.4byte	.LASF161
 2911 0f5a C1040000 		.4byte	.LASF161
 2912 0f5e 0F       		.byte	0xf
 2913 0f5f 8C01     		.2byte	0x18c
 2914 0f61 08       		.byte	0x8
 2915 0f62 32       		.uleb128 0x32
 2916 0f63 99060000 		.4byte	.LASF162
 2917 0f67 99060000 		.4byte	.LASF162
 2918 0f6b 11       		.byte	0x11
 2919 0f6c 7A       		.byte	0x7a
 2920 0f6d 08       		.byte	0x8
 2921 0f6e 32       		.uleb128 0x32
 2922 0f6f 22060000 		.4byte	.LASF163
 2923 0f73 22060000 		.4byte	.LASF163
 2924 0f77 0A       		.byte	0xa
 2925 0f78 89       		.byte	0x89
 2926 0f79 0B       		.byte	0xb
 2927 0f7a 00       		.byte	0
 2928              		.section	.debug_abbrev,"",%progbits
 2929              	.Ldebug_abbrev0:
 2930 0000 01       		.uleb128 0x1
 2931 0001 11       		.uleb128 0x11
 2932 0002 01       		.byte	0x1
 2933 0003 25       		.uleb128 0x25
 2934 0004 0E       		.uleb128 0xe
 2935 0005 13       		.uleb128 0x13
 2936 0006 0B       		.uleb128 0xb
 2937 0007 03       		.uleb128 0x3
 2938 0008 0E       		.uleb128 0xe
 2939 0009 1B       		.uleb128 0x1b
 2940 000a 0E       		.uleb128 0xe
 2941 000b 55       		.uleb128 0x55
 2942 000c 17       		.uleb128 0x17
 2943 000d 11       		.uleb128 0x11
 2944 000e 01       		.uleb128 0x1
 2945 000f 10       		.uleb128 0x10
 2946 0010 17       		.uleb128 0x17
 2947 0011 00       		.byte	0
 2948 0012 00       		.byte	0
 2949 0013 02       		.uleb128 0x2
 2950 0014 24       		.uleb128 0x24
 2951 0015 00       		.byte	0
 2952 0016 0B       		.uleb128 0xb
 2953 0017 0B       		.uleb128 0xb
 2954 0018 3E       		.uleb128 0x3e
 2955 0019 0B       		.uleb128 0xb
 2956 001a 03       		.uleb128 0x3
 2957 001b 0E       		.uleb128 0xe
 2958 001c 00       		.byte	0
 2959 001d 00       		.byte	0
 2960 001e 03       		.uleb128 0x3
 2961 001f 16       		.uleb128 0x16
 2962 0020 00       		.byte	0
 2963 0021 03       		.uleb128 0x3
 2964 0022 0E       		.uleb128 0xe
ARM GAS  /var/folders/l5/0x54b2c10074c8bt31ycjvl80000gp/T//ccbiey8U.s 			page 53


 2965 0023 3A       		.uleb128 0x3a
 2966 0024 0B       		.uleb128 0xb
 2967 0025 3B       		.uleb128 0x3b
 2968 0026 0B       		.uleb128 0xb
 2969 0027 39       		.uleb128 0x39
 2970 0028 0B       		.uleb128 0xb
 2971 0029 49       		.uleb128 0x49
 2972 002a 13       		.uleb128 0x13
 2973 002b 00       		.byte	0
 2974 002c 00       		.byte	0
 2975 002d 04       		.uleb128 0x4
 2976 002e 26       		.uleb128 0x26
 2977 002f 00       		.byte	0
 2978 0030 49       		.uleb128 0x49
 2979 0031 13       		.uleb128 0x13
 2980 0032 00       		.byte	0
 2981 0033 00       		.byte	0
 2982 0034 05       		.uleb128 0x5
 2983 0035 35       		.uleb128 0x35
 2984 0036 00       		.byte	0
 2985 0037 49       		.uleb128 0x49
 2986 0038 13       		.uleb128 0x13
 2987 0039 00       		.byte	0
 2988 003a 00       		.byte	0
 2989 003b 06       		.uleb128 0x6
 2990 003c 24       		.uleb128 0x24
 2991 003d 00       		.byte	0
 2992 003e 0B       		.uleb128 0xb
 2993 003f 0B       		.uleb128 0xb
 2994 0040 3E       		.uleb128 0x3e
 2995 0041 0B       		.uleb128 0xb
 2996 0042 03       		.uleb128 0x3
 2997 0043 08       		.uleb128 0x8
 2998 0044 00       		.byte	0
 2999 0045 00       		.byte	0
 3000 0046 07       		.uleb128 0x7
 3001 0047 13       		.uleb128 0x13
 3002 0048 01       		.byte	0x1
 3003 0049 03       		.uleb128 0x3
 3004 004a 0E       		.uleb128 0xe
 3005 004b 0B       		.uleb128 0xb
 3006 004c 0B       		.uleb128 0xb
 3007 004d 3A       		.uleb128 0x3a
 3008 004e 0B       		.uleb128 0xb
 3009 004f 3B       		.uleb128 0x3b
 3010 0050 0B       		.uleb128 0xb
 3011 0051 39       		.uleb128 0x39
 3012 0052 0B       		.uleb128 0xb
 3013 0053 01       		.uleb128 0x1
 3014 0054 13       		.uleb128 0x13
 3015 0055 00       		.byte	0
 3016 0056 00       		.byte	0
 3017 0057 08       		.uleb128 0x8
 3018 0058 0D       		.uleb128 0xd
 3019 0059 00       		.byte	0
 3020 005a 03       		.uleb128 0x3
 3021 005b 0E       		.uleb128 0xe
ARM GAS  /var/folders/l5/0x54b2c10074c8bt31ycjvl80000gp/T//ccbiey8U.s 			page 54


 3022 005c 3A       		.uleb128 0x3a
 3023 005d 0B       		.uleb128 0xb
 3024 005e 3B       		.uleb128 0x3b
 3025 005f 0B       		.uleb128 0xb
 3026 0060 39       		.uleb128 0x39
 3027 0061 0B       		.uleb128 0xb
 3028 0062 49       		.uleb128 0x49
 3029 0063 13       		.uleb128 0x13
 3030 0064 38       		.uleb128 0x38
 3031 0065 0B       		.uleb128 0xb
 3032 0066 00       		.byte	0
 3033 0067 00       		.byte	0
 3034 0068 09       		.uleb128 0x9
 3035 0069 0D       		.uleb128 0xd
 3036 006a 00       		.byte	0
 3037 006b 03       		.uleb128 0x3
 3038 006c 08       		.uleb128 0x8
 3039 006d 3A       		.uleb128 0x3a
 3040 006e 0B       		.uleb128 0xb
 3041 006f 3B       		.uleb128 0x3b
 3042 0070 0B       		.uleb128 0xb
 3043 0071 39       		.uleb128 0x39
 3044 0072 0B       		.uleb128 0xb
 3045 0073 49       		.uleb128 0x49
 3046 0074 13       		.uleb128 0x13
 3047 0075 38       		.uleb128 0x38
 3048 0076 0B       		.uleb128 0xb
 3049 0077 00       		.byte	0
 3050 0078 00       		.byte	0
 3051 0079 0A       		.uleb128 0xa
 3052 007a 13       		.uleb128 0x13
 3053 007b 01       		.byte	0x1
 3054 007c 0B       		.uleb128 0xb
 3055 007d 0B       		.uleb128 0xb
 3056 007e 3A       		.uleb128 0x3a
 3057 007f 0B       		.uleb128 0xb
 3058 0080 3B       		.uleb128 0x3b
 3059 0081 0B       		.uleb128 0xb
 3060 0082 39       		.uleb128 0x39
 3061 0083 0B       		.uleb128 0xb
 3062 0084 01       		.uleb128 0x1
 3063 0085 13       		.uleb128 0x13
 3064 0086 00       		.byte	0
 3065 0087 00       		.byte	0
 3066 0088 0B       		.uleb128 0xb
 3067 0089 0F       		.uleb128 0xf
 3068 008a 00       		.byte	0
 3069 008b 0B       		.uleb128 0xb
 3070 008c 0B       		.uleb128 0xb
 3071 008d 49       		.uleb128 0x49
 3072 008e 13       		.uleb128 0x13
 3073 008f 00       		.byte	0
 3074 0090 00       		.byte	0
 3075 0091 0C       		.uleb128 0xc
 3076 0092 0F       		.uleb128 0xf
 3077 0093 00       		.byte	0
 3078 0094 0B       		.uleb128 0xb
ARM GAS  /var/folders/l5/0x54b2c10074c8bt31ycjvl80000gp/T//ccbiey8U.s 			page 55


 3079 0095 0B       		.uleb128 0xb
 3080 0096 00       		.byte	0
 3081 0097 00       		.byte	0
 3082 0098 0D       		.uleb128 0xd
 3083 0099 15       		.uleb128 0x15
 3084 009a 01       		.byte	0x1
 3085 009b 27       		.uleb128 0x27
 3086 009c 19       		.uleb128 0x19
 3087 009d 01       		.uleb128 0x1
 3088 009e 13       		.uleb128 0x13
 3089 009f 00       		.byte	0
 3090 00a0 00       		.byte	0
 3091 00a1 0E       		.uleb128 0xe
 3092 00a2 05       		.uleb128 0x5
 3093 00a3 00       		.byte	0
 3094 00a4 49       		.uleb128 0x49
 3095 00a5 13       		.uleb128 0x13
 3096 00a6 00       		.byte	0
 3097 00a7 00       		.byte	0
 3098 00a8 0F       		.uleb128 0xf
 3099 00a9 34       		.uleb128 0x34
 3100 00aa 00       		.byte	0
 3101 00ab 03       		.uleb128 0x3
 3102 00ac 0E       		.uleb128 0xe
 3103 00ad 3A       		.uleb128 0x3a
 3104 00ae 0B       		.uleb128 0xb
 3105 00af 3B       		.uleb128 0x3b
 3106 00b0 0B       		.uleb128 0xb
 3107 00b1 39       		.uleb128 0x39
 3108 00b2 0B       		.uleb128 0xb
 3109 00b3 49       		.uleb128 0x49
 3110 00b4 13       		.uleb128 0x13
 3111 00b5 3F       		.uleb128 0x3f
 3112 00b6 19       		.uleb128 0x19
 3113 00b7 3C       		.uleb128 0x3c
 3114 00b8 19       		.uleb128 0x19
 3115 00b9 00       		.byte	0
 3116 00ba 00       		.byte	0
 3117 00bb 10       		.uleb128 0x10
 3118 00bc 17       		.uleb128 0x17
 3119 00bd 01       		.byte	0x1
 3120 00be 0B       		.uleb128 0xb
 3121 00bf 0B       		.uleb128 0xb
 3122 00c0 3A       		.uleb128 0x3a
 3123 00c1 0B       		.uleb128 0xb
 3124 00c2 3B       		.uleb128 0x3b
 3125 00c3 0B       		.uleb128 0xb
 3126 00c4 39       		.uleb128 0x39
 3127 00c5 0B       		.uleb128 0xb
 3128 00c6 01       		.uleb128 0x1
 3129 00c7 13       		.uleb128 0x13
 3130 00c8 00       		.byte	0
 3131 00c9 00       		.byte	0
 3132 00ca 11       		.uleb128 0x11
 3133 00cb 0D       		.uleb128 0xd
 3134 00cc 00       		.byte	0
 3135 00cd 03       		.uleb128 0x3
ARM GAS  /var/folders/l5/0x54b2c10074c8bt31ycjvl80000gp/T//ccbiey8U.s 			page 56


 3136 00ce 0E       		.uleb128 0xe
 3137 00cf 3A       		.uleb128 0x3a
 3138 00d0 0B       		.uleb128 0xb
 3139 00d1 3B       		.uleb128 0x3b
 3140 00d2 0B       		.uleb128 0xb
 3141 00d3 39       		.uleb128 0x39
 3142 00d4 0B       		.uleb128 0xb
 3143 00d5 49       		.uleb128 0x49
 3144 00d6 13       		.uleb128 0x13
 3145 00d7 00       		.byte	0
 3146 00d8 00       		.byte	0
 3147 00d9 12       		.uleb128 0x12
 3148 00da 15       		.uleb128 0x15
 3149 00db 01       		.byte	0x1
 3150 00dc 27       		.uleb128 0x27
 3151 00dd 19       		.uleb128 0x19
 3152 00de 49       		.uleb128 0x49
 3153 00df 13       		.uleb128 0x13
 3154 00e0 01       		.uleb128 0x1
 3155 00e1 13       		.uleb128 0x13
 3156 00e2 00       		.byte	0
 3157 00e3 00       		.byte	0
 3158 00e4 13       		.uleb128 0x13
 3159 00e5 01       		.uleb128 0x1
 3160 00e6 01       		.byte	0x1
 3161 00e7 49       		.uleb128 0x49
 3162 00e8 13       		.uleb128 0x13
 3163 00e9 01       		.uleb128 0x1
 3164 00ea 13       		.uleb128 0x13
 3165 00eb 00       		.byte	0
 3166 00ec 00       		.byte	0
 3167 00ed 14       		.uleb128 0x14
 3168 00ee 21       		.uleb128 0x21
 3169 00ef 00       		.byte	0
 3170 00f0 49       		.uleb128 0x49
 3171 00f1 13       		.uleb128 0x13
 3172 00f2 2F       		.uleb128 0x2f
 3173 00f3 0B       		.uleb128 0xb
 3174 00f4 00       		.byte	0
 3175 00f5 00       		.byte	0
 3176 00f6 15       		.uleb128 0x15
 3177 00f7 0D       		.uleb128 0xd
 3178 00f8 00       		.byte	0
 3179 00f9 03       		.uleb128 0x3
 3180 00fa 0E       		.uleb128 0xe
 3181 00fb 3A       		.uleb128 0x3a
 3182 00fc 0B       		.uleb128 0xb
 3183 00fd 3B       		.uleb128 0x3b
 3184 00fe 05       		.uleb128 0x5
 3185 00ff 39       		.uleb128 0x39
 3186 0100 0B       		.uleb128 0xb
 3187 0101 49       		.uleb128 0x49
 3188 0102 13       		.uleb128 0x13
 3189 0103 38       		.uleb128 0x38
 3190 0104 0B       		.uleb128 0xb
 3191 0105 00       		.byte	0
 3192 0106 00       		.byte	0
ARM GAS  /var/folders/l5/0x54b2c10074c8bt31ycjvl80000gp/T//ccbiey8U.s 			page 57


 3193 0107 16       		.uleb128 0x16
 3194 0108 16       		.uleb128 0x16
 3195 0109 00       		.byte	0
 3196 010a 03       		.uleb128 0x3
 3197 010b 0E       		.uleb128 0xe
 3198 010c 3A       		.uleb128 0x3a
 3199 010d 0B       		.uleb128 0xb
 3200 010e 3B       		.uleb128 0x3b
 3201 010f 05       		.uleb128 0x5
 3202 0110 39       		.uleb128 0x39
 3203 0111 0B       		.uleb128 0xb
 3204 0112 49       		.uleb128 0x49
 3205 0113 13       		.uleb128 0x13
 3206 0114 00       		.byte	0
 3207 0115 00       		.byte	0
 3208 0116 17       		.uleb128 0x17
 3209 0117 13       		.uleb128 0x13
 3210 0118 00       		.byte	0
 3211 0119 0B       		.uleb128 0xb
 3212 011a 0B       		.uleb128 0xb
 3213 011b 3A       		.uleb128 0x3a
 3214 011c 0B       		.uleb128 0xb
 3215 011d 3B       		.uleb128 0x3b
 3216 011e 0B       		.uleb128 0xb
 3217 011f 39       		.uleb128 0x39
 3218 0120 0B       		.uleb128 0xb
 3219 0121 00       		.byte	0
 3220 0122 00       		.byte	0
 3221 0123 18       		.uleb128 0x18
 3222 0124 04       		.uleb128 0x4
 3223 0125 01       		.byte	0x1
 3224 0126 3E       		.uleb128 0x3e
 3225 0127 0B       		.uleb128 0xb
 3226 0128 0B       		.uleb128 0xb
 3227 0129 0B       		.uleb128 0xb
 3228 012a 49       		.uleb128 0x49
 3229 012b 13       		.uleb128 0x13
 3230 012c 3A       		.uleb128 0x3a
 3231 012d 0B       		.uleb128 0xb
 3232 012e 3B       		.uleb128 0x3b
 3233 012f 0B       		.uleb128 0xb
 3234 0130 39       		.uleb128 0x39
 3235 0131 0B       		.uleb128 0xb
 3236 0132 01       		.uleb128 0x1
 3237 0133 13       		.uleb128 0x13
 3238 0134 00       		.byte	0
 3239 0135 00       		.byte	0
 3240 0136 19       		.uleb128 0x19
 3241 0137 28       		.uleb128 0x28
 3242 0138 00       		.byte	0
 3243 0139 03       		.uleb128 0x3
 3244 013a 0E       		.uleb128 0xe
 3245 013b 1C       		.uleb128 0x1c
 3246 013c 0B       		.uleb128 0xb
 3247 013d 00       		.byte	0
 3248 013e 00       		.byte	0
 3249 013f 1A       		.uleb128 0x1a
ARM GAS  /var/folders/l5/0x54b2c10074c8bt31ycjvl80000gp/T//ccbiey8U.s 			page 58


 3250 0140 34       		.uleb128 0x34
 3251 0141 00       		.byte	0
 3252 0142 03       		.uleb128 0x3
 3253 0143 08       		.uleb128 0x8
 3254 0144 3A       		.uleb128 0x3a
 3255 0145 0B       		.uleb128 0xb
 3256 0146 3B       		.uleb128 0x3b
 3257 0147 0B       		.uleb128 0xb
 3258 0148 39       		.uleb128 0x39
 3259 0149 0B       		.uleb128 0xb
 3260 014a 49       		.uleb128 0x49
 3261 014b 13       		.uleb128 0x13
 3262 014c 3F       		.uleb128 0x3f
 3263 014d 19       		.uleb128 0x19
 3264 014e 3C       		.uleb128 0x3c
 3265 014f 19       		.uleb128 0x19
 3266 0150 00       		.byte	0
 3267 0151 00       		.byte	0
 3268 0152 1B       		.uleb128 0x1b
 3269 0153 34       		.uleb128 0x34
 3270 0154 00       		.byte	0
 3271 0155 47       		.uleb128 0x47
 3272 0156 13       		.uleb128 0x13
 3273 0157 3A       		.uleb128 0x3a
 3274 0158 0B       		.uleb128 0xb
 3275 0159 3B       		.uleb128 0x3b
 3276 015a 0B       		.uleb128 0xb
 3277 015b 39       		.uleb128 0x39
 3278 015c 0B       		.uleb128 0xb
 3279 015d 02       		.uleb128 0x2
 3280 015e 18       		.uleb128 0x18
 3281 015f 00       		.byte	0
 3282 0160 00       		.byte	0
 3283 0161 1C       		.uleb128 0x1c
 3284 0162 2E       		.uleb128 0x2e
 3285 0163 01       		.byte	0x1
 3286 0164 3F       		.uleb128 0x3f
 3287 0165 19       		.uleb128 0x19
 3288 0166 03       		.uleb128 0x3
 3289 0167 0E       		.uleb128 0xe
 3290 0168 3A       		.uleb128 0x3a
 3291 0169 0B       		.uleb128 0xb
 3292 016a 3B       		.uleb128 0x3b
 3293 016b 05       		.uleb128 0x5
 3294 016c 39       		.uleb128 0x39
 3295 016d 0B       		.uleb128 0xb
 3296 016e 27       		.uleb128 0x27
 3297 016f 19       		.uleb128 0x19
 3298 0170 49       		.uleb128 0x49
 3299 0171 13       		.uleb128 0x13
 3300 0172 11       		.uleb128 0x11
 3301 0173 01       		.uleb128 0x1
 3302 0174 12       		.uleb128 0x12
 3303 0175 06       		.uleb128 0x6
 3304 0176 40       		.uleb128 0x40
 3305 0177 18       		.uleb128 0x18
 3306 0178 9742     		.uleb128 0x2117
ARM GAS  /var/folders/l5/0x54b2c10074c8bt31ycjvl80000gp/T//ccbiey8U.s 			page 59


 3307 017a 19       		.uleb128 0x19
 3308 017b 01       		.uleb128 0x1
 3309 017c 13       		.uleb128 0x13
 3310 017d 00       		.byte	0
 3311 017e 00       		.byte	0
 3312 017f 1D       		.uleb128 0x1d
 3313 0180 05       		.uleb128 0x5
 3314 0181 00       		.byte	0
 3315 0182 03       		.uleb128 0x3
 3316 0183 0E       		.uleb128 0xe
 3317 0184 3A       		.uleb128 0x3a
 3318 0185 0B       		.uleb128 0xb
 3319 0186 3B       		.uleb128 0x3b
 3320 0187 05       		.uleb128 0x5
 3321 0188 39       		.uleb128 0x39
 3322 0189 0B       		.uleb128 0xb
 3323 018a 49       		.uleb128 0x49
 3324 018b 13       		.uleb128 0x13
 3325 018c 02       		.uleb128 0x2
 3326 018d 17       		.uleb128 0x17
 3327 018e B742     		.uleb128 0x2137
 3328 0190 17       		.uleb128 0x17
 3329 0191 00       		.byte	0
 3330 0192 00       		.byte	0
 3331 0193 1E       		.uleb128 0x1e
 3332 0194 05       		.uleb128 0x5
 3333 0195 00       		.byte	0
 3334 0196 03       		.uleb128 0x3
 3335 0197 0E       		.uleb128 0xe
 3336 0198 3A       		.uleb128 0x3a
 3337 0199 0B       		.uleb128 0xb
 3338 019a 3B       		.uleb128 0x3b
 3339 019b 05       		.uleb128 0x5
 3340 019c 39       		.uleb128 0x39
 3341 019d 0B       		.uleb128 0xb
 3342 019e 49       		.uleb128 0x49
 3343 019f 13       		.uleb128 0x13
 3344 01a0 02       		.uleb128 0x2
 3345 01a1 18       		.uleb128 0x18
 3346 01a2 00       		.byte	0
 3347 01a3 00       		.byte	0
 3348 01a4 1F       		.uleb128 0x1f
 3349 01a5 34       		.uleb128 0x34
 3350 01a6 00       		.byte	0
 3351 01a7 03       		.uleb128 0x3
 3352 01a8 08       		.uleb128 0x8
 3353 01a9 3A       		.uleb128 0x3a
 3354 01aa 0B       		.uleb128 0xb
 3355 01ab 3B       		.uleb128 0x3b
 3356 01ac 05       		.uleb128 0x5
 3357 01ad 39       		.uleb128 0x39
 3358 01ae 0B       		.uleb128 0xb
 3359 01af 49       		.uleb128 0x49
 3360 01b0 13       		.uleb128 0x13
 3361 01b1 02       		.uleb128 0x2
 3362 01b2 18       		.uleb128 0x18
 3363 01b3 00       		.byte	0
ARM GAS  /var/folders/l5/0x54b2c10074c8bt31ycjvl80000gp/T//ccbiey8U.s 			page 60


 3364 01b4 00       		.byte	0
 3365 01b5 20       		.uleb128 0x20
 3366 01b6 34       		.uleb128 0x34
 3367 01b7 00       		.byte	0
 3368 01b8 03       		.uleb128 0x3
 3369 01b9 0E       		.uleb128 0xe
 3370 01ba 3A       		.uleb128 0x3a
 3371 01bb 0B       		.uleb128 0xb
 3372 01bc 3B       		.uleb128 0x3b
 3373 01bd 05       		.uleb128 0x5
 3374 01be 39       		.uleb128 0x39
 3375 01bf 0B       		.uleb128 0xb
 3376 01c0 49       		.uleb128 0x49
 3377 01c1 13       		.uleb128 0x13
 3378 01c2 02       		.uleb128 0x2
 3379 01c3 17       		.uleb128 0x17
 3380 01c4 B742     		.uleb128 0x2137
 3381 01c6 17       		.uleb128 0x17
 3382 01c7 00       		.byte	0
 3383 01c8 00       		.byte	0
 3384 01c9 21       		.uleb128 0x21
 3385 01ca 898201   		.uleb128 0x4109
 3386 01cd 01       		.byte	0x1
 3387 01ce 11       		.uleb128 0x11
 3388 01cf 01       		.uleb128 0x1
 3389 01d0 31       		.uleb128 0x31
 3390 01d1 13       		.uleb128 0x13
 3391 01d2 01       		.uleb128 0x1
 3392 01d3 13       		.uleb128 0x13
 3393 01d4 00       		.byte	0
 3394 01d5 00       		.byte	0
 3395 01d6 22       		.uleb128 0x22
 3396 01d7 8A8201   		.uleb128 0x410a
 3397 01da 00       		.byte	0
 3398 01db 02       		.uleb128 0x2
 3399 01dc 18       		.uleb128 0x18
 3400 01dd 9142     		.uleb128 0x2111
 3401 01df 18       		.uleb128 0x18
 3402 01e0 00       		.byte	0
 3403 01e1 00       		.byte	0
 3404 01e2 23       		.uleb128 0x23
 3405 01e3 898201   		.uleb128 0x4109
 3406 01e6 01       		.byte	0x1
 3407 01e7 11       		.uleb128 0x11
 3408 01e8 01       		.uleb128 0x1
 3409 01e9 31       		.uleb128 0x31
 3410 01ea 13       		.uleb128 0x13
 3411 01eb 00       		.byte	0
 3412 01ec 00       		.byte	0
 3413 01ed 24       		.uleb128 0x24
 3414 01ee 2E       		.uleb128 0x2e
 3415 01ef 01       		.byte	0x1
 3416 01f0 3F       		.uleb128 0x3f
 3417 01f1 19       		.uleb128 0x19
 3418 01f2 03       		.uleb128 0x3
 3419 01f3 0E       		.uleb128 0xe
 3420 01f4 3A       		.uleb128 0x3a
ARM GAS  /var/folders/l5/0x54b2c10074c8bt31ycjvl80000gp/T//ccbiey8U.s 			page 61


 3421 01f5 0B       		.uleb128 0xb
 3422 01f6 3B       		.uleb128 0x3b
 3423 01f7 0B       		.uleb128 0xb
 3424 01f8 39       		.uleb128 0x39
 3425 01f9 0B       		.uleb128 0xb
 3426 01fa 27       		.uleb128 0x27
 3427 01fb 19       		.uleb128 0x19
 3428 01fc 49       		.uleb128 0x49
 3429 01fd 13       		.uleb128 0x13
 3430 01fe 11       		.uleb128 0x11
 3431 01ff 01       		.uleb128 0x1
 3432 0200 12       		.uleb128 0x12
 3433 0201 06       		.uleb128 0x6
 3434 0202 40       		.uleb128 0x40
 3435 0203 18       		.uleb128 0x18
 3436 0204 9742     		.uleb128 0x2117
 3437 0206 19       		.uleb128 0x19
 3438 0207 01       		.uleb128 0x1
 3439 0208 13       		.uleb128 0x13
 3440 0209 00       		.byte	0
 3441 020a 00       		.byte	0
 3442 020b 25       		.uleb128 0x25
 3443 020c 05       		.uleb128 0x5
 3444 020d 00       		.byte	0
 3445 020e 03       		.uleb128 0x3
 3446 020f 0E       		.uleb128 0xe
 3447 0210 3A       		.uleb128 0x3a
 3448 0211 0B       		.uleb128 0xb
 3449 0212 3B       		.uleb128 0x3b
 3450 0213 0B       		.uleb128 0xb
 3451 0214 39       		.uleb128 0x39
 3452 0215 0B       		.uleb128 0xb
 3453 0216 49       		.uleb128 0x49
 3454 0217 13       		.uleb128 0x13
 3455 0218 02       		.uleb128 0x2
 3456 0219 17       		.uleb128 0x17
 3457 021a B742     		.uleb128 0x2137
 3458 021c 17       		.uleb128 0x17
 3459 021d 00       		.byte	0
 3460 021e 00       		.byte	0
 3461 021f 26       		.uleb128 0x26
 3462 0220 05       		.uleb128 0x5
 3463 0221 00       		.byte	0
 3464 0222 03       		.uleb128 0x3
 3465 0223 0E       		.uleb128 0xe
 3466 0224 3A       		.uleb128 0x3a
 3467 0225 0B       		.uleb128 0xb
 3468 0226 3B       		.uleb128 0x3b
 3469 0227 0B       		.uleb128 0xb
 3470 0228 39       		.uleb128 0x39
 3471 0229 0B       		.uleb128 0xb
 3472 022a 49       		.uleb128 0x49
 3473 022b 13       		.uleb128 0x13
 3474 022c 02       		.uleb128 0x2
 3475 022d 18       		.uleb128 0x18
 3476 022e 00       		.byte	0
 3477 022f 00       		.byte	0
ARM GAS  /var/folders/l5/0x54b2c10074c8bt31ycjvl80000gp/T//ccbiey8U.s 			page 62


 3478 0230 27       		.uleb128 0x27
 3479 0231 34       		.uleb128 0x34
 3480 0232 00       		.byte	0
 3481 0233 03       		.uleb128 0x3
 3482 0234 08       		.uleb128 0x8
 3483 0235 3A       		.uleb128 0x3a
 3484 0236 0B       		.uleb128 0xb
 3485 0237 3B       		.uleb128 0x3b
 3486 0238 0B       		.uleb128 0xb
 3487 0239 39       		.uleb128 0x39
 3488 023a 0B       		.uleb128 0xb
 3489 023b 49       		.uleb128 0x49
 3490 023c 13       		.uleb128 0x13
 3491 023d 02       		.uleb128 0x2
 3492 023e 18       		.uleb128 0x18
 3493 023f 00       		.byte	0
 3494 0240 00       		.byte	0
 3495 0241 28       		.uleb128 0x28
 3496 0242 34       		.uleb128 0x34
 3497 0243 00       		.byte	0
 3498 0244 03       		.uleb128 0x3
 3499 0245 0E       		.uleb128 0xe
 3500 0246 3A       		.uleb128 0x3a
 3501 0247 0B       		.uleb128 0xb
 3502 0248 3B       		.uleb128 0x3b
 3503 0249 0B       		.uleb128 0xb
 3504 024a 39       		.uleb128 0x39
 3505 024b 0B       		.uleb128 0xb
 3506 024c 49       		.uleb128 0x49
 3507 024d 13       		.uleb128 0x13
 3508 024e 02       		.uleb128 0x2
 3509 024f 17       		.uleb128 0x17
 3510 0250 B742     		.uleb128 0x2137
 3511 0252 17       		.uleb128 0x17
 3512 0253 00       		.byte	0
 3513 0254 00       		.byte	0
 3514 0255 29       		.uleb128 0x29
 3515 0256 2E       		.uleb128 0x2e
 3516 0257 01       		.byte	0x1
 3517 0258 3F       		.uleb128 0x3f
 3518 0259 19       		.uleb128 0x19
 3519 025a 03       		.uleb128 0x3
 3520 025b 0E       		.uleb128 0xe
 3521 025c 3A       		.uleb128 0x3a
 3522 025d 0B       		.uleb128 0xb
 3523 025e 3B       		.uleb128 0x3b
 3524 025f 0B       		.uleb128 0xb
 3525 0260 39       		.uleb128 0x39
 3526 0261 0B       		.uleb128 0xb
 3527 0262 27       		.uleb128 0x27
 3528 0263 19       		.uleb128 0x19
 3529 0264 11       		.uleb128 0x11
 3530 0265 01       		.uleb128 0x1
 3531 0266 12       		.uleb128 0x12
 3532 0267 06       		.uleb128 0x6
 3533 0268 40       		.uleb128 0x40
 3534 0269 18       		.uleb128 0x18
ARM GAS  /var/folders/l5/0x54b2c10074c8bt31ycjvl80000gp/T//ccbiey8U.s 			page 63


 3535 026a 9742     		.uleb128 0x2117
 3536 026c 19       		.uleb128 0x19
 3537 026d 01       		.uleb128 0x1
 3538 026e 13       		.uleb128 0x13
 3539 026f 00       		.byte	0
 3540 0270 00       		.byte	0
 3541 0271 2A       		.uleb128 0x2a
 3542 0272 2E       		.uleb128 0x2e
 3543 0273 01       		.byte	0x1
 3544 0274 3F       		.uleb128 0x3f
 3545 0275 19       		.uleb128 0x19
 3546 0276 03       		.uleb128 0x3
 3547 0277 0E       		.uleb128 0xe
 3548 0278 3A       		.uleb128 0x3a
 3549 0279 0B       		.uleb128 0xb
 3550 027a 3B       		.uleb128 0x3b
 3551 027b 0B       		.uleb128 0xb
 3552 027c 39       		.uleb128 0x39
 3553 027d 0B       		.uleb128 0xb
 3554 027e 27       		.uleb128 0x27
 3555 027f 19       		.uleb128 0x19
 3556 0280 11       		.uleb128 0x11
 3557 0281 01       		.uleb128 0x1
 3558 0282 12       		.uleb128 0x12
 3559 0283 06       		.uleb128 0x6
 3560 0284 40       		.uleb128 0x40
 3561 0285 18       		.uleb128 0x18
 3562 0286 9642     		.uleb128 0x2116
 3563 0288 19       		.uleb128 0x19
 3564 0289 01       		.uleb128 0x1
 3565 028a 13       		.uleb128 0x13
 3566 028b 00       		.byte	0
 3567 028c 00       		.byte	0
 3568 028d 2B       		.uleb128 0x2b
 3569 028e 898201   		.uleb128 0x4109
 3570 0291 01       		.byte	0x1
 3571 0292 11       		.uleb128 0x11
 3572 0293 01       		.uleb128 0x1
 3573 0294 9542     		.uleb128 0x2115
 3574 0296 19       		.uleb128 0x19
 3575 0297 31       		.uleb128 0x31
 3576 0298 13       		.uleb128 0x13
 3577 0299 00       		.byte	0
 3578 029a 00       		.byte	0
 3579 029b 2C       		.uleb128 0x2c
 3580 029c 0B       		.uleb128 0xb
 3581 029d 01       		.byte	0x1
 3582 029e 11       		.uleb128 0x11
 3583 029f 01       		.uleb128 0x1
 3584 02a0 12       		.uleb128 0x12
 3585 02a1 06       		.uleb128 0x6
 3586 02a2 01       		.uleb128 0x1
 3587 02a3 13       		.uleb128 0x13
 3588 02a4 00       		.byte	0
 3589 02a5 00       		.byte	0
 3590 02a6 2D       		.uleb128 0x2d
 3591 02a7 34       		.uleb128 0x34
ARM GAS  /var/folders/l5/0x54b2c10074c8bt31ycjvl80000gp/T//ccbiey8U.s 			page 64


 3592 02a8 00       		.byte	0
 3593 02a9 03       		.uleb128 0x3
 3594 02aa 08       		.uleb128 0x8
 3595 02ab 3A       		.uleb128 0x3a
 3596 02ac 0B       		.uleb128 0xb
 3597 02ad 3B       		.uleb128 0x3b
 3598 02ae 0B       		.uleb128 0xb
 3599 02af 39       		.uleb128 0x39
 3600 02b0 0B       		.uleb128 0xb
 3601 02b1 49       		.uleb128 0x49
 3602 02b2 13       		.uleb128 0x13
 3603 02b3 02       		.uleb128 0x2
 3604 02b4 17       		.uleb128 0x17
 3605 02b5 B742     		.uleb128 0x2137
 3606 02b7 17       		.uleb128 0x17
 3607 02b8 00       		.byte	0
 3608 02b9 00       		.byte	0
 3609 02ba 2E       		.uleb128 0x2e
 3610 02bb 898201   		.uleb128 0x4109
 3611 02be 00       		.byte	0
 3612 02bf 11       		.uleb128 0x11
 3613 02c0 01       		.uleb128 0x1
 3614 02c1 9542     		.uleb128 0x2115
 3615 02c3 19       		.uleb128 0x19
 3616 02c4 31       		.uleb128 0x31
 3617 02c5 13       		.uleb128 0x13
 3618 02c6 00       		.byte	0
 3619 02c7 00       		.byte	0
 3620 02c8 2F       		.uleb128 0x2f
 3621 02c9 0B       		.uleb128 0xb
 3622 02ca 01       		.byte	0x1
 3623 02cb 55       		.uleb128 0x55
 3624 02cc 17       		.uleb128 0x17
 3625 02cd 00       		.byte	0
 3626 02ce 00       		.byte	0
 3627 02cf 30       		.uleb128 0x30
 3628 02d0 2E       		.uleb128 0x2e
 3629 02d1 01       		.byte	0x1
 3630 02d2 03       		.uleb128 0x3
 3631 02d3 0E       		.uleb128 0xe
 3632 02d4 3A       		.uleb128 0x3a
 3633 02d5 0B       		.uleb128 0xb
 3634 02d6 3B       		.uleb128 0x3b
 3635 02d7 0B       		.uleb128 0xb
 3636 02d8 39       		.uleb128 0x39
 3637 02d9 0B       		.uleb128 0xb
 3638 02da 27       		.uleb128 0x27
 3639 02db 19       		.uleb128 0x19
 3640 02dc 11       		.uleb128 0x11
 3641 02dd 01       		.uleb128 0x1
 3642 02de 12       		.uleb128 0x12
 3643 02df 06       		.uleb128 0x6
 3644 02e0 40       		.uleb128 0x40
 3645 02e1 18       		.uleb128 0x18
 3646 02e2 9742     		.uleb128 0x2117
 3647 02e4 19       		.uleb128 0x19
 3648 02e5 01       		.uleb128 0x1
ARM GAS  /var/folders/l5/0x54b2c10074c8bt31ycjvl80000gp/T//ccbiey8U.s 			page 65


 3649 02e6 13       		.uleb128 0x13
 3650 02e7 00       		.byte	0
 3651 02e8 00       		.byte	0
 3652 02e9 31       		.uleb128 0x31
 3653 02ea 05       		.uleb128 0x5
 3654 02eb 00       		.byte	0
 3655 02ec 03       		.uleb128 0x3
 3656 02ed 08       		.uleb128 0x8
 3657 02ee 3A       		.uleb128 0x3a
 3658 02ef 0B       		.uleb128 0xb
 3659 02f0 3B       		.uleb128 0x3b
 3660 02f1 0B       		.uleb128 0xb
 3661 02f2 39       		.uleb128 0x39
 3662 02f3 0B       		.uleb128 0xb
 3663 02f4 49       		.uleb128 0x49
 3664 02f5 13       		.uleb128 0x13
 3665 02f6 02       		.uleb128 0x2
 3666 02f7 17       		.uleb128 0x17
 3667 02f8 B742     		.uleb128 0x2137
 3668 02fa 17       		.uleb128 0x17
 3669 02fb 00       		.byte	0
 3670 02fc 00       		.byte	0
 3671 02fd 32       		.uleb128 0x32
 3672 02fe 2E       		.uleb128 0x2e
 3673 02ff 00       		.byte	0
 3674 0300 3F       		.uleb128 0x3f
 3675 0301 19       		.uleb128 0x19
 3676 0302 3C       		.uleb128 0x3c
 3677 0303 19       		.uleb128 0x19
 3678 0304 6E       		.uleb128 0x6e
 3679 0305 0E       		.uleb128 0xe
 3680 0306 03       		.uleb128 0x3
 3681 0307 0E       		.uleb128 0xe
 3682 0308 3A       		.uleb128 0x3a
 3683 0309 0B       		.uleb128 0xb
 3684 030a 3B       		.uleb128 0x3b
 3685 030b 0B       		.uleb128 0xb
 3686 030c 39       		.uleb128 0x39
 3687 030d 0B       		.uleb128 0xb
 3688 030e 00       		.byte	0
 3689 030f 00       		.byte	0
 3690 0310 33       		.uleb128 0x33
 3691 0311 2E       		.uleb128 0x2e
 3692 0312 00       		.byte	0
 3693 0313 3F       		.uleb128 0x3f
 3694 0314 19       		.uleb128 0x19
 3695 0315 3C       		.uleb128 0x3c
 3696 0316 19       		.uleb128 0x19
 3697 0317 6E       		.uleb128 0x6e
 3698 0318 0E       		.uleb128 0xe
 3699 0319 03       		.uleb128 0x3
 3700 031a 0E       		.uleb128 0xe
 3701 031b 3A       		.uleb128 0x3a
 3702 031c 0B       		.uleb128 0xb
 3703 031d 3B       		.uleb128 0x3b
 3704 031e 05       		.uleb128 0x5
 3705 031f 39       		.uleb128 0x39
ARM GAS  /var/folders/l5/0x54b2c10074c8bt31ycjvl80000gp/T//ccbiey8U.s 			page 66


 3706 0320 0B       		.uleb128 0xb
 3707 0321 00       		.byte	0
 3708 0322 00       		.byte	0
 3709 0323 00       		.byte	0
 3710              		.section	.debug_loc,"",%progbits
 3711              	.Ldebug_loc0:
 3712              	.LVUS12:
 3713 0000 00       		.uleb128 0
 3714 0001 00       		.uleb128 .LVU171
 3715 0002 00       		.uleb128 .LVU171
 3716 0003 00       		.uleb128 .LVU172
 3717 0004 00       		.uleb128 .LVU172
 3718 0005 00       		.uleb128 .LVU218
 3719 0006 00       		.uleb128 .LVU218
 3720 0007 00       		.uleb128 0
 3721              	.LLST12:
 3722 0008 00000000 		.4byte	.LVL33
 3723 000c 34000000 		.4byte	.LVL37
 3724 0010 0100     		.2byte	0x1
 3725 0012 50       		.byte	0x50
 3726 0013 34000000 		.4byte	.LVL37
 3727 0017 37000000 		.4byte	.LVL38-1
 3728 001b 0100     		.2byte	0x1
 3729 001d 53       		.byte	0x53
 3730 001e 37000000 		.4byte	.LVL38-1
 3731 0022 BC000000 		.4byte	.LVL44
 3732 0026 0100     		.2byte	0x1
 3733 0028 54       		.byte	0x54
 3734 0029 BC000000 		.4byte	.LVL44
 3735 002d CC000000 		.4byte	.LFE13
 3736 0031 0400     		.2byte	0x4
 3737 0033 F3       		.byte	0xf3
 3738 0034 01       		.uleb128 0x1
 3739 0035 50       		.byte	0x50
 3740 0036 9F       		.byte	0x9f
 3741 0037 00000000 		.4byte	0
 3742 003b 00000000 		.4byte	0
 3743              	.LVUS13:
 3744 003f 00       		.uleb128 0
 3745 0040 00       		.uleb128 .LVU170
 3746 0041 00       		.uleb128 .LVU170
 3747 0042 00       		.uleb128 .LVU218
 3748 0043 00       		.uleb128 .LVU218
 3749 0044 00       		.uleb128 0
 3750              	.LLST13:
 3751 0045 00000000 		.4byte	.LVL33
 3752 0049 30000000 		.4byte	.LVL36
 3753 004d 0100     		.2byte	0x1
 3754 004f 51       		.byte	0x51
 3755 0050 30000000 		.4byte	.LVL36
 3756 0054 BC000000 		.4byte	.LVL44
 3757 0058 0100     		.2byte	0x1
 3758 005a 57       		.byte	0x57
 3759 005b BC000000 		.4byte	.LVL44
 3760 005f CC000000 		.4byte	.LFE13
 3761 0063 0400     		.2byte	0x4
 3762 0065 F3       		.byte	0xf3
ARM GAS  /var/folders/l5/0x54b2c10074c8bt31ycjvl80000gp/T//ccbiey8U.s 			page 67


 3763 0066 01       		.uleb128 0x1
 3764 0067 51       		.byte	0x51
 3765 0068 9F       		.byte	0x9f
 3766 0069 00000000 		.4byte	0
 3767 006d 00000000 		.4byte	0
 3768              	.LVUS14:
 3769 0071 00       		.uleb128 0
 3770 0072 00       		.uleb128 .LVU169
 3771 0073 00       		.uleb128 .LVU169
 3772 0074 00       		.uleb128 .LVU218
 3773 0075 00       		.uleb128 .LVU218
 3774 0076 00       		.uleb128 0
 3775              	.LLST14:
 3776 0077 00000000 		.4byte	.LVL33
 3777 007b 2C000000 		.4byte	.LVL35
 3778 007f 0100     		.2byte	0x1
 3779 0081 52       		.byte	0x52
 3780 0082 2C000000 		.4byte	.LVL35
 3781 0086 BC000000 		.4byte	.LVL44
 3782 008a 0100     		.2byte	0x1
 3783 008c 58       		.byte	0x58
 3784 008d BC000000 		.4byte	.LVL44
 3785 0091 CC000000 		.4byte	.LFE13
 3786 0095 0400     		.2byte	0x4
 3787 0097 F3       		.byte	0xf3
 3788 0098 01       		.uleb128 0x1
 3789 0099 52       		.byte	0x52
 3790 009a 9F       		.byte	0x9f
 3791 009b 00000000 		.4byte	0
 3792 009f 00000000 		.4byte	0
 3793              	.LVUS15:
 3794 00a3 00       		.uleb128 0
 3795 00a4 00       		.uleb128 .LVU168
 3796 00a5 00       		.uleb128 .LVU168
 3797 00a6 00       		.uleb128 .LVU204
 3798 00a7 00       		.uleb128 .LVU204
 3799 00a8 00       		.uleb128 .LVU208
 3800 00a9 00       		.uleb128 .LVU208
 3801 00aa 00       		.uleb128 0
 3802              	.LLST15:
 3803 00ab 00000000 		.4byte	.LVL33
 3804 00af 28000000 		.4byte	.LVL34
 3805 00b3 0100     		.2byte	0x1
 3806 00b5 53       		.byte	0x53
 3807 00b6 28000000 		.4byte	.LVL34
 3808 00ba 7C000000 		.4byte	.LVL40
 3809 00be 0100     		.2byte	0x1
 3810 00c0 56       		.byte	0x56
 3811 00c1 7C000000 		.4byte	.LVL40
 3812 00c5 8B000000 		.4byte	.LVL42-1
 3813 00c9 0200     		.2byte	0x2
 3814 00cb 74       		.byte	0x74
 3815 00cc 38       		.sleb128 56
 3816 00cd 8B000000 		.4byte	.LVL42-1
 3817 00d1 CC000000 		.4byte	.LFE13
 3818 00d5 0400     		.2byte	0x4
 3819 00d7 F3       		.byte	0xf3
ARM GAS  /var/folders/l5/0x54b2c10074c8bt31ycjvl80000gp/T//ccbiey8U.s 			page 68


 3820 00d8 01       		.uleb128 0x1
 3821 00d9 53       		.byte	0x53
 3822 00da 9F       		.byte	0x9f
 3823 00db 00000000 		.4byte	0
 3824 00df 00000000 		.4byte	0
 3825              	.LVUS16:
 3826 00e3 07       		.uleb128 .LVU189
 3827 00e4 00       		.uleb128 .LVU206
 3828 00e5 00       		.uleb128 .LVU206
 3829 00e6 00       		.uleb128 .LVU208
 3830              	.LLST16:
 3831 00e7 5C000000 		.4byte	.LVL39
 3832 00eb 84000000 		.4byte	.LVL41
 3833 00ef 0100     		.2byte	0x1
 3834 00f1 53       		.byte	0x53
 3835 00f2 84000000 		.4byte	.LVL41
 3836 00f6 8B000000 		.4byte	.LVL42-1
 3837 00fa 0200     		.2byte	0x2
 3838 00fc 74       		.byte	0x74
 3839 00fd 0C       		.sleb128 12
 3840 00fe 00000000 		.4byte	0
 3841 0102 00000000 		.4byte	0
 3842              	.LVUS17:
 3843 0106 00       		.uleb128 0
 3844 0107 00       		.uleb128 .LVU231
 3845 0108 00       		.uleb128 .LVU231
 3846 0109 00       		.uleb128 .LVU232
 3847 010a 00       		.uleb128 .LVU232
 3848 010b 00       		.uleb128 .LVU293
 3849 010c 00       		.uleb128 .LVU293
 3850 010d 00       		.uleb128 0
 3851              	.LLST17:
 3852 010e 00000000 		.4byte	.LVL45
 3853 0112 3C000000 		.4byte	.LVL49
 3854 0116 0100     		.2byte	0x1
 3855 0118 50       		.byte	0x50
 3856 0119 3C000000 		.4byte	.LVL49
 3857 011d 3F000000 		.4byte	.LVL50-1
 3858 0121 0100     		.2byte	0x1
 3859 0123 53       		.byte	0x53
 3860 0124 3F000000 		.4byte	.LVL50-1
 3861 0128 30010000 		.4byte	.LVL62
 3862 012c 0100     		.2byte	0x1
 3863 012e 54       		.byte	0x54
 3864 012f 30010000 		.4byte	.LVL62
 3865 0133 3C010000 		.4byte	.LFE12
 3866 0137 0400     		.2byte	0x4
 3867 0139 F3       		.byte	0xf3
 3868 013a 01       		.uleb128 0x1
 3869 013b 50       		.byte	0x50
 3870 013c 9F       		.byte	0x9f
 3871 013d 00000000 		.4byte	0
 3872 0141 00000000 		.4byte	0
 3873              	.LVUS18:
 3874 0145 00       		.uleb128 0
 3875 0146 00       		.uleb128 .LVU230
 3876 0147 00       		.uleb128 .LVU230
ARM GAS  /var/folders/l5/0x54b2c10074c8bt31ycjvl80000gp/T//ccbiey8U.s 			page 69


 3877 0148 00       		.uleb128 .LVU282
 3878 0149 00       		.uleb128 .LVU282
 3879 014a 00       		.uleb128 0
 3880              	.LLST18:
 3881 014b 00000000 		.4byte	.LVL45
 3882 014f 38000000 		.4byte	.LVL48
 3883 0153 0100     		.2byte	0x1
 3884 0155 51       		.byte	0x51
 3885 0156 38000000 		.4byte	.LVL48
 3886 015a E8000000 		.4byte	.LVL57
 3887 015e 0100     		.2byte	0x1
 3888 0160 56       		.byte	0x56
 3889 0161 E8000000 		.4byte	.LVL57
 3890 0165 3C010000 		.4byte	.LFE12
 3891 0169 0400     		.2byte	0x4
 3892 016b F3       		.byte	0xf3
 3893 016c 01       		.uleb128 0x1
 3894 016d 51       		.byte	0x51
 3895 016e 9F       		.byte	0x9f
 3896 016f 00000000 		.4byte	0
 3897 0173 00000000 		.4byte	0
 3898              	.LVUS19:
 3899 0177 00       		.uleb128 0
 3900 0178 00       		.uleb128 .LVU229
 3901 0179 00       		.uleb128 .LVU229
 3902 017a 00       		.uleb128 .LVU293
 3903 017b 00       		.uleb128 .LVU293
 3904 017c 00       		.uleb128 0
 3905              	.LLST19:
 3906 017d 00000000 		.4byte	.LVL45
 3907 0181 34000000 		.4byte	.LVL47
 3908 0185 0100     		.2byte	0x1
 3909 0187 52       		.byte	0x52
 3910 0188 34000000 		.4byte	.LVL47
 3911 018c 30010000 		.4byte	.LVL62
 3912 0190 0100     		.2byte	0x1
 3913 0192 5A       		.byte	0x5a
 3914 0193 30010000 		.4byte	.LVL62
 3915 0197 3C010000 		.4byte	.LFE12
 3916 019b 0400     		.2byte	0x4
 3917 019d F3       		.byte	0xf3
 3918 019e 01       		.uleb128 0x1
 3919 019f 52       		.byte	0x52
 3920 01a0 9F       		.byte	0x9f
 3921 01a1 00000000 		.4byte	0
 3922 01a5 00000000 		.4byte	0
 3923              	.LVUS20:
 3924 01a9 00       		.uleb128 0
 3925 01aa 00       		.uleb128 .LVU228
 3926 01ab 00       		.uleb128 .LVU228
 3927 01ac 00       		.uleb128 .LVU263
 3928 01ad 00       		.uleb128 .LVU263
 3929 01ae 00       		.uleb128 .LVU267
 3930 01af 00       		.uleb128 .LVU267
 3931 01b0 00       		.uleb128 0
 3932              	.LLST20:
 3933 01b1 00000000 		.4byte	.LVL45
ARM GAS  /var/folders/l5/0x54b2c10074c8bt31ycjvl80000gp/T//ccbiey8U.s 			page 70


 3934 01b5 30000000 		.4byte	.LVL46
 3935 01b9 0100     		.2byte	0x1
 3936 01bb 53       		.byte	0x53
 3937 01bc 30000000 		.4byte	.LVL46
 3938 01c0 8C000000 		.4byte	.LVL52
 3939 01c4 0100     		.2byte	0x1
 3940 01c6 59       		.byte	0x59
 3941 01c7 8C000000 		.4byte	.LVL52
 3942 01cb 9B000000 		.4byte	.LVL54-1
 3943 01cf 0200     		.2byte	0x2
 3944 01d1 74       		.byte	0x74
 3945 01d2 2C       		.sleb128 44
 3946 01d3 9B000000 		.4byte	.LVL54-1
 3947 01d7 3C010000 		.4byte	.LFE12
 3948 01db 0400     		.2byte	0x4
 3949 01dd F3       		.byte	0xf3
 3950 01de 01       		.uleb128 0x1
 3951 01df 53       		.byte	0x53
 3952 01e0 9F       		.byte	0x9f
 3953 01e1 00000000 		.4byte	0
 3954 01e5 00000000 		.4byte	0
 3955              	.LVUS21:
 3956 01e9 05       		.uleb128 .LVU248
 3957 01ea 00       		.uleb128 .LVU265
 3958 01eb 00       		.uleb128 .LVU265
 3959 01ec 00       		.uleb128 .LVU267
 3960              	.LLST21:
 3961 01ed 60000000 		.4byte	.LVL51
 3962 01f1 94000000 		.4byte	.LVL53
 3963 01f5 0100     		.2byte	0x1
 3964 01f7 53       		.byte	0x53
 3965 01f8 94000000 		.4byte	.LVL53
 3966 01fc 9B000000 		.4byte	.LVL54-1
 3967 0200 0200     		.2byte	0x2
 3968 0202 74       		.byte	0x74
 3969 0203 0C       		.sleb128 12
 3970 0204 00000000 		.4byte	0
 3971 0208 00000000 		.4byte	0
 3972              	.LVUS22:
 3973 020c 00       		.uleb128 .LVU278
 3974 020d 00       		.uleb128 .LVU286
 3975 020e 00       		.uleb128 .LVU286
 3976 020f 00       		.uleb128 .LVU290
 3977 0210 00       		.uleb128 .LVU290
 3978 0211 00       		.uleb128 .LVU293
 3979 0212 00       		.uleb128 .LVU293
 3980 0213 00       		.uleb128 0
 3981              	.LLST22:
 3982 0214 C8000000 		.4byte	.LVL56
 3983 0218 0C010000 		.4byte	.LVL59
 3984 021c 0100     		.2byte	0x1
 3985 021e 59       		.byte	0x59
 3986 021f 0C010000 		.4byte	.LVL59
 3987 0223 20010000 		.4byte	.LVL60
 3988 0227 0100     		.2byte	0x1
 3989 0229 50       		.byte	0x50
 3990 022a 20010000 		.4byte	.LVL60
ARM GAS  /var/folders/l5/0x54b2c10074c8bt31ycjvl80000gp/T//ccbiey8U.s 			page 71


 3991 022e 30010000 		.4byte	.LVL62
 3992 0232 0100     		.2byte	0x1
 3993 0234 59       		.byte	0x59
 3994 0235 30010000 		.4byte	.LVL62
 3995 0239 3C010000 		.4byte	.LFE12
 3996 023d 0100     		.2byte	0x1
 3997 023f 50       		.byte	0x50
 3998 0240 00000000 		.4byte	0
 3999 0244 00000000 		.4byte	0
 4000              	.LVUS11:
 4001 0248 00       		.uleb128 0
 4002 0249 00       		.uleb128 .LVU153
 4003 024a 00       		.uleb128 .LVU153
 4004 024b 00       		.uleb128 0
 4005              	.LLST11:
 4006 024c 00000000 		.4byte	.LVL29
 4007 0250 10000000 		.4byte	.LVL30
 4008 0254 0100     		.2byte	0x1
 4009 0256 50       		.byte	0x50
 4010 0257 10000000 		.4byte	.LVL30
 4011 025b 34000000 		.4byte	.LFE11
 4012 025f 0100     		.2byte	0x1
 4013 0261 54       		.byte	0x54
 4014 0262 00000000 		.4byte	0
 4015 0266 00000000 		.4byte	0
 4016              	.LVUS9:
 4017 026a 00       		.uleb128 0
 4018 026b 00       		.uleb128 .LVU133
 4019 026c 00       		.uleb128 .LVU133
 4020 026d 00       		.uleb128 0
 4021              	.LLST9:
 4022 026e 00000000 		.4byte	.LVL21
 4023 0272 10000000 		.4byte	.LVL22
 4024 0276 0100     		.2byte	0x1
 4025 0278 50       		.byte	0x50
 4026 0279 10000000 		.4byte	.LVL22
 4027 027d 68000000 		.4byte	.LFE10
 4028 0281 0100     		.2byte	0x1
 4029 0283 54       		.byte	0x54
 4030 0284 00000000 		.4byte	0
 4031 0288 00000000 		.4byte	0
 4032              	.LVUS10:
 4033 028c 00       		.uleb128 .LVU139
 4034 028d 00       		.uleb128 .LVU141
 4035 028e 00       		.uleb128 .LVU144
 4036 028f 00       		.uleb128 .LVU146
 4037              	.LLST10:
 4038 0290 2C000000 		.4byte	.LVL25
 4039 0294 3C000000 		.4byte	.LVL26
 4040 0298 0100     		.2byte	0x1
 4041 029a 51       		.byte	0x51
 4042 029b 4C000000 		.4byte	.LVL27
 4043 029f 53000000 		.4byte	.LVL28-1
 4044 02a3 0100     		.2byte	0x1
 4045 02a5 51       		.byte	0x51
 4046 02a6 00000000 		.4byte	0
 4047 02aa 00000000 		.4byte	0
ARM GAS  /var/folders/l5/0x54b2c10074c8bt31ycjvl80000gp/T//ccbiey8U.s 			page 72


 4048              	.LVUS4:
 4049 02ae 00       		.uleb128 0
 4050 02af 00       		.uleb128 .LVU59
 4051 02b0 00       		.uleb128 .LVU59
 4052 02b1 00       		.uleb128 .LVU61
 4053 02b2 00       		.uleb128 .LVU61
 4054 02b3 00       		.uleb128 .LVU94
 4055 02b4 00       		.uleb128 .LVU94
 4056 02b5 00       		.uleb128 .LVU96
 4057 02b6 00       		.uleb128 .LVU96
 4058 02b7 00       		.uleb128 0
 4059              	.LLST4:
 4060 02b8 00000000 		.4byte	.LVL5
 4061 02bc 2C000000 		.4byte	.LVL11
 4062 02c0 0100     		.2byte	0x1
 4063 02c2 50       		.byte	0x50
 4064 02c3 2C000000 		.4byte	.LVL11
 4065 02c7 34000000 		.4byte	.LVL12
 4066 02cb 0400     		.2byte	0x4
 4067 02cd F3       		.byte	0xf3
 4068 02ce 01       		.uleb128 0x1
 4069 02cf 50       		.byte	0x50
 4070 02d0 9F       		.byte	0x9f
 4071 02d1 34000000 		.4byte	.LVL12
 4072 02d5 A4000000 		.4byte	.LVL15
 4073 02d9 0100     		.2byte	0x1
 4074 02db 50       		.byte	0x50
 4075 02dc A4000000 		.4byte	.LVL15
 4076 02e0 AC000000 		.4byte	.LVL16
 4077 02e4 0400     		.2byte	0x4
 4078 02e6 F3       		.byte	0xf3
 4079 02e7 01       		.uleb128 0x1
 4080 02e8 50       		.byte	0x50
 4081 02e9 9F       		.byte	0x9f
 4082 02ea AC000000 		.4byte	.LVL16
 4083 02ee 4C010000 		.4byte	.LFE8
 4084 02f2 0100     		.2byte	0x1
 4085 02f4 50       		.byte	0x50
 4086 02f5 00000000 		.4byte	0
 4087 02f9 00000000 		.4byte	0
 4088              	.LVUS5:
 4089 02fd 00       		.uleb128 .LVU46
 4090 02fe 00       		.uleb128 .LVU57
 4091 02ff 00       		.uleb128 .LVU57
 4092 0300 00       		.uleb128 .LVU59
 4093 0301 00       		.uleb128 .LVU59
 4094 0302 00       		.uleb128 .LVU61
 4095 0303 00       		.uleb128 .LVU61
 4096 0304 00       		.uleb128 .LVU96
 4097 0305 00       		.uleb128 .LVU96
 4098 0306 00       		.uleb128 0
 4099              	.LLST5:
 4100 0307 04000000 		.4byte	.LVL6
 4101 030b 24000000 		.4byte	.LVL10
 4102 030f 0100     		.2byte	0x1
 4103 0311 52       		.byte	0x52
 4104 0312 24000000 		.4byte	.LVL10
ARM GAS  /var/folders/l5/0x54b2c10074c8bt31ycjvl80000gp/T//ccbiey8U.s 			page 73


 4105 0316 2C000000 		.4byte	.LVL11
 4106 031a 0200     		.2byte	0x2
 4107 031c 70       		.byte	0x70
 4108 031d 0C       		.sleb128 12
 4109 031e 2C000000 		.4byte	.LVL11
 4110 0322 33000000 		.4byte	.LVL12-1
 4111 0326 0500     		.2byte	0x5
 4112 0328 F3       		.byte	0xf3
 4113 0329 01       		.uleb128 0x1
 4114 032a 50       		.byte	0x50
 4115 032b 23       		.byte	0x23
 4116 032c 0C       		.uleb128 0xc
 4117 032d 34000000 		.4byte	.LVL12
 4118 0331 AB000000 		.4byte	.LVL16-1
 4119 0335 0100     		.2byte	0x1
 4120 0337 52       		.byte	0x52
 4121 0338 AC000000 		.4byte	.LVL16
 4122 033c 4C010000 		.4byte	.LFE8
 4123 0340 0100     		.2byte	0x1
 4124 0342 52       		.byte	0x52
 4125 0343 00000000 		.4byte	0
 4126 0347 00000000 		.4byte	0
 4127              	.LVUS6:
 4128 034b 00       		.uleb128 .LVU48
 4129 034c 00       		.uleb128 .LVU56
 4130 034d 00       		.uleb128 .LVU61
 4131 034e 00       		.uleb128 .LVU69
 4132 034f 00       		.uleb128 .LVU96
 4133 0350 00       		.uleb128 .LVU104
 4134 0351 00       		.uleb128 .LVU110
 4135 0352 00       		.uleb128 .LVU115
 4136              	.LLST6:
 4137 0353 08000000 		.4byte	.LVL7
 4138 0357 20000000 		.4byte	.LVL9
 4139 035b 0100     		.2byte	0x1
 4140 035d 51       		.byte	0x51
 4141 035e 34000000 		.4byte	.LVL12
 4142 0362 50000000 		.4byte	.LVL13
 4143 0366 0100     		.2byte	0x1
 4144 0368 51       		.byte	0x51
 4145 0369 AC000000 		.4byte	.LVL16
 4146 036d E4000000 		.4byte	.LVL17
 4147 0371 0100     		.2byte	0x1
 4148 0373 51       		.byte	0x51
 4149 0374 00010000 		.4byte	.LVL18
 4150 0378 20010000 		.4byte	.LVL19
 4151 037c 0100     		.2byte	0x1
 4152 037e 51       		.byte	0x51
 4153 037f 00000000 		.4byte	0
 4154 0383 00000000 		.4byte	0
 4155              	.LVUS7:
 4156 0387 01       		.uleb128 .LVU55
 4157 0388 00       		.uleb128 .LVU61
 4158              	.LLST7:
 4159 0389 1C000000 		.4byte	.LVL8
 4160 038d 33000000 		.4byte	.LVL12-1
 4161 0391 0100     		.2byte	0x1
ARM GAS  /var/folders/l5/0x54b2c10074c8bt31ycjvl80000gp/T//ccbiey8U.s 			page 74


 4162 0393 53       		.byte	0x53
 4163 0394 00000000 		.4byte	0
 4164 0398 00000000 		.4byte	0
 4165              	.LVUS8:
 4166 039c 01       		.uleb128 .LVU90
 4167 039d 00       		.uleb128 .LVU96
 4168              	.LLST8:
 4169 039e 98000000 		.4byte	.LVL14
 4170 03a2 AB000000 		.4byte	.LVL16-1
 4171 03a6 0100     		.2byte	0x1
 4172 03a8 53       		.byte	0x53
 4173 03a9 00000000 		.4byte	0
 4174 03ad 00000000 		.4byte	0
 4175              	.LVUS0:
 4176 03b1 00       		.uleb128 0
 4177 03b2 00       		.uleb128 .LVU12
 4178 03b3 00       		.uleb128 .LVU12
 4179 03b4 00       		.uleb128 .LVU41
 4180 03b5 00       		.uleb128 .LVU41
 4181 03b6 00       		.uleb128 0
 4182              	.LLST0:
 4183 03b7 00000000 		.4byte	.LVL0
 4184 03bb 18000000 		.4byte	.LVL2
 4185 03bf 0100     		.2byte	0x1
 4186 03c1 50       		.byte	0x50
 4187 03c2 18000000 		.4byte	.LVL2
 4188 03c6 6F000000 		.4byte	.LVL4-1
 4189 03ca 0100     		.2byte	0x1
 4190 03cc 53       		.byte	0x53
 4191 03cd 6F000000 		.4byte	.LVL4-1
 4192 03d1 74000000 		.4byte	.LFE7
 4193 03d5 0400     		.2byte	0x4
 4194 03d7 F3       		.byte	0xf3
 4195 03d8 01       		.uleb128 0x1
 4196 03d9 50       		.byte	0x50
 4197 03da 9F       		.byte	0x9f
 4198 03db 00000000 		.4byte	0
 4199 03df 00000000 		.4byte	0
 4200              	.LVUS1:
 4201 03e3 02       		.uleb128 .LVU2
 4202 03e4 00       		.uleb128 .LVU12
 4203 03e5 00       		.uleb128 .LVU12
 4204 03e6 00       		.uleb128 .LVU41
 4205 03e7 00       		.uleb128 .LVU41
 4206 03e8 00       		.uleb128 0
 4207              	.LLST1:
 4208 03e9 00000000 		.4byte	.LVL0
 4209 03ed 18000000 		.4byte	.LVL2
 4210 03f1 0100     		.2byte	0x1
 4211 03f3 50       		.byte	0x50
 4212 03f4 18000000 		.4byte	.LVL2
 4213 03f8 6F000000 		.4byte	.LVL4-1
 4214 03fc 0100     		.2byte	0x1
 4215 03fe 53       		.byte	0x53
 4216 03ff 6F000000 		.4byte	.LVL4-1
 4217 0403 74000000 		.4byte	.LFE7
 4218 0407 0400     		.2byte	0x4
ARM GAS  /var/folders/l5/0x54b2c10074c8bt31ycjvl80000gp/T//ccbiey8U.s 			page 75


 4219 0409 F3       		.byte	0xf3
 4220 040a 01       		.uleb128 0x1
 4221 040b 50       		.byte	0x50
 4222 040c 9F       		.byte	0x9f
 4223 040d 00000000 		.4byte	0
 4224 0411 00000000 		.4byte	0
 4225              	.LVUS2:
 4226 0415 00       		.uleb128 .LVU10
 4227 0416 00       		.uleb128 .LVU41
 4228              	.LLST2:
 4229 0417 14000000 		.4byte	.LVL1
 4230 041b 6F000000 		.4byte	.LVL4-1
 4231 041f 0100     		.2byte	0x1
 4232 0421 52       		.byte	0x52
 4233 0422 00000000 		.4byte	0
 4234 0426 00000000 		.4byte	0
 4235              	.LVUS3:
 4236 042a 01       		.uleb128 .LVU33
 4237 042b 00       		.uleb128 .LVU41
 4238              	.LLST3:
 4239 042c 5C000000 		.4byte	.LVL3
 4240 0430 6F000000 		.4byte	.LVL4-1
 4241 0434 0100     		.2byte	0x1
 4242 0436 51       		.byte	0x51
 4243 0437 00000000 		.4byte	0
 4244 043b 00000000 		.4byte	0
 4245              		.section	.debug_aranges,"",%progbits
 4246 0000 4C000000 		.4byte	0x4c
 4247 0004 0200     		.2byte	0x2
 4248 0006 00000000 		.4byte	.Ldebug_info0
 4249 000a 04       		.byte	0x4
 4250 000b 00       		.byte	0
 4251 000c 0000     		.2byte	0
 4252 000e 0000     		.2byte	0
 4253 0010 00000000 		.4byte	.LFB7
 4254 0014 74000000 		.4byte	.LFE7-.LFB7
 4255 0018 00000000 		.4byte	.LFB8
 4256 001c 4C010000 		.4byte	.LFE8-.LFB8
 4257 0020 00000000 		.4byte	.LFB9
 4258 0024 1C000000 		.4byte	.LFE9-.LFB9
 4259 0028 00000000 		.4byte	.LFB10
 4260 002c 68000000 		.4byte	.LFE10-.LFB10
 4261 0030 00000000 		.4byte	.LFB11
 4262 0034 34000000 		.4byte	.LFE11-.LFB11
 4263 0038 00000000 		.4byte	.LFB13
 4264 003c CC000000 		.4byte	.LFE13-.LFB13
 4265 0040 00000000 		.4byte	.LFB12
 4266 0044 3C010000 		.4byte	.LFE12-.LFB12
 4267 0048 00000000 		.4byte	0
 4268 004c 00000000 		.4byte	0
 4269              		.section	.debug_ranges,"",%progbits
 4270              	.Ldebug_ranges0:
 4271 0000 0C000000 		.4byte	.LBB2
 4272 0004 18000000 		.4byte	.LBE2
 4273 0008 1C000000 		.4byte	.LBB3
 4274 000c 68000000 		.4byte	.LBE3
 4275 0010 6C000000 		.4byte	.LBB4
ARM GAS  /var/folders/l5/0x54b2c10074c8bt31ycjvl80000gp/T//ccbiey8U.s 			page 76


 4276 0014 74000000 		.4byte	.LBE4
 4277 0018 00000000 		.4byte	0
 4278 001c 00000000 		.4byte	0
 4279 0020 98000000 		.4byte	.LBB6
 4280 0024 9C000000 		.4byte	.LBE6
 4281 0028 A0000000 		.4byte	.LBB7
 4282 002c AC000000 		.4byte	.LBE7
 4283 0030 00000000 		.4byte	0
 4284 0034 00000000 		.4byte	0
 4285 0038 00000000 		.4byte	.LFB7
 4286 003c 74000000 		.4byte	.LFE7
 4287 0040 00000000 		.4byte	.LFB8
 4288 0044 4C010000 		.4byte	.LFE8
 4289 0048 00000000 		.4byte	.LFB9
 4290 004c 1C000000 		.4byte	.LFE9
 4291 0050 00000000 		.4byte	.LFB10
 4292 0054 68000000 		.4byte	.LFE10
 4293 0058 00000000 		.4byte	.LFB11
 4294 005c 34000000 		.4byte	.LFE11
 4295 0060 00000000 		.4byte	.LFB13
 4296 0064 CC000000 		.4byte	.LFE13
 4297 0068 00000000 		.4byte	.LFB12
 4298 006c 3C010000 		.4byte	.LFE12
 4299 0070 00000000 		.4byte	0
 4300 0074 00000000 		.4byte	0
 4301              		.section	.debug_line,"",%progbits
 4302              	.Ldebug_line0:
 4303 0000 90060000 		.section	.debug_str,"MS",%progbits,1
 4303      03006B02 
 4303      00000201 
 4303      FB0E0D00 
 4303      01010101 
 4304              	.LASF3:
 4305 0000 73697A65 		.ascii	"size_t\000"
 4305      5F7400
 4306              	.LASF71:
 4307 0007 7264796D 		.ascii	"rdymsg\000"
 4307      736700
 4308              	.LASF143:
 4309 000e 77726974 		.ascii	"write\000"
 4309      6500
 4310              	.LASF86:
 4311 0014 4F757470 		.ascii	"OutputQueue\000"
 4311      75745175 
 4311      65756500 
 4312              	.LASF4:
 4313 0020 5F5F7569 		.ascii	"__uint8_t\000"
 4313      6E74385F 
 4313      7400
 4314              	.LASF58:
 4315 002a 76746C69 		.ascii	"vtlist\000"
 4315      737400
 4316              	.LASF88:
 4317 0031 62736364 		.ascii	"bscdevice_t\000"
 4317      65766963 
 4317      655F7400 
 4318              	.LASF126:
ARM GAS  /var/folders/l5/0x54b2c10074c8bt31ycjvl80000gp/T//ccbiey8U.s 			page 77


 4319 003d 72786275 		.ascii	"rxbuf\000"
 4319      6600
 4320              	.LASF12:
 4321 0043 6C6F6E67 		.ascii	"long long unsigned int\000"
 4321      206C6F6E 
 4321      6720756E 
 4321      7369676E 
 4321      65642069 
 4322              	.LASF122:
 4323 005a 61646472 		.ascii	"addr\000"
 4323      00
 4324              	.LASF72:
 4325 005f 65786974 		.ascii	"exitcode\000"
 4325      636F6465 
 4325      00
 4326              	.LASF149:
 4327 0068 69326370 		.ascii	"i2cp\000"
 4327      00
 4328              	.LASF93:
 4329 006d 64617461 		.ascii	"dataFifo\000"
 4329      4669666F 
 4329      00
 4330              	.LASF29:
 4331 0076 705F7072 		.ascii	"p_prio\000"
 4331      696F00
 4332              	.LASF148:
 4333 007d 72656164 		.ascii	"readt\000"
 4333      7400
 4334              	.LASF119:
 4335 0083 64657669 		.ascii	"device\000"
 4335      636500
 4336              	.LASF76:
 4337 008a 715F7761 		.ascii	"q_waiting\000"
 4337      6974696E 
 4337      6700
 4338              	.LASF11:
 4339 0094 6C6F6E67 		.ascii	"long long int\000"
 4339      206C6F6E 
 4339      6720696E 
 4339      7400
 4340              	.LASF2:
 4341 00a2 7369676E 		.ascii	"signed char\000"
 4341      65642063 
 4341      68617200 
 4342              	.LASF135:
 4343 00ae 53445F53 		.ascii	"SD_STOP\000"
 4343      544F5000 
 4344              	.LASF61:
 4345 00b6 6D5F7175 		.ascii	"m_queue\000"
 4345      65756500 
 4346              	.LASF150:
 4347 00be 6932635F 		.ascii	"i2c_lld_master_receive_timeout\000"
 4347      6C6C645F 
 4347      6D617374 
 4347      65725F72 
 4347      65636569 
 4348              	.LASF151:
ARM GAS  /var/folders/l5/0x54b2c10074c8bt31ycjvl80000gp/T//ccbiey8U.s 			page 78


 4349 00dd 6932635F 		.ascii	"i2c_lld_master_transmit_timeout\000"
 4349      6C6C645F 
 4349      6D617374 
 4349      65725F74 
 4349      72616E73 
 4350              	.LASF20:
 4351 00fd 74736C69 		.ascii	"tslices_t\000"
 4351      6365735F 
 4351      7400
 4352              	.LASF108:
 4353 0107 4932435F 		.ascii	"I2C_UNINIT\000"
 4353      554E494E 
 4353      495400
 4354              	.LASF130:
 4355 0112 69326361 		.ascii	"i2caddr_t\000"
 4355      6464725F 
 4355      7400
 4356              	.LASF116:
 4357 011c 73746174 		.ascii	"state\000"
 4357      6500
 4358              	.LASF0:
 4359 0122 6C6F6E67 		.ascii	"long int\000"
 4359      20696E74 
 4359      00
 4360              	.LASF19:
 4361 012b 74737461 		.ascii	"tstate_t\000"
 4361      74655F74 
 4361      00
 4362              	.LASF121:
 4363 0134 74687265 		.ascii	"thread\000"
 4363      616400
 4364              	.LASF95:
 4365 013b 64617461 		.ascii	"dataDelay\000"
 4365      44656C61 
 4365      7900
 4366              	.LASF78:
 4367 0145 715F6275 		.ascii	"q_buffer\000"
 4367      66666572 
 4367      00
 4368              	.LASF14:
 4369 014e 75696E74 		.ascii	"uint16_t\000"
 4369      31365F74 
 4369      00
 4370              	.LASF111:
 4371 0157 4932435F 		.ascii	"I2C_ACTIVE_TX\000"
 4371      41435449 
 4371      56455F54 
 4371      5800
 4372              	.LASF91:
 4373 0165 64617461 		.ascii	"dataLength\000"
 4373      4C656E67 
 4373      746800
 4374              	.LASF87:
 4375 0170 5F69646C 		.ascii	"_idle_thread_wa\000"
 4375      655F7468 
 4375      72656164 
 4375      5F776100 
ARM GAS  /var/folders/l5/0x54b2c10074c8bt31ycjvl80000gp/T//ccbiey8U.s 			page 79


 4376              	.LASF89:
 4377 0180 636F6E74 		.ascii	"control\000"
 4377      726F6C00 
 4378              	.LASF10:
 4379 0188 5F5F7569 		.ascii	"__uint32_t\000"
 4379      6E743332 
 4379      5F7400
 4380              	.LASF41:
 4381 0193 72656761 		.ascii	"regarm_t\000"
 4381      726D5F74 
 4381      00
 4382              	.LASF47:
 4383 019c 76745F70 		.ascii	"vt_prev\000"
 4383      72657600 
 4384              	.LASF92:
 4385 01a4 736C6176 		.ascii	"slaveAddress\000"
 4385      65416464 
 4385      72657373 
 4385      00
 4386              	.LASF164:
 4387 01b1 474E5520 		.ascii	"GNU C17 8.3.1 20190703 (release) [gcc-8-branch revi"
 4387      43313720 
 4387      382E332E 
 4387      31203230 
 4387      31393037 
 4388 01e4 73696F6E 		.ascii	"sion 273027] -mcpu=arm1176jz-s -mabi=apcs-gnu -mno-"
 4388      20323733 
 4388      3032375D 
 4388      202D6D63 
 4388      70753D61 
 4389 0217 7468756D 		.ascii	"thumb-interwork -mfloat-abi=soft -marm -march=armv6"
 4389      622D696E 
 4389      74657277 
 4389      6F726B20 
 4389      2D6D666C 
 4390 024a 6B7A202D 		.ascii	"kz -ggdb -O2 -fomit-frame-pointer -ffunction-sectio"
 4390      67676462 
 4390      202D4F32 
 4390      202D666F 
 4390      6D69742D 
 4391 027d 6E73202D 		.ascii	"ns -fdata-sections\000"
 4391      66646174 
 4391      612D7365 
 4391      6374696F 
 4391      6E7300
 4392              	.LASF133:
 4393 0290 49324330 		.ascii	"I2C0\000"
 4393      00
 4394              	.LASF69:
 4395 0295 4576656E 		.ascii	"EventSource\000"
 4395      74536F75 
 4395      72636500 
 4396              	.LASF17:
 4397 02a1 756E7369 		.ascii	"unsigned int\000"
 4397      676E6564 
 4397      20696E74 
 4397      00
ARM GAS  /var/folders/l5/0x54b2c10074c8bt31ycjvl80000gp/T//ccbiey8U.s 			page 80


 4398              	.LASF46:
 4399 02ae 76745F6E 		.ascii	"vt_next\000"
 4399      65787400 
 4400              	.LASF123:
 4401 02b6 74786275 		.ascii	"txbuf\000"
 4401      6600
 4402              	.LASF142:
 4403 02bc 53657269 		.ascii	"SerialDriverVMT\000"
 4403      616C4472 
 4403      69766572 
 4403      564D5400 
 4404              	.LASF118:
 4405 02cc 6572726F 		.ascii	"errors\000"
 4405      727300
 4406              	.LASF140:
 4407 02d3 69717565 		.ascii	"iqueue\000"
 4407      756500
 4408              	.LASF1:
 4409 02da 6C6F6E67 		.ascii	"long unsigned int\000"
 4409      20756E73 
 4409      69676E65 
 4409      6420696E 
 4409      7400
 4410              	.LASF152:
 4411 02ec 74696D65 		.ascii	"timeout\000"
 4411      6F757400 
 4412              	.LASF146:
 4413 02f4 67657474 		.ascii	"gett\000"
 4413      00
 4414              	.LASF44:
 4415 02f9 76746675 		.ascii	"vtfunc_t\000"
 4415      6E635F74 
 4415      00
 4416              	.LASF139:
 4417 0302 6576656E 		.ascii	"event\000"
 4417      7400
 4418              	.LASF8:
 4419 0308 73686F72 		.ascii	"short unsigned int\000"
 4419      7420756E 
 4419      7369676E 
 4419      65642069 
 4419      6E7400
 4420              	.LASF103:
 4421 031b 6770696F 		.ascii	"gpio_port_t\000"
 4421      5F706F72 
 4421      745F7400 
 4422              	.LASF99:
 4423 0327 6770636C 		.ascii	"gpclr\000"
 4423      7200
 4424              	.LASF22:
 4425 032d 6D73675F 		.ascii	"msg_t\000"
 4425      7400
 4426              	.LASF141:
 4427 0333 6F717565 		.ascii	"oqueue\000"
 4427      756500
 4428              	.LASF166:
 4429 033a 2F557365 		.ascii	"/Users/fernandoguirado/eclipse-workspace/ChibiOS-RP"
ARM GAS  /var/folders/l5/0x54b2c10074c8bt31ycjvl80000gp/T//ccbiey8U.s 			page 81


 4429      72732F66 
 4429      65726E61 
 4429      6E646F67 
 4429      75697261 
 4430 036d 692D6D69 		.ascii	"i-minimo/testhal/BCM2835/I2C\000"
 4430      6E696D6F 
 4430      2F746573 
 4430      7468616C 
 4430      2F42434D 
 4431              	.LASF65:
 4432 038a 656C5F6E 		.ascii	"el_next\000"
 4432      65787400 
 4433              	.LASF147:
 4434 0392 77726974 		.ascii	"writet\000"
 4434      657400
 4435              	.LASF18:
 4436 0399 746D6F64 		.ascii	"tmode_t\000"
 4436      655F7400 
 4437              	.LASF39:
 4438 03a1 54687265 		.ascii	"ThreadsList\000"
 4438      6164734C 
 4438      69737400 
 4439              	.LASF23:
 4440 03ad 6576656E 		.ascii	"eventmask_t\000"
 4440      746D6173 
 4440      6B5F7400 
 4441              	.LASF85:
 4442 03b9 496E7075 		.ascii	"InputQueue\000"
 4442      74517565 
 4442      756500
 4443              	.LASF60:
 4444 03c4 4D757465 		.ascii	"Mutex\000"
 4444      7800
 4445              	.LASF155:
 4446 03ca 73706565 		.ascii	"speed\000"
 4446      6400
 4447              	.LASF75:
 4448 03d0 47656E65 		.ascii	"GenericQueue\000"
 4448      72696351 
 4448      75657565 
 4448      00
 4449              	.LASF40:
 4450 03dd 73746B61 		.ascii	"stkalign_t\000"
 4450      6C69676E 
 4450      5F7400
 4451              	.LASF153:
 4452 03e8 6932635F 		.ascii	"i2c_lld_stop\000"
 4452      6C6C645F 
 4452      73746F70 
 4452      00
 4453              	.LASF165:
 4454 03f5 2E2E2F2E 		.ascii	"../../../os/hal/platforms/BCM2835/i2c_lld.c\000"
 4454      2E2F2E2E 
 4454      2F6F732F 
 4454      68616C2F 
 4454      706C6174 
 4455              	.LASF100:
ARM GAS  /var/folders/l5/0x54b2c10074c8bt31ycjvl80000gp/T//ccbiey8U.s 			page 82


 4456 0421 67706C65 		.ascii	"gplev\000"
 4456      7600
 4457              	.LASF145:
 4458 0427 70757474 		.ascii	"putt\000"
 4458      00
 4459              	.LASF48:
 4460 042c 76745F74 		.ascii	"vt_time\000"
 4460      696D6500 
 4461              	.LASF109:
 4462 0434 4932435F 		.ascii	"I2C_STOP\000"
 4462      53544F50 
 4462      00
 4463              	.LASF94:
 4464 043d 636C6F63 		.ascii	"clockDivider\000"
 4464      6B446976 
 4464      69646572 
 4464      00
 4465              	.LASF77:
 4466 044a 715F636F 		.ascii	"q_counter\000"
 4466      756E7465 
 4466      7200
 4467              	.LASF49:
 4468 0454 76745F66 		.ascii	"vt_func\000"
 4468      756E6300 
 4469              	.LASF131:
 4470 045c 69635F73 		.ascii	"ic_speed\000"
 4470      70656564 
 4470      00
 4471              	.LASF158:
 4472 0465 63685654 		.ascii	"chVTSetI\000"
 4472      53657449 
 4472      00
 4473              	.LASF52:
 4474 046e 56544C69 		.ascii	"VTList\000"
 4474      737400
 4475              	.LASF127:
 4476 0475 72786279 		.ascii	"rxbytes\000"
 4476      74657300 
 4477              	.LASF80:
 4478 047d 715F7772 		.ascii	"q_wrptr\000"
 4478      70747200 
 4479              	.LASF55:
 4480 0485 725F6374 		.ascii	"r_ctx\000"
 4480      7800
 4481              	.LASF38:
 4482 048b 54687265 		.ascii	"ThreadsQueue\000"
 4482      61647351 
 4482      75657565 
 4482      00
 4483              	.LASF105:
 4484 0498 494F504F 		.ascii	"IOPORT0\000"
 4484      52543000 
 4485              	.LASF56:
 4486 04a0 725F6375 		.ascii	"r_current\000"
 4486      7272656E 
 4486      7400
 4487              	.LASF67:
ARM GAS  /var/folders/l5/0x54b2c10074c8bt31ycjvl80000gp/T//ccbiey8U.s 			page 83


 4488 04aa 656C5F6D 		.ascii	"el_mask\000"
 4488      61736B00 
 4489              	.LASF98:
 4490 04b2 67707365 		.ascii	"gpset\000"
 4490      7400
 4491              	.LASF101:
 4492 04b8 67707075 		.ascii	"gppudclk\000"
 4492      64636C6B 
 4492      00
 4493              	.LASF161:
 4494 04c1 62636D32 		.ascii	"bcm2835_gpio_fnsel\000"
 4494      3833355F 
 4494      6770696F 
 4494      5F666E73 
 4494      656C00
 4495              	.LASF128:
 4496 04d4 72786964 		.ascii	"rxidx\000"
 4496      7800
 4497              	.LASF114:
 4498 04da 69326373 		.ascii	"i2cstate_t\000"
 4498      74617465 
 4498      5F7400
 4499              	.LASF84:
 4500 04e5 716E6F74 		.ascii	"qnotify_t\000"
 4500      6966795F 
 4500      7400
 4501              	.LASF28:
 4502 04ef 705F7072 		.ascii	"p_prev\000"
 4502      657600
 4503              	.LASF21:
 4504 04f6 74707269 		.ascii	"tprio_t\000"
 4504      6F5F7400 
 4505              	.LASF81:
 4506 04fe 715F7264 		.ascii	"q_rdptr\000"
 4506      70747200 
 4507              	.LASF129:
 4508 0506 69326366 		.ascii	"i2cflags_t\000"
 4508      6C616773 
 4508      5F7400
 4509              	.LASF120:
 4510 0511 6D757465 		.ascii	"mutex\000"
 4510      7800
 4511              	.LASF154:
 4512 0517 6932635F 		.ascii	"i2c_lld_start\000"
 4512      6C6C645F 
 4512      73746172 
 4512      7400
 4513              	.LASF15:
 4514 0525 696E7433 		.ascii	"int32_t\000"
 4514      325F7400 
 4515              	.LASF5:
 4516 052d 756E7369 		.ascii	"unsigned char\000"
 4516      676E6564 
 4516      20636861 
 4516      7200
 4517              	.LASF66:
 4518 053b 656C5F6C 		.ascii	"el_listener\000"
ARM GAS  /var/folders/l5/0x54b2c10074c8bt31ycjvl80000gp/T//ccbiey8U.s 			page 84


 4518      69737465 
 4518      6E657200 
 4519              	.LASF68:
 4520 0547 656C5F66 		.ascii	"el_flags\000"
 4520      6C616773 
 4520      00
 4521              	.LASF36:
 4522 0550 705F6D74 		.ascii	"p_mtxlist\000"
 4522      786C6973 
 4522      7400
 4523              	.LASF6:
 4524 055a 73686F72 		.ascii	"short int\000"
 4524      7420696E 
 4524      7400
 4525              	.LASF31:
 4526 0564 705F7374 		.ascii	"p_state\000"
 4526      61746500 
 4527              	.LASF33:
 4528 056c 705F7072 		.ascii	"p_preempt\000"
 4528      65656D70 
 4528      7400
 4529              	.LASF54:
 4530 0576 725F7072 		.ascii	"r_prio\000"
 4530      696F00
 4531              	.LASF102:
 4532 057d 70696E5F 		.ascii	"pin_base\000"
 4532      62617365 
 4532      00
 4533              	.LASF74:
 4534 0586 65776D61 		.ascii	"ewmask\000"
 4534      736B00
 4535              	.LASF27:
 4536 058d 705F6E65 		.ascii	"p_next\000"
 4536      787400
 4537              	.LASF106:
 4538 0594 494F504F 		.ascii	"IOPORT1\000"
 4538      52543100 
 4539              	.LASF32:
 4540 059c 705F666C 		.ascii	"p_flags\000"
 4540      61677300 
 4541              	.LASF26:
 4542 05a4 54687265 		.ascii	"Thread\000"
 4542      616400
 4543              	.LASF160:
 4544 05ab 63685654 		.ascii	"chVTResetI\000"
 4544      52657365 
 4544      744900
 4545              	.LASF113:
 4546 05b6 4932435F 		.ascii	"I2C_LOCKED\000"
 4546      4C4F434B 
 4546      454400
 4547              	.LASF159:
 4548 05c1 63685363 		.ascii	"chSchGoSleepS\000"
 4548      68476F53 
 4548      6C656570 
 4548      5300
 4549              	.LASF35:
ARM GAS  /var/folders/l5/0x54b2c10074c8bt31ycjvl80000gp/T//ccbiey8U.s 			page 85


 4550 05cf 705F6570 		.ascii	"p_epending\000"
 4550      656E6469 
 4550      6E6700
 4551              	.LASF134:
 4552 05da 53445F55 		.ascii	"SD_UNINIT\000"
 4552      4E494E49 
 4552      5400
 4553              	.LASF16:
 4554 05e4 75696E74 		.ascii	"uint32_t\000"
 4554      33325F74 
 4554      00
 4555              	.LASF53:
 4556 05ed 725F7175 		.ascii	"r_queue\000"
 4556      65756500 
 4557              	.LASF45:
 4558 05f5 56697274 		.ascii	"VirtualTimer\000"
 4558      75616C54 
 4558      696D6572 
 4558      00
 4559              	.LASF138:
 4560 0602 53657269 		.ascii	"SerialDriver\000"
 4560      616C4472 
 4560      69766572 
 4560      00
 4561              	.LASF112:
 4562 060f 4932435F 		.ascii	"I2C_ACTIVE_RX\000"
 4562      41435449 
 4562      56455F52 
 4562      5800
 4563              	.LASF144:
 4564 061d 72656164 		.ascii	"read\000"
 4564      00
 4565              	.LASF163:
 4566 0622 63685363 		.ascii	"chSchReadyI\000"
 4566      68526561 
 4566      64794900 
 4567              	.LASF167:
 4568 062e 6932635F 		.ascii	"i2c_lld_safety_timeout\000"
 4568      6C6C645F 
 4568      73616665 
 4568      74795F74 
 4568      696D656F 
 4569              	.LASF117:
 4570 0645 636F6E66 		.ascii	"config\000"
 4570      696700
 4571              	.LASF7:
 4572 064c 5F5F7569 		.ascii	"__uint16_t\000"
 4572      6E743136 
 4572      5F7400
 4573              	.LASF63:
 4574 0657 6D5F6E65 		.ascii	"m_next\000"
 4574      787400
 4575              	.LASF25:
 4576 065e 73797374 		.ascii	"systime_t\000"
 4576      696D655F 
 4576      7400
 4577              	.LASF37:
ARM GAS  /var/folders/l5/0x54b2c10074c8bt31ycjvl80000gp/T//ccbiey8U.s 			page 86


 4578 0668 705F7265 		.ascii	"p_realprio\000"
 4578      616C7072 
 4578      696F00
 4579              	.LASF9:
 4580 0673 5F5F696E 		.ascii	"__int32_t\000"
 4580      7433325F 
 4580      7400
 4581              	.LASF110:
 4582 067d 4932435F 		.ascii	"I2C_READY\000"
 4582      52454144 
 4582      5900
 4583              	.LASF115:
 4584 0687 49324344 		.ascii	"I2CDriver\000"
 4584      72697665 
 4584      7200
 4585              	.LASF43:
 4586 0691 636F6E74 		.ascii	"context\000"
 4586      65787400 
 4587              	.LASF162:
 4588 0699 6932634F 		.ascii	"i2cObjectInit\000"
 4588      626A6563 
 4588      74496E69 
 4588      7400
 4589              	.LASF42:
 4590 06a7 696E7463 		.ascii	"intctx\000"
 4590      747800
 4591              	.LASF136:
 4592 06ae 53445F52 		.ascii	"SD_READY\000"
 4592      45414459 
 4592      00
 4593              	.LASF50:
 4594 06b7 76745F70 		.ascii	"vt_par\000"
 4594      617200
 4595              	.LASF24:
 4596 06be 666C6167 		.ascii	"flagsmask_t\000"
 4596      736D6173 
 4596      6B5F7400 
 4597              	.LASF132:
 4598 06ca 49324343 		.ascii	"I2CConfig\000"
 4598      6F6E6669 
 4598      6700
 4599              	.LASF137:
 4600 06d4 73647374 		.ascii	"sdstate_t\000"
 4600      6174655F 
 4600      7400
 4601              	.LASF125:
 4602 06de 74786964 		.ascii	"txidx\000"
 4602      7800
 4603              	.LASF79:
 4604 06e4 715F746F 		.ascii	"q_top\000"
 4604      7000
 4605              	.LASF156:
 4606 06ea 6932635F 		.ascii	"i2c_lld_init\000"
 4606      6C6C645F 
 4606      696E6974 
 4606      00
 4607              	.LASF70:
ARM GAS  /var/folders/l5/0x54b2c10074c8bt31ycjvl80000gp/T//ccbiey8U.s 			page 87


 4608 06f7 65735F6E 		.ascii	"es_next\000"
 4608      65787400 
 4609              	.LASF90:
 4610 06ff 73746174 		.ascii	"status\000"
 4610      757300
 4611              	.LASF57:
 4612 0706 52656164 		.ascii	"ReadyList\000"
 4612      794C6973 
 4612      7400
 4613              	.LASF82:
 4614 0710 715F6E6F 		.ascii	"q_notify\000"
 4614      74696679 
 4614      00
 4615              	.LASF59:
 4616 0719 726C6973 		.ascii	"rlist\000"
 4616      7400
 4617              	.LASF13:
 4618 071f 75696E74 		.ascii	"uint8_t\000"
 4618      385F7400 
 4619              	.LASF97:
 4620 0727 6C617463 		.ascii	"latch\000"
 4620      6800
 4621              	.LASF64:
 4622 072d 4576656E 		.ascii	"EventListener\000"
 4622      744C6973 
 4622      74656E65 
 4622      7200
 4623              	.LASF73:
 4624 073b 77746F62 		.ascii	"wtobjp\000"
 4624      6A7000
 4625              	.LASF51:
 4626 0742 76745F73 		.ascii	"vt_systime\000"
 4626      79737469 
 4626      6D6500
 4627              	.LASF157:
 4628 074d 6932635F 		.ascii	"i2c_lld_serve_interrupt\000"
 4628      6C6C645F 
 4628      73657276 
 4628      655F696E 
 4628      74657272 
 4629              	.LASF83:
 4630 0765 715F6C69 		.ascii	"q_link\000"
 4630      6E6B00
 4631              	.LASF104:
 4632 076c 50414C43 		.ascii	"PALConfig\000"
 4632      6F6E6669 
 4632      6700
 4633              	.LASF62:
 4634 0776 6D5F6F77 		.ascii	"m_owner\000"
 4634      6E657200 
 4635              	.LASF107:
 4636 077e 70616C5F 		.ascii	"pal_default_config\000"
 4636      64656661 
 4636      756C745F 
 4636      636F6E66 
 4636      696700
 4637              	.LASF30:
ARM GAS  /var/folders/l5/0x54b2c10074c8bt31ycjvl80000gp/T//ccbiey8U.s 			page 88


 4638 0791 705F6374 		.ascii	"p_ctx\000"
 4638      7800
 4639              	.LASF34:
 4640 0797 705F7761 		.ascii	"p_waiting\000"
 4640      6974696E 
 4640      6700
 4641              	.LASF124:
 4642 07a1 74786279 		.ascii	"txbytes\000"
 4642      74657300 
 4643              	.LASF96:
 4644 07a9 636C6F63 		.ascii	"clockStretchTimeout\000"
 4644      6B537472 
 4644      65746368 
 4644      54696D65 
 4644      6F757400 
 4645              		.ident	"GCC: (GNU Tools for Arm Embedded Processors 8-2019-q3-update) 8.3.1 20190703 (release) [gc
ARM GAS  /var/folders/l5/0x54b2c10074c8bt31ycjvl80000gp/T//ccbiey8U.s 			page 89


DEFINED SYMBOLS
                            *ABS*:0000000000000000 i2c_lld.c
/var/folders/l5/0x54b2c10074c8bt31ycjvl80000gp/T//ccbiey8U.s:6      .text.i2c_lld_safety_timeout:0000000000000000 $a
/var/folders/l5/0x54b2c10074c8bt31ycjvl80000gp/T//ccbiey8U.s:12     .text.i2c_lld_safety_timeout:0000000000000000 i2c_lld_safety_timeout
/var/folders/l5/0x54b2c10074c8bt31ycjvl80000gp/T//ccbiey8U.s:105    .text.i2c_lld_safety_timeout:0000000000000070 $d
/var/folders/l5/0x54b2c10074c8bt31ycjvl80000gp/T//ccbiey8U.s:111    .text.i2c_lld_serve_interrupt:0000000000000000 $a
/var/folders/l5/0x54b2c10074c8bt31ycjvl80000gp/T//ccbiey8U.s:117    .text.i2c_lld_serve_interrupt:0000000000000000 i2c_lld_serve_interrupt
/var/folders/l5/0x54b2c10074c8bt31ycjvl80000gp/T//ccbiey8U.s:321    .text.i2c_lld_serve_interrupt:0000000000000148 $d
/var/folders/l5/0x54b2c10074c8bt31ycjvl80000gp/T//ccbiey8U.s:326    .text.i2c_lld_init:0000000000000000 $a
/var/folders/l5/0x54b2c10074c8bt31ycjvl80000gp/T//ccbiey8U.s:332    .text.i2c_lld_init:0000000000000000 i2c_lld_init
/var/folders/l5/0x54b2c10074c8bt31ycjvl80000gp/T//ccbiey8U.s:353    .text.i2c_lld_init:0000000000000014 $d
                            *COM*:0000000000000040 I2C0
/var/folders/l5/0x54b2c10074c8bt31ycjvl80000gp/T//ccbiey8U.s:360    .text.i2c_lld_start:0000000000000000 $a
/var/folders/l5/0x54b2c10074c8bt31ycjvl80000gp/T//ccbiey8U.s:366    .text.i2c_lld_start:0000000000000000 i2c_lld_start
/var/folders/l5/0x54b2c10074c8bt31ycjvl80000gp/T//ccbiey8U.s:431    .text.i2c_lld_start:0000000000000060 $d
/var/folders/l5/0x54b2c10074c8bt31ycjvl80000gp/T//ccbiey8U.s:437    .text.i2c_lld_stop:0000000000000000 $a
/var/folders/l5/0x54b2c10074c8bt31ycjvl80000gp/T//ccbiey8U.s:443    .text.i2c_lld_stop:0000000000000000 i2c_lld_stop
/var/folders/l5/0x54b2c10074c8bt31ycjvl80000gp/T//ccbiey8U.s:483    .text.i2c_lld_master_receive_timeout:0000000000000000 $a
/var/folders/l5/0x54b2c10074c8bt31ycjvl80000gp/T//ccbiey8U.s:489    .text.i2c_lld_master_receive_timeout:0000000000000000 i2c_lld_master_receive_timeout
/var/folders/l5/0x54b2c10074c8bt31ycjvl80000gp/T//ccbiey8U.s:638    .text.i2c_lld_master_receive_timeout:00000000000000bc $d
/var/folders/l5/0x54b2c10074c8bt31ycjvl80000gp/T//ccbiey8U.s:646    .text.i2c_lld_master_transmit_timeout:0000000000000000 $a
/var/folders/l5/0x54b2c10074c8bt31ycjvl80000gp/T//ccbiey8U.s:652    .text.i2c_lld_master_transmit_timeout:0000000000000000 i2c_lld_master_transmit_timeout
/var/folders/l5/0x54b2c10074c8bt31ycjvl80000gp/T//ccbiey8U.s:859    .text.i2c_lld_master_transmit_timeout:0000000000000130 $d

UNDEFINED SYMBOLS
chSchReadyI
i2cObjectInit
__udivsi3
bcm2835_gpio_fnsel
chVTSetI
chSchGoSleepS
chVTResetI
rlist
