ARM GAS  /var/folders/l5/0x54b2c10074c8bt31ycjvl80000gp/T//ccbiey8U.s 			page 1


   1              		.file	"i2c_lld.c"
   2              		.text
   3              	.Ltext0:
   4              		.cfi_sections	.debug_frame
   5              		.section	.text.i2c_lld_safety_timeout,"ax",%progbits
   6              		.align	2
   7              		.arch armv6kz
   8              		.syntax unified
   9              		.arm
  10              		.fpu softvfp
  11              		.type	i2c_lld_safety_timeout, %function
  12              	i2c_lld_safety_timeout:
  13              	.LVL0:
  14              	.LFB7:
  15              		.file 1 "../../../os/hal/platforms/BCM2835/i2c_lld.c"
  16              		.loc 1 78 45 view -0
  17              		.cfi_startproc
  18              		@ args = 0, pretend = 0, frame = 0
  19              		@ frame_needed = 0, uses_anonymous_args = 0
  20              		.loc 1 79 3 view .LVU1
  21              		.loc 1 80 3 view .LVU2
  22              		.loc 1 80 3 view .LVU3
  23              		.loc 1 80 21 view .LVU4
  24              		.loc 1 81 3 view .LVU5
  25              		.loc 1 81 11 is_stmt 0 view .LVU6
  26 0000 201090E5 		ldr	r1, [r0, #32]
  27              		.loc 1 81 6 view .LVU7
  28 0004 000051E3 		cmp	r1, #0
  29 0008 1EFF2F01 		bxeq	lr
  30              	.LBB2:
  31              		.loc 1 82 5 is_stmt 1 view .LVU8
  32 000c 0030A0E1 		mov	r3, r0
  33              		.loc 1 82 18 is_stmt 0 view .LVU9
  34 0010 0C2090E5 		ldr	r2, [r0, #12]
  35              	.LVL1:
  36              		.loc 1 84 5 is_stmt 1 view .LVU10
  37              		.loc 1 84 18 is_stmt 0 view .LVU11
  38 0014 080090E5 		ldr	r0, [r0, #8]
  39              	.LVL2:
  40              		.loc 1 84 18 view .LVU12
  41              	.LBE2:
  42              		.loc 1 78 45 view .LVU13
  43 0018 04E02DE5 		str	lr, [sp, #-4]!
  44              		.cfi_def_cfa_offset 4
  45              		.cfi_offset 14, -4
  46              	.LBB3:
  47              		.loc 1 85 15 view .LVU14
  48 001c 04E092E5 		ldr	lr, [r2, #4]
  49              		.loc 1 84 18 view .LVU15
  50 0020 20C080E3 		orr	ip, r0, #32
  51 0024 08C083E5 		str	ip, [r3, #8]
  52              		.loc 1 85 5 is_stmt 1 view .LVU16
  53              		.loc 1 86 7 view .LVU17
  54              		.loc 1 87 5 view .LVU18
  55              		.loc 1 85 8 is_stmt 0 view .LVU19
  56 0028 020C1EE3 		tst	lr, #512
  57              		.loc 1 90 21 view .LVU20
ARM GAS  /var/folders/l5/0x54b2c10074c8bt31ycjvl80000gp/T//ccbiey8U.s 			page 2


  58 002c 00C0A0E3 		mov	ip, #0
  59              		.loc 1 95 20 view .LVU21
  60 0030 00E0E0E3 		mvn	lr, #0
  61              		.loc 1 86 20 view .LVU22
  62 0034 21008013 		orrne	r0, r0, #33
  63 0038 08008315 		strne	r0, [r3, #8]
  64              		.loc 1 87 15 view .LVU23
  65 003c 040092E5 		ldr	r0, [r2, #4]
  66              		.loc 1 87 8 view .LVU24
  67 0040 010C10E3 		tst	r0, #256
  68              		.loc 1 88 7 is_stmt 1 view .LVU25
  69              		.loc 1 88 20 is_stmt 0 view .LVU26
  70 0044 08009315 		ldrne	r0, [r3, #8]
  71 0048 04008013 		orrne	r0, r0, #4
  72 004c 08008315 		strne	r0, [r3, #8]
  73              		.loc 1 90 5 is_stmt 1 view .LVU27
  74              		.loc 1 91 20 is_stmt 0 view .LVU28
  75 0050 18009FE5 		ldr	r0, .L15
  76              		.loc 1 90 21 view .LVU29
  77 0054 00C082E5 		str	ip, [r2]
  78              		.loc 1 91 5 is_stmt 1 view .LVU30
  79              		.loc 1 91 20 is_stmt 0 view .LVU31
  80 0058 040082E5 		str	r0, [r2, #4]
  81              		.loc 1 93 5 is_stmt 1 view .LVU32
  82              	.LVL3:
  83              		.loc 1 94 5 view .LVU33
  84              		.loc 1 94 18 is_stmt 0 view .LVU34
  85 005c 20C083E5 		str	ip, [r3, #32]
  86              		.loc 1 95 5 is_stmt 1 view .LVU35
  87              		.loc 1 96 5 is_stmt 0 view .LVU36
  88 0060 0100A0E1 		mov	r0, r1
  89              		.loc 1 95 20 view .LVU37
  90 0064 14E081E5 		str	lr, [r1, #20]
  91              		.loc 1 96 5 is_stmt 1 view .LVU38
  92              	.LBE3:
  93              		.loc 1 99 1 is_stmt 0 view .LVU39
  94 0068 04E09DE4 		ldr	lr, [sp], #4
  95              		.cfi_restore 14
  96              		.cfi_def_cfa_offset 0
  97              	.LBB4:
  98              		.loc 1 96 5 view .LVU40
  99 006c FEFFFFEA 		b	chSchReadyI
 100              	.LVL4:
 101              	.L16:
 102              		.loc 1 96 5 view .LVU41
 103              		.align	2
 104              	.L15:
 105 0070 02030000 		.word	770
 106              	.LBE4:
 107              		.cfi_endproc
 108              	.LFE7:
 109              		.size	i2c_lld_safety_timeout, .-i2c_lld_safety_timeout
 110              		.section	.text.i2c_lld_serve_interrupt,"ax",%progbits
 111              		.align	2
 112              		.global	i2c_lld_serve_interrupt
 113              		.syntax unified
 114              		.arm
ARM GAS  /var/folders/l5/0x54b2c10074c8bt31ycjvl80000gp/T//ccbiey8U.s 			page 3


 115              		.fpu softvfp
 116              		.type	i2c_lld_serve_interrupt, %function
 117              	i2c_lld_serve_interrupt:
 118              	.LVL5:
 119              	.LFB8:
 120              		.loc 1 105 47 is_stmt 1 view -0
 121              		.cfi_startproc
 122              		@ args = 0, pretend = 0, frame = 0
 123              		@ frame_needed = 0, uses_anonymous_args = 0
 124              		.loc 1 106 3 view .LVU43
 125              		.loc 1 107 3 view .LVU44
 126              		.loc 1 107 16 is_stmt 0 view .LVU45
 127 0000 0C2090E5 		ldr	r2, [r0, #12]
 128              	.LVL6:
 129              		.loc 1 108 3 is_stmt 1 view .LVU46
 130              		.loc 1 108 12 is_stmt 0 view .LVU47
 131 0004 041092E5 		ldr	r1, [r2, #4]
 132              	.LVL7:
 133              		.loc 1 110 3 is_stmt 1 view .LVU48
 134              		.loc 1 110 6 is_stmt 0 view .LVU49
 135 0008 030C11E3 		tst	r1, #768
 136 000c 0800000A 		beq	.L18
 137              		.loc 1 112 5 is_stmt 1 view .LVU50
 138              		.loc 1 112 5 view .LVU51
 139              		.loc 1 112 5 view .LVU52
 140              		.loc 1 112 5 view .LVU53
 141 0010 203090E5 		ldr	r3, [r0, #32]
 142 0014 000053E3 		cmp	r3, #0
 143 0018 1EFF2F01 		bxeq	lr
 144              	.LBB5:
 145              		.loc 1 112 5 discriminator 1 view .LVU54
 146              	.LVL8:
 147              		.loc 1 112 5 discriminator 1 view .LVU55
 148 001c 0010A0E3 		mov	r1, #0
 149              	.LVL9:
 150              		.loc 1 112 5 is_stmt 0 discriminator 1 view .LVU56
 151 0020 0120E0E3 		mvn	r2, #1
 152              	.LVL10:
 153              		.loc 1 112 5 discriminator 1 view .LVU57
 154 0024 201080E5 		str	r1, [r0, #32]
 155              		.loc 1 112 5 is_stmt 1 discriminator 1 view .LVU58
 156 0028 0300A0E1 		mov	r0, r3
 157              	.LVL11:
 158              		.loc 1 112 5 is_stmt 0 discriminator 1 view .LVU59
 159 002c 142083E5 		str	r2, [r3, #20]
 160              		.loc 1 112 5 is_stmt 1 discriminator 1 view .LVU60
 161 0030 FEFFFFEA 		b	chSchReadyI
 162              	.LVL12:
 163              	.L18:
 164              		.loc 1 112 5 is_stmt 0 discriminator 1 view .LVU61
 165              	.LBE5:
 166              		.loc 1 114 8 is_stmt 1 view .LVU62
 167              		.loc 1 114 11 is_stmt 0 view .LVU63
 168 0034 020011E3 		tst	r1, #2
 169              		.loc 1 105 47 view .LVU64
 170 0038 04E02DE5 		str	lr, [sp, #-4]!
 171              		.cfi_def_cfa_offset 4
ARM GAS  /var/folders/l5/0x54b2c10074c8bt31ycjvl80000gp/T//ccbiey8U.s 			page 4


 172              		.cfi_offset 14, -4
 173              		.loc 1 114 11 view .LVU65
 174 003c 1A00000A 		beq	.L20
 175              		.loc 1 115 11 view .LVU66
 176 0040 200011E3 		tst	r1, #32
 177 0044 0C00000A 		beq	.L21
 178              		.loc 1 115 39 view .LVU67
 179 0048 3C3090E5 		ldr	r3, [r0, #60]
 180              		.loc 1 115 31 view .LVU68
 181 004c 381090E5 		ldr	r1, [r0, #56]
 182              	.LVL13:
 183              		.loc 1 115 31 view .LVU69
 184 0050 030051E1 		cmp	r1, r3
 185 0054 0800009A 		bls	.L21
 186              	.L22:
 187              		.loc 1 116 7 is_stmt 1 view .LVU70
 188              		.loc 1 116 42 is_stmt 0 view .LVU71
 189 0058 10C092E5 		ldr	ip, [r2, #16]
 190              		.loc 1 116 11 view .LVU72
 191 005c 341090E5 		ldr	r1, [r0, #52]
 192              		.loc 1 116 30 view .LVU73
 193 0060 01E083E2 		add	lr, r3, #1
 194 0064 3CE080E5 		str	lr, [r0, #60]
 195              		.loc 1 116 34 view .LVU74
 196 0068 03C0C1E7 		strb	ip, [r1, r3]
 197              		.loc 1 115 39 view .LVU75
 198 006c 3C3090E5 		ldr	r3, [r0, #60]
 199              		.loc 1 115 31 view .LVU76
 200 0070 381090E5 		ldr	r1, [r0, #56]
 201 0074 010053E1 		cmp	r3, r1
 202 0078 F6FFFF3A 		bcc	.L22
 203              	.L21:
 204              		.loc 1 117 5 is_stmt 1 view .LVU77
 205              		.loc 1 117 21 is_stmt 0 view .LVU78
 206 007c 0010A0E3 		mov	r1, #0
 207              		.loc 1 119 5 view .LVU79
 208 0080 203090E5 		ldr	r3, [r0, #32]
 209              		.loc 1 118 20 view .LVU80
 210 0084 BCC09FE5 		ldr	ip, .L51
 211              		.loc 1 119 5 view .LVU81
 212 0088 010053E1 		cmp	r3, r1
 213              		.loc 1 117 21 view .LVU82
 214 008c 001082E5 		str	r1, [r2]
 215              		.loc 1 118 5 is_stmt 1 view .LVU83
 216              		.loc 1 118 20 is_stmt 0 view .LVU84
 217 0090 04C082E5 		str	ip, [r2, #4]
 218              		.loc 1 119 5 is_stmt 1 view .LVU85
 219              		.loc 1 119 5 view .LVU86
 220              		.loc 1 119 5 view .LVU87
 221              		.loc 1 119 5 view .LVU88
 222 0094 04F09D04 		ldreq	pc, [sp], #4
 223              	.LBB6:
 224              		.loc 1 119 5 discriminator 1 view .LVU89
 225              	.LVL14:
 226              		.loc 1 119 5 discriminator 1 view .LVU90
 227 0098 201080E5 		str	r1, [r0, #32]
 228              		.loc 1 119 5 discriminator 1 view .LVU91
ARM GAS  /var/folders/l5/0x54b2c10074c8bt31ycjvl80000gp/T//ccbiey8U.s 			page 5


 229              	.LBE6:
 230              		.loc 1 129 1 is_stmt 0 discriminator 1 view .LVU92
 231 009c 04E09DE4 		ldr	lr, [sp], #4
 232              		.cfi_remember_state
 233              		.cfi_restore 14
 234              		.cfi_def_cfa_offset 0
 235              	.LBB7:
 236              		.loc 1 119 5 discriminator 1 view .LVU93
 237 00a0 0300A0E1 		mov	r0, r3
 238              	.LVL15:
 239              		.loc 1 119 5 discriminator 1 view .LVU94
 240 00a4 141083E5 		str	r1, [r3, #20]
 241              		.loc 1 119 5 is_stmt 1 discriminator 1 view .LVU95
 242 00a8 FEFFFFEA 		b	chSchReadyI
 243              	.LVL16:
 244              	.L20:
 245              		.cfi_restore_state
 246              		.loc 1 119 5 is_stmt 0 discriminator 1 view .LVU96
 247              	.LBE7:
 248              		.loc 1 121 8 is_stmt 1 view .LVU97
 249              		.loc 1 121 11 is_stmt 0 view .LVU98
 250 00ac 040011E3 		tst	r1, #4
 251 00b0 1200000A 		beq	.L23
 252              		.loc 1 122 17 view .LVU99
 253 00b4 303090E5 		ldr	r3, [r0, #48]
 254              		.loc 1 122 31 view .LVU100
 255 00b8 2CC090E5 		ldr	ip, [r0, #44]
 256              		.loc 1 122 11 view .LVU101
 257 00bc 0C0053E1 		cmp	r3, ip
 258 00c0 04F09D24 		ldrcs	pc, [sp], #4
 259              		.loc 1 122 42 view .LVU102
 260 00c4 100011E3 		tst	r1, #16
 261 00c8 04F09D04 		ldreq	pc, [sp], #4
 262              		.loc 1 123 30 view .LVU103
 263 00cc 28E090E5 		ldr	lr, [r0, #40]
 264 00d0 013043E2 		sub	r3, r3, #1
 265 00d4 01C04CE2 		sub	ip, ip, #1
 266 00d8 03308EE0 		add	r3, lr, r3
 267 00dc 0CC08EE0 		add	ip, lr, ip
 268 00e0 02E06EE2 		rsb	lr, lr, #2
 269              	.LVL17:
 270              	.L24:
 271              		.loc 1 123 7 is_stmt 1 view .LVU104
 272              		.loc 1 123 49 is_stmt 0 view .LVU105
 273 00e4 03108EE0 		add	r1, lr, r3
 274 00e8 301080E5 		str	r1, [r0, #48]
 275              		.loc 1 123 37 view .LVU106
 276 00ec 0110F3E5 		ldrb	r1, [r3, #1]!	@ zero_extendqisi2
 277              		.loc 1 122 11 view .LVU107
 278 00f0 0C0053E1 		cmp	r3, ip
 279              		.loc 1 123 24 view .LVU108
 280 00f4 101082E5 		str	r1, [r2, #16]
 281              		.loc 1 122 11 view .LVU109
 282 00f8 F9FFFF1A 		bne	.L24
 283 00fc 04F09DE4 		ldr	pc, [sp], #4
 284              	.LVL18:
 285              	.L23:
ARM GAS  /var/folders/l5/0x54b2c10074c8bt31ycjvl80000gp/T//ccbiey8U.s 			page 6


 286              		.loc 1 125 8 is_stmt 1 view .LVU110
 287              		.loc 1 125 11 is_stmt 0 view .LVU111
 288 0100 080011E3 		tst	r1, #8
 289 0104 04F09D04 		ldreq	pc, [sp], #4
 290              		.loc 1 126 17 view .LVU112
 291 0108 3C3090E5 		ldr	r3, [r0, #60]
 292              		.loc 1 126 11 view .LVU113
 293 010c 38C090E5 		ldr	ip, [r0, #56]
 294 0110 03005CE1 		cmp	ip, r3
 295 0114 04F09D94 		ldrls	pc, [sp], #4
 296              		.loc 1 126 42 view .LVU114
 297 0118 200011E3 		tst	r1, #32
 298 011c 04F09D04 		ldreq	pc, [sp], #4
 299              	.LVL19:
 300              	.L25:
 301              		.loc 1 127 7 is_stmt 1 view .LVU115
 302              		.loc 1 127 42 is_stmt 0 view .LVU116
 303 0120 10C092E5 		ldr	ip, [r2, #16]
 304              		.loc 1 127 11 view .LVU117
 305 0124 341090E5 		ldr	r1, [r0, #52]
 306              		.loc 1 127 30 view .LVU118
 307 0128 01E083E2 		add	lr, r3, #1
 308 012c 3CE080E5 		str	lr, [r0, #60]
 309              		.loc 1 127 34 view .LVU119
 310 0130 03C0C1E7 		strb	ip, [r1, r3]
 311              		.loc 1 126 17 view .LVU120
 312 0134 3C3090E5 		ldr	r3, [r0, #60]
 313              		.loc 1 126 11 view .LVU121
 314 0138 381090E5 		ldr	r1, [r0, #56]
 315 013c 010053E1 		cmp	r3, r1
 316 0140 F6FFFF3A 		bcc	.L25
 317 0144 04F09DE4 		ldr	pc, [sp], #4
 318              	.L52:
 319              		.align	2
 320              	.L51:
 321 0148 02030000 		.word	770
 322              		.cfi_endproc
 323              	.LFE8:
 324              		.size	i2c_lld_serve_interrupt, .-i2c_lld_serve_interrupt
 325              		.section	.text.i2c_lld_init,"ax",%progbits
 326              		.align	2
 327              		.global	i2c_lld_init
 328              		.syntax unified
 329              		.arm
 330              		.fpu softvfp
 331              		.type	i2c_lld_init, %function
 332              	i2c_lld_init:
 333              	.LFB9:
 334              		.loc 1 140 25 is_stmt 1 view -0
 335              		.cfi_startproc
 336              		@ args = 0, pretend = 0, frame = 0
 337              		@ frame_needed = 0, uses_anonymous_args = 0
 338              		@ link register save eliminated.
 339              		.loc 1 141 3 view .LVU123
 340              		.loc 1 141 15 is_stmt 0 view .LVU124
 341 0000 0C309FE5 		ldr	r3, .L54
 342 0004 0C209FE5 		ldr	r2, .L54+4
ARM GAS  /var/folders/l5/0x54b2c10074c8bt31ycjvl80000gp/T//ccbiey8U.s 			page 7


 343              		.loc 1 142 3 view .LVU125
 344 0008 0300A0E1 		mov	r0, r3
 345              		.loc 1 141 15 view .LVU126
 346 000c 0C2083E5 		str	r2, [r3, #12]
 347              		.loc 1 142 3 is_stmt 1 view .LVU127
 348 0010 FEFFFFEA 		b	i2cObjectInit
 349              	.LVL20:
 350              	.L55:
 351              		.align	2
 352              	.L54:
 353 0014 00000000 		.word	I2C0
 354 0018 00502020 		.word	538988544
 355              		.cfi_endproc
 356              	.LFE9:
 357              		.size	i2c_lld_init, .-i2c_lld_init
 358              		.global	__udivsi3
 359              		.section	.text.i2c_lld_start,"ax",%progbits
 360              		.align	2
 361              		.global	i2c_lld_start
 362              		.syntax unified
 363              		.arm
 364              		.fpu softvfp
 365              		.type	i2c_lld_start, %function
 366              	i2c_lld_start:
 367              	.LVL21:
 368              	.LFB10:
 369              		.loc 1 152 37 view -0
 370              		.cfi_startproc
 371              		@ args = 0, pretend = 0, frame = 0
 372              		@ frame_needed = 0, uses_anonymous_args = 0
 373              		.loc 1 154 3 view .LVU129
 374              		.loc 1 152 37 is_stmt 0 view .LVU130
 375 0000 10402DE9 		push	{r4, lr}
 376              		.cfi_def_cfa_offset 8
 377              		.cfi_offset 4, -8
 378              		.cfi_offset 14, -4
 379              		.loc 1 152 37 view .LVU131
 380 0004 0040A0E1 		mov	r4, r0
 381              		.loc 1 154 3 view .LVU132
 382 0008 0410A0E3 		mov	r1, #4
 383 000c 0000A0E3 		mov	r0, #0
 384              	.LVL22:
 385              		.loc 1 154 3 view .LVU133
 386 0010 FEFFFFEB 		bl	bcm2835_gpio_fnsel
 387              	.LVL23:
 388              		.loc 1 155 3 is_stmt 1 view .LVU134
 389 0014 0410A0E3 		mov	r1, #4
 390 0018 0100A0E3 		mov	r0, #1
 391 001c FEFFFFEB 		bl	bcm2835_gpio_fnsel
 392              	.LVL24:
 393              		.loc 1 157 3 view .LVU135
 394              		.loc 1 157 12 is_stmt 0 view .LVU136
 395 0020 042094E5 		ldr	r2, [r4, #4]
 396              		.loc 1 158 27 view .LVU137
 397 0024 34309FE5 		ldr	r3, .L60
 398              		.loc 1 157 12 view .LVU138
 399 0028 001092E5 		ldr	r1, [r2]
ARM GAS  /var/folders/l5/0x54b2c10074c8bt31ycjvl80000gp/T//ccbiey8U.s 			page 8


 400              	.LVL25:
 401              		.loc 1 158 3 is_stmt 1 view .LVU139
 402              		.loc 1 158 6 is_stmt 0 view .LVU140
 403 002c 000051E3 		cmp	r1, #0
 404 0030 03005111 		cmpne	r1, r3
 405 0034 0400001A 		bne	.L57
 406 0038 0C2094E5 		ldr	r2, [r4, #12]
 407              	.LVL26:
 408              	.L58:
 409              		.loc 1 161 3 is_stmt 1 view .LVU141
 410              		.loc 1 161 25 is_stmt 0 view .LVU142
 411 003c 003092E5 		ldr	r3, [r2]
 412 0040 023983E3 		orr	r3, r3, #32768
 413 0044 003082E5 		str	r3, [r2]
 414              		.loc 1 162 1 view .LVU143
 415 0048 1080BDE8 		pop	{r4, pc}
 416              	.LVL27:
 417              	.L57:
 418              		.loc 1 159 5 is_stmt 1 view .LVU144
 419              		.loc 1 159 49 is_stmt 0 view .LVU145
 420 004c 10009FE5 		ldr	r0, .L60+4
 421 0050 FEFFFFEB 		bl	__udivsi3
 422              	.LVL28:
 423              		.loc 1 159 9 view .LVU146
 424 0054 0C2094E5 		ldr	r2, [r4, #12]
 425              		.loc 1 159 32 view .LVU147
 426 0058 140082E5 		str	r0, [r2, #20]
 427 005c F6FFFFEA 		b	.L58
 428              	.L61:
 429              		.align	2
 430              	.L60:
 431 0060 A0860100 		.word	100000
 432 0064 80D1F008 		.word	150000000
 433              		.cfi_endproc
 434              	.LFE10:
 435              		.size	i2c_lld_start, .-i2c_lld_start
 436              		.section	.text.i2c_lld_stop,"ax",%progbits
 437              		.align	2
 438              		.global	i2c_lld_stop
 439              		.syntax unified
 440              		.arm
 441              		.fpu softvfp
 442              		.type	i2c_lld_stop, %function
 443              	i2c_lld_stop:
 444              	.LVL29:
 445              	.LFB11:
 446              		.loc 1 171 36 is_stmt 1 view -0
 447              		.cfi_startproc
 448              		@ args = 0, pretend = 0, frame = 0
 449              		@ frame_needed = 0, uses_anonymous_args = 0
 450              		.loc 1 173 3 view .LVU149
 451 0000 0010A0E3 		mov	r1, #0
 452              		.loc 1 171 36 is_stmt 0 view .LVU150
 453 0004 10402DE9 		push	{r4, lr}
 454              		.cfi_def_cfa_offset 8
 455              		.cfi_offset 4, -8
 456              		.cfi_offset 14, -4
ARM GAS  /var/folders/l5/0x54b2c10074c8bt31ycjvl80000gp/T//ccbiey8U.s 			page 9


 457              		.loc 1 171 36 view .LVU151
 458 0008 0040A0E1 		mov	r4, r0
 459              		.loc 1 173 3 view .LVU152
 460 000c 0100A0E1 		mov	r0, r1
 461              	.LVL30:
 462              		.loc 1 173 3 view .LVU153
 463 0010 FEFFFFEB 		bl	bcm2835_gpio_fnsel
 464              	.LVL31:
 465              		.loc 1 174 3 is_stmt 1 view .LVU154
 466 0014 0010A0E3 		mov	r1, #0
 467 0018 0100A0E3 		mov	r0, #1
 468 001c FEFFFFEB 		bl	bcm2835_gpio_fnsel
 469              	.LVL32:
 470              		.loc 1 176 3 view .LVU155
 471              		.loc 1 176 7 is_stmt 0 view .LVU156
 472 0020 0C2094E5 		ldr	r2, [r4, #12]
 473              		.loc 1 176 25 view .LVU157
 474 0024 003092E5 		ldr	r3, [r2]
 475 0028 0239C3E3 		bic	r3, r3, #32768
 476 002c 003082E5 		str	r3, [r2]
 477              		.loc 1 177 1 view .LVU158
 478 0030 1080BDE8 		pop	{r4, pc}
 479              		.cfi_endproc
 480              	.LFE11:
 481              		.size	i2c_lld_stop, .-i2c_lld_stop
 482              		.section	.text.i2c_lld_master_receive_timeout,"ax",%progbits
 483              		.align	2
 484              		.global	i2c_lld_master_receive_timeout
 485              		.syntax unified
 486              		.arm
 487              		.fpu softvfp
 488              		.type	i2c_lld_master_receive_timeout, %function
 489              	i2c_lld_master_receive_timeout:
 490              	.LVL33:
 491              	.LFB13:
 492              		.loc 1 261 29 is_stmt 1 view -0
 493              		.cfi_startproc
 494              		@ args = 4, pretend = 0, frame = 20
 495              		@ frame_needed = 0, uses_anonymous_args = 0
 496              		.loc 1 262 3 view .LVU160
 497              		.loc 1 265 3 view .LVU161
 498              		.loc 1 261 29 is_stmt 0 view .LVU162
 499 0000 F0412DE9 		push	{r4, r5, r6, r7, r8, lr}
 500              		.cfi_def_cfa_offset 24
 501              		.cfi_offset 4, -24
 502              		.cfi_offset 5, -20
 503              		.cfi_offset 6, -16
 504              		.cfi_offset 7, -12
 505              		.cfi_offset 8, -8
 506              		.cfi_offset 14, -4
 507 0004 14D04DE2 		sub	sp, sp, #20
 508              		.cfi_def_cfa_offset 44
 509              		.loc 1 261 29 view .LVU163
 510 0008 2C509DE5 		ldr	r5, [sp, #44]
 511 000c 0040A0E1 		mov	r4, r0
 512              		.loc 1 265 6 view .LVU164
 513 0010 010075E3 		cmn	r5, #1
ARM GAS  /var/folders/l5/0x54b2c10074c8bt31ycjvl80000gp/T//ccbiey8U.s 			page 10


 514              		.loc 1 261 29 view .LVU165
 515 0014 0280A0E1 		mov	r8, r2
 516 0018 0360A0E1 		mov	r6, r3
 517 001c 7170FFE6 		uxth	r7, r1
 518              		.loc 1 265 6 view .LVU166
 519 0020 0400000A 		beq	.L65
 520              		.loc 1 266 5 is_stmt 1 view .LVU167
 521 0024 0030A0E1 		mov	r3, r0
 522              	.LVL34:
 523              		.loc 1 266 5 is_stmt 0 view .LVU168
 524 0028 8C209FE5 		ldr	r2, .L77
 525              	.LVL35:
 526              		.loc 1 266 5 view .LVU169
 527 002c 0510A0E1 		mov	r1, r5
 528              	.LVL36:
 529              		.loc 1 266 5 view .LVU170
 530 0030 0D00A0E1 		mov	r0, sp
 531              	.LVL37:
 532              		.loc 1 266 5 view .LVU171
 533 0034 FEFFFFEB 		bl	chVTSetI
 534              	.LVL38:
 535              	.L65:
 536              		.loc 1 268 3 is_stmt 1 view .LVU172
 537              		.loc 1 269 15 is_stmt 0 view .LVU173
 538 0038 0020A0E3 		mov	r2, #0
 539              		.loc 1 277 16 view .LVU174
 540 003c 0C3094E5 		ldr	r3, [r4, #12]
 541              		.loc 1 269 15 view .LVU175
 542 0040 282084E5 		str	r2, [r4, #40]
 543              		.loc 1 270 17 view .LVU176
 544 0044 2C2084E5 		str	r2, [r4, #44]
 545              		.loc 1 271 15 view .LVU177
 546 0048 302084E5 		str	r2, [r4, #48]
 547              		.loc 1 274 15 view .LVU178
 548 004c 3C2084E5 		str	r2, [r4, #60]
 549              		.loc 1 280 18 view .LVU179
 550 0050 68109FE5 		ldr	r1, .L77+4
 551              		.loc 1 283 19 view .LVU180
 552 0054 68209FE5 		ldr	r2, .L77+8
 553              		.loc 1 268 14 view .LVU181
 554 0058 B472C4E1 		strh	r7, [r4, #36]	@ movhi
 555              		.loc 1 269 3 is_stmt 1 view .LVU182
 556              		.loc 1 270 3 view .LVU183
 557              		.loc 1 271 3 view .LVU184
 558              		.loc 1 272 3 view .LVU185
 559              		.loc 1 273 3 view .LVU186
 560              		.loc 1 274 3 view .LVU187
 561              		.loc 1 277 3 view .LVU188
 562              	.LVL39:
 563              		.loc 1 278 3 view .LVU189
 564              		.loc 1 272 15 is_stmt 0 view .LVU190
 565 005c 348084E5 		str	r8, [r4, #52]
 566              		.loc 1 273 17 view .LVU191
 567 0060 386084E5 		str	r6, [r4, #56]
 568              		.loc 1 278 24 view .LVU192
 569 0064 0C7083E5 		str	r7, [r3, #12]
 570              		.loc 1 279 3 is_stmt 1 view .LVU193
ARM GAS  /var/folders/l5/0x54b2c10074c8bt31ycjvl80000gp/T//ccbiey8U.s 			page 11


 571              		.loc 1 279 22 is_stmt 0 view .LVU194
 572 0068 086083E5 		str	r6, [r3, #8]
 573              		.loc 1 280 3 is_stmt 1 view .LVU195
 574              		.loc 1 280 18 is_stmt 0 view .LVU196
 575 006c 041083E5 		str	r1, [r3, #4]
 576              		.loc 1 283 3 is_stmt 1 view .LVU197
 577              		.loc 1 283 19 is_stmt 0 view .LVU198
 578 0070 002083E5 		str	r2, [r3]
 579              		.loc 1 286 3 is_stmt 1 view .LVU199
 580              		.syntax divided
 581              	@ 286 "../../../os/hal/platforms/BCM2835/i2c_lld.c" 1
 582 0074 9FF021E3 		msr     CPSR_c, #0x9F
 583              	@ 0 "" 2
 584              		.loc 1 286 3 view .LVU200
 585              		.loc 1 286 14 view .LVU201
 586              		.loc 1 287 3 view .LVU202
 587              		.loc 1 287 18 is_stmt 0 view .LVU203
 588              		.arm
 589              		.syntax unified
 590 0078 48609FE5 		ldr	r6, .L77+12
 591              	.LVL40:
 592              		.loc 1 288 3 view .LVU204
 593 007c 0200A0E3 		mov	r0, #2
 594              		.loc 1 287 16 view .LVU205
 595 0080 103096E5 		ldr	r3, [r6, #16]
 596              	.LVL41:
 597              		.loc 1 287 16 view .LVU206
 598 0084 203084E5 		str	r3, [r4, #32]
 599              		.loc 1 288 3 is_stmt 1 view .LVU207
 600 0088 FEFFFFEB 		bl	chSchGoSleepS
 601              	.LVL42:
 602              		.loc 1 289 3 view .LVU208
 603              		.loc 1 289 6 is_stmt 0 view .LVU209
 604 008c 010075E3 		cmn	r5, #1
 605 0090 0400000A 		beq	.L66
 606              		.loc 1 289 34 discriminator 1 view .LVU210
 607 0094 0C309DE5 		ldr	r3, [sp, #12]
 608 0098 000053E3 		cmp	r3, #0
 609 009c 0100000A 		beq	.L66
 610              		.loc 1 290 5 is_stmt 1 view .LVU211
 611 00a0 0D00A0E1 		mov	r0, sp
 612 00a4 FEFFFFEB 		bl	chVTResetI
 613              	.LVL43:
 614              	.L66:
 615              		.loc 1 291 3 view .LVU212
 616              		.loc 1 291 3 view .LVU213
 617              		.syntax divided
 618              	@ 291 "../../../os/hal/platforms/BCM2835/i2c_lld.c" 1
 619 00a8 1FF021E3 		msr     CPSR_c, #0x1F
 620              	@ 0 "" 2
 621              		.loc 1 291 16 view .LVU214
 622              		.loc 1 293 3 view .LVU215
 623              		.loc 1 293 26 is_stmt 0 view .LVU216
 624              		.arm
 625              		.syntax unified
 626 00ac 103096E5 		ldr	r3, [r6, #16]
 627              		.loc 1 294 1 view .LVU217
ARM GAS  /var/folders/l5/0x54b2c10074c8bt31ycjvl80000gp/T//ccbiey8U.s 			page 12


 628 00b0 140093E5 		ldr	r0, [r3, #20]
 629 00b4 14D08DE2 		add	sp, sp, #20
 630              		.cfi_def_cfa_offset 24
 631              		@ sp needed
 632 00b8 F081BDE8 		pop	{r4, r5, r6, r7, r8, pc}
 633              	.LVL44:
 634              	.L78:
 635              		.loc 1 294 1 view .LVU218
 636              		.align	2
 637              	.L77:
 638 00bc 00000000 		.word	i2c_lld_safety_timeout
 639 00c0 02030000 		.word	770
 640 00c4 91850000 		.word	34193
 641 00c8 00000000 		.word	rlist
 642              		.cfi_endproc
 643              	.LFE13:
 644              		.size	i2c_lld_master_receive_timeout, .-i2c_lld_master_receive_timeout
 645              		.section	.text.i2c_lld_master_transmit_timeout,"ax",%progbits
 646              		.align	2
 647              		.global	i2c_lld_master_transmit_timeout
 648              		.syntax unified
 649              		.arm
 650              		.fpu softvfp
 651              		.type	i2c_lld_master_transmit_timeout, %function
 652              	i2c_lld_master_transmit_timeout:
 653              	.LVL45:
 654              	.LFB12:
 655              		.loc 1 198 59 is_stmt 1 view -0
 656              		.cfi_startproc
 657              		@ args = 12, pretend = 0, frame = 20
 658              		@ frame_needed = 0, uses_anonymous_args = 0
 659              		.loc 1 199 3 view .LVU220
 660              		.loc 1 202 3 view .LVU221
 661              		.loc 1 198 59 is_stmt 0 view .LVU222
 662 0000 F0472DE9 		push	{r4, r5, r6, r7, r8, r9, r10, lr}
 663              		.cfi_def_cfa_offset 32
 664              		.cfi_offset 4, -32
 665              		.cfi_offset 5, -28
 666              		.cfi_offset 6, -24
 667              		.cfi_offset 7, -20
 668              		.cfi_offset 8, -16
 669              		.cfi_offset 9, -12
 670              		.cfi_offset 10, -8
 671              		.cfi_offset 14, -4
 672 0004 18D04DE2 		sub	sp, sp, #24
 673              		.cfi_def_cfa_offset 56
 674              		.loc 1 198 59 view .LVU223
 675 0008 40509DE5 		ldr	r5, [sp, #64]
 676 000c 0040A0E1 		mov	r4, r0
 677              		.loc 1 202 6 view .LVU224
 678 0010 010075E3 		cmn	r5, #1
 679              		.loc 1 198 59 view .LVU225
 680 0014 02A0A0E1 		mov	r10, r2
 681 0018 0390A0E1 		mov	r9, r3
 682 001c 7160FFE6 		uxth	r6, r1
 683 0020 38809DE5 		ldr	r8, [sp, #56]
 684 0024 3C70DDE5 		ldrb	r7, [sp, #60]	@ zero_extendqisi2
ARM GAS  /var/folders/l5/0x54b2c10074c8bt31ycjvl80000gp/T//ccbiey8U.s 			page 13


 685              		.loc 1 202 6 view .LVU226
 686 0028 0400000A 		beq	.L80
 687              		.loc 1 203 5 is_stmt 1 view .LVU227
 688 002c 0030A0E1 		mov	r3, r0
 689              	.LVL46:
 690              		.loc 1 203 5 is_stmt 0 view .LVU228
 691 0030 F8209FE5 		ldr	r2, .L103
 692              	.LVL47:
 693              		.loc 1 203 5 view .LVU229
 694 0034 0510A0E1 		mov	r1, r5
 695              	.LVL48:
 696              		.loc 1 203 5 view .LVU230
 697 0038 04008DE2 		add	r0, sp, #4
 698              	.LVL49:
 699              		.loc 1 203 5 view .LVU231
 700 003c FEFFFFEB 		bl	chVTSetI
 701              	.LVL50:
 702              	.L80:
 703              		.loc 1 205 3 is_stmt 1 view .LVU232
 704              		.loc 1 208 15 is_stmt 0 view .LVU233
 705 0040 0020A0E3 		mov	r2, #0
 706              		.loc 1 213 16 view .LVU234
 707 0044 0C3094E5 		ldr	r3, [r4, #12]
 708              		.loc 1 216 18 view .LVU235
 709 0048 E4109FE5 		ldr	r1, .L103+4
 710              		.loc 1 208 15 view .LVU236
 711 004c 302084E5 		str	r2, [r4, #48]
 712              		.loc 1 211 15 view .LVU237
 713 0050 3C2084E5 		str	r2, [r4, #60]
 714              		.loc 1 205 14 view .LVU238
 715 0054 B462C4E1 		strh	r6, [r4, #36]	@ movhi
 716              		.loc 1 206 3 is_stmt 1 view .LVU239
 717              		.loc 1 206 15 is_stmt 0 view .LVU240
 718 0058 28A084E5 		str	r10, [r4, #40]
 719              		.loc 1 207 3 is_stmt 1 view .LVU241
 720              		.loc 1 207 17 is_stmt 0 view .LVU242
 721 005c 2C9084E5 		str	r9, [r4, #44]
 722              		.loc 1 208 3 is_stmt 1 view .LVU243
 723              		.loc 1 209 3 view .LVU244
 724              		.loc 1 210 3 view .LVU245
 725              		.loc 1 211 3 view .LVU246
 726              		.loc 1 213 3 view .LVU247
 727              	.LVL51:
 728              		.loc 1 214 3 view .LVU248
 729              		.loc 1 209 15 is_stmt 0 view .LVU249
 730 0060 348084E5 		str	r8, [r4, #52]
 731              		.loc 1 210 17 view .LVU250
 732 0064 387084E5 		str	r7, [r4, #56]
 733              		.loc 1 214 24 view .LVU251
 734 0068 0C6083E5 		str	r6, [r3, #12]
 735              		.loc 1 215 3 is_stmt 1 view .LVU252
 736              		.loc 1 215 22 is_stmt 0 view .LVU253
 737 006c 089083E5 		str	r9, [r3, #8]
 738              		.loc 1 216 3 is_stmt 1 view .LVU254
 739              		.loc 1 216 18 is_stmt 0 view .LVU255
 740 0070 041083E5 		str	r1, [r3, #4]
 741              		.loc 1 219 3 is_stmt 1 view .LVU256
ARM GAS  /var/folders/l5/0x54b2c10074c8bt31ycjvl80000gp/T//ccbiey8U.s 			page 14


 742              		.loc 1 219 19 is_stmt 0 view .LVU257
 743 0074 002093E5 		ldr	r2, [r3]
 744 0078 832C82E3 		orr	r2, r2, #33536
 745 007c 802082E3 		orr	r2, r2, #128
 746 0080 002083E5 		str	r2, [r3]
 747              		.loc 1 222 3 is_stmt 1 view .LVU258
 748              		.syntax divided
 749              	@ 222 "../../../os/hal/platforms/BCM2835/i2c_lld.c" 1
 750 0084 9FF021E3 		msr     CPSR_c, #0x9F
 751              	@ 0 "" 2
 752              		.loc 1 222 3 view .LVU259
 753              		.loc 1 222 14 view .LVU260
 754              		.loc 1 224 3 view .LVU261
 755              		.loc 1 224 18 is_stmt 0 view .LVU262
 756              		.arm
 757              		.syntax unified
 758 0088 A8909FE5 		ldr	r9, .L103+8
 759              	.LVL52:
 760              		.loc 1 225 3 view .LVU263
 761 008c 0200A0E3 		mov	r0, #2
 762              		.loc 1 224 16 view .LVU264
 763 0090 103099E5 		ldr	r3, [r9, #16]
 764              	.LVL53:
 765              		.loc 1 224 16 view .LVU265
 766 0094 203084E5 		str	r3, [r4, #32]
 767              		.loc 1 225 3 is_stmt 1 view .LVU266
 768 0098 FEFFFFEB 		bl	chSchGoSleepS
 769              	.LVL54:
 770              		.loc 1 226 3 view .LVU267
 771              		.loc 1 226 6 is_stmt 0 view .LVU268
 772 009c 010075E3 		cmn	r5, #1
 773 00a0 0400000A 		beq	.L81
 774              		.loc 1 226 34 discriminator 1 view .LVU269
 775 00a4 10309DE5 		ldr	r3, [sp, #16]
 776 00a8 000053E3 		cmp	r3, #0
 777 00ac 0100000A 		beq	.L81
 778              		.loc 1 227 5 is_stmt 1 view .LVU270
 779 00b0 04008DE2 		add	r0, sp, #4
 780 00b4 FEFFFFEB 		bl	chVTResetI
 781              	.LVL55:
 782              	.L81:
 783              		.loc 1 229 3 view .LVU271
 784              		.loc 1 229 3 view .LVU272
 785              		.syntax divided
 786              	@ 229 "../../../os/hal/platforms/BCM2835/i2c_lld.c" 1
 787 00b8 1FF021E3 		msr     CPSR_c, #0x1F
 788              	@ 0 "" 2
 789              		.loc 1 229 16 view .LVU273
 790              		.loc 1 231 3 view .LVU274
 791              		.loc 1 231 9 is_stmt 0 view .LVU275
 792              		.arm
 793              		.syntax unified
 794 00bc 102099E5 		ldr	r2, [r9, #16]
 795              		.loc 1 233 35 view .LVU276
 796 00c0 003097E2 		adds	r3, r7, #0
 797              		.loc 1 231 9 view .LVU277
 798 00c4 149092E5 		ldr	r9, [r2, #20]
ARM GAS  /var/folders/l5/0x54b2c10074c8bt31ycjvl80000gp/T//ccbiey8U.s 			page 15


 799              	.LVL56:
 800              		.loc 1 233 3 is_stmt 1 view .LVU278
 801              		.loc 1 233 35 is_stmt 0 view .LVU279
 802 00c8 0130A013 		movne	r3, #1
 803              		.loc 1 233 6 view .LVU280
 804 00cc 000059E3 		cmp	r9, #0
 805 00d0 0030A013 		movne	r3, #0
 806 00d4 000053E3 		cmp	r3, #0
 807 00d8 0200001A 		bne	.L102
 808              	.L79:
 809              		.loc 1 242 1 view .LVU281
 810 00dc 0900A0E1 		mov	r0, r9
 811 00e0 18D08DE2 		add	sp, sp, #24
 812              		.cfi_remember_state
 813              		.cfi_def_cfa_offset 32
 814              		@ sp needed
 815 00e4 F087BDE8 		pop	{r4, r5, r6, r7, r8, r9, r10, pc}
 816              	.LVL57:
 817              	.L102:
 818              		.cfi_restore_state
 819              		.loc 1 235 5 is_stmt 1 view .LVU282
 820              		.loc 1 235 14 is_stmt 0 view .LVU283
 821 00e8 00C0E0E3 		mvn	ip, #0
 822 00ec 0730A0E1 		mov	r3, r7
 823 00f0 0820A0E1 		mov	r2, r8
 824 00f4 0610A0E1 		mov	r1, r6
 825 00f8 0400A0E1 		mov	r0, r4
 826 00fc 00C08DE5 		str	ip, [sp]
 827 0100 FEFFFFEB 		bl	i2c_lld_master_receive_timeout
 828              	.LVL58:
 829              		.loc 1 237 8 view .LVU284
 830 0104 010075E3 		cmn	r5, #1
 831              		.loc 1 235 14 view .LVU285
 832 0108 0090A0E1 		mov	r9, r0
 833              	.LVL59:
 834              		.loc 1 237 5 is_stmt 1 view .LVU286
 835              		.loc 1 237 8 is_stmt 0 view .LVU287
 836 010c F2FFFF0A 		beq	.L79
 837              		.loc 1 237 36 discriminator 1 view .LVU288
 838 0110 10309DE5 		ldr	r3, [sp, #16]
 839 0114 000053E3 		cmp	r3, #0
 840 0118 EFFFFF0A 		beq	.L79
 841              		.loc 1 238 7 is_stmt 1 view .LVU289
 842 011c 04008DE2 		add	r0, sp, #4
 843              	.LVL60:
 844              		.loc 1 238 7 is_stmt 0 view .LVU290
 845 0120 FEFFFFEB 		bl	chVTResetI
 846              	.LVL61:
 847              		.loc 1 241 3 is_stmt 1 view .LVU291
 848              		.loc 1 242 1 is_stmt 0 view .LVU292
 849 0124 0900A0E1 		mov	r0, r9
 850 0128 18D08DE2 		add	sp, sp, #24
 851              		.cfi_def_cfa_offset 32
 852              		@ sp needed
 853 012c F087BDE8 		pop	{r4, r5, r6, r7, r8, r9, r10, pc}
 854              	.LVL62:
 855              	.L104:
ARM GAS  /var/folders/l5/0x54b2c10074c8bt31ycjvl80000gp/T//ccbiey8U.s 			page 16


 856              		.loc 1 242 1 view .LVU293
 857              		.align	2
 858              	.L103:
 859 0130 00000000 		.word	i2c_lld_safety_timeout
 860 0134 02030000 		.word	770
 861 0138 00000000 		.word	rlist
 862              		.cfi_endproc
 863              	.LFE12:
 864              		.size	i2c_lld_master_transmit_timeout, .-i2c_lld_master_transmit_timeout
 865              		.comm	I2C0,64,4
 866              		.text
 867              	.Letext0:
 868              		.file 2 "/usr/local/Cellar/arm-gcc-bin/8-2019-q3-update/lib/gcc/arm-none-eabi/8.3.1/include/stddef
 869              		.file 3 "/usr/local/Cellar/arm-gcc-bin/8-2019-q3-update/arm-none-eabi/include/machine/_default_typ
 870              		.file 4 "/usr/local/Cellar/arm-gcc-bin/8-2019-q3-update/arm-none-eabi/include/sys/_stdint.h"
 871              		.file 5 "../../../os/ports/GCC/ARM/chtypes.h"
 872              		.file 6 "../../../os/kernel/include/chlists.h"
 873              		.file 7 "../../../os/kernel/include/chthreads.h"
 874              		.file 8 "../../../os/ports/GCC/ARM/chcore.h"
 875              		.file 9 "../../../os/kernel/include/chvt.h"
 876              		.file 10 "../../../os/kernel/include/chschd.h"
 877              		.file 11 "../../../os/kernel/include/chmtx.h"
 878              		.file 12 "../../../os/kernel/include/chevents.h"
 879              		.file 13 "../../../os/kernel/include/chqueues.h"
 880              		.file 14 "../../../os/kernel/include/ch.h"
 881              		.file 15 "../../../os/hal/platforms/BCM2835/bcm2835.h"
 882              		.file 16 "../../../os/hal/platforms/BCM2835/pal_lld.h"
 883              		.file 17 "../../../os/hal/include/i2c.h"
 884              		.file 18 "../../../os/hal/platforms/BCM2835/i2c_lld.h"
 885              		.file 19 "../../../os/hal/include/serial.h"
 886              		.file 20 "../../../os/hal/platforms/BCM2835/serial_lld.h"