ARM GAS  /var/folders/l5/0x54b2c10074c8bt31ycjvl80000gp/T//cclaVARJ.s 			page 1


   1              		.file	"main.c"
   2              		.text
   3              	.Ltext0:
   4              		.cfi_sections	.debug_frame
   5              		.global	__floatunsidf
   6              		.global	__muldf3
   7              		.global	__truncdfsf2
   8              		.global	__mulsf3
   9              		.global	__divsf3
  10              		.global	__addsf3
  11              		.global	__extendsfdf2
  12              		.global	__fixunsdfsi
  13              		.section	.text.Thread1,"ax",%progbits
  14              		.align	2
  15              		.arch armv6kz
  16              		.syntax unified
  17              		.arm
  18              		.fpu softvfp
  19              		.type	Thread1, %function
  20              	Thread1:
  21              	.LVL0:
  22              	.LFB9:
  23              		.file 1 "main.c"
  24              		.loc 1 72 31 view -0
  25              		.cfi_startproc
  26              		@ args = 0, pretend = 0, frame = 4
  27              		@ frame_needed = 0, uses_anonymous_args = 0
  28              		.loc 1 72 31 is_stmt 0 view .LVU1
  29 0000 F04F2DE9 		push	{r4, r5, r6, r7, r8, r9, r10, fp, lr}
  30              		.cfi_def_cfa_offset 36
  31              		.cfi_offset 4, -36
  32              		.cfi_offset 5, -32
  33              		.cfi_offset 6, -28
  34              		.cfi_offset 7, -24
  35              		.cfi_offset 8, -20
  36              		.cfi_offset 9, -16
  37              		.cfi_offset 10, -12
  38              		.cfi_offset 11, -8
  39              		.cfi_offset 14, -4
  40              	.LBB7:
  41              	.LBB8:
  42              	.LBB9:
  43              		.loc 1 41 25 view .LVU2
  44 0004 0080A0E3 		mov	r8, #0
  45              	.LBE9:
  46              	.LBE8:
  47              	.LBE7:
  48              		.loc 1 72 31 view .LVU3
  49 0008 10D04DE2 		sub	sp, sp, #16
  50              		.cfi_def_cfa_offset 52
  51              	.LBB18:
  52              	.LBB12:
  53              	.LBB10:
  54              		.loc 1 41 25 view .LVU4
  55 000c 54919FE5 		ldr	r9, .L14
  56              		.loc 1 33 3 view .LVU5
  57 0010 54419FE5 		ldr	r4, .L14+4
ARM GAS  /var/folders/l5/0x54b2c10074c8bt31ycjvl80000gp/T//cclaVARJ.s 			page 2


  58              		.loc 1 42 31 view .LVU6
  59 0014 54B19FE5 		ldr	fp, .L14+8
  60              		.loc 1 42 35 view .LVU7
  61 0018 54A19FE5 		ldr	r10, .L14+12
  62              		.loc 1 45 5 view .LVU8
  63 001c 54519FE5 		ldr	r5, .L14+16
  64 0020 260000EA 		b	.L4
  65              	.LVL1:
  66              	.L2:
  67              		.loc 1 47 3 is_stmt 1 view .LVU9
  68              		.loc 1 47 3 is_stmt 0 view .LVU10
  69              	.LBE10:
  70              	.LBE12:
  71              		.loc 1 77 5 is_stmt 1 view .LVU11
  72 0024 0700A0E1 		mov	r0, r7
  73 0028 FEFFFFEB 		bl	__extendsfdf2
  74              	.LVL2:
  75 002c 0060A0E1 		mov	r6, r0
  76 0030 0170A0E1 		mov	r7, r1
  77 0034 0020A0E1 		mov	r2, r0
  78 0038 0130A0E1 		mov	r3, r1
  79 003c 0500A0E1 		mov	r0, r5
  80 0040 34119FE5 		ldr	r1, .L14+20
  81 0044 FEFFFFEB 		bl	chprintf
  82              	.LVL3:
  83              		.loc 1 78 5 view .LVU12
  84              	.LBB13:
  85              	.LBI13:
  86              		.loc 1 52 13 view .LVU13
  87              	.LBB14:
  88              		.loc 1 53 3 view .LVU14
  89              		.loc 1 54 3 view .LVU15
  90              		.loc 1 55 3 view .LVU16
  91              		.loc 1 56 3 view .LVU17
  92              		.loc 1 53 31 is_stmt 0 view .LVU18
  93 0048 30219FE5 		ldr	r2, .L14+24
  94 004c 30319FE5 		ldr	r3, .L14+28
  95 0050 0600A0E1 		mov	r0, r6
  96 0054 0710A0E1 		mov	r1, r7
  97 0058 FEFFFFEB 		bl	__muldf3
  98              	.LVL4:
  99              		.loc 1 53 39 view .LVU19
 100 005c 0622A0E3 		mov	r2, #1610612736
 101 0060 20319FE5 		ldr	r3, .L14+32
 102 0064 FEFFFFEB 		bl	__muldf3
 103              	.LVL5:
 104              		.loc 1 53 12 view .LVU20
 105 0068 FEFFFFEB 		bl	__fixunsdfsi
 106              	.LVL6:
 107              		.loc 1 55 14 view .LVU21
 108 006c B03FBFE6 		rev16	r3, r0
 109              		.loc 1 58 3 view .LVU22
 110 0070 0400A0E1 		mov	r0, r4
 111              		.loc 1 55 14 view .LVU23
 112 0074 BC30CDE1 		strh	r3, [sp, #12]	@ movhi
 113              		.loc 1 58 3 is_stmt 1 view .LVU24
 114 0078 FEFFFFEB 		bl	i2cAcquireBus
ARM GAS  /var/folders/l5/0x54b2c10074c8bt31ycjvl80000gp/T//cclaVARJ.s 			page 3


 115              	.LVL7:
 116              		.loc 1 60 3 view .LVU25
 117              		.loc 1 60 18 is_stmt 0 view .LVU26
 118 007c 0030A0E3 		mov	r3, #0
 119 0080 FA2FA0E3 		mov	r2, #1000
 120 0084 04308DE5 		str	r3, [sp, #4]
 121 0088 08208DE5 		str	r2, [sp, #8]
 122 008c 00308DE5 		str	r3, [sp]
 123 0090 0C208DE2 		add	r2, sp, #12
 124 0094 0230A0E3 		mov	r3, #2
 125 0098 6210A0E3 		mov	r1, #98
 126 009c 0400A0E1 		mov	r0, r4
 127 00a0 FEFFFFEB 		bl	i2cMasterTransmitTimeout
 128              	.LVL8:
 129 00a4 0060A0E1 		mov	r6, r0
 130              	.LVL9:
 131              		.loc 1 64 3 is_stmt 1 view .LVU27
 132 00a8 0400A0E1 		mov	r0, r4
 133              	.LVL10:
 134              		.loc 1 64 3 is_stmt 0 view .LVU28
 135 00ac FEFFFFEB 		bl	i2cReleaseBus
 136              	.LVL11:
 137              		.loc 1 66 3 is_stmt 1 view .LVU29
 138              		.loc 1 66 6 is_stmt 0 view .LVU30
 139 00b0 000056E3 		cmp	r6, #0
 140 00b4 2600001A 		bne	.L13
 141              	.L3:
 142              	.LVL12:
 143              		.loc 1 66 6 view .LVU31
 144              	.LBE14:
 145              	.LBE13:
 146              		.loc 1 79 5 is_stmt 1 view .LVU32
 147 00b8 FA0FA0E3 		mov	r0, #1000
 148 00bc FEFFFFEB 		bl	chThdSleep
 149              	.LVL13:
 150              	.L4:
 151              		.loc 1 79 5 is_stmt 0 view .LVU33
 152              	.LBE18:
 153              		.loc 1 73 3 is_stmt 1 discriminator 1 view .LVU34
 154              		.loc 1 74 39 discriminator 1 view .LVU35
 155              		.loc 1 75 3 discriminator 1 view .LVU36
 156              	.LBB19:
 157              		.loc 1 76 5 discriminator 1 view .LVU37
 158              	.LBB16:
 159              	.LBI8:
 160              		.loc 1 30 14 discriminator 1 view .LVU38
 161              	.LBB11:
 162              		.loc 1 31 3 discriminator 1 view .LVU39
 163              		.loc 1 31 11 is_stmt 0 discriminator 1 view .LVU40
 164 00c0 0030A0E3 		mov	r3, #0
 165              		.loc 1 33 3 discriminator 1 view .LVU41
 166 00c4 0400A0E1 		mov	r0, r4
 167              		.loc 1 31 11 discriminator 1 view .LVU42
 168 00c8 BC30CDE1 		strh	r3, [sp, #12]	@ movhi
 169              		.loc 1 33 3 is_stmt 1 discriminator 1 view .LVU43
 170 00cc FEFFFFEB 		bl	i2cAcquireBus
 171              	.LVL14:
ARM GAS  /var/folders/l5/0x54b2c10074c8bt31ycjvl80000gp/T//cclaVARJ.s 			page 4


 172              		.loc 1 35 3 discriminator 1 view .LVU44
 173              		.loc 1 35 18 is_stmt 0 discriminator 1 view .LVU45
 174 00d0 FA2FA0E3 		mov	r2, #1000
 175 00d4 0230A0E3 		mov	r3, #2
 176 00d8 4810A0E3 		mov	r1, #72
 177 00dc 00208DE5 		str	r2, [sp]
 178 00e0 0400A0E1 		mov	r0, r4
 179 00e4 0C208DE2 		add	r2, sp, #12
 180 00e8 FEFFFFEB 		bl	i2cMasterReceiveTimeout
 181              	.LVL15:
 182 00ec 0060A0E1 		mov	r6, r0
 183              	.LVL16:
 184              		.loc 1 38 3 is_stmt 1 discriminator 1 view .LVU46
 185 00f0 0400A0E1 		mov	r0, r4
 186              	.LVL17:
 187              		.loc 1 38 3 is_stmt 0 discriminator 1 view .LVU47
 188 00f4 FEFFFFEB 		bl	i2cReleaseBus
 189              	.LVL18:
 190              		.loc 1 40 3 is_stmt 1 discriminator 1 view .LVU48
 191              		.loc 1 41 3 discriminator 1 view .LVU49
 192              		.loc 1 42 3 discriminator 1 view .LVU50
 193              		.loc 1 40 51 is_stmt 0 discriminator 1 view .LVU51
 194 00f8 BC00DDE1 		ldrh	r0, [sp, #12]
 195 00fc B00FBFE6 		rev16	r0, r0
 196 0100 7000FFE6 		uxth	r0, r0
 197              		.loc 1 41 25 discriminator 1 view .LVU52
 198 0104 2002A0E1 		lsr	r0, r0, #4
 199 0108 FEFFFFEB 		bl	__floatunsidf
 200              	.LVL19:
 201              		.loc 1 41 25 discriminator 1 view .LVU53
 202 010c 0820A0E1 		mov	r2, r8
 203 0110 0930A0E1 		mov	r3, r9
 204 0114 FEFFFFEB 		bl	__muldf3
 205              	.LVL20:
 206              		.loc 1 41 9 discriminator 1 view .LVU54
 207 0118 FEFFFFEB 		bl	__truncdfsf2
 208              	.LVL21:
 209              		.loc 1 42 31 discriminator 1 view .LVU55
 210 011c 0B10A0E1 		mov	r1, fp
 211 0120 FEFFFFEB 		bl	__mulsf3
 212              	.LVL22:
 213              		.loc 1 42 35 discriminator 1 view .LVU56
 214 0124 0A10A0E1 		mov	r1, r10
 215 0128 FEFFFFEB 		bl	__divsf3
 216              	.LVL23:
 217              		.loc 1 42 9 discriminator 1 view .LVU57
 218 012c 4214A0E3 		mov	r1, #1107296256
 219 0130 FEFFFFEB 		bl	__addsf3
 220              	.LVL24:
 221              		.loc 1 44 6 discriminator 1 view .LVU58
 222 0134 000056E3 		cmp	r6, #0
 223              		.loc 1 42 9 discriminator 1 view .LVU59
 224 0138 0070A0E1 		mov	r7, r0
 225              		.loc 1 44 3 is_stmt 1 discriminator 1 view .LVU60
 226              		.loc 1 44 6 is_stmt 0 discriminator 1 view .LVU61
 227 013c B8FFFF0A 		beq	.L2
 228              		.loc 1 45 5 is_stmt 1 view .LVU62
ARM GAS  /var/folders/l5/0x54b2c10074c8bt31ycjvl80000gp/T//cclaVARJ.s 			page 5


 229 0140 0620A0E1 		mov	r2, r6
 230 0144 40109FE5 		ldr	r1, .L14+36
 231 0148 0500A0E1 		mov	r0, r5
 232 014c FEFFFFEB 		bl	chprintf
 233              	.LVL25:
 234 0150 B3FFFFEA 		b	.L2
 235              	.LVL26:
 236              	.L13:
 237              		.loc 1 45 5 is_stmt 0 view .LVU63
 238              	.LBE11:
 239              	.LBE16:
 240              	.LBB17:
 241              	.LBB15:
 242              		.loc 1 67 5 is_stmt 1 view .LVU64
 243 0154 0620A0E1 		mov	r2, r6
 244 0158 30109FE5 		ldr	r1, .L14+40
 245 015c 0500A0E1 		mov	r0, r5
 246 0160 FEFFFFEB 		bl	chprintf
 247              	.LVL27:
 248 0164 D3FFFFEA 		b	.L3
 249              	.L15:
 250              		.align	2
 251              	.L14:
 252 0168 0000B03F 		.word	1068498944
 253 016c 00000000 		.word	I2C0
 254 0170 00001041 		.word	1091567616
 255 0174 0000A040 		.word	1084227584
 256 0178 00000000 		.word	SD1
 257 017c 24000000 		.word	.LC1
 258 0180 4260E5D0 		.word	-790273982
 259 0184 22DBF33F 		.word	1072945954
 260 0188 B81EF13F 		.word	1072766648
 261 018c 00000000 		.word	.LC0
 262 0190 38000000 		.word	.LC2
 263              	.LBE15:
 264              	.LBE17:
 265              	.LBE19:
 266              		.cfi_endproc
 267              	.LFE9:
 268              		.size	Thread1, .-Thread1
 269              		.section	.text.startup.main,"ax",%progbits
 270              		.align	2
 271              		.global	main
 272              		.syntax unified
 273              		.arm
 274              		.fpu softvfp
 275              		.type	main, %function
 276              	main:
 277              	.LFB10:
 278              		.loc 1 87 16 view -0
 279              		.cfi_startproc
 280              		@ args = 0, pretend = 0, frame = 4
 281              		@ frame_needed = 0, uses_anonymous_args = 0
 282              		.loc 1 88 3 view .LVU66
 283              		.loc 1 87 16 is_stmt 0 view .LVU67
 284 0000 30402DE9 		push	{r4, r5, lr}
 285              		.cfi_def_cfa_offset 12
ARM GAS  /var/folders/l5/0x54b2c10074c8bt31ycjvl80000gp/T//cclaVARJ.s 			page 6


 286              		.cfi_offset 4, -12
 287              		.cfi_offset 5, -8
 288              		.cfi_offset 14, -4
 289              		.loc 1 106 3 view .LVU68
 290 0004 0040A0E3 		mov	r4, #0
 291              		.loc 1 94 3 view .LVU69
 292 0008 5C509FE5 		ldr	r5, .L18
 293              		.loc 1 87 16 view .LVU70
 294 000c 08D04DE2 		sub	sp, sp, #8
 295              		.cfi_def_cfa_offset 20
 296              		.loc 1 88 3 view .LVU71
 297 0010 FEFFFFEB 		bl	halInit
 298              	.LVL28:
 299              		.loc 1 89 3 is_stmt 1 view .LVU72
 300 0014 FEFFFFEB 		bl	chSysInit
 301              	.LVL29:
 302              		.loc 1 94 3 view .LVU73
 303 0018 0500A0E1 		mov	r0, r5
 304 001c 0410A0E1 		mov	r1, r4
 305 0020 FEFFFFEB 		bl	sdStart
 306              	.LVL30:
 307              		.loc 1 95 3 view .LVU74
 308 0024 0500A0E1 		mov	r0, r5
 309 0028 40109FE5 		ldr	r1, .L18+4
 310 002c FEFFFFEB 		bl	chprintf
 311              	.LVL31:
 312              		.loc 1 100 3 view .LVU75
 313              		.loc 1 101 3 view .LVU76
 314 0030 04108DE2 		add	r1, sp, #4
 315 0034 38009FE5 		ldr	r0, .L18+8
 316 0038 FEFFFFEB 		bl	i2cStart
 317              	.LVL32:
 318              		.loc 1 106 3 view .LVU77
 319 003c 4020A0E3 		mov	r2, #64
 320 0040 FC10A0E3 		mov	r1, #252
 321 0044 00408DE5 		str	r4, [sp]
 322 0048 28309FE5 		ldr	r3, .L18+12
 323 004c 28009FE5 		ldr	r0, .L18+16
 324 0050 FEFFFFEB 		bl	chThdCreateStatic
 325              	.LVL33:
 326              		.loc 1 111 3 view .LVU78
 327 0054 24309FE5 		ldr	r3, .L18+20
 328 0058 100093E5 		ldr	r0, [r3, #16]
 329 005c FEFFFFEB 		bl	chThdWait
 330              	.LVL34:
 331              		.loc 1 113 3 view .LVU79
 332              		.loc 1 114 1 is_stmt 0 view .LVU80
 333 0060 0400A0E1 		mov	r0, r4
 334 0064 08D08DE2 		add	sp, sp, #8
 335              		.cfi_def_cfa_offset 12
 336              		@ sp needed
 337 0068 3080BDE8 		pop	{r4, r5, pc}
 338              	.L19:
 339              		.align	2
 340              	.L18:
 341 006c 00000000 		.word	SD1
 342 0070 00000000 		.word	.LC3
ARM GAS  /var/folders/l5/0x54b2c10074c8bt31ycjvl80000gp/T//cclaVARJ.s 			page 7


 343 0074 00000000 		.word	I2C0
 344 0078 00000000 		.word	Thread1
 345 007c 00000000 		.word	.LANCHOR0
 346 0080 00000000 		.word	rlist
 347              		.cfi_endproc
 348              	.LFE10:
 349              		.size	main, .-main
 350              		.section	.bss.waThread1,"aw",%nobits
 351              		.align	2
 352              		.set	.LANCHOR0,. + 0
 353              		.type	waThread1, %object
 354              		.size	waThread1, 252
 355              	waThread1:
 356 0000 00000000 		.space	252
 356      00000000 
 356      00000000 
 356      00000000 
 356      00000000 
 357              		.section	.rodata.Thread1.str1.4,"aMS",%progbits,1
 358              		.align	2
 359              	.LC0:
 360 0000 4572726F 		.ascii	"Error while getting voltage: %d\015\012\000"
 360      72207768 
 360      696C6520 
 360      67657474 
 360      696E6720 
 361 0022 0000     		.space	2
 362              	.LC1:
 363 0024 54656D70 		.ascii	"Temperature: %f F\015\012\000"
 363      65726174 
 363      7572653A 
 363      20256620 
 363      460D0A00 
 364              	.LC2:
 365 0038 4572726F 		.ascii	"Error while setting voltage: %d\015\012\000"
 365      72207768 
 365      696C6520 
 365      73657474 
 365      696E6720 
 366              		.section	.rodata.main.str1.4,"aMS",%progbits,1
 367              		.align	2
 368              	.LC3:
 369 0000 42434D32 		.ascii	"BCM2835 I2C Demonstration\015\012\000"
 369      38333520 
 369      49324320 
 369      44656D6F 
 369      6E737472 
 370              		.text
 371              	.Letext0:
 372              		.file 2 "/usr/local/Cellar/arm-gcc-bin/8-2019-q3-update/lib/gcc/arm-none-eabi/8.3.1/include/stddef
 373              		.file 3 "/usr/local/Cellar/arm-gcc-bin/8-2019-q3-update/arm-none-eabi/include/machine/_default_typ
 374              		.file 4 "/usr/local/Cellar/arm-gcc-bin/8-2019-q3-update/arm-none-eabi/include/sys/_stdint.h"
 375              		.file 5 "../../../os/ports/GCC/ARM/chtypes.h"
 376              		.file 6 "../../../os/kernel/include/chlists.h"
 377              		.file 7 "../../../os/kernel/include/chthreads.h"
 378              		.file 8 "../../../os/ports/GCC/ARM/chcore.h"
 379              		.file 9 "../../../os/kernel/include/chvt.h"
ARM GAS  /var/folders/l5/0x54b2c10074c8bt31ycjvl80000gp/T//cclaVARJ.s 			page 8


 380              		.file 10 "../../../os/kernel/include/chschd.h"
 381              		.file 11 "../../../os/kernel/include/chmtx.h"
 382              		.file 12 "../../../os/kernel/include/chevents.h"
 383              		.file 13 "../../../os/kernel/include/chqueues.h"
 384              		.file 14 "../../../os/kernel/include/chstreams.h"
 385              		.file 15 "../../../os/kernel/include/ch.h"
 386              		.file 16 "../../../os/hal/platforms/BCM2835/bcm2835.h"
 387              		.file 17 "../../../os/hal/platforms/BCM2835/pal_lld.h"
 388              		.file 18 "../../../os/hal/include/i2c.h"
 389              		.file 19 "../../../os/hal/platforms/BCM2835/i2c_lld.h"
 390              		.file 20 "../../../os/hal/include/serial.h"
 391              		.file 21 "../../../os/hal/include/hal.h"
 392              		.file 22 "../../../os/kernel/include/chsys.h"
 393              		.file 23 "../../../os/various/chprintf.h"
 394              		.file 24 "../../../os/hal/platforms/BCM2835/serial_lld.h"
 395              		.section	.debug_info,"",%progbits
 396              	.Ldebug_info0:
 397 0000 8A0F0000 		.4byte	0xf8a
 398 0004 0400     		.2byte	0x4
 399 0006 00000000 		.4byte	.Ldebug_abbrev0
 400 000a 04       		.byte	0x4
 401 000b 01       		.uleb128 0x1
 402 000c D9010000 		.4byte	.LASF177
 403 0010 0C       		.byte	0xc
 404 0011 FE030000 		.4byte	.LASF178
 405 0015 A6030000 		.4byte	.LASF179
 406 0019 58000000 		.4byte	.Ldebug_ranges0+0x58
 407 001d 00000000 		.4byte	0
 408 0021 00000000 		.4byte	.Ldebug_line0
 409 0025 02       		.uleb128 0x2
 410 0026 08       		.byte	0x8
 411 0027 04       		.byte	0x4
 412 0028 6C010000 		.4byte	.LASF0
 413 002c 02       		.uleb128 0x2
 414 002d 04       		.byte	0x4
 415 002e 07       		.byte	0x7
 416 002f E7020000 		.4byte	.LASF1
 417 0033 02       		.uleb128 0x2
 418 0034 04       		.byte	0x4
 419 0035 04       		.byte	0x4
 420 0036 2C050000 		.4byte	.LASF2
 421 003a 02       		.uleb128 0x2
 422 003b 02       		.byte	0x2
 423 003c 07       		.byte	0x7
 424 003d 6E030000 		.4byte	.LASF3
 425 0041 02       		.uleb128 0x2
 426 0042 04       		.byte	0x4
 427 0043 05       		.byte	0x5
 428 0044 2C010000 		.4byte	.LASF4
 429 0048 03       		.uleb128 0x3
 430 0049 00000000 		.4byte	.LASF7
 431 004d 02       		.byte	0x2
 432 004e D8       		.byte	0xd8
 433 004f 17       		.byte	0x17
 434 0050 54000000 		.4byte	0x54
 435 0054 02       		.uleb128 0x2
 436 0055 04       		.byte	0x4
ARM GAS  /var/folders/l5/0x54b2c10074c8bt31ycjvl80000gp/T//cclaVARJ.s 			page 9


 437 0056 07       		.byte	0x7
 438 0057 20030000 		.4byte	.LASF5
 439 005b 02       		.uleb128 0x2
 440 005c 01       		.byte	0x1
 441 005d 06       		.byte	0x6
 442 005e E1000000 		.4byte	.LASF6
 443 0062 03       		.uleb128 0x3
 444 0063 1A000000 		.4byte	.LASF8
 445 0067 03       		.byte	0x3
 446 0068 2B       		.byte	0x2b
 447 0069 18       		.byte	0x18
 448 006a 6E000000 		.4byte	0x6e
 449 006e 02       		.uleb128 0x2
 450 006f 01       		.byte	0x1
 451 0070 08       		.byte	0x8
 452 0071 95050000 		.4byte	.LASF9
 453 0075 02       		.uleb128 0x2
 454 0076 02       		.byte	0x2
 455 0077 05       		.byte	0x5
 456 0078 C2050000 		.4byte	.LASF10
 457 007c 03       		.uleb128 0x3
 458 007d A8060000 		.4byte	.LASF11
 459 0081 03       		.byte	0x3
 460 0082 39       		.byte	0x39
 461 0083 19       		.byte	0x19
 462 0084 3A000000 		.4byte	0x3a
 463 0088 03       		.uleb128 0x3
 464 0089 CF060000 		.4byte	.LASF12
 465 008d 03       		.byte	0x3
 466 008e 4D       		.byte	0x4d
 467 008f 18       		.byte	0x18
 468 0090 41000000 		.4byte	0x41
 469 0094 03       		.uleb128 0x3
 470 0095 B0010000 		.4byte	.LASF13
 471 0099 03       		.byte	0x3
 472 009a 4F       		.byte	0x4f
 473 009b 19       		.byte	0x19
 474 009c 54000000 		.4byte	0x54
 475 00a0 02       		.uleb128 0x2
 476 00a1 08       		.byte	0x8
 477 00a2 05       		.byte	0x5
 478 00a3 D3000000 		.4byte	.LASF14
 479 00a7 02       		.uleb128 0x2
 480 00a8 08       		.byte	0x8
 481 00a9 07       		.byte	0x7
 482 00aa 47000000 		.4byte	.LASF15
 483 00ae 03       		.uleb128 0x3
 484 00af 8A070000 		.4byte	.LASF16
 485 00b3 04       		.byte	0x4
 486 00b4 18       		.byte	0x18
 487 00b5 13       		.byte	0x13
 488 00b6 62000000 		.4byte	0x62
 489 00ba 04       		.uleb128 0x4
 490 00bb AE000000 		.4byte	0xae
 491 00bf 03       		.uleb128 0x3
 492 00c0 63010000 		.4byte	.LASF17
 493 00c4 04       		.byte	0x4
ARM GAS  /var/folders/l5/0x54b2c10074c8bt31ycjvl80000gp/T//cclaVARJ.s 			page 10


 494 00c5 24       		.byte	0x24
 495 00c6 14       		.byte	0x14
 496 00c7 7C000000 		.4byte	0x7c
 497 00cb 03       		.uleb128 0x3
 498 00cc 8D050000 		.4byte	.LASF18
 499 00d0 04       		.byte	0x4
 500 00d1 2C       		.byte	0x2c
 501 00d2 13       		.byte	0x13
 502 00d3 88000000 		.4byte	0x88
 503 00d7 03       		.uleb128 0x3
 504 00d8 4B060000 		.4byte	.LASF19
 505 00dc 04       		.byte	0x4
 506 00dd 30       		.byte	0x30
 507 00de 14       		.byte	0x14
 508 00df 94000000 		.4byte	0x94
 509 00e3 05       		.uleb128 0x5
 510 00e4 D7000000 		.4byte	0xd7
 511 00e8 06       		.uleb128 0x6
 512 00e9 04       		.byte	0x4
 513 00ea 05       		.byte	0x5
 514 00eb 696E7400 		.ascii	"int\000"
 515 00ef 05       		.uleb128 0x5
 516 00f0 2C000000 		.4byte	0x2c
 517 00f4 03       		.uleb128 0x3
 518 00f5 0C040000 		.4byte	.LASF20
 519 00f9 05       		.byte	0x5
 520 00fa 2A       		.byte	0x2a
 521 00fb 19       		.byte	0x19
 522 00fc AE000000 		.4byte	0xae
 523 0100 03       		.uleb128 0x3
 524 0101 35010000 		.4byte	.LASF21
 525 0105 05       		.byte	0x5
 526 0106 2B       		.byte	0x2b
 527 0107 19       		.byte	0x19
 528 0108 AE000000 		.4byte	0xae
 529 010c 03       		.uleb128 0x3
 530 010d 07010000 		.4byte	.LASF22
 531 0111 05       		.byte	0x5
 532 0112 2D       		.byte	0x2d
 533 0113 19       		.byte	0x19
 534 0114 AE000000 		.4byte	0xae
 535 0118 03       		.uleb128 0x3
 536 0119 6C050000 		.4byte	.LASF23
 537 011d 05       		.byte	0x5
 538 011e 2E       		.byte	0x2e
 539 011f 19       		.byte	0x19
 540 0120 D7000000 		.4byte	0xd7
 541 0124 03       		.uleb128 0x3
 542 0125 99030000 		.4byte	.LASF24
 543 0129 05       		.byte	0x5
 544 012a 2F       		.byte	0x2f
 545 012b 19       		.byte	0x19
 546 012c CB000000 		.4byte	0xcb
 547 0130 03       		.uleb128 0x3
 548 0131 28040000 		.4byte	.LASF25
 549 0135 05       		.byte	0x5
 550 0136 31       		.byte	0x31
ARM GAS  /var/folders/l5/0x54b2c10074c8bt31ycjvl80000gp/T//cclaVARJ.s 			page 11


 551 0137 19       		.byte	0x19
 552 0138 D7000000 		.4byte	0xd7
 553 013c 03       		.uleb128 0x3
 554 013d 36070000 		.4byte	.LASF26
 555 0141 05       		.byte	0x5
 556 0142 32       		.byte	0x32
 557 0143 19       		.byte	0x19
 558 0144 D7000000 		.4byte	0xd7
 559 0148 03       		.uleb128 0x3
 560 0149 BA060000 		.4byte	.LASF27
 561 014d 05       		.byte	0x5
 562 014e 33       		.byte	0x33
 563 014f 19       		.byte	0x19
 564 0150 D7000000 		.4byte	0xd7
 565 0154 05       		.uleb128 0x5
 566 0155 48010000 		.4byte	0x148
 567 0159 03       		.uleb128 0x3
 568 015a 24060000 		.4byte	.LASF28
 569 015e 06       		.byte	0x6
 570 015f 23       		.byte	0x23
 571 0160 17       		.byte	0x17
 572 0161 65010000 		.4byte	0x165
 573 0165 07       		.uleb128 0x7
 574 0166 24060000 		.4byte	.LASF28
 575 016a 28       		.byte	0x28
 576 016b 07       		.byte	0x7
 577 016c 57       		.byte	0x57
 578 016d 08       		.byte	0x8
 579 016e 0F020000 		.4byte	0x20f
 580 0172 08       		.uleb128 0x8
 581 0173 F5050000 		.4byte	.LASF29
 582 0177 07       		.byte	0x7
 583 0178 58       		.byte	0x58
 584 0179 1A       		.byte	0x1a
 585 017a 33020000 		.4byte	0x233
 586 017e 00       		.byte	0
 587 017f 08       		.uleb128 0x8
 588 0180 57050000 		.4byte	.LASF30
 589 0184 07       		.byte	0x7
 590 0185 5A       		.byte	0x5a
 591 0186 1A       		.byte	0x1a
 592 0187 33020000 		.4byte	0x233
 593 018b 04       		.byte	0x4
 594 018c 08       		.uleb128 0x8
 595 018d 9C000000 		.4byte	.LASF31
 596 0191 07       		.byte	0x7
 597 0192 5C       		.byte	0x5c
 598 0193 19       		.byte	0x19
 599 0194 18010000 		.4byte	0x118
 600 0198 08       		.byte	0x8
 601 0199 08       		.uleb128 0x8
 602 019a 03080000 		.4byte	.LASF32
 603 019e 07       		.byte	0x7
 604 019f 5D       		.byte	0x5d
 605 01a0 19       		.byte	0x19
 606 01a1 FE020000 		.4byte	0x2fe
 607 01a5 0C       		.byte	0xc
ARM GAS  /var/folders/l5/0x54b2c10074c8bt31ycjvl80000gp/T//cclaVARJ.s 			page 12


 608 01a6 08       		.uleb128 0x8
 609 01a7 CC050000 		.4byte	.LASF33
 610 01ab 07       		.byte	0x7
 611 01ac 72       		.byte	0x72
 612 01ad 19       		.byte	0x19
 613 01ae 00010000 		.4byte	0x100
 614 01b2 10       		.byte	0x10
 615 01b3 08       		.uleb128 0x8
 616 01b4 1C060000 		.4byte	.LASF34
 617 01b8 07       		.byte	0x7
 618 01b9 76       		.byte	0x76
 619 01ba 19       		.byte	0x19
 620 01bb F4000000 		.4byte	0xf4
 621 01bf 11       		.byte	0x11
 622 01c0 08       		.uleb128 0x8
 623 01c1 D4050000 		.4byte	.LASF35
 624 01c5 07       		.byte	0x7
 625 01c6 81       		.byte	0x81
 626 01c7 19       		.byte	0x19
 627 01c8 0C010000 		.4byte	0x10c
 628 01cc 12       		.byte	0x12
 629 01cd 09       		.uleb128 0x9
 630 01ce 705F7500 		.ascii	"p_u\000"
 631 01d2 07       		.byte	0x7
 632 01d3 AD       		.byte	0xad
 633 01d4 19       		.byte	0x19
 634 01d5 0B050000 		.4byte	0x50b
 635 01d9 14       		.byte	0x14
 636 01da 08       		.uleb128 0x8
 637 01db 09080000 		.4byte	.LASF36
 638 01df 07       		.byte	0x7
 639 01e0 B2       		.byte	0xb2
 640 01e1 19       		.byte	0x19
 641 01e2 5C020000 		.4byte	0x25c
 642 01e6 18       		.byte	0x18
 643 01e7 08       		.uleb128 0x8
 644 01e8 36060000 		.4byte	.LASF37
 645 01ec 07       		.byte	0x7
 646 01ed C2       		.byte	0xc2
 647 01ee 19       		.byte	0x19
 648 01ef 30010000 		.4byte	0x130
 649 01f3 1C       		.byte	0x1c
 650 01f4 08       		.uleb128 0x8
 651 01f5 B8050000 		.4byte	.LASF38
 652 01f9 07       		.byte	0x7
 653 01fa C9       		.byte	0xc9
 654 01fb 1A       		.byte	0x1a
 655 01fc 45050000 		.4byte	0x545
 656 0200 20       		.byte	0x20
 657 0201 08       		.uleb128 0x8
 658 0202 C4060000 		.4byte	.LASF39
 659 0206 07       		.byte	0x7
 660 0207 CD       		.byte	0xcd
 661 0208 19       		.byte	0x19
 662 0209 18010000 		.4byte	0x118
 663 020d 24       		.byte	0x24
 664 020e 00       		.byte	0
ARM GAS  /var/folders/l5/0x54b2c10074c8bt31ycjvl80000gp/T//cclaVARJ.s 			page 13


 665 020f 0A       		.uleb128 0xa
 666 0210 08       		.byte	0x8
 667 0211 06       		.byte	0x6
 668 0212 5A       		.byte	0x5a
 669 0213 09       		.byte	0x9
 670 0214 33020000 		.4byte	0x233
 671 0218 08       		.uleb128 0x8
 672 0219 F5050000 		.4byte	.LASF29
 673 021d 06       		.byte	0x6
 674 021e 5B       		.byte	0x5b
 675 021f 1A       		.byte	0x1a
 676 0220 33020000 		.4byte	0x233
 677 0224 00       		.byte	0
 678 0225 08       		.uleb128 0x8
 679 0226 57050000 		.4byte	.LASF30
 680 022a 06       		.byte	0x6
 681 022b 5D       		.byte	0x5d
 682 022c 1A       		.byte	0x1a
 683 022d 33020000 		.4byte	0x233
 684 0231 04       		.byte	0x4
 685 0232 00       		.byte	0
 686 0233 0B       		.uleb128 0xb
 687 0234 04       		.byte	0x4
 688 0235 59010000 		.4byte	0x159
 689 0239 03       		.uleb128 0x3
 690 023a EB040000 		.4byte	.LASF40
 691 023e 06       		.byte	0x6
 692 023f 5F       		.byte	0x5f
 693 0240 03       		.byte	0x3
 694 0241 0F020000 		.4byte	0x20f
 695 0245 0A       		.uleb128 0xa
 696 0246 04       		.byte	0x4
 697 0247 06       		.byte	0x6
 698 0248 64       		.byte	0x64
 699 0249 09       		.byte	0x9
 700 024a 5C020000 		.4byte	0x25c
 701 024e 08       		.uleb128 0x8
 702 024f F5050000 		.4byte	.LASF29
 703 0253 06       		.byte	0x6
 704 0254 66       		.byte	0x66
 705 0255 16       		.byte	0x16
 706 0256 33020000 		.4byte	0x233
 707 025a 00       		.byte	0
 708 025b 00       		.byte	0
 709 025c 03       		.uleb128 0x3
 710 025d 1C040000 		.4byte	.LASF41
 711 0261 06       		.byte	0x6
 712 0262 69       		.byte	0x69
 713 0263 03       		.byte	0x3
 714 0264 45020000 		.4byte	0x245
 715 0268 03       		.uleb128 0x3
 716 0269 52040000 		.4byte	.LASF42
 717 026d 08       		.byte	0x8
 718 026e 9D       		.byte	0x9d
 719 026f 12       		.byte	0x12
 720 0270 D7000000 		.4byte	0xd7
 721 0274 03       		.uleb128 0x3
ARM GAS  /var/folders/l5/0x54b2c10074c8bt31ycjvl80000gp/T//cclaVARJ.s 			page 14


 722 0275 BB010000 		.4byte	.LASF43
 723 0279 08       		.byte	0x8
 724 027a A2       		.byte	0xa2
 725 027b 0F       		.byte	0xf
 726 027c 80020000 		.4byte	0x280
 727 0280 0C       		.uleb128 0xc
 728 0281 04       		.byte	0x4
 729 0282 07       		.uleb128 0x7
 730 0283 F5060000 		.4byte	.LASF44
 731 0287 24       		.byte	0x24
 732 0288 08       		.byte	0x8
 733 0289 B9       		.byte	0xb9
 734 028a 08       		.byte	0x8
 735 028b FE020000 		.4byte	0x2fe
 736 028f 09       		.uleb128 0x9
 737 0290 723400   		.ascii	"r4\000"
 738 0293 08       		.byte	0x8
 739 0294 BA       		.byte	0xba
 740 0295 11       		.byte	0x11
 741 0296 74020000 		.4byte	0x274
 742 029a 00       		.byte	0
 743 029b 09       		.uleb128 0x9
 744 029c 723500   		.ascii	"r5\000"
 745 029f 08       		.byte	0x8
 746 02a0 BB       		.byte	0xbb
 747 02a1 11       		.byte	0x11
 748 02a2 74020000 		.4byte	0x274
 749 02a6 04       		.byte	0x4
 750 02a7 09       		.uleb128 0x9
 751 02a8 723600   		.ascii	"r6\000"
 752 02ab 08       		.byte	0x8
 753 02ac BC       		.byte	0xbc
 754 02ad 11       		.byte	0x11
 755 02ae 74020000 		.4byte	0x274
 756 02b2 08       		.byte	0x8
 757 02b3 09       		.uleb128 0x9
 758 02b4 723700   		.ascii	"r7\000"
 759 02b7 08       		.byte	0x8
 760 02b8 BD       		.byte	0xbd
 761 02b9 11       		.byte	0x11
 762 02ba 74020000 		.4byte	0x274
 763 02be 0C       		.byte	0xc
 764 02bf 09       		.uleb128 0x9
 765 02c0 723800   		.ascii	"r8\000"
 766 02c3 08       		.byte	0x8
 767 02c4 BE       		.byte	0xbe
 768 02c5 11       		.byte	0x11
 769 02c6 74020000 		.4byte	0x274
 770 02ca 10       		.byte	0x10
 771 02cb 09       		.uleb128 0x9
 772 02cc 723900   		.ascii	"r9\000"
 773 02cf 08       		.byte	0x8
 774 02d0 BF       		.byte	0xbf
 775 02d1 11       		.byte	0x11
 776 02d2 74020000 		.4byte	0x274
 777 02d6 14       		.byte	0x14
 778 02d7 09       		.uleb128 0x9
ARM GAS  /var/folders/l5/0x54b2c10074c8bt31ycjvl80000gp/T//cclaVARJ.s 			page 15


 779 02d8 72313000 		.ascii	"r10\000"
 780 02dc 08       		.byte	0x8
 781 02dd C0       		.byte	0xc0
 782 02de 11       		.byte	0x11
 783 02df 74020000 		.4byte	0x274
 784 02e3 18       		.byte	0x18
 785 02e4 09       		.uleb128 0x9
 786 02e5 72313100 		.ascii	"r11\000"
 787 02e9 08       		.byte	0x8
 788 02ea C1       		.byte	0xc1
 789 02eb 11       		.byte	0x11
 790 02ec 74020000 		.4byte	0x274
 791 02f0 1C       		.byte	0x1c
 792 02f1 09       		.uleb128 0x9
 793 02f2 6C7200   		.ascii	"lr\000"
 794 02f5 08       		.byte	0x8
 795 02f6 C2       		.byte	0xc2
 796 02f7 11       		.byte	0x11
 797 02f8 74020000 		.4byte	0x274
 798 02fc 20       		.byte	0x20
 799 02fd 00       		.byte	0
 800 02fe 07       		.uleb128 0x7
 801 02ff ED060000 		.4byte	.LASF45
 802 0303 04       		.byte	0x4
 803 0304 08       		.byte	0x8
 804 0305 CA       		.byte	0xca
 805 0306 08       		.byte	0x8
 806 0307 19030000 		.4byte	0x319
 807 030b 09       		.uleb128 0x9
 808 030c 72313300 		.ascii	"r13\000"
 809 0310 08       		.byte	0x8
 810 0311 CB       		.byte	0xcb
 811 0312 12       		.byte	0x12
 812 0313 19030000 		.4byte	0x319
 813 0317 00       		.byte	0
 814 0318 00       		.byte	0
 815 0319 0B       		.uleb128 0xb
 816 031a 04       		.byte	0x4
 817 031b 82020000 		.4byte	0x282
 818 031f 03       		.uleb128 0x3
 819 0320 4A030000 		.4byte	.LASF46
 820 0324 09       		.byte	0x9
 821 0325 4E       		.byte	0x4e
 822 0326 10       		.byte	0x10
 823 0327 2B030000 		.4byte	0x32b
 824 032b 0B       		.uleb128 0xb
 825 032c 04       		.byte	0x4
 826 032d 31030000 		.4byte	0x331
 827 0331 0D       		.uleb128 0xd
 828 0332 3C030000 		.4byte	0x33c
 829 0336 0E       		.uleb128 0xe
 830 0337 80020000 		.4byte	0x280
 831 033b 00       		.byte	0
 832 033c 03       		.uleb128 0x3
 833 033d 6C060000 		.4byte	.LASF47
 834 0341 09       		.byte	0x9
 835 0342 53       		.byte	0x53
ARM GAS  /var/folders/l5/0x54b2c10074c8bt31ycjvl80000gp/T//cclaVARJ.s 			page 16


 836 0343 1D       		.byte	0x1d
 837 0344 48030000 		.4byte	0x348
 838 0348 07       		.uleb128 0x7
 839 0349 6C060000 		.4byte	.LASF47
 840 034d 14       		.byte	0x14
 841 034e 09       		.byte	0x9
 842 034f 5A       		.byte	0x5a
 843 0350 08       		.byte	0x8
 844 0351 97030000 		.4byte	0x397
 845 0355 08       		.uleb128 0x8
 846 0356 F4020000 		.4byte	.LASF48
 847 035a 09       		.byte	0x9
 848 035b 5B       		.byte	0x5b
 849 035c 1A       		.byte	0x1a
 850 035d 97030000 		.4byte	0x397
 851 0361 00       		.byte	0
 852 0362 08       		.uleb128 0x8
 853 0363 C4010000 		.4byte	.LASF49
 854 0367 09       		.byte	0x9
 855 0368 5D       		.byte	0x5d
 856 0369 1A       		.byte	0x1a
 857 036a 97030000 		.4byte	0x397
 858 036e 04       		.byte	0x4
 859 036f 08       		.uleb128 0x8
 860 0370 88040000 		.4byte	.LASF50
 861 0374 09       		.byte	0x9
 862 0375 5F       		.byte	0x5f
 863 0376 19       		.byte	0x19
 864 0377 48010000 		.4byte	0x148
 865 037b 08       		.byte	0x8
 866 037c 08       		.uleb128 0x8
 867 037d B0040000 		.4byte	.LASF51
 868 0381 09       		.byte	0x9
 869 0382 60       		.byte	0x60
 870 0383 19       		.byte	0x19
 871 0384 1F030000 		.4byte	0x31f
 872 0388 0C       		.byte	0xc
 873 0389 08       		.uleb128 0x8
 874 038a 2F070000 		.4byte	.LASF52
 875 038e 09       		.byte	0x9
 876 038f 62       		.byte	0x62
 877 0390 1A       		.byte	0x1a
 878 0391 80020000 		.4byte	0x280
 879 0395 10       		.byte	0x10
 880 0396 00       		.byte	0
 881 0397 0B       		.uleb128 0xb
 882 0398 04       		.byte	0x4
 883 0399 3C030000 		.4byte	0x33c
 884 039d 0A       		.uleb128 0xa
 885 039e 10       		.byte	0x10
 886 039f 09       		.byte	0x9
 887 03a0 6C       		.byte	0x6c
 888 03a1 09       		.byte	0x9
 889 03a2 DB030000 		.4byte	0x3db
 890 03a6 08       		.uleb128 0x8
 891 03a7 F4020000 		.4byte	.LASF48
 892 03ab 09       		.byte	0x9
ARM GAS  /var/folders/l5/0x54b2c10074c8bt31ycjvl80000gp/T//cclaVARJ.s 			page 17


 893 03ac 6D       		.byte	0x6d
 894 03ad 1A       		.byte	0x1a
 895 03ae 97030000 		.4byte	0x397
 896 03b2 00       		.byte	0
 897 03b3 08       		.uleb128 0x8
 898 03b4 C4010000 		.4byte	.LASF49
 899 03b8 09       		.byte	0x9
 900 03b9 6F       		.byte	0x6f
 901 03ba 1A       		.byte	0x1a
 902 03bb 97030000 		.4byte	0x397
 903 03bf 04       		.byte	0x4
 904 03c0 08       		.uleb128 0x8
 905 03c1 88040000 		.4byte	.LASF50
 906 03c5 09       		.byte	0x9
 907 03c6 71       		.byte	0x71
 908 03c7 19       		.byte	0x19
 909 03c8 48010000 		.4byte	0x148
 910 03cc 08       		.byte	0x8
 911 03cd 08       		.uleb128 0x8
 912 03ce C5070000 		.4byte	.LASF53
 913 03d2 09       		.byte	0x9
 914 03d3 72       		.byte	0x72
 915 03d4 19       		.byte	0x19
 916 03d5 54010000 		.4byte	0x154
 917 03d9 0C       		.byte	0xc
 918 03da 00       		.byte	0
 919 03db 03       		.uleb128 0x3
 920 03dc CE040000 		.4byte	.LASF54
 921 03e0 09       		.byte	0x9
 922 03e1 73       		.byte	0x73
 923 03e2 03       		.byte	0x3
 924 03e3 9D030000 		.4byte	0x39d
 925 03e7 0F       		.uleb128 0xf
 926 03e8 24000000 		.4byte	.LASF60
 927 03ec 09       		.byte	0x9
 928 03ed D1       		.byte	0xd1
 929 03ee 0F       		.byte	0xf
 930 03ef DB030000 		.4byte	0x3db
 931 03f3 0A       		.uleb128 0xa
 932 03f4 14       		.byte	0x14
 933 03f5 0A       		.byte	0xa
 934 03f6 57       		.byte	0x57
 935 03f7 09       		.byte	0x9
 936 03f8 31040000 		.4byte	0x431
 937 03fc 08       		.uleb128 0x8
 938 03fd 64060000 		.4byte	.LASF55
 939 0401 0A       		.byte	0xa
 940 0402 58       		.byte	0x58
 941 0403 19       		.byte	0x19
 942 0404 39020000 		.4byte	0x239
 943 0408 00       		.byte	0
 944 0409 08       		.uleb128 0x8
 945 040a DE050000 		.4byte	.LASF56
 946 040e 0A       		.byte	0xa
 947 040f 59       		.byte	0x59
 948 0410 19       		.byte	0x19
 949 0411 18010000 		.4byte	0x118
ARM GAS  /var/folders/l5/0x54b2c10074c8bt31ycjvl80000gp/T//cclaVARJ.s 			page 18


 950 0415 08       		.byte	0x8
 951 0416 08       		.uleb128 0x8
 952 0417 E5040000 		.4byte	.LASF57
 953 041b 0A       		.byte	0xa
 954 041c 5B       		.byte	0x5b
 955 041d 19       		.byte	0x19
 956 041e FE020000 		.4byte	0x2fe
 957 0422 0C       		.byte	0xc
 958 0423 08       		.uleb128 0x8
 959 0424 00050000 		.4byte	.LASF58
 960 0428 0A       		.byte	0xa
 961 0429 62       		.byte	0x62
 962 042a 1A       		.byte	0x1a
 963 042b 33020000 		.4byte	0x233
 964 042f 10       		.byte	0x10
 965 0430 00       		.byte	0
 966 0431 03       		.uleb128 0x3
 967 0432 71070000 		.4byte	.LASF59
 968 0436 0A       		.byte	0xa
 969 0437 64       		.byte	0x64
 970 0438 03       		.byte	0x3
 971 0439 F3030000 		.4byte	0x3f3
 972 043d 0F       		.uleb128 0xf
 973 043e 84070000 		.4byte	.LASF61
 974 0442 0A       		.byte	0xa
 975 0443 68       		.byte	0x68
 976 0444 12       		.byte	0x12
 977 0445 31040000 		.4byte	0x431
 978 0449 07       		.uleb128 0x7
 979 044a 3F040000 		.4byte	.LASF62
 980 044e 10       		.byte	0x10
 981 044f 0B       		.byte	0xb
 982 0450 25       		.byte	0x25
 983 0451 10       		.byte	0x10
 984 0452 7E040000 		.4byte	0x47e
 985 0456 08       		.uleb128 0x8
 986 0457 FF000000 		.4byte	.LASF63
 987 045b 0B       		.byte	0xb
 988 045c 26       		.byte	0x26
 989 045d 19       		.byte	0x19
 990 045e 39020000 		.4byte	0x239
 991 0462 00       		.byte	0
 992 0463 08       		.uleb128 0x8
 993 0464 E1070000 		.4byte	.LASF64
 994 0468 0B       		.byte	0xb
 995 0469 28       		.byte	0x28
 996 046a 1A       		.byte	0x1a
 997 046b 33020000 		.4byte	0x233
 998 046f 08       		.byte	0x8
 999 0470 08       		.uleb128 0x8
 1000 0471 B3060000 		.4byte	.LASF65
 1001 0475 0B       		.byte	0xb
 1002 0476 2A       		.byte	0x2a
 1003 0477 1A       		.byte	0x1a
 1004 0478 7E040000 		.4byte	0x47e
 1005 047c 0C       		.byte	0xc
 1006 047d 00       		.byte	0
ARM GAS  /var/folders/l5/0x54b2c10074c8bt31ycjvl80000gp/T//cclaVARJ.s 			page 19


 1007 047e 0B       		.uleb128 0xb
 1008 047f 04       		.byte	0x4
 1009 0480 49040000 		.4byte	0x449
 1010 0484 03       		.uleb128 0x3
 1011 0485 3F040000 		.4byte	.LASF62
 1012 0489 0B       		.byte	0xb
 1013 048a 2C       		.byte	0x2c
 1014 048b 03       		.byte	0x3
 1015 048c 49040000 		.4byte	0x449
 1016 0490 03       		.uleb128 0x3
 1017 0491 B0070000 		.4byte	.LASF66
 1018 0495 0C       		.byte	0xc
 1019 0496 25       		.byte	0x25
 1020 0497 1E       		.byte	0x1e
 1021 0498 9C040000 		.4byte	0x49c
 1022 049c 07       		.uleb128 0x7
 1023 049d B0070000 		.4byte	.LASF66
 1024 04a1 10       		.byte	0x10
 1025 04a2 0C       		.byte	0xc
 1026 04a3 2A       		.byte	0x2a
 1027 04a4 08       		.byte	0x8
 1028 04a5 DE040000 		.4byte	0x4de
 1029 04a9 08       		.uleb128 0x8
 1030 04aa F6030000 		.4byte	.LASF67
 1031 04ae 0C       		.byte	0xc
 1032 04af 2B       		.byte	0x2b
 1033 04b0 1A       		.byte	0x1a
 1034 04b1 DE040000 		.4byte	0x4de
 1035 04b5 00       		.byte	0
 1036 04b6 08       		.uleb128 0x8
 1037 04b7 A3050000 		.4byte	.LASF68
 1038 04bb 0C       		.byte	0xc
 1039 04bc 2E       		.byte	0x2e
 1040 04bd 1A       		.byte	0x1a
 1041 04be 33020000 		.4byte	0x233
 1042 04c2 04       		.byte	0x4
 1043 04c3 08       		.uleb128 0x8
 1044 04c4 0A050000 		.4byte	.LASF69
 1045 04c8 0C       		.byte	0xc
 1046 04c9 30       		.byte	0x30
 1047 04ca 19       		.byte	0x19
 1048 04cb 30010000 		.4byte	0x130
 1049 04cf 08       		.byte	0x8
 1050 04d0 08       		.uleb128 0x8
 1051 04d1 AF050000 		.4byte	.LASF70
 1052 04d5 0C       		.byte	0xc
 1053 04d6 33       		.byte	0x33
 1054 04d7 19       		.byte	0x19
 1055 04d8 3C010000 		.4byte	0x13c
 1056 04dc 0C       		.byte	0xc
 1057 04dd 00       		.byte	0
 1058 04de 0B       		.uleb128 0xb
 1059 04df 04       		.byte	0x4
 1060 04e0 90040000 		.4byte	0x490
 1061 04e4 07       		.uleb128 0x7
 1062 04e5 BD020000 		.4byte	.LASF71
 1063 04e9 04       		.byte	0x4
ARM GAS  /var/folders/l5/0x54b2c10074c8bt31ycjvl80000gp/T//cclaVARJ.s 			page 20


 1064 04ea 0C       		.byte	0xc
 1065 04eb 3A       		.byte	0x3a
 1066 04ec 10       		.byte	0x10
 1067 04ed FF040000 		.4byte	0x4ff
 1068 04f1 08       		.uleb128 0x8
 1069 04f2 62070000 		.4byte	.LASF72
 1070 04f6 0C       		.byte	0xc
 1071 04f7 3B       		.byte	0x3b
 1072 04f8 1A       		.byte	0x1a
 1073 04f9 DE040000 		.4byte	0x4de
 1074 04fd 00       		.byte	0
 1075 04fe 00       		.byte	0
 1076 04ff 03       		.uleb128 0x3
 1077 0500 BD020000 		.4byte	.LASF71
 1078 0504 0C       		.byte	0xc
 1079 0505 3E       		.byte	0x3e
 1080 0506 03       		.byte	0x3
 1081 0507 E4040000 		.4byte	0x4e4
 1082 050b 10       		.uleb128 0x10
 1083 050c 04       		.byte	0x4
 1084 050d 07       		.byte	0x7
 1085 050e 8F       		.byte	0x8f
 1086 050f 03       		.byte	0x3
 1087 0510 45050000 		.4byte	0x545
 1088 0514 11       		.uleb128 0x11
 1089 0515 07000000 		.4byte	.LASF73
 1090 0519 07       		.byte	0x7
 1091 051a 96       		.byte	0x96
 1092 051b 19       		.byte	0x19
 1093 051c 24010000 		.4byte	0x124
 1094 0520 11       		.uleb128 0x11
 1095 0521 7C000000 		.4byte	.LASF74
 1096 0525 07       		.byte	0x7
 1097 0526 9D       		.byte	0x9d
 1098 0527 19       		.byte	0x19
 1099 0528 24010000 		.4byte	0x124
 1100 052c 11       		.uleb128 0x11
 1101 052d BE070000 		.4byte	.LASF75
 1102 0531 07       		.byte	0x7
 1103 0532 A4       		.byte	0xa4
 1104 0533 1A       		.byte	0x1a
 1105 0534 80020000 		.4byte	0x280
 1106 0538 11       		.uleb128 0x11
 1107 0539 EE050000 		.4byte	.LASF76
 1108 053d 07       		.byte	0x7
 1109 053e AB       		.byte	0xab
 1110 053f 19       		.byte	0x19
 1111 0540 30010000 		.4byte	0x130
 1112 0544 00       		.byte	0
 1113 0545 0B       		.uleb128 0xb
 1114 0546 04       		.byte	0x4
 1115 0547 84040000 		.4byte	0x484
 1116 054b 0B       		.uleb128 0xb
 1117 054c 04       		.byte	0x4
 1118 054d 51050000 		.4byte	0x551
 1119 0551 12       		.uleb128 0x12
 1120 0552 24010000 		.4byte	0x124
ARM GAS  /var/folders/l5/0x54b2c10074c8bt31ycjvl80000gp/T//cclaVARJ.s 			page 21


 1121 0556 60050000 		.4byte	0x560
 1122 055a 0E       		.uleb128 0xe
 1123 055b 80020000 		.4byte	0x280
 1124 055f 00       		.byte	0
 1125 0560 03       		.uleb128 0x3
 1126 0561 45040000 		.4byte	.LASF77
 1127 0565 0D       		.byte	0xd
 1128 0566 30       		.byte	0x30
 1129 0567 1D       		.byte	0x1d
 1130 0568 6C050000 		.4byte	0x56c
 1131 056c 07       		.uleb128 0x7
 1132 056d 45040000 		.4byte	.LASF77
 1133 0571 24       		.byte	0x24
 1134 0572 0D       		.byte	0xd
 1135 0573 3E       		.byte	0x3e
 1136 0574 08       		.byte	0x8
 1137 0575 E2050000 		.4byte	0x5e2
 1138 0579 08       		.uleb128 0x8
 1139 057a C9000000 		.4byte	.LASF78
 1140 057e 0D       		.byte	0xd
 1141 057f 3F       		.byte	0x3f
 1142 0580 19       		.byte	0x19
 1143 0581 39020000 		.4byte	0x239
 1144 0585 00       		.byte	0
 1145 0586 08       		.uleb128 0x8
 1146 0587 A6040000 		.4byte	.LASF79
 1147 058b 0D       		.byte	0xd
 1148 058c 40       		.byte	0x40
 1149 058d 19       		.byte	0x19
 1150 058e 48000000 		.4byte	0x48
 1151 0592 08       		.byte	0x8
 1152 0593 08       		.uleb128 0x8
 1153 0594 5A010000 		.4byte	.LASF80
 1154 0598 0D       		.byte	0xd
 1155 0599 41       		.byte	0x41
 1156 059a 1A       		.byte	0x1a
 1157 059b 05060000 		.4byte	0x605
 1158 059f 0C       		.byte	0xc
 1159 05a0 08       		.uleb128 0x8
 1160 05a1 5C070000 		.4byte	.LASF81
 1161 05a5 0D       		.byte	0xd
 1162 05a6 42       		.byte	0x42
 1163 05a7 1A       		.byte	0x1a
 1164 05a8 05060000 		.4byte	0x605
 1165 05ac 10       		.byte	0x10
 1166 05ad 08       		.uleb128 0x8
 1167 05ae DD040000 		.4byte	.LASF82
 1168 05b2 0D       		.byte	0xd
 1169 05b3 44       		.byte	0x44
 1170 05b4 1A       		.byte	0x1a
 1171 05b5 05060000 		.4byte	0x605
 1172 05b9 14       		.byte	0x14
 1173 05ba 08       		.uleb128 0x8
 1174 05bb 74050000 		.4byte	.LASF83
 1175 05bf 0D       		.byte	0xd
 1176 05c0 45       		.byte	0x45
 1177 05c1 1A       		.byte	0x1a
ARM GAS  /var/folders/l5/0x54b2c10074c8bt31ycjvl80000gp/T//cclaVARJ.s 			page 22


 1178 05c2 05060000 		.4byte	0x605
 1179 05c6 18       		.byte	0x18
 1180 05c7 08       		.uleb128 0x8
 1181 05c8 7B070000 		.4byte	.LASF84
 1182 05cc 0D       		.byte	0xd
 1183 05cd 46       		.byte	0x46
 1184 05ce 19       		.byte	0x19
 1185 05cf E2050000 		.4byte	0x5e2
 1186 05d3 1C       		.byte	0x1c
 1187 05d4 08       		.uleb128 0x8
 1188 05d5 D0070000 		.4byte	.LASF85
 1189 05d9 0D       		.byte	0xd
 1190 05da 47       		.byte	0x47
 1191 05db 1A       		.byte	0x1a
 1192 05dc 80020000 		.4byte	0x280
 1193 05e0 20       		.byte	0x20
 1194 05e1 00       		.byte	0
 1195 05e2 03       		.uleb128 0x3
 1196 05e3 4D050000 		.4byte	.LASF86
 1197 05e7 0D       		.byte	0xd
 1198 05e8 33       		.byte	0x33
 1199 05e9 10       		.byte	0x10
 1200 05ea EE050000 		.4byte	0x5ee
 1201 05ee 0B       		.uleb128 0xb
 1202 05ef 04       		.byte	0x4
 1203 05f0 F4050000 		.4byte	0x5f4
 1204 05f4 0D       		.uleb128 0xd
 1205 05f5 FF050000 		.4byte	0x5ff
 1206 05f9 0E       		.uleb128 0xe
 1207 05fa FF050000 		.4byte	0x5ff
 1208 05fe 00       		.byte	0
 1209 05ff 0B       		.uleb128 0xb
 1210 0600 04       		.byte	0x4
 1211 0601 60050000 		.4byte	0x560
 1212 0605 0B       		.uleb128 0xb
 1213 0606 04       		.byte	0x4
 1214 0607 AE000000 		.4byte	0xae
 1215 060b 03       		.uleb128 0x3
 1216 060c 34040000 		.4byte	.LASF87
 1217 0610 0D       		.byte	0xd
 1218 0611 7B       		.byte	0x7b
 1219 0612 16       		.byte	0x16
 1220 0613 60050000 		.4byte	0x560
 1221 0617 03       		.uleb128 0x3
 1222 0618 0E000000 		.4byte	.LASF88
 1223 061c 0D       		.byte	0xd
 1224 061d EE       		.byte	0xee
 1225 061e 16       		.byte	0x16
 1226 061f 60050000 		.4byte	0x560
 1227 0623 07       		.uleb128 0x7
 1228 0624 04060000 		.4byte	.LASF89
 1229 0628 10       		.byte	0x10
 1230 0629 0E       		.byte	0xe
 1231 062a 41       		.byte	0x41
 1232 062b 08       		.byte	0x8
 1233 062c 65060000 		.4byte	0x665
 1234 0630 08       		.uleb128 0x8
ARM GAS  /var/folders/l5/0x54b2c10074c8bt31ycjvl80000gp/T//cclaVARJ.s 			page 23


 1235 0631 77040000 		.4byte	.LASF90
 1236 0635 0E       		.byte	0xe
 1237 0636 42       		.byte	0x42
 1238 0637 03       		.byte	0x3
 1239 0638 89060000 		.4byte	0x689
 1240 063c 00       		.byte	0
 1241 063d 08       		.uleb128 0x8
 1242 063e 94060000 		.4byte	.LASF91
 1243 0642 0E       		.byte	0xe
 1244 0643 42       		.byte	0x42
 1245 0644 03       		.byte	0x3
 1246 0645 A8060000 		.4byte	0x6a8
 1247 0649 04       		.byte	0x4
 1248 064a 09       		.uleb128 0x9
 1249 064b 70757400 		.ascii	"put\000"
 1250 064f 0E       		.byte	0xe
 1251 0650 42       		.byte	0x42
 1252 0651 03       		.byte	0x3
 1253 0652 C2060000 		.4byte	0x6c2
 1254 0656 08       		.byte	0x8
 1255 0657 09       		.uleb128 0x9
 1256 0658 67657400 		.ascii	"get\000"
 1257 065c 0E       		.byte	0xe
 1258 065d 42       		.byte	0x42
 1259 065e 03       		.byte	0x3
 1260 065f 4B050000 		.4byte	0x54b
 1261 0663 0C       		.byte	0xc
 1262 0664 00       		.byte	0
 1263 0665 04       		.uleb128 0x4
 1264 0666 23060000 		.4byte	0x623
 1265 066a 12       		.uleb128 0x12
 1266 066b 48000000 		.4byte	0x48
 1267 066f 83060000 		.4byte	0x683
 1268 0673 0E       		.uleb128 0xe
 1269 0674 80020000 		.4byte	0x280
 1270 0678 0E       		.uleb128 0xe
 1271 0679 83060000 		.4byte	0x683
 1272 067d 0E       		.uleb128 0xe
 1273 067e 48000000 		.4byte	0x48
 1274 0682 00       		.byte	0
 1275 0683 0B       		.uleb128 0xb
 1276 0684 04       		.byte	0x4
 1277 0685 BA000000 		.4byte	0xba
 1278 0689 0B       		.uleb128 0xb
 1279 068a 04       		.byte	0x4
 1280 068b 6A060000 		.4byte	0x66a
 1281 068f 12       		.uleb128 0x12
 1282 0690 48000000 		.4byte	0x48
 1283 0694 A8060000 		.4byte	0x6a8
 1284 0698 0E       		.uleb128 0xe
 1285 0699 80020000 		.4byte	0x280
 1286 069d 0E       		.uleb128 0xe
 1287 069e 05060000 		.4byte	0x605
 1288 06a2 0E       		.uleb128 0xe
 1289 06a3 48000000 		.4byte	0x48
 1290 06a7 00       		.byte	0
 1291 06a8 0B       		.uleb128 0xb
ARM GAS  /var/folders/l5/0x54b2c10074c8bt31ycjvl80000gp/T//cclaVARJ.s 			page 24


 1292 06a9 04       		.byte	0x4
 1293 06aa 8F060000 		.4byte	0x68f
 1294 06ae 12       		.uleb128 0x12
 1295 06af 24010000 		.4byte	0x124
 1296 06b3 C2060000 		.4byte	0x6c2
 1297 06b7 0E       		.uleb128 0xe
 1298 06b8 80020000 		.4byte	0x280
 1299 06bc 0E       		.uleb128 0xe
 1300 06bd AE000000 		.4byte	0xae
 1301 06c1 00       		.byte	0
 1302 06c2 0B       		.uleb128 0xb
 1303 06c3 04       		.byte	0x4
 1304 06c4 AE060000 		.4byte	0x6ae
 1305 06c8 0A       		.uleb128 0xa
 1306 06c9 04       		.byte	0x4
 1307 06ca 0E       		.byte	0xe
 1308 06cb 4A       		.byte	0x4a
 1309 06cc 09       		.byte	0x9
 1310 06cd DF060000 		.4byte	0x6df
 1311 06d1 09       		.uleb128 0x9
 1312 06d2 766D7400 		.ascii	"vmt\000"
 1313 06d6 0E       		.byte	0xe
 1314 06d7 4C       		.byte	0x4c
 1315 06d8 29       		.byte	0x29
 1316 06d9 DF060000 		.4byte	0x6df
 1317 06dd 00       		.byte	0
 1318 06de 00       		.byte	0
 1319 06df 0B       		.uleb128 0xb
 1320 06e0 04       		.byte	0x4
 1321 06e1 65060000 		.4byte	0x665
 1322 06e5 03       		.uleb128 0x3
 1323 06e6 C9020000 		.4byte	.LASF92
 1324 06ea 0E       		.byte	0xe
 1325 06eb 4E       		.byte	0x4e
 1326 06ec 03       		.byte	0x3
 1327 06ed C8060000 		.4byte	0x6c8
 1328 06f1 13       		.uleb128 0x13
 1329 06f2 68020000 		.4byte	0x268
 1330 06f6 01070000 		.4byte	0x701
 1331 06fa 14       		.uleb128 0x14
 1332 06fb 54000000 		.4byte	0x54
 1333 06ff 1F       		.byte	0x1f
 1334 0700 00       		.byte	0
 1335 0701 0F       		.uleb128 0xf
 1336 0702 98010000 		.4byte	.LASF93
 1337 0706 0F       		.byte	0xf
 1338 0707 82       		.byte	0x82
 1339 0708 08       		.byte	0x8
 1340 0709 F1060000 		.4byte	0x6f1
 1341 070d 07       		.uleb128 0x7
 1342 070e 2B000000 		.4byte	.LASF94
 1343 0712 20       		.byte	0x20
 1344 0713 10       		.byte	0x10
 1345 0714 FD       		.byte	0xfd
 1346 0715 08       		.byte	0x8
 1347 0716 89070000 		.4byte	0x789
 1348 071a 08       		.uleb128 0x8
ARM GAS  /var/folders/l5/0x54b2c10074c8bt31ycjvl80000gp/T//cclaVARJ.s 			page 25


 1349 071b A8010000 		.4byte	.LASF95
 1350 071f 10       		.byte	0x10
 1351 0720 FE       		.byte	0xfe
 1352 0721 19       		.byte	0x19
 1353 0722 EF000000 		.4byte	0xef
 1354 0726 00       		.byte	0
 1355 0727 08       		.uleb128 0x8
 1356 0728 6A070000 		.4byte	.LASF96
 1357 072c 10       		.byte	0x10
 1358 072d FF       		.byte	0xff
 1359 072e 19       		.byte	0x19
 1360 072f EF000000 		.4byte	0xef
 1361 0733 04       		.byte	0x4
 1362 0734 15       		.uleb128 0x15
 1363 0735 8D010000 		.4byte	.LASF97
 1364 0739 10       		.byte	0x10
 1365 073a 0001     		.2byte	0x100
 1366 073c 19       		.byte	0x19
 1367 073d EF000000 		.4byte	0xef
 1368 0741 08       		.byte	0x8
 1369 0742 15       		.uleb128 0x15
 1370 0743 CC010000 		.4byte	.LASF98
 1371 0747 10       		.byte	0x10
 1372 0748 0101     		.2byte	0x101
 1373 074a 19       		.byte	0x19
 1374 074b EF000000 		.4byte	0xef
 1375 074f 0C       		.byte	0xc
 1376 0750 15       		.uleb128 0x15
 1377 0751 93000000 		.4byte	.LASF99
 1378 0755 10       		.byte	0x10
 1379 0756 0201     		.2byte	0x102
 1380 0758 19       		.byte	0x19
 1381 0759 EF000000 		.4byte	0xef
 1382 075d 10       		.byte	0x10
 1383 075e 15       		.uleb128 0x15
 1384 075f 99040000 		.4byte	.LASF100
 1385 0763 10       		.byte	0x10
 1386 0764 0301     		.2byte	0x103
 1387 0766 19       		.byte	0x19
 1388 0767 EF000000 		.4byte	0xef
 1389 076b 14       		.byte	0x14
 1390 076c 15       		.uleb128 0x15
 1391 076d 50010000 		.4byte	.LASF101
 1392 0771 10       		.byte	0x10
 1393 0772 0401     		.2byte	0x104
 1394 0774 19       		.byte	0x19
 1395 0775 EF000000 		.4byte	0xef
 1396 0779 18       		.byte	0x18
 1397 077a 15       		.uleb128 0x15
 1398 077b 1B080000 		.4byte	.LASF102
 1399 077f 10       		.byte	0x10
 1400 0780 0501     		.2byte	0x105
 1401 0782 19       		.byte	0x19
 1402 0783 EF000000 		.4byte	0xef
 1403 0787 1C       		.byte	0x1c
 1404 0788 00       		.byte	0
 1405 0789 16       		.uleb128 0x16
ARM GAS  /var/folders/l5/0x54b2c10074c8bt31ycjvl80000gp/T//cclaVARJ.s 			page 26


 1406 078a 2B000000 		.4byte	.LASF94
 1407 078e 10       		.byte	0x10
 1408 078f 0801     		.2byte	0x108
 1409 0791 1C       		.byte	0x1c
 1410 0792 0D070000 		.4byte	0x70d
 1411 0796 12       		.uleb128 0x12
 1412 0797 24010000 		.4byte	0x124
 1413 079b AF070000 		.4byte	0x7af
 1414 079f 0E       		.uleb128 0xe
 1415 07a0 80020000 		.4byte	0x280
 1416 07a4 0E       		.uleb128 0xe
 1417 07a5 AE000000 		.4byte	0xae
 1418 07a9 0E       		.uleb128 0xe
 1419 07aa 48010000 		.4byte	0x148
 1420 07ae 00       		.byte	0
 1421 07af 0B       		.uleb128 0xb
 1422 07b0 04       		.byte	0x4
 1423 07b1 96070000 		.4byte	0x796
 1424 07b5 12       		.uleb128 0x12
 1425 07b6 24010000 		.4byte	0x124
 1426 07ba C9070000 		.4byte	0x7c9
 1427 07be 0E       		.uleb128 0xe
 1428 07bf 80020000 		.4byte	0x280
 1429 07c3 0E       		.uleb128 0xe
 1430 07c4 48010000 		.4byte	0x148
 1431 07c8 00       		.byte	0
 1432 07c9 0B       		.uleb128 0xb
 1433 07ca 04       		.byte	0x4
 1434 07cb B5070000 		.4byte	0x7b5
 1435 07cf 12       		.uleb128 0x12
 1436 07d0 48000000 		.4byte	0x48
 1437 07d4 ED070000 		.4byte	0x7ed
 1438 07d8 0E       		.uleb128 0xe
 1439 07d9 80020000 		.4byte	0x280
 1440 07dd 0E       		.uleb128 0xe
 1441 07de 83060000 		.4byte	0x683
 1442 07e2 0E       		.uleb128 0xe
 1443 07e3 48000000 		.4byte	0x48
 1444 07e7 0E       		.uleb128 0xe
 1445 07e8 48010000 		.4byte	0x148
 1446 07ec 00       		.byte	0
 1447 07ed 0B       		.uleb128 0xb
 1448 07ee 04       		.byte	0x4
 1449 07ef CF070000 		.4byte	0x7cf
 1450 07f3 12       		.uleb128 0x12
 1451 07f4 48000000 		.4byte	0x48
 1452 07f8 11080000 		.4byte	0x811
 1453 07fc 0E       		.uleb128 0xe
 1454 07fd 80020000 		.4byte	0x280
 1455 0801 0E       		.uleb128 0xe
 1456 0802 05060000 		.4byte	0x605
 1457 0806 0E       		.uleb128 0xe
 1458 0807 48000000 		.4byte	0x48
 1459 080b 0E       		.uleb128 0xe
 1460 080c 48010000 		.4byte	0x148
 1461 0810 00       		.byte	0
 1462 0811 0B       		.uleb128 0xb
ARM GAS  /var/folders/l5/0x54b2c10074c8bt31ycjvl80000gp/T//cclaVARJ.s 			page 27


 1463 0812 04       		.byte	0x4
 1464 0813 F3070000 		.4byte	0x7f3
 1465 0817 0A       		.uleb128 0xa
 1466 0818 18       		.byte	0x18
 1467 0819 11       		.byte	0x11
 1468 081a 2A       		.byte	0x2a
 1469 081b 09       		.byte	0x9
 1470 081c 6F080000 		.4byte	0x86f
 1471 0820 08       		.uleb128 0x8
 1472 0821 92070000 		.4byte	.LASF103
 1473 0825 11       		.byte	0x11
 1474 0826 2F       		.byte	0x2f
 1475 0827 15       		.byte	0x15
 1476 0828 D7000000 		.4byte	0xd7
 1477 082c 00       		.byte	0
 1478 082d 08       		.uleb128 0x8
 1479 082e 1D050000 		.4byte	.LASF104
 1480 0832 11       		.byte	0x11
 1481 0833 31       		.byte	0x31
 1482 0834 16       		.byte	0x16
 1483 0835 6F080000 		.4byte	0x86f
 1484 0839 04       		.byte	0x4
 1485 083a 08       		.uleb128 0x8
 1486 083b 8D030000 		.4byte	.LASF105
 1487 083f 11       		.byte	0x11
 1488 0840 32       		.byte	0x32
 1489 0841 16       		.byte	0x16
 1490 0842 6F080000 		.4byte	0x86f
 1491 0846 08       		.byte	0x8
 1492 0847 08       		.uleb128 0x8
 1493 0848 7D040000 		.4byte	.LASF106
 1494 084c 11       		.byte	0x11
 1495 084d 33       		.byte	0x33
 1496 084e 16       		.byte	0x16
 1497 084f 6F080000 		.4byte	0x86f
 1498 0853 0C       		.byte	0xc
 1499 0854 08       		.uleb128 0x8
 1500 0855 23050000 		.4byte	.LASF107
 1501 0859 11       		.byte	0x11
 1502 085a 34       		.byte	0x34
 1503 085b 16       		.byte	0x16
 1504 085c 6F080000 		.4byte	0x86f
 1505 0860 10       		.byte	0x10
 1506 0861 08       		.uleb128 0x8
 1507 0862 E5050000 		.4byte	.LASF108
 1508 0866 11       		.byte	0x11
 1509 0867 35       		.byte	0x35
 1510 0868 10       		.byte	0x10
 1511 0869 2C000000 		.4byte	0x2c
 1512 086d 14       		.byte	0x14
 1513 086e 00       		.byte	0
 1514 086f 0B       		.uleb128 0xb
 1515 0870 04       		.byte	0x4
 1516 0871 E3000000 		.4byte	0xe3
 1517 0875 03       		.uleb128 0x3
 1518 0876 81030000 		.4byte	.LASF109
 1519 087a 11       		.byte	0x11
ARM GAS  /var/folders/l5/0x54b2c10074c8bt31ycjvl80000gp/T//cclaVARJ.s 			page 28


 1520 087b 37       		.byte	0x37
 1521 087c 03       		.byte	0x3
 1522 087d 17080000 		.4byte	0x817
 1523 0881 17       		.uleb128 0x17
 1524 0882 00       		.byte	0
 1525 0883 11       		.byte	0x11
 1526 0884 43       		.byte	0x43
 1527 0885 09       		.byte	0x9
 1528 0886 03       		.uleb128 0x3
 1529 0887 D7070000 		.4byte	.LASF110
 1530 088b 11       		.byte	0x11
 1531 088c 45       		.byte	0x45
 1532 088d 03       		.byte	0x3
 1533 088e 81080000 		.4byte	0x881
 1534 0892 04       		.uleb128 0x4
 1535 0893 86080000 		.4byte	0x886
 1536 0897 0F       		.uleb128 0xf
 1537 0898 F8040000 		.4byte	.LASF111
 1538 089c 11       		.byte	0x11
 1539 089d 6D       		.byte	0x6d
 1540 089e 14       		.byte	0x14
 1541 089f 75080000 		.4byte	0x875
 1542 08a3 0F       		.uleb128 0xf
 1543 08a4 FC050000 		.4byte	.LASF112
 1544 08a8 11       		.byte	0x11
 1545 08a9 6E       		.byte	0x6e
 1546 08aa 14       		.byte	0x14
 1547 08ab 75080000 		.4byte	0x875
 1548 08af 0F       		.uleb128 0xf
 1549 08b0 F0070000 		.4byte	.LASF113
 1550 08b4 11       		.byte	0x11
 1551 08b5 75       		.byte	0x75
 1552 08b6 18       		.byte	0x18
 1553 08b7 92080000 		.4byte	0x892
 1554 08bb 18       		.uleb128 0x18
 1555 08bc 07       		.byte	0x7
 1556 08bd 04       		.byte	0x4
 1557 08be 2C000000 		.4byte	0x2c
 1558 08c2 12       		.byte	0x12
 1559 08c3 54       		.byte	0x54
 1560 08c4 0E       		.byte	0xe
 1561 08c5 EE080000 		.4byte	0x8ee
 1562 08c9 19       		.uleb128 0x19
 1563 08ca 11010000 		.4byte	.LASF114
 1564 08ce 00       		.byte	0
 1565 08cf 19       		.uleb128 0x19
 1566 08d0 90040000 		.4byte	.LASF115
 1567 08d4 01       		.byte	0x1
 1568 08d5 19       		.uleb128 0x19
 1569 08d6 D9060000 		.4byte	.LASF116
 1570 08da 02       		.byte	0x2
 1571 08db 19       		.uleb128 0x19
 1572 08dc 73010000 		.4byte	.LASF117
 1573 08e0 03       		.byte	0x3
 1574 08e1 19       		.uleb128 0x19
 1575 08e2 86060000 		.4byte	.LASF118
 1576 08e6 04       		.byte	0x4
ARM GAS  /var/folders/l5/0x54b2c10074c8bt31ycjvl80000gp/T//cclaVARJ.s 			page 29


 1577 08e7 19       		.uleb128 0x19
 1578 08e8 2B060000 		.4byte	.LASF119
 1579 08ec 05       		.byte	0x5
 1580 08ed 00       		.byte	0
 1581 08ee 03       		.uleb128 0x3
 1582 08ef 42050000 		.4byte	.LASF120
 1583 08f3 12       		.byte	0x12
 1584 08f4 5B       		.byte	0x5b
 1585 08f5 03       		.byte	0x3
 1586 08f6 BB080000 		.4byte	0x8bb
 1587 08fa 03       		.uleb128 0x3
 1588 08fb E3060000 		.4byte	.LASF121
 1589 08ff 13       		.byte	0x13
 1590 0900 38       		.byte	0x38
 1591 0901 1A       		.byte	0x1a
 1592 0902 06090000 		.4byte	0x906
 1593 0906 07       		.uleb128 0x7
 1594 0907 E3060000 		.4byte	.LASF121
 1595 090b 40       		.byte	0x40
 1596 090c 13       		.byte	0x13
 1597 090d 62       		.byte	0x62
 1598 090e 08       		.byte	0x8
 1599 090f BD090000 		.4byte	0x9bd
 1600 0913 08       		.uleb128 0x8
 1601 0914 26010000 		.4byte	.LASF122
 1602 0918 13       		.byte	0x13
 1603 0919 64       		.byte	0x64
 1604 091a 1D       		.byte	0x1d
 1605 091b EE080000 		.4byte	0x8ee
 1606 091f 00       		.byte	0
 1607 0920 08       		.uleb128 0x8
 1608 0921 99060000 		.4byte	.LASF123
 1609 0925 13       		.byte	0x13
 1610 0926 66       		.byte	0x66
 1611 0927 1E       		.byte	0x1e
 1612 0928 FD090000 		.4byte	0x9fd
 1613 092c 04       		.byte	0x4
 1614 092d 08       		.uleb128 0x8
 1615 092e 12030000 		.4byte	.LASF124
 1616 0932 13       		.byte	0x13
 1617 0933 68       		.byte	0x68
 1618 0934 1D       		.byte	0x1d
 1619 0935 BD090000 		.4byte	0x9bd
 1620 0939 08       		.byte	0x8
 1621 093a 08       		.uleb128 0x8
 1622 093b C2000000 		.4byte	.LASF125
 1623 093f 13       		.byte	0x13
 1624 0940 6A       		.byte	0x6a
 1625 0941 1E       		.byte	0x1e
 1626 0942 030A0000 		.4byte	0xa03
 1627 0946 0C       		.byte	0xc
 1628 0947 08       		.uleb128 0x8
 1629 0948 87050000 		.4byte	.LASF126
 1630 094c 13       		.byte	0x13
 1631 094d 6D       		.byte	0x6d
 1632 094e 1D       		.byte	0x1d
 1633 094f 84040000 		.4byte	0x484
ARM GAS  /var/folders/l5/0x54b2c10074c8bt31ycjvl80000gp/T//cclaVARJ.s 			page 30


 1634 0953 10       		.byte	0x10
 1635 0954 08       		.uleb128 0x8
 1636 0955 49010000 		.4byte	.LASF127
 1637 0959 13       		.byte	0x13
 1638 095a 77       		.byte	0x77
 1639 095b 1E       		.byte	0x1e
 1640 095c 33020000 		.4byte	0x233
 1641 0960 20       		.byte	0x20
 1642 0961 08       		.uleb128 0x8
 1643 0962 6E000000 		.4byte	.LASF128
 1644 0966 13       		.byte	0x13
 1645 0967 7B       		.byte	0x7b
 1646 0968 1D       		.byte	0x1d
 1647 0969 C9090000 		.4byte	0x9c9
 1648 096d 24       		.byte	0x24
 1649 096e 08       		.uleb128 0x8
 1650 096f FC020000 		.4byte	.LASF129
 1651 0973 13       		.byte	0x13
 1652 0974 7F       		.byte	0x7f
 1653 0975 1E       		.byte	0x1e
 1654 0976 83060000 		.4byte	0x683
 1655 097a 28       		.byte	0x28
 1656 097b 08       		.uleb128 0x8
 1657 097c 13080000 		.4byte	.LASF130
 1658 0980 13       		.byte	0x13
 1659 0981 83       		.byte	0x83
 1660 0982 1D       		.byte	0x1d
 1661 0983 48000000 		.4byte	0x48
 1662 0987 2C       		.byte	0x2c
 1663 0988 08       		.uleb128 0x8
 1664 0989 56070000 		.4byte	.LASF131
 1665 098d 13       		.byte	0x13
 1666 098e 87       		.byte	0x87
 1667 098f 1D       		.byte	0x1d
 1668 0990 48000000 		.4byte	0x48
 1669 0994 30       		.byte	0x30
 1670 0995 08       		.uleb128 0x8
 1671 0996 37000000 		.4byte	.LASF132
 1672 099a 13       		.byte	0x13
 1673 099b 8B       		.byte	0x8b
 1674 099c 1E       		.byte	0x1e
 1675 099d 05060000 		.4byte	0x605
 1676 09a1 34       		.byte	0x34
 1677 09a2 08       		.uleb128 0x8
 1678 09a3 D5040000 		.4byte	.LASF133
 1679 09a7 13       		.byte	0x13
 1680 09a8 8F       		.byte	0x8f
 1681 09a9 1D       		.byte	0x1d
 1682 09aa 48000000 		.4byte	0x48
 1683 09ae 38       		.byte	0x38
 1684 09af 08       		.uleb128 0x8
 1685 09b0 3C050000 		.4byte	.LASF134
 1686 09b4 13       		.byte	0x13
 1687 09b5 93       		.byte	0x93
 1688 09b6 1D       		.byte	0x1d
 1689 09b7 48000000 		.4byte	0x48
 1690 09bb 3C       		.byte	0x3c
ARM GAS  /var/folders/l5/0x54b2c10074c8bt31ycjvl80000gp/T//cclaVARJ.s 			page 31


 1691 09bc 00       		.byte	0
 1692 09bd 03       		.uleb128 0x3
 1693 09be 7C050000 		.4byte	.LASF135
 1694 09c2 13       		.byte	0x13
 1695 09c3 42       		.byte	0x42
 1696 09c4 12       		.byte	0x12
 1697 09c5 D7000000 		.4byte	0xd7
 1698 09c9 03       		.uleb128 0x3
 1699 09ca 1C010000 		.4byte	.LASF136
 1700 09ce 13       		.byte	0x13
 1701 09cf 48       		.byte	0x48
 1702 09d0 12       		.byte	0x12
 1703 09d1 BF000000 		.4byte	0xbf
 1704 09d5 0A       		.uleb128 0xa
 1705 09d6 04       		.byte	0x4
 1706 09d7 13       		.byte	0x13
 1707 09d8 57       		.byte	0x57
 1708 09d9 09       		.byte	0x9
 1709 09da EC090000 		.4byte	0x9ec
 1710 09de 08       		.uleb128 0x8
 1711 09df C5040000 		.4byte	.LASF137
 1712 09e3 13       		.byte	0x13
 1713 09e4 59       		.byte	0x59
 1714 09e5 1D       		.byte	0x1d
 1715 09e6 D7000000 		.4byte	0xd7
 1716 09ea 00       		.byte	0
 1717 09eb 00       		.byte	0
 1718 09ec 03       		.uleb128 0x3
 1719 09ed 42070000 		.4byte	.LASF138
 1720 09f1 13       		.byte	0x13
 1721 09f2 5B       		.byte	0x5b
 1722 09f3 03       		.byte	0x3
 1723 09f4 D5090000 		.4byte	0x9d5
 1724 09f8 04       		.uleb128 0x4
 1725 09f9 EC090000 		.4byte	0x9ec
 1726 09fd 0B       		.uleb128 0xb
 1727 09fe 04       		.byte	0x4
 1728 09ff F8090000 		.4byte	0x9f8
 1729 0a03 0B       		.uleb128 0xb
 1730 0a04 04       		.byte	0x4
 1731 0a05 89070000 		.4byte	0x789
 1732 0a09 0F       		.uleb128 0xf
 1733 0a0a B8020000 		.4byte	.LASF139
 1734 0a0e 13       		.byte	0x13
 1735 0a0f A6       		.byte	0xa6
 1736 0a10 12       		.byte	0x12
 1737 0a11 FA080000 		.4byte	0x8fa
 1738 0a15 18       		.uleb128 0x18
 1739 0a16 07       		.byte	0x7
 1740 0a17 04       		.byte	0x4
 1741 0a18 2C000000 		.4byte	0x2c
 1742 0a1c 14       		.byte	0x14
 1743 0a1d 5D       		.byte	0x5d
 1744 0a1e 0E       		.byte	0xe
 1745 0a1f 360A0000 		.4byte	0xa36
 1746 0a23 19       		.uleb128 0x19
 1747 0a24 41060000 		.4byte	.LASF140
ARM GAS  /var/folders/l5/0x54b2c10074c8bt31ycjvl80000gp/T//cclaVARJ.s 			page 32


 1748 0a28 00       		.byte	0
 1749 0a29 19       		.uleb128 0x19
 1750 0a2a F7000000 		.4byte	.LASF141
 1751 0a2e 01       		.byte	0x1
 1752 0a2f 19       		.uleb128 0x19
 1753 0a30 FC060000 		.4byte	.LASF142
 1754 0a34 02       		.byte	0x2
 1755 0a35 00       		.byte	0
 1756 0a36 03       		.uleb128 0x3
 1757 0a37 4C070000 		.4byte	.LASF143
 1758 0a3b 14       		.byte	0x14
 1759 0a3c 61       		.byte	0x61
 1760 0a3d 03       		.byte	0x3
 1761 0a3e 150A0000 		.4byte	0xa15
 1762 0a42 03       		.uleb128 0x3
 1763 0a43 79060000 		.4byte	.LASF144
 1764 0a47 14       		.byte	0x14
 1765 0a48 66       		.byte	0x66
 1766 0a49 1D       		.byte	0x1d
 1767 0a4a 4E0A0000 		.4byte	0xa4e
 1768 0a4e 07       		.uleb128 0x7
 1769 0a4f 79060000 		.4byte	.LASF144
 1770 0a53 74       		.byte	0x74
 1771 0a54 14       		.byte	0x14
 1772 0a55 80       		.byte	0x80
 1773 0a56 08       		.byte	0x8
 1774 0a57 B50A0000 		.4byte	0xab5
 1775 0a5b 09       		.uleb128 0x9
 1776 0a5c 766D7400 		.ascii	"vmt\000"
 1777 0a60 14       		.byte	0x14
 1778 0a61 82       		.byte	0x82
 1779 0a62 21       		.byte	0x21
 1780 0a63 3C0B0000 		.4byte	0xb3c
 1781 0a67 00       		.byte	0
 1782 0a68 08       		.uleb128 0x8
 1783 0a69 68030000 		.4byte	.LASF145
 1784 0a6d 14       		.byte	0x14
 1785 0a6e 83       		.byte	0x83
 1786 0a6f 03       		.byte	0x3
 1787 0a70 FF040000 		.4byte	0x4ff
 1788 0a74 04       		.byte	0x4
 1789 0a75 08       		.uleb128 0x8
 1790 0a76 26010000 		.4byte	.LASF122
 1791 0a7a 14       		.byte	0x14
 1792 0a7b 83       		.byte	0x83
 1793 0a7c 03       		.byte	0x3
 1794 0a7d 360A0000 		.4byte	0xa36
 1795 0a81 08       		.byte	0x8
 1796 0a82 08       		.uleb128 0x8
 1797 0a83 19030000 		.4byte	.LASF146
 1798 0a87 14       		.byte	0x14
 1799 0a88 83       		.byte	0x83
 1800 0a89 03       		.byte	0x3
 1801 0a8a 0B060000 		.4byte	0x60b
 1802 0a8e 0C       		.byte	0xc
 1803 0a8f 08       		.uleb128 0x8
 1804 0a90 9F030000 		.4byte	.LASF147
ARM GAS  /var/folders/l5/0x54b2c10074c8bt31ycjvl80000gp/T//cclaVARJ.s 			page 33


 1805 0a94 14       		.byte	0x14
 1806 0a95 83       		.byte	0x83
 1807 0a96 03       		.byte	0x3
 1808 0a97 17060000 		.4byte	0x617
 1809 0a9b 30       		.byte	0x30
 1810 0a9c 09       		.uleb128 0x9
 1811 0a9d 696200   		.ascii	"ib\000"
 1812 0aa0 14       		.byte	0x14
 1813 0aa1 83       		.byte	0x83
 1814 0aa2 03       		.byte	0x3
 1815 0aa3 420B0000 		.4byte	0xb42
 1816 0aa7 54       		.byte	0x54
 1817 0aa8 09       		.uleb128 0x9
 1818 0aa9 6F6200   		.ascii	"ob\000"
 1819 0aac 14       		.byte	0x14
 1820 0aad 83       		.byte	0x83
 1821 0aae 03       		.byte	0x3
 1822 0aaf 420B0000 		.4byte	0xb42
 1823 0ab3 64       		.byte	0x64
 1824 0ab4 00       		.byte	0
 1825 0ab5 1A       		.uleb128 0x1a
 1826 0ab6 53443100 		.ascii	"SD1\000"
 1827 0aba 18       		.byte	0x18
 1828 0abb 62       		.byte	0x62
 1829 0abc 15       		.byte	0x15
 1830 0abd 420A0000 		.4byte	0xa42
 1831 0ac1 07       		.uleb128 0x7
 1832 0ac2 02030000 		.4byte	.LASF148
 1833 0ac6 20       		.byte	0x20
 1834 0ac7 14       		.byte	0x14
 1835 0ac8 75       		.byte	0x75
 1836 0ac9 08       		.byte	0x8
 1837 0aca 370B0000 		.4byte	0xb37
 1838 0ace 08       		.uleb128 0x8
 1839 0acf 77040000 		.4byte	.LASF90
 1840 0ad3 14       		.byte	0x14
 1841 0ad4 76       		.byte	0x76
 1842 0ad5 03       		.byte	0x3
 1843 0ad6 89060000 		.4byte	0x689
 1844 0ada 00       		.byte	0
 1845 0adb 08       		.uleb128 0x8
 1846 0adc 94060000 		.4byte	.LASF91
 1847 0ae0 14       		.byte	0x14
 1848 0ae1 76       		.byte	0x76
 1849 0ae2 03       		.byte	0x3
 1850 0ae3 A8060000 		.4byte	0x6a8
 1851 0ae7 04       		.byte	0x4
 1852 0ae8 09       		.uleb128 0x9
 1853 0ae9 70757400 		.ascii	"put\000"
 1854 0aed 14       		.byte	0x14
 1855 0aee 76       		.byte	0x76
 1856 0aef 03       		.byte	0x3
 1857 0af0 C2060000 		.4byte	0x6c2
 1858 0af4 08       		.byte	0x8
 1859 0af5 09       		.uleb128 0x9
 1860 0af6 67657400 		.ascii	"get\000"
 1861 0afa 14       		.byte	0x14
ARM GAS  /var/folders/l5/0x54b2c10074c8bt31ycjvl80000gp/T//cclaVARJ.s 			page 34


 1862 0afb 76       		.byte	0x76
 1863 0afc 03       		.byte	0x3
 1864 0afd 4B050000 		.4byte	0x54b
 1865 0b01 0C       		.byte	0xc
 1866 0b02 08       		.uleb128 0x8
 1867 0b03 83040000 		.4byte	.LASF149
 1868 0b07 14       		.byte	0x14
 1869 0b08 76       		.byte	0x76
 1870 0b09 03       		.byte	0x3
 1871 0b0a AF070000 		.4byte	0x7af
 1872 0b0e 10       		.byte	0x10
 1873 0b0f 08       		.uleb128 0x8
 1874 0b10 45030000 		.4byte	.LASF150
 1875 0b14 14       		.byte	0x14
 1876 0b15 76       		.byte	0x76
 1877 0b16 03       		.byte	0x3
 1878 0b17 C9070000 		.4byte	0x7c9
 1879 0b1b 14       		.byte	0x14
 1880 0b1c 08       		.uleb128 0x8
 1881 0b1d 05040000 		.4byte	.LASF151
 1882 0b21 14       		.byte	0x14
 1883 0b22 76       		.byte	0x76
 1884 0b23 03       		.byte	0x3
 1885 0b24 ED070000 		.4byte	0x7ed
 1886 0b28 18       		.byte	0x18
 1887 0b29 08       		.uleb128 0x8
 1888 0b2a BC000000 		.4byte	.LASF152
 1889 0b2e 14       		.byte	0x14
 1890 0b2f 76       		.byte	0x76
 1891 0b30 03       		.byte	0x3
 1892 0b31 11080000 		.4byte	0x811
 1893 0b35 1C       		.byte	0x1c
 1894 0b36 00       		.byte	0
 1895 0b37 04       		.uleb128 0x4
 1896 0b38 C10A0000 		.4byte	0xac1
 1897 0b3c 0B       		.uleb128 0xb
 1898 0b3d 04       		.byte	0x4
 1899 0b3e 370B0000 		.4byte	0xb37
 1900 0b42 13       		.uleb128 0x13
 1901 0b43 AE000000 		.4byte	0xae
 1902 0b47 520B0000 		.4byte	0xb52
 1903 0b4b 14       		.uleb128 0x14
 1904 0b4c 54000000 		.4byte	0x54
 1905 0b50 0F       		.byte	0xf
 1906 0b51 00       		.byte	0
 1907 0b52 1B       		.uleb128 0x1b
 1908 0b53 53030000 		.4byte	.LASF153
 1909 0b57 01       		.byte	0x1
 1910 0b58 19       		.byte	0x19
 1911 0b59 16       		.byte	0x16
 1912 0b5a BA000000 		.4byte	0xba
 1913 0b5e 48       		.byte	0x48
 1914 0b5f 1C       		.uleb128 0x1c
 1915 0b60 05070000 		.4byte	.LASF154
 1916 0b64 01       		.byte	0x1
 1917 0b65 1C       		.byte	0x1c
 1918 0b66 14       		.byte	0x14
ARM GAS  /var/folders/l5/0x54b2c10074c8bt31ycjvl80000gp/T//cclaVARJ.s 			page 35


 1919 0b67 700B0000 		.4byte	0xb70
 1920 0b6b 04       		.byte	0x4
 1921 0b6c C3F5883F 		.4byte	0x3f88f5c3
 1922 0b70 04       		.uleb128 0x4
 1923 0b71 33000000 		.4byte	0x33
 1924 0b75 1B       		.uleb128 0x1b
 1925 0b76 5E000000 		.4byte	.LASF155
 1926 0b7a 01       		.byte	0x1
 1927 0b7b 32       		.byte	0x32
 1928 0b7c 16       		.byte	0x16
 1929 0b7d BA000000 		.4byte	0xba
 1930 0b81 62       		.byte	0x62
 1931 0b82 13       		.uleb128 0x13
 1932 0b83 68020000 		.4byte	0x268
 1933 0b87 920B0000 		.4byte	0xb92
 1934 0b8b 14       		.uleb128 0x14
 1935 0b8c 54000000 		.4byte	0x54
 1936 0b90 3E       		.byte	0x3e
 1937 0b91 00       		.byte	0
 1938 0b92 1D       		.uleb128 0x1d
 1939 0b93 32050000 		.4byte	.LASF156
 1940 0b97 01       		.byte	0x1
 1941 0b98 46       		.byte	0x46
 1942 0b99 08       		.byte	0x8
 1943 0b9a 820B0000 		.4byte	0xb82
 1944 0b9e 05       		.uleb128 0x5
 1945 0b9f 03       		.byte	0x3
 1946 0ba0 00000000 		.4byte	waThread1
 1947 0ba4 1E       		.uleb128 0x1e
 1948 0ba5 B8040000 		.4byte	.LASF180
 1949 0ba9 01       		.byte	0x1
 1950 0baa 57       		.byte	0x57
 1951 0bab 05       		.byte	0x5
 1952 0bac E8000000 		.4byte	0xe8
 1953 0bb0 00000000 		.4byte	.LFB10
 1954 0bb4 84000000 		.4byte	.LFE10-.LFB10
 1955 0bb8 01       		.uleb128 0x1
 1956 0bb9 9C       		.byte	0x9c
 1957 0bba 670C0000 		.4byte	0xc67
 1958 0bbe 1D       		.uleb128 0x1d
 1959 0bbf 3D000000 		.4byte	.LASF157
 1960 0bc3 01       		.byte	0x1
 1961 0bc4 64       		.byte	0x64
 1962 0bc5 0D       		.byte	0xd
 1963 0bc6 EC090000 		.4byte	0x9ec
 1964 0bca 02       		.uleb128 0x2
 1965 0bcb 91       		.byte	0x91
 1966 0bcc 70       		.sleb128 -16
 1967 0bcd 1F       		.uleb128 0x1f
 1968 0bce 14000000 		.4byte	.LVL28
 1969 0bd2 F90E0000 		.4byte	0xef9
 1970 0bd6 1F       		.uleb128 0x1f
 1971 0bd7 18000000 		.4byte	.LVL29
 1972 0bdb 050F0000 		.4byte	0xf05
 1973 0bdf 20       		.uleb128 0x20
 1974 0be0 24000000 		.4byte	.LVL30
 1975 0be4 110F0000 		.4byte	0xf11
ARM GAS  /var/folders/l5/0x54b2c10074c8bt31ycjvl80000gp/T//cclaVARJ.s 			page 36


 1976 0be8 F90B0000 		.4byte	0xbf9
 1977 0bec 21       		.uleb128 0x21
 1978 0bed 01       		.uleb128 0x1
 1979 0bee 50       		.byte	0x50
 1980 0bef 02       		.uleb128 0x2
 1981 0bf0 75       		.byte	0x75
 1982 0bf1 00       		.sleb128 0
 1983 0bf2 21       		.uleb128 0x21
 1984 0bf3 01       		.uleb128 0x1
 1985 0bf4 51       		.byte	0x51
 1986 0bf5 02       		.uleb128 0x2
 1987 0bf6 74       		.byte	0x74
 1988 0bf7 00       		.sleb128 0
 1989 0bf8 00       		.byte	0
 1990 0bf9 20       		.uleb128 0x20
 1991 0bfa 30000000 		.4byte	.LVL31
 1992 0bfe 1E0F0000 		.4byte	0xf1e
 1993 0c02 160C0000 		.4byte	0xc16
 1994 0c06 21       		.uleb128 0x21
 1995 0c07 01       		.uleb128 0x1
 1996 0c08 50       		.byte	0x50
 1997 0c09 02       		.uleb128 0x2
 1998 0c0a 75       		.byte	0x75
 1999 0c0b 00       		.sleb128 0
 2000 0c0c 21       		.uleb128 0x21
 2001 0c0d 01       		.uleb128 0x1
 2002 0c0e 51       		.byte	0x51
 2003 0c0f 05       		.uleb128 0x5
 2004 0c10 03       		.byte	0x3
 2005 0c11 00000000 		.4byte	.LC3
 2006 0c15 00       		.byte	0
 2007 0c16 20       		.uleb128 0x20
 2008 0c17 3C000000 		.4byte	.LVL32
 2009 0c1b 2A0F0000 		.4byte	0xf2a
 2010 0c1f 2A0C0000 		.4byte	0xc2a
 2011 0c23 21       		.uleb128 0x21
 2012 0c24 01       		.uleb128 0x1
 2013 0c25 51       		.byte	0x51
 2014 0c26 02       		.uleb128 0x2
 2015 0c27 91       		.byte	0x91
 2016 0c28 68       		.sleb128 -24
 2017 0c29 00       		.byte	0
 2018 0c2a 20       		.uleb128 0x20
 2019 0c2b 54000000 		.4byte	.LVL33
 2020 0c2f 360F0000 		.4byte	0xf36
 2021 0c33 5D0C0000 		.4byte	0xc5d
 2022 0c37 21       		.uleb128 0x21
 2023 0c38 01       		.uleb128 0x1
 2024 0c39 50       		.byte	0x50
 2025 0c3a 05       		.uleb128 0x5
 2026 0c3b 03       		.byte	0x3
 2027 0c3c 00000000 		.4byte	.LANCHOR0
 2028 0c40 21       		.uleb128 0x21
 2029 0c41 01       		.uleb128 0x1
 2030 0c42 51       		.byte	0x51
 2031 0c43 02       		.uleb128 0x2
 2032 0c44 08       		.byte	0x8
ARM GAS  /var/folders/l5/0x54b2c10074c8bt31ycjvl80000gp/T//cclaVARJ.s 			page 37


 2033 0c45 FC       		.byte	0xfc
 2034 0c46 21       		.uleb128 0x21
 2035 0c47 01       		.uleb128 0x1
 2036 0c48 52       		.byte	0x52
 2037 0c49 02       		.uleb128 0x2
 2038 0c4a 08       		.byte	0x8
 2039 0c4b 40       		.byte	0x40
 2040 0c4c 21       		.uleb128 0x21
 2041 0c4d 01       		.uleb128 0x1
 2042 0c4e 53       		.byte	0x53
 2043 0c4f 05       		.uleb128 0x5
 2044 0c50 03       		.byte	0x3
 2045 0c51 00000000 		.4byte	Thread1
 2046 0c55 21       		.uleb128 0x21
 2047 0c56 02       		.uleb128 0x2
 2048 0c57 7D       		.byte	0x7d
 2049 0c58 00       		.sleb128 0
 2050 0c59 02       		.uleb128 0x2
 2051 0c5a 74       		.byte	0x74
 2052 0c5b 00       		.sleb128 0
 2053 0c5c 00       		.byte	0
 2054 0c5d 1F       		.uleb128 0x1f
 2055 0c5e 60000000 		.4byte	.LVL34
 2056 0c62 430F0000 		.4byte	0xf43
 2057 0c66 00       		.byte	0
 2058 0c67 22       		.uleb128 0x22
 2059 0c68 5D040000 		.4byte	.LASF181
 2060 0c6c 01       		.byte	0x1
 2061 0c6d 48       		.byte	0x48
 2062 0c6e 0E       		.byte	0xe
 2063 0c6f 24010000 		.4byte	0x124
 2064 0c73 00000000 		.4byte	.LFB9
 2065 0c77 94010000 		.4byte	.LFE9-.LFB9
 2066 0c7b 01       		.uleb128 0x1
 2067 0c7c 9C       		.byte	0x9c
 2068 0c7d 5D0E0000 		.4byte	0xe5d
 2069 0c81 23       		.uleb128 0x23
 2070 0c82 7000     		.ascii	"p\000"
 2071 0c84 01       		.byte	0x1
 2072 0c85 48       		.byte	0x48
 2073 0c86 1C       		.byte	0x1c
 2074 0c87 80020000 		.4byte	0x280
 2075 0c8b 04000000 		.4byte	.LLST0
 2076 0c8f 00000000 		.4byte	.LVUS0
 2077 0c93 24       		.uleb128 0x24
 2078 0c94 00000000 		.4byte	.Ldebug_ranges0+0
 2079 0c98 25       		.uleb128 0x25
 2080 0c99 81010000 		.4byte	.LASF158
 2081 0c9d 01       		.byte	0x1
 2082 0c9e 4C       		.byte	0x4c
 2083 0c9f 0B       		.byte	0xb
 2084 0ca0 33000000 		.4byte	0x33
 2085 0ca4 26       		.uleb128 0x26
 2086 0ca5 AB0E0000 		.4byte	0xeab
 2087 0ca9 C0000000 		.4byte	.LBI8
 2088 0cad 05       		.byte	.LVU38
 2089 0cae 20000000 		.4byte	.Ldebug_ranges0+0x20
ARM GAS  /var/folders/l5/0x54b2c10074c8bt31ycjvl80000gp/T//cclaVARJ.s 			page 38


 2090 0cb2 01       		.byte	0x1
 2091 0cb3 4C       		.byte	0x4c
 2092 0cb4 19       		.byte	0x19
 2093 0cb5 680D0000 		.4byte	0xd68
 2094 0cb9 24       		.uleb128 0x24
 2095 0cba 20000000 		.4byte	.Ldebug_ranges0+0x20
 2096 0cbe 27       		.uleb128 0x27
 2097 0cbf BC0E0000 		.4byte	0xebc
 2098 0cc3 02       		.uleb128 0x2
 2099 0cc4 91       		.byte	0x91
 2100 0cc5 58       		.sleb128 -40
 2101 0cc6 28       		.uleb128 0x28
 2102 0cc7 C80E0000 		.4byte	0xec8
 2103 0ccb 2B000000 		.4byte	.LLST1
 2104 0ccf 25000000 		.4byte	.LVUS1
 2105 0cd3 28       		.uleb128 0x28
 2106 0cd4 D40E0000 		.4byte	0xed4
 2107 0cd8 56000000 		.4byte	.LLST2
 2108 0cdc 54000000 		.4byte	.LVUS2
 2109 0ce0 28       		.uleb128 0x28
 2110 0ce1 E00E0000 		.4byte	0xee0
 2111 0ce5 89000000 		.4byte	.LLST3
 2112 0ce9 87000000 		.4byte	.LVUS3
 2113 0ced 29       		.uleb128 0x29
 2114 0cee EC0E0000 		.4byte	0xeec
 2115 0cf2 20       		.uleb128 0x20
 2116 0cf3 D0000000 		.4byte	.LVL14
 2117 0cf7 500F0000 		.4byte	0xf50
 2118 0cfb 060D0000 		.4byte	0xd06
 2119 0cff 21       		.uleb128 0x21
 2120 0d00 01       		.uleb128 0x1
 2121 0d01 50       		.byte	0x50
 2122 0d02 02       		.uleb128 0x2
 2123 0d03 74       		.byte	0x74
 2124 0d04 00       		.sleb128 0
 2125 0d05 00       		.byte	0
 2126 0d06 20       		.uleb128 0x20
 2127 0d07 EC000000 		.4byte	.LVL15
 2128 0d0b 5C0F0000 		.4byte	0xf5c
 2129 0d0f 330D0000 		.4byte	0xd33
 2130 0d13 21       		.uleb128 0x21
 2131 0d14 01       		.uleb128 0x1
 2132 0d15 50       		.byte	0x50
 2133 0d16 02       		.uleb128 0x2
 2134 0d17 74       		.byte	0x74
 2135 0d18 00       		.sleb128 0
 2136 0d19 21       		.uleb128 0x21
 2137 0d1a 01       		.uleb128 0x1
 2138 0d1b 51       		.byte	0x51
 2139 0d1c 02       		.uleb128 0x2
 2140 0d1d 08       		.byte	0x8
 2141 0d1e 48       		.byte	0x48
 2142 0d1f 21       		.uleb128 0x21
 2143 0d20 01       		.uleb128 0x1
 2144 0d21 52       		.byte	0x52
 2145 0d22 02       		.uleb128 0x2
 2146 0d23 91       		.byte	0x91
ARM GAS  /var/folders/l5/0x54b2c10074c8bt31ycjvl80000gp/T//cclaVARJ.s 			page 39


 2147 0d24 50       		.sleb128 -48
 2148 0d25 21       		.uleb128 0x21
 2149 0d26 01       		.uleb128 0x1
 2150 0d27 53       		.byte	0x53
 2151 0d28 01       		.uleb128 0x1
 2152 0d29 32       		.byte	0x32
 2153 0d2a 21       		.uleb128 0x21
 2154 0d2b 02       		.uleb128 0x2
 2155 0d2c 7D       		.byte	0x7d
 2156 0d2d 00       		.sleb128 0
 2157 0d2e 03       		.uleb128 0x3
 2158 0d2f 0A       		.byte	0xa
 2159 0d30 E803     		.2byte	0x3e8
 2160 0d32 00       		.byte	0
 2161 0d33 20       		.uleb128 0x20
 2162 0d34 F8000000 		.4byte	.LVL18
 2163 0d38 680F0000 		.4byte	0xf68
 2164 0d3c 470D0000 		.4byte	0xd47
 2165 0d40 21       		.uleb128 0x21
 2166 0d41 01       		.uleb128 0x1
 2167 0d42 50       		.byte	0x50
 2168 0d43 02       		.uleb128 0x2
 2169 0d44 74       		.byte	0x74
 2170 0d45 00       		.sleb128 0
 2171 0d46 00       		.byte	0
 2172 0d47 2A       		.uleb128 0x2a
 2173 0d48 50010000 		.4byte	.LVL25
 2174 0d4c 1E0F0000 		.4byte	0xf1e
 2175 0d50 21       		.uleb128 0x21
 2176 0d51 01       		.uleb128 0x1
 2177 0d52 50       		.byte	0x50
 2178 0d53 02       		.uleb128 0x2
 2179 0d54 75       		.byte	0x75
 2180 0d55 00       		.sleb128 0
 2181 0d56 21       		.uleb128 0x21
 2182 0d57 01       		.uleb128 0x1
 2183 0d58 51       		.byte	0x51
 2184 0d59 05       		.uleb128 0x5
 2185 0d5a 03       		.byte	0x3
 2186 0d5b 00000000 		.4byte	.LC0
 2187 0d5f 21       		.uleb128 0x21
 2188 0d60 01       		.uleb128 0x1
 2189 0d61 52       		.byte	0x52
 2190 0d62 02       		.uleb128 0x2
 2191 0d63 76       		.byte	0x76
 2192 0d64 00       		.sleb128 0
 2193 0d65 00       		.byte	0
 2194 0d66 00       		.byte	0
 2195 0d67 00       		.byte	0
 2196 0d68 26       		.uleb128 0x26
 2197 0d69 5D0E0000 		.4byte	0xe5d
 2198 0d6d 48000000 		.4byte	.LBI13
 2199 0d71 01       		.byte	.LVU13
 2200 0d72 40000000 		.4byte	.Ldebug_ranges0+0x40
 2201 0d76 01       		.byte	0x1
 2202 0d77 4E       		.byte	0x4e
 2203 0d78 05       		.byte	0x5
ARM GAS  /var/folders/l5/0x54b2c10074c8bt31ycjvl80000gp/T//cclaVARJ.s 			page 40


 2204 0d79 2D0E0000 		.4byte	0xe2d
 2205 0d7d 2B       		.uleb128 0x2b
 2206 0d7e 6A0E0000 		.4byte	0xe6a
 2207 0d82 24       		.uleb128 0x24
 2208 0d83 40000000 		.4byte	.Ldebug_ranges0+0x40
 2209 0d87 28       		.uleb128 0x28
 2210 0d88 760E0000 		.4byte	0xe76
 2211 0d8c CE000000 		.4byte	.LLST4
 2212 0d90 CC000000 		.4byte	.LVUS4
 2213 0d94 27       		.uleb128 0x27
 2214 0d95 820E0000 		.4byte	0xe82
 2215 0d99 02       		.uleb128 0x2
 2216 0d9a 91       		.byte	0x91
 2217 0d9b 58       		.sleb128 -40
 2218 0d9c 28       		.uleb128 0x28
 2219 0d9d 8E0E0000 		.4byte	0xe8e
 2220 0da1 06010000 		.4byte	.LLST5
 2221 0da5 00010000 		.4byte	.LVUS5
 2222 0da9 20       		.uleb128 0x20
 2223 0daa 7C000000 		.4byte	.LVL7
 2224 0dae 500F0000 		.4byte	0xf50
 2225 0db2 BD0D0000 		.4byte	0xdbd
 2226 0db6 21       		.uleb128 0x21
 2227 0db7 01       		.uleb128 0x1
 2228 0db8 50       		.byte	0x50
 2229 0db9 02       		.uleb128 0x2
 2230 0dba 74       		.byte	0x74
 2231 0dbb 00       		.sleb128 0
 2232 0dbc 00       		.byte	0
 2233 0dbd 20       		.uleb128 0x20
 2234 0dbe A4000000 		.4byte	.LVL8
 2235 0dc2 740F0000 		.4byte	0xf74
 2236 0dc6 F80D0000 		.4byte	0xdf8
 2237 0dca 21       		.uleb128 0x21
 2238 0dcb 01       		.uleb128 0x1
 2239 0dcc 50       		.byte	0x50
 2240 0dcd 02       		.uleb128 0x2
 2241 0dce 74       		.byte	0x74
 2242 0dcf 00       		.sleb128 0
 2243 0dd0 21       		.uleb128 0x21
 2244 0dd1 01       		.uleb128 0x1
 2245 0dd2 51       		.byte	0x51
 2246 0dd3 02       		.uleb128 0x2
 2247 0dd4 08       		.byte	0x8
 2248 0dd5 62       		.byte	0x62
 2249 0dd6 21       		.uleb128 0x21
 2250 0dd7 01       		.uleb128 0x1
 2251 0dd8 52       		.byte	0x52
 2252 0dd9 02       		.uleb128 0x2
 2253 0dda 91       		.byte	0x91
 2254 0ddb 50       		.sleb128 -48
 2255 0ddc 21       		.uleb128 0x21
 2256 0ddd 01       		.uleb128 0x1
 2257 0dde 53       		.byte	0x53
 2258 0ddf 01       		.uleb128 0x1
 2259 0de0 32       		.byte	0x32
 2260 0de1 21       		.uleb128 0x21
ARM GAS  /var/folders/l5/0x54b2c10074c8bt31ycjvl80000gp/T//cclaVARJ.s 			page 41


 2261 0de2 02       		.uleb128 0x2
 2262 0de3 7D       		.byte	0x7d
 2263 0de4 00       		.sleb128 0
 2264 0de5 02       		.uleb128 0x2
 2265 0de6 78       		.byte	0x78
 2266 0de7 00       		.sleb128 0
 2267 0de8 21       		.uleb128 0x21
 2268 0de9 02       		.uleb128 0x2
 2269 0dea 7D       		.byte	0x7d
 2270 0deb 04       		.sleb128 4
 2271 0dec 02       		.uleb128 0x2
 2272 0ded 78       		.byte	0x78
 2273 0dee 00       		.sleb128 0
 2274 0def 21       		.uleb128 0x21
 2275 0df0 02       		.uleb128 0x2
 2276 0df1 7D       		.byte	0x7d
 2277 0df2 08       		.sleb128 8
 2278 0df3 03       		.uleb128 0x3
 2279 0df4 0A       		.byte	0xa
 2280 0df5 E803     		.2byte	0x3e8
 2281 0df7 00       		.byte	0
 2282 0df8 20       		.uleb128 0x20
 2283 0df9 B0000000 		.4byte	.LVL11
 2284 0dfd 680F0000 		.4byte	0xf68
 2285 0e01 0C0E0000 		.4byte	0xe0c
 2286 0e05 21       		.uleb128 0x21
 2287 0e06 01       		.uleb128 0x1
 2288 0e07 50       		.byte	0x50
 2289 0e08 02       		.uleb128 0x2
 2290 0e09 74       		.byte	0x74
 2291 0e0a 00       		.sleb128 0
 2292 0e0b 00       		.byte	0
 2293 0e0c 2A       		.uleb128 0x2a
 2294 0e0d 64010000 		.4byte	.LVL27
 2295 0e11 1E0F0000 		.4byte	0xf1e
 2296 0e15 21       		.uleb128 0x21
 2297 0e16 01       		.uleb128 0x1
 2298 0e17 50       		.byte	0x50
 2299 0e18 02       		.uleb128 0x2
 2300 0e19 75       		.byte	0x75
 2301 0e1a 00       		.sleb128 0
 2302 0e1b 21       		.uleb128 0x21
 2303 0e1c 01       		.uleb128 0x1
 2304 0e1d 51       		.byte	0x51
 2305 0e1e 05       		.uleb128 0x5
 2306 0e1f 03       		.byte	0x3
 2307 0e20 38000000 		.4byte	.LC2
 2308 0e24 21       		.uleb128 0x21
 2309 0e25 01       		.uleb128 0x1
 2310 0e26 52       		.byte	0x52
 2311 0e27 02       		.uleb128 0x2
 2312 0e28 76       		.byte	0x76
 2313 0e29 00       		.sleb128 0
 2314 0e2a 00       		.byte	0
 2315 0e2b 00       		.byte	0
 2316 0e2c 00       		.byte	0
 2317 0e2d 20       		.uleb128 0x20
ARM GAS  /var/folders/l5/0x54b2c10074c8bt31ycjvl80000gp/T//cclaVARJ.s 			page 42


 2318 0e2e 48000000 		.4byte	.LVL3
 2319 0e32 1E0F0000 		.4byte	0xf1e
 2320 0e36 4A0E0000 		.4byte	0xe4a
 2321 0e3a 21       		.uleb128 0x21
 2322 0e3b 01       		.uleb128 0x1
 2323 0e3c 50       		.byte	0x50
 2324 0e3d 02       		.uleb128 0x2
 2325 0e3e 75       		.byte	0x75
 2326 0e3f 00       		.sleb128 0
 2327 0e40 21       		.uleb128 0x21
 2328 0e41 01       		.uleb128 0x1
 2329 0e42 51       		.byte	0x51
 2330 0e43 05       		.uleb128 0x5
 2331 0e44 03       		.byte	0x3
 2332 0e45 24000000 		.4byte	.LC1
 2333 0e49 00       		.byte	0
 2334 0e4a 2A       		.uleb128 0x2a
 2335 0e4b C0000000 		.4byte	.LVL13
 2336 0e4f 800F0000 		.4byte	0xf80
 2337 0e53 21       		.uleb128 0x21
 2338 0e54 01       		.uleb128 0x1
 2339 0e55 50       		.byte	0x50
 2340 0e56 03       		.uleb128 0x3
 2341 0e57 0A       		.byte	0xa
 2342 0e58 E803     		.2byte	0x3e8
 2343 0e5a 00       		.byte	0
 2344 0e5b 00       		.byte	0
 2345 0e5c 00       		.byte	0
 2346 0e5d 2C       		.uleb128 0x2c
 2347 0e5e 19070000 		.4byte	.LASF182
 2348 0e62 01       		.byte	0x1
 2349 0e63 34       		.byte	0x34
 2350 0e64 0D       		.byte	0xd
 2351 0e65 01       		.byte	0x1
 2352 0e66 9B0E0000 		.4byte	0xe9b
 2353 0e6a 2D       		.uleb128 0x2d
 2354 0e6b 3E010000 		.4byte	.LASF183
 2355 0e6f 01       		.byte	0x1
 2356 0e70 34       		.byte	0x34
 2357 0e71 1F       		.byte	0x1f
 2358 0e72 33000000 		.4byte	0x33
 2359 0e76 25       		.uleb128 0x25
 2360 0e77 62030000 		.4byte	.LASF159
 2361 0e7b 01       		.byte	0x1
 2362 0e7c 35       		.byte	0x35
 2363 0e7d 0C       		.byte	0xc
 2364 0e7e BF000000 		.4byte	0xbf
 2365 0e82 25       		.uleb128 0x25
 2366 0e83 BD040000 		.4byte	.LASF160
 2367 0e87 01       		.byte	0x1
 2368 0e88 36       		.byte	0x36
 2369 0e89 0B       		.byte	0xb
 2370 0e8a 9B0E0000 		.4byte	0xe9b
 2371 0e8e 25       		.uleb128 0x25
 2372 0e8f 6A070000 		.4byte	.LASF96
 2373 0e93 01       		.byte	0x1
 2374 0e94 3C       		.byte	0x3c
ARM GAS  /var/folders/l5/0x54b2c10074c8bt31ycjvl80000gp/T//cclaVARJ.s 			page 43


 2375 0e95 09       		.byte	0x9
 2376 0e96 24010000 		.4byte	0x124
 2377 0e9a 00       		.byte	0
 2378 0e9b 13       		.uleb128 0x13
 2379 0e9c AE000000 		.4byte	0xae
 2380 0ea0 AB0E0000 		.4byte	0xeab
 2381 0ea4 14       		.uleb128 0x14
 2382 0ea5 54000000 		.4byte	0x54
 2383 0ea9 01       		.byte	0x1
 2384 0eaa 00       		.byte	0
 2385 0eab 2E       		.uleb128 0x2e
 2386 0eac 54060000 		.4byte	.LASF184
 2387 0eb0 01       		.byte	0x1
 2388 0eb1 1E       		.byte	0x1e
 2389 0eb2 0E       		.byte	0xe
 2390 0eb3 33000000 		.4byte	0x33
 2391 0eb7 01       		.byte	0x1
 2392 0eb8 F90E0000 		.4byte	0xef9
 2393 0ebc 25       		.uleb128 0x25
 2394 0ebd E9070000 		.4byte	.LASF161
 2395 0ec1 01       		.byte	0x1
 2396 0ec2 1F       		.byte	0x1f
 2397 0ec3 0B       		.byte	0xb
 2398 0ec4 9B0E0000 		.4byte	0xe9b
 2399 0ec8 25       		.uleb128 0x25
 2400 0ec9 6A070000 		.4byte	.LASF96
 2401 0ecd 01       		.byte	0x1
 2402 0ece 23       		.byte	0x23
 2403 0ecf 09       		.byte	0x9
 2404 0ed0 24010000 		.4byte	0x124
 2405 0ed4 25       		.uleb128 0x25
 2406 0ed5 93030000 		.4byte	.LASF162
 2407 0ed9 01       		.byte	0x1
 2408 0eda 28       		.byte	0x28
 2409 0edb 0C       		.byte	0xc
 2410 0edc D7000000 		.4byte	0xd7
 2411 0ee0 25       		.uleb128 0x25
 2412 0ee1 14040000 		.4byte	.LASF163
 2413 0ee5 01       		.byte	0x1
 2414 0ee6 29       		.byte	0x29
 2415 0ee7 09       		.byte	0x9
 2416 0ee8 33000000 		.4byte	0x33
 2417 0eec 25       		.uleb128 0x25
 2418 0eed 3A030000 		.4byte	.LASF164
 2419 0ef1 01       		.byte	0x1
 2420 0ef2 2A       		.byte	0x2a
 2421 0ef3 09       		.byte	0x9
 2422 0ef4 33000000 		.4byte	0x33
 2423 0ef8 00       		.byte	0
 2424 0ef9 2F       		.uleb128 0x2f
 2425 0efa 32030000 		.4byte	.LASF165
 2426 0efe 32030000 		.4byte	.LASF165
 2427 0f02 15       		.byte	0x15
 2428 0f03 C9       		.byte	0xc9
 2429 0f04 08       		.byte	0x8
 2430 0f05 2F       		.uleb128 0x2f
 2431 0f06 ED000000 		.4byte	.LASF166
ARM GAS  /var/folders/l5/0x54b2c10074c8bt31ycjvl80000gp/T//cclaVARJ.s 			page 44


 2432 0f0a ED000000 		.4byte	.LASF166
 2433 0f0e 16       		.byte	0x16
 2434 0f0f EF       		.byte	0xef
 2435 0f10 08       		.byte	0x8
 2436 0f11 30       		.uleb128 0x30
 2437 0f12 A0060000 		.4byte	.LASF167
 2438 0f16 A0060000 		.4byte	.LASF167
 2439 0f1a 14       		.byte	0x14
 2440 0f1b 3201     		.2byte	0x132
 2441 0f1d 08       		.byte	0x8
 2442 0f1e 2F       		.uleb128 0x2f
 2443 0f1f DE020000 		.4byte	.LASF168
 2444 0f23 DE020000 		.4byte	.LASF168
 2445 0f27 17       		.byte	0x17
 2446 0f28 2A       		.byte	0x2a
 2447 0f29 08       		.byte	0x8
 2448 0f2a 2F       		.uleb128 0x2f
 2449 0f2b 73000000 		.4byte	.LASF169
 2450 0f2f 73000000 		.4byte	.LASF169
 2451 0f33 12       		.byte	0x12
 2452 0f34 7B       		.byte	0x7b
 2453 0f35 08       		.byte	0x8
 2454 0f36 30       		.uleb128 0x30
 2455 0f37 65040000 		.4byte	.LASF170
 2456 0f3b 65040000 		.4byte	.LASF170
 2457 0f3f 07       		.byte	0x7
 2458 0f40 6401     		.2byte	0x164
 2459 0f42 0B       		.byte	0xb
 2460 0f43 30       		.uleb128 0x30
 2461 0f44 25070000 		.4byte	.LASF171
 2462 0f48 25070000 		.4byte	.LASF171
 2463 0f4c 07       		.byte	0x7
 2464 0f4d 6F01     		.2byte	0x16f
 2465 0f4f 09       		.byte	0x9
 2466 0f50 2F       		.uleb128 0x2f
 2467 0f51 5E050000 		.4byte	.LASF172
 2468 0f55 5E050000 		.4byte	.LASF172
 2469 0f59 12       		.byte	0x12
 2470 0f5a 88       		.byte	0x88
 2471 0f5b 08       		.byte	0x8
 2472 0f5c 2F       		.uleb128 0x2f
 2473 0f5d 98070000 		.4byte	.LASF173
 2474 0f61 98070000 		.4byte	.LASF173
 2475 0f65 12       		.byte	0x12
 2476 0f66 83       		.byte	0x83
 2477 0f67 09       		.byte	0x9
 2478 0f68 2F       		.uleb128 0x2f
 2479 0f69 85000000 		.4byte	.LASF174
 2480 0f6d 85000000 		.4byte	.LASF174
 2481 0f71 12       		.byte	0x12
 2482 0f72 89       		.byte	0x89
 2483 0f73 08       		.byte	0x8
 2484 0f74 2F       		.uleb128 0x2f
 2485 0f75 A3000000 		.4byte	.LASF175
 2486 0f79 A3000000 		.4byte	.LASF175
 2487 0f7d 12       		.byte	0x12
 2488 0f7e 7E       		.byte	0x7e
ARM GAS  /var/folders/l5/0x54b2c10074c8bt31ycjvl80000gp/T//cclaVARJ.s 			page 45


 2489 0f7f 09       		.byte	0x9
 2490 0f80 30       		.uleb128 0x30
 2491 0f81 12050000 		.4byte	.LASF176
 2492 0f85 12050000 		.4byte	.LASF176
 2493 0f89 07       		.byte	0x7
 2494 0f8a 6901     		.2byte	0x169
 2495 0f8c 08       		.byte	0x8
 2496 0f8d 00       		.byte	0
 2497              		.section	.debug_abbrev,"",%progbits
 2498              	.Ldebug_abbrev0:
 2499 0000 01       		.uleb128 0x1
 2500 0001 11       		.uleb128 0x11
 2501 0002 01       		.byte	0x1
 2502 0003 25       		.uleb128 0x25
 2503 0004 0E       		.uleb128 0xe
 2504 0005 13       		.uleb128 0x13
 2505 0006 0B       		.uleb128 0xb
 2506 0007 03       		.uleb128 0x3
 2507 0008 0E       		.uleb128 0xe
 2508 0009 1B       		.uleb128 0x1b
 2509 000a 0E       		.uleb128 0xe
 2510 000b 55       		.uleb128 0x55
 2511 000c 17       		.uleb128 0x17
 2512 000d 11       		.uleb128 0x11
 2513 000e 01       		.uleb128 0x1
 2514 000f 10       		.uleb128 0x10
 2515 0010 17       		.uleb128 0x17
 2516 0011 00       		.byte	0
 2517 0012 00       		.byte	0
 2518 0013 02       		.uleb128 0x2
 2519 0014 24       		.uleb128 0x24
 2520 0015 00       		.byte	0
 2521 0016 0B       		.uleb128 0xb
 2522 0017 0B       		.uleb128 0xb
 2523 0018 3E       		.uleb128 0x3e
 2524 0019 0B       		.uleb128 0xb
 2525 001a 03       		.uleb128 0x3
 2526 001b 0E       		.uleb128 0xe
 2527 001c 00       		.byte	0
 2528 001d 00       		.byte	0
 2529 001e 03       		.uleb128 0x3
 2530 001f 16       		.uleb128 0x16
 2531 0020 00       		.byte	0
 2532 0021 03       		.uleb128 0x3
 2533 0022 0E       		.uleb128 0xe
 2534 0023 3A       		.uleb128 0x3a
 2535 0024 0B       		.uleb128 0xb
 2536 0025 3B       		.uleb128 0x3b
 2537 0026 0B       		.uleb128 0xb
 2538 0027 39       		.uleb128 0x39
 2539 0028 0B       		.uleb128 0xb
 2540 0029 49       		.uleb128 0x49
 2541 002a 13       		.uleb128 0x13
 2542 002b 00       		.byte	0
 2543 002c 00       		.byte	0
 2544 002d 04       		.uleb128 0x4
 2545 002e 26       		.uleb128 0x26
ARM GAS  /var/folders/l5/0x54b2c10074c8bt31ycjvl80000gp/T//cclaVARJ.s 			page 46


 2546 002f 00       		.byte	0
 2547 0030 49       		.uleb128 0x49
 2548 0031 13       		.uleb128 0x13
 2549 0032 00       		.byte	0
 2550 0033 00       		.byte	0
 2551 0034 05       		.uleb128 0x5
 2552 0035 35       		.uleb128 0x35
 2553 0036 00       		.byte	0
 2554 0037 49       		.uleb128 0x49
 2555 0038 13       		.uleb128 0x13
 2556 0039 00       		.byte	0
 2557 003a 00       		.byte	0
 2558 003b 06       		.uleb128 0x6
 2559 003c 24       		.uleb128 0x24
 2560 003d 00       		.byte	0
 2561 003e 0B       		.uleb128 0xb
 2562 003f 0B       		.uleb128 0xb
 2563 0040 3E       		.uleb128 0x3e
 2564 0041 0B       		.uleb128 0xb
 2565 0042 03       		.uleb128 0x3
 2566 0043 08       		.uleb128 0x8
 2567 0044 00       		.byte	0
 2568 0045 00       		.byte	0
 2569 0046 07       		.uleb128 0x7
 2570 0047 13       		.uleb128 0x13
 2571 0048 01       		.byte	0x1
 2572 0049 03       		.uleb128 0x3
 2573 004a 0E       		.uleb128 0xe
 2574 004b 0B       		.uleb128 0xb
 2575 004c 0B       		.uleb128 0xb
 2576 004d 3A       		.uleb128 0x3a
 2577 004e 0B       		.uleb128 0xb
 2578 004f 3B       		.uleb128 0x3b
 2579 0050 0B       		.uleb128 0xb
 2580 0051 39       		.uleb128 0x39
 2581 0052 0B       		.uleb128 0xb
 2582 0053 01       		.uleb128 0x1
 2583 0054 13       		.uleb128 0x13
 2584 0055 00       		.byte	0
 2585 0056 00       		.byte	0
 2586 0057 08       		.uleb128 0x8
 2587 0058 0D       		.uleb128 0xd
 2588 0059 00       		.byte	0
 2589 005a 03       		.uleb128 0x3
 2590 005b 0E       		.uleb128 0xe
 2591 005c 3A       		.uleb128 0x3a
 2592 005d 0B       		.uleb128 0xb
 2593 005e 3B       		.uleb128 0x3b
 2594 005f 0B       		.uleb128 0xb
 2595 0060 39       		.uleb128 0x39
 2596 0061 0B       		.uleb128 0xb
 2597 0062 49       		.uleb128 0x49
 2598 0063 13       		.uleb128 0x13
 2599 0064 38       		.uleb128 0x38
 2600 0065 0B       		.uleb128 0xb
 2601 0066 00       		.byte	0
 2602 0067 00       		.byte	0
ARM GAS  /var/folders/l5/0x54b2c10074c8bt31ycjvl80000gp/T//cclaVARJ.s 			page 47


 2603 0068 09       		.uleb128 0x9
 2604 0069 0D       		.uleb128 0xd
 2605 006a 00       		.byte	0
 2606 006b 03       		.uleb128 0x3
 2607 006c 08       		.uleb128 0x8
 2608 006d 3A       		.uleb128 0x3a
 2609 006e 0B       		.uleb128 0xb
 2610 006f 3B       		.uleb128 0x3b
 2611 0070 0B       		.uleb128 0xb
 2612 0071 39       		.uleb128 0x39
 2613 0072 0B       		.uleb128 0xb
 2614 0073 49       		.uleb128 0x49
 2615 0074 13       		.uleb128 0x13
 2616 0075 38       		.uleb128 0x38
 2617 0076 0B       		.uleb128 0xb
 2618 0077 00       		.byte	0
 2619 0078 00       		.byte	0
 2620 0079 0A       		.uleb128 0xa
 2621 007a 13       		.uleb128 0x13
 2622 007b 01       		.byte	0x1
 2623 007c 0B       		.uleb128 0xb
 2624 007d 0B       		.uleb128 0xb
 2625 007e 3A       		.uleb128 0x3a
 2626 007f 0B       		.uleb128 0xb
 2627 0080 3B       		.uleb128 0x3b
 2628 0081 0B       		.uleb128 0xb
 2629 0082 39       		.uleb128 0x39
 2630 0083 0B       		.uleb128 0xb
 2631 0084 01       		.uleb128 0x1
 2632 0085 13       		.uleb128 0x13
 2633 0086 00       		.byte	0
 2634 0087 00       		.byte	0
 2635 0088 0B       		.uleb128 0xb
 2636 0089 0F       		.uleb128 0xf
 2637 008a 00       		.byte	0
 2638 008b 0B       		.uleb128 0xb
 2639 008c 0B       		.uleb128 0xb
 2640 008d 49       		.uleb128 0x49
 2641 008e 13       		.uleb128 0x13
 2642 008f 00       		.byte	0
 2643 0090 00       		.byte	0
 2644 0091 0C       		.uleb128 0xc
 2645 0092 0F       		.uleb128 0xf
 2646 0093 00       		.byte	0
 2647 0094 0B       		.uleb128 0xb
 2648 0095 0B       		.uleb128 0xb
 2649 0096 00       		.byte	0
 2650 0097 00       		.byte	0
 2651 0098 0D       		.uleb128 0xd
 2652 0099 15       		.uleb128 0x15
 2653 009a 01       		.byte	0x1
 2654 009b 27       		.uleb128 0x27
 2655 009c 19       		.uleb128 0x19
 2656 009d 01       		.uleb128 0x1
 2657 009e 13       		.uleb128 0x13
 2658 009f 00       		.byte	0
 2659 00a0 00       		.byte	0
ARM GAS  /var/folders/l5/0x54b2c10074c8bt31ycjvl80000gp/T//cclaVARJ.s 			page 48


 2660 00a1 0E       		.uleb128 0xe
 2661 00a2 05       		.uleb128 0x5
 2662 00a3 00       		.byte	0
 2663 00a4 49       		.uleb128 0x49
 2664 00a5 13       		.uleb128 0x13
 2665 00a6 00       		.byte	0
 2666 00a7 00       		.byte	0
 2667 00a8 0F       		.uleb128 0xf
 2668 00a9 34       		.uleb128 0x34
 2669 00aa 00       		.byte	0
 2670 00ab 03       		.uleb128 0x3
 2671 00ac 0E       		.uleb128 0xe
 2672 00ad 3A       		.uleb128 0x3a
 2673 00ae 0B       		.uleb128 0xb
 2674 00af 3B       		.uleb128 0x3b
 2675 00b0 0B       		.uleb128 0xb
 2676 00b1 39       		.uleb128 0x39
 2677 00b2 0B       		.uleb128 0xb
 2678 00b3 49       		.uleb128 0x49
 2679 00b4 13       		.uleb128 0x13
 2680 00b5 3F       		.uleb128 0x3f
 2681 00b6 19       		.uleb128 0x19
 2682 00b7 3C       		.uleb128 0x3c
 2683 00b8 19       		.uleb128 0x19
 2684 00b9 00       		.byte	0
 2685 00ba 00       		.byte	0
 2686 00bb 10       		.uleb128 0x10
 2687 00bc 17       		.uleb128 0x17
 2688 00bd 01       		.byte	0x1
 2689 00be 0B       		.uleb128 0xb
 2690 00bf 0B       		.uleb128 0xb
 2691 00c0 3A       		.uleb128 0x3a
 2692 00c1 0B       		.uleb128 0xb
 2693 00c2 3B       		.uleb128 0x3b
 2694 00c3 0B       		.uleb128 0xb
 2695 00c4 39       		.uleb128 0x39
 2696 00c5 0B       		.uleb128 0xb
 2697 00c6 01       		.uleb128 0x1
 2698 00c7 13       		.uleb128 0x13
 2699 00c8 00       		.byte	0
 2700 00c9 00       		.byte	0
 2701 00ca 11       		.uleb128 0x11
 2702 00cb 0D       		.uleb128 0xd
 2703 00cc 00       		.byte	0
 2704 00cd 03       		.uleb128 0x3
 2705 00ce 0E       		.uleb128 0xe
 2706 00cf 3A       		.uleb128 0x3a
 2707 00d0 0B       		.uleb128 0xb
 2708 00d1 3B       		.uleb128 0x3b
 2709 00d2 0B       		.uleb128 0xb
 2710 00d3 39       		.uleb128 0x39
 2711 00d4 0B       		.uleb128 0xb
 2712 00d5 49       		.uleb128 0x49
 2713 00d6 13       		.uleb128 0x13
 2714 00d7 00       		.byte	0
 2715 00d8 00       		.byte	0
 2716 00d9 12       		.uleb128 0x12
ARM GAS  /var/folders/l5/0x54b2c10074c8bt31ycjvl80000gp/T//cclaVARJ.s 			page 49


 2717 00da 15       		.uleb128 0x15
 2718 00db 01       		.byte	0x1
 2719 00dc 27       		.uleb128 0x27
 2720 00dd 19       		.uleb128 0x19
 2721 00de 49       		.uleb128 0x49
 2722 00df 13       		.uleb128 0x13
 2723 00e0 01       		.uleb128 0x1
 2724 00e1 13       		.uleb128 0x13
 2725 00e2 00       		.byte	0
 2726 00e3 00       		.byte	0
 2727 00e4 13       		.uleb128 0x13
 2728 00e5 01       		.uleb128 0x1
 2729 00e6 01       		.byte	0x1
 2730 00e7 49       		.uleb128 0x49
 2731 00e8 13       		.uleb128 0x13
 2732 00e9 01       		.uleb128 0x1
 2733 00ea 13       		.uleb128 0x13
 2734 00eb 00       		.byte	0
 2735 00ec 00       		.byte	0
 2736 00ed 14       		.uleb128 0x14
 2737 00ee 21       		.uleb128 0x21
 2738 00ef 00       		.byte	0
 2739 00f0 49       		.uleb128 0x49
 2740 00f1 13       		.uleb128 0x13
 2741 00f2 2F       		.uleb128 0x2f
 2742 00f3 0B       		.uleb128 0xb
 2743 00f4 00       		.byte	0
 2744 00f5 00       		.byte	0
 2745 00f6 15       		.uleb128 0x15
 2746 00f7 0D       		.uleb128 0xd
 2747 00f8 00       		.byte	0
 2748 00f9 03       		.uleb128 0x3
 2749 00fa 0E       		.uleb128 0xe
 2750 00fb 3A       		.uleb128 0x3a
 2751 00fc 0B       		.uleb128 0xb
 2752 00fd 3B       		.uleb128 0x3b
 2753 00fe 05       		.uleb128 0x5
 2754 00ff 39       		.uleb128 0x39
 2755 0100 0B       		.uleb128 0xb
 2756 0101 49       		.uleb128 0x49
 2757 0102 13       		.uleb128 0x13
 2758 0103 38       		.uleb128 0x38
 2759 0104 0B       		.uleb128 0xb
 2760 0105 00       		.byte	0
 2761 0106 00       		.byte	0
 2762 0107 16       		.uleb128 0x16
 2763 0108 16       		.uleb128 0x16
 2764 0109 00       		.byte	0
 2765 010a 03       		.uleb128 0x3
 2766 010b 0E       		.uleb128 0xe
 2767 010c 3A       		.uleb128 0x3a
 2768 010d 0B       		.uleb128 0xb
 2769 010e 3B       		.uleb128 0x3b
 2770 010f 05       		.uleb128 0x5
 2771 0110 39       		.uleb128 0x39
 2772 0111 0B       		.uleb128 0xb
 2773 0112 49       		.uleb128 0x49
ARM GAS  /var/folders/l5/0x54b2c10074c8bt31ycjvl80000gp/T//cclaVARJ.s 			page 50


 2774 0113 13       		.uleb128 0x13
 2775 0114 00       		.byte	0
 2776 0115 00       		.byte	0
 2777 0116 17       		.uleb128 0x17
 2778 0117 13       		.uleb128 0x13
 2779 0118 00       		.byte	0
 2780 0119 0B       		.uleb128 0xb
 2781 011a 0B       		.uleb128 0xb
 2782 011b 3A       		.uleb128 0x3a
 2783 011c 0B       		.uleb128 0xb
 2784 011d 3B       		.uleb128 0x3b
 2785 011e 0B       		.uleb128 0xb
 2786 011f 39       		.uleb128 0x39
 2787 0120 0B       		.uleb128 0xb
 2788 0121 00       		.byte	0
 2789 0122 00       		.byte	0
 2790 0123 18       		.uleb128 0x18
 2791 0124 04       		.uleb128 0x4
 2792 0125 01       		.byte	0x1
 2793 0126 3E       		.uleb128 0x3e
 2794 0127 0B       		.uleb128 0xb
 2795 0128 0B       		.uleb128 0xb
 2796 0129 0B       		.uleb128 0xb
 2797 012a 49       		.uleb128 0x49
 2798 012b 13       		.uleb128 0x13
 2799 012c 3A       		.uleb128 0x3a
 2800 012d 0B       		.uleb128 0xb
 2801 012e 3B       		.uleb128 0x3b
 2802 012f 0B       		.uleb128 0xb
 2803 0130 39       		.uleb128 0x39
 2804 0131 0B       		.uleb128 0xb
 2805 0132 01       		.uleb128 0x1
 2806 0133 13       		.uleb128 0x13
 2807 0134 00       		.byte	0
 2808 0135 00       		.byte	0
 2809 0136 19       		.uleb128 0x19
 2810 0137 28       		.uleb128 0x28
 2811 0138 00       		.byte	0
 2812 0139 03       		.uleb128 0x3
 2813 013a 0E       		.uleb128 0xe
 2814 013b 1C       		.uleb128 0x1c
 2815 013c 0B       		.uleb128 0xb
 2816 013d 00       		.byte	0
 2817 013e 00       		.byte	0
 2818 013f 1A       		.uleb128 0x1a
 2819 0140 34       		.uleb128 0x34
 2820 0141 00       		.byte	0
 2821 0142 03       		.uleb128 0x3
 2822 0143 08       		.uleb128 0x8
 2823 0144 3A       		.uleb128 0x3a
 2824 0145 0B       		.uleb128 0xb
 2825 0146 3B       		.uleb128 0x3b
 2826 0147 0B       		.uleb128 0xb
 2827 0148 39       		.uleb128 0x39
 2828 0149 0B       		.uleb128 0xb
 2829 014a 49       		.uleb128 0x49
 2830 014b 13       		.uleb128 0x13
ARM GAS  /var/folders/l5/0x54b2c10074c8bt31ycjvl80000gp/T//cclaVARJ.s 			page 51


 2831 014c 3F       		.uleb128 0x3f
 2832 014d 19       		.uleb128 0x19
 2833 014e 3C       		.uleb128 0x3c
 2834 014f 19       		.uleb128 0x19
 2835 0150 00       		.byte	0
 2836 0151 00       		.byte	0
 2837 0152 1B       		.uleb128 0x1b
 2838 0153 34       		.uleb128 0x34
 2839 0154 00       		.byte	0
 2840 0155 03       		.uleb128 0x3
 2841 0156 0E       		.uleb128 0xe
 2842 0157 3A       		.uleb128 0x3a
 2843 0158 0B       		.uleb128 0xb
 2844 0159 3B       		.uleb128 0x3b
 2845 015a 0B       		.uleb128 0xb
 2846 015b 39       		.uleb128 0x39
 2847 015c 0B       		.uleb128 0xb
 2848 015d 49       		.uleb128 0x49
 2849 015e 13       		.uleb128 0x13
 2850 015f 1C       		.uleb128 0x1c
 2851 0160 0B       		.uleb128 0xb
 2852 0161 00       		.byte	0
 2853 0162 00       		.byte	0
 2854 0163 1C       		.uleb128 0x1c
 2855 0164 34       		.uleb128 0x34
 2856 0165 00       		.byte	0
 2857 0166 03       		.uleb128 0x3
 2858 0167 0E       		.uleb128 0xe
 2859 0168 3A       		.uleb128 0x3a
 2860 0169 0B       		.uleb128 0xb
 2861 016a 3B       		.uleb128 0x3b
 2862 016b 0B       		.uleb128 0xb
 2863 016c 39       		.uleb128 0x39
 2864 016d 0B       		.uleb128 0xb
 2865 016e 49       		.uleb128 0x49
 2866 016f 13       		.uleb128 0x13
 2867 0170 1C       		.uleb128 0x1c
 2868 0171 0A       		.uleb128 0xa
 2869 0172 00       		.byte	0
 2870 0173 00       		.byte	0
 2871 0174 1D       		.uleb128 0x1d
 2872 0175 34       		.uleb128 0x34
 2873 0176 00       		.byte	0
 2874 0177 03       		.uleb128 0x3
 2875 0178 0E       		.uleb128 0xe
 2876 0179 3A       		.uleb128 0x3a
 2877 017a 0B       		.uleb128 0xb
 2878 017b 3B       		.uleb128 0x3b
 2879 017c 0B       		.uleb128 0xb
 2880 017d 39       		.uleb128 0x39
 2881 017e 0B       		.uleb128 0xb
 2882 017f 49       		.uleb128 0x49
 2883 0180 13       		.uleb128 0x13
 2884 0181 02       		.uleb128 0x2
 2885 0182 18       		.uleb128 0x18
 2886 0183 00       		.byte	0
 2887 0184 00       		.byte	0
ARM GAS  /var/folders/l5/0x54b2c10074c8bt31ycjvl80000gp/T//cclaVARJ.s 			page 52


 2888 0185 1E       		.uleb128 0x1e
 2889 0186 2E       		.uleb128 0x2e
 2890 0187 01       		.byte	0x1
 2891 0188 3F       		.uleb128 0x3f
 2892 0189 19       		.uleb128 0x19
 2893 018a 03       		.uleb128 0x3
 2894 018b 0E       		.uleb128 0xe
 2895 018c 3A       		.uleb128 0x3a
 2896 018d 0B       		.uleb128 0xb
 2897 018e 3B       		.uleb128 0x3b
 2898 018f 0B       		.uleb128 0xb
 2899 0190 39       		.uleb128 0x39
 2900 0191 0B       		.uleb128 0xb
 2901 0192 27       		.uleb128 0x27
 2902 0193 19       		.uleb128 0x19
 2903 0194 49       		.uleb128 0x49
 2904 0195 13       		.uleb128 0x13
 2905 0196 11       		.uleb128 0x11
 2906 0197 01       		.uleb128 0x1
 2907 0198 12       		.uleb128 0x12
 2908 0199 06       		.uleb128 0x6
 2909 019a 40       		.uleb128 0x40
 2910 019b 18       		.uleb128 0x18
 2911 019c 9742     		.uleb128 0x2117
 2912 019e 19       		.uleb128 0x19
 2913 019f 01       		.uleb128 0x1
 2914 01a0 13       		.uleb128 0x13
 2915 01a1 00       		.byte	0
 2916 01a2 00       		.byte	0
 2917 01a3 1F       		.uleb128 0x1f
 2918 01a4 898201   		.uleb128 0x4109
 2919 01a7 00       		.byte	0
 2920 01a8 11       		.uleb128 0x11
 2921 01a9 01       		.uleb128 0x1
 2922 01aa 31       		.uleb128 0x31
 2923 01ab 13       		.uleb128 0x13
 2924 01ac 00       		.byte	0
 2925 01ad 00       		.byte	0
 2926 01ae 20       		.uleb128 0x20
 2927 01af 898201   		.uleb128 0x4109
 2928 01b2 01       		.byte	0x1
 2929 01b3 11       		.uleb128 0x11
 2930 01b4 01       		.uleb128 0x1
 2931 01b5 31       		.uleb128 0x31
 2932 01b6 13       		.uleb128 0x13
 2933 01b7 01       		.uleb128 0x1
 2934 01b8 13       		.uleb128 0x13
 2935 01b9 00       		.byte	0
 2936 01ba 00       		.byte	0
 2937 01bb 21       		.uleb128 0x21
 2938 01bc 8A8201   		.uleb128 0x410a
 2939 01bf 00       		.byte	0
 2940 01c0 02       		.uleb128 0x2
 2941 01c1 18       		.uleb128 0x18
 2942 01c2 9142     		.uleb128 0x2111
 2943 01c4 18       		.uleb128 0x18
 2944 01c5 00       		.byte	0
ARM GAS  /var/folders/l5/0x54b2c10074c8bt31ycjvl80000gp/T//cclaVARJ.s 			page 53


 2945 01c6 00       		.byte	0
 2946 01c7 22       		.uleb128 0x22
 2947 01c8 2E       		.uleb128 0x2e
 2948 01c9 01       		.byte	0x1
 2949 01ca 03       		.uleb128 0x3
 2950 01cb 0E       		.uleb128 0xe
 2951 01cc 3A       		.uleb128 0x3a
 2952 01cd 0B       		.uleb128 0xb
 2953 01ce 3B       		.uleb128 0x3b
 2954 01cf 0B       		.uleb128 0xb
 2955 01d0 39       		.uleb128 0x39
 2956 01d1 0B       		.uleb128 0xb
 2957 01d2 27       		.uleb128 0x27
 2958 01d3 19       		.uleb128 0x19
 2959 01d4 49       		.uleb128 0x49
 2960 01d5 13       		.uleb128 0x13
 2961 01d6 11       		.uleb128 0x11
 2962 01d7 01       		.uleb128 0x1
 2963 01d8 12       		.uleb128 0x12
 2964 01d9 06       		.uleb128 0x6
 2965 01da 40       		.uleb128 0x40
 2966 01db 18       		.uleb128 0x18
 2967 01dc 9642     		.uleb128 0x2116
 2968 01de 19       		.uleb128 0x19
 2969 01df 01       		.uleb128 0x1
 2970 01e0 13       		.uleb128 0x13
 2971 01e1 00       		.byte	0
 2972 01e2 00       		.byte	0
 2973 01e3 23       		.uleb128 0x23
 2974 01e4 05       		.uleb128 0x5
 2975 01e5 00       		.byte	0
 2976 01e6 03       		.uleb128 0x3
 2977 01e7 08       		.uleb128 0x8
 2978 01e8 3A       		.uleb128 0x3a
 2979 01e9 0B       		.uleb128 0xb
 2980 01ea 3B       		.uleb128 0x3b
 2981 01eb 0B       		.uleb128 0xb
 2982 01ec 39       		.uleb128 0x39
 2983 01ed 0B       		.uleb128 0xb
 2984 01ee 49       		.uleb128 0x49
 2985 01ef 13       		.uleb128 0x13
 2986 01f0 02       		.uleb128 0x2
 2987 01f1 17       		.uleb128 0x17
 2988 01f2 B742     		.uleb128 0x2137
 2989 01f4 17       		.uleb128 0x17
 2990 01f5 00       		.byte	0
 2991 01f6 00       		.byte	0
 2992 01f7 24       		.uleb128 0x24
 2993 01f8 0B       		.uleb128 0xb
 2994 01f9 01       		.byte	0x1
 2995 01fa 55       		.uleb128 0x55
 2996 01fb 17       		.uleb128 0x17
 2997 01fc 00       		.byte	0
 2998 01fd 00       		.byte	0
 2999 01fe 25       		.uleb128 0x25
 3000 01ff 34       		.uleb128 0x34
 3001 0200 00       		.byte	0
ARM GAS  /var/folders/l5/0x54b2c10074c8bt31ycjvl80000gp/T//cclaVARJ.s 			page 54


 3002 0201 03       		.uleb128 0x3
 3003 0202 0E       		.uleb128 0xe
 3004 0203 3A       		.uleb128 0x3a
 3005 0204 0B       		.uleb128 0xb
 3006 0205 3B       		.uleb128 0x3b
 3007 0206 0B       		.uleb128 0xb
 3008 0207 39       		.uleb128 0x39
 3009 0208 0B       		.uleb128 0xb
 3010 0209 49       		.uleb128 0x49
 3011 020a 13       		.uleb128 0x13
 3012 020b 00       		.byte	0
 3013 020c 00       		.byte	0
 3014 020d 26       		.uleb128 0x26
 3015 020e 1D       		.uleb128 0x1d
 3016 020f 01       		.byte	0x1
 3017 0210 31       		.uleb128 0x31
 3018 0211 13       		.uleb128 0x13
 3019 0212 52       		.uleb128 0x52
 3020 0213 01       		.uleb128 0x1
 3021 0214 B842     		.uleb128 0x2138
 3022 0216 0B       		.uleb128 0xb
 3023 0217 55       		.uleb128 0x55
 3024 0218 17       		.uleb128 0x17
 3025 0219 58       		.uleb128 0x58
 3026 021a 0B       		.uleb128 0xb
 3027 021b 59       		.uleb128 0x59
 3028 021c 0B       		.uleb128 0xb
 3029 021d 57       		.uleb128 0x57
 3030 021e 0B       		.uleb128 0xb
 3031 021f 01       		.uleb128 0x1
 3032 0220 13       		.uleb128 0x13
 3033 0221 00       		.byte	0
 3034 0222 00       		.byte	0
 3035 0223 27       		.uleb128 0x27
 3036 0224 34       		.uleb128 0x34
 3037 0225 00       		.byte	0
 3038 0226 31       		.uleb128 0x31
 3039 0227 13       		.uleb128 0x13
 3040 0228 02       		.uleb128 0x2
 3041 0229 18       		.uleb128 0x18
 3042 022a 00       		.byte	0
 3043 022b 00       		.byte	0
 3044 022c 28       		.uleb128 0x28
 3045 022d 34       		.uleb128 0x34
 3046 022e 00       		.byte	0
 3047 022f 31       		.uleb128 0x31
 3048 0230 13       		.uleb128 0x13
 3049 0231 02       		.uleb128 0x2
 3050 0232 17       		.uleb128 0x17
 3051 0233 B742     		.uleb128 0x2137
 3052 0235 17       		.uleb128 0x17
 3053 0236 00       		.byte	0
 3054 0237 00       		.byte	0
 3055 0238 29       		.uleb128 0x29
 3056 0239 34       		.uleb128 0x34
 3057 023a 00       		.byte	0
 3058 023b 31       		.uleb128 0x31
ARM GAS  /var/folders/l5/0x54b2c10074c8bt31ycjvl80000gp/T//cclaVARJ.s 			page 55


 3059 023c 13       		.uleb128 0x13
 3060 023d 00       		.byte	0
 3061 023e 00       		.byte	0
 3062 023f 2A       		.uleb128 0x2a
 3063 0240 898201   		.uleb128 0x4109
 3064 0243 01       		.byte	0x1
 3065 0244 11       		.uleb128 0x11
 3066 0245 01       		.uleb128 0x1
 3067 0246 31       		.uleb128 0x31
 3068 0247 13       		.uleb128 0x13
 3069 0248 00       		.byte	0
 3070 0249 00       		.byte	0
 3071 024a 2B       		.uleb128 0x2b
 3072 024b 05       		.uleb128 0x5
 3073 024c 00       		.byte	0
 3074 024d 31       		.uleb128 0x31
 3075 024e 13       		.uleb128 0x13
 3076 024f 00       		.byte	0
 3077 0250 00       		.byte	0
 3078 0251 2C       		.uleb128 0x2c
 3079 0252 2E       		.uleb128 0x2e
 3080 0253 01       		.byte	0x1
 3081 0254 03       		.uleb128 0x3
 3082 0255 0E       		.uleb128 0xe
 3083 0256 3A       		.uleb128 0x3a
 3084 0257 0B       		.uleb128 0xb
 3085 0258 3B       		.uleb128 0x3b
 3086 0259 0B       		.uleb128 0xb
 3087 025a 39       		.uleb128 0x39
 3088 025b 0B       		.uleb128 0xb
 3089 025c 27       		.uleb128 0x27
 3090 025d 19       		.uleb128 0x19
 3091 025e 20       		.uleb128 0x20
 3092 025f 0B       		.uleb128 0xb
 3093 0260 01       		.uleb128 0x1
 3094 0261 13       		.uleb128 0x13
 3095 0262 00       		.byte	0
 3096 0263 00       		.byte	0
 3097 0264 2D       		.uleb128 0x2d
 3098 0265 05       		.uleb128 0x5
 3099 0266 00       		.byte	0
 3100 0267 03       		.uleb128 0x3
 3101 0268 0E       		.uleb128 0xe
 3102 0269 3A       		.uleb128 0x3a
 3103 026a 0B       		.uleb128 0xb
 3104 026b 3B       		.uleb128 0x3b
 3105 026c 0B       		.uleb128 0xb
 3106 026d 39       		.uleb128 0x39
 3107 026e 0B       		.uleb128 0xb
 3108 026f 49       		.uleb128 0x49
 3109 0270 13       		.uleb128 0x13
 3110 0271 00       		.byte	0
 3111 0272 00       		.byte	0
 3112 0273 2E       		.uleb128 0x2e
 3113 0274 2E       		.uleb128 0x2e
 3114 0275 01       		.byte	0x1
 3115 0276 03       		.uleb128 0x3
ARM GAS  /var/folders/l5/0x54b2c10074c8bt31ycjvl80000gp/T//cclaVARJ.s 			page 56


 3116 0277 0E       		.uleb128 0xe
 3117 0278 3A       		.uleb128 0x3a
 3118 0279 0B       		.uleb128 0xb
 3119 027a 3B       		.uleb128 0x3b
 3120 027b 0B       		.uleb128 0xb
 3121 027c 39       		.uleb128 0x39
 3122 027d 0B       		.uleb128 0xb
 3123 027e 27       		.uleb128 0x27
 3124 027f 19       		.uleb128 0x19
 3125 0280 49       		.uleb128 0x49
 3126 0281 13       		.uleb128 0x13
 3127 0282 20       		.uleb128 0x20
 3128 0283 0B       		.uleb128 0xb
 3129 0284 01       		.uleb128 0x1
 3130 0285 13       		.uleb128 0x13
 3131 0286 00       		.byte	0
 3132 0287 00       		.byte	0
 3133 0288 2F       		.uleb128 0x2f
 3134 0289 2E       		.uleb128 0x2e
 3135 028a 00       		.byte	0
 3136 028b 3F       		.uleb128 0x3f
 3137 028c 19       		.uleb128 0x19
 3138 028d 3C       		.uleb128 0x3c
 3139 028e 19       		.uleb128 0x19
 3140 028f 6E       		.uleb128 0x6e
 3141 0290 0E       		.uleb128 0xe
 3142 0291 03       		.uleb128 0x3
 3143 0292 0E       		.uleb128 0xe
 3144 0293 3A       		.uleb128 0x3a
 3145 0294 0B       		.uleb128 0xb
 3146 0295 3B       		.uleb128 0x3b
 3147 0296 0B       		.uleb128 0xb
 3148 0297 39       		.uleb128 0x39
 3149 0298 0B       		.uleb128 0xb
 3150 0299 00       		.byte	0
 3151 029a 00       		.byte	0
 3152 029b 30       		.uleb128 0x30
 3153 029c 2E       		.uleb128 0x2e
 3154 029d 00       		.byte	0
 3155 029e 3F       		.uleb128 0x3f
 3156 029f 19       		.uleb128 0x19
 3157 02a0 3C       		.uleb128 0x3c
 3158 02a1 19       		.uleb128 0x19
 3159 02a2 6E       		.uleb128 0x6e
 3160 02a3 0E       		.uleb128 0xe
 3161 02a4 03       		.uleb128 0x3
 3162 02a5 0E       		.uleb128 0xe
 3163 02a6 3A       		.uleb128 0x3a
 3164 02a7 0B       		.uleb128 0xb
 3165 02a8 3B       		.uleb128 0x3b
 3166 02a9 05       		.uleb128 0x5
 3167 02aa 39       		.uleb128 0x39
 3168 02ab 0B       		.uleb128 0xb
 3169 02ac 00       		.byte	0
 3170 02ad 00       		.byte	0
 3171 02ae 00       		.byte	0
 3172              		.section	.debug_loc,"",%progbits
ARM GAS  /var/folders/l5/0x54b2c10074c8bt31ycjvl80000gp/T//cclaVARJ.s 			page 57


 3173              	.Ldebug_loc0:
 3174              	.LVUS0:
 3175 0000 00       		.uleb128 0
 3176 0001 00       		.uleb128 .LVU9
 3177 0002 00       		.uleb128 .LVU9
 3178 0003 00       		.uleb128 0
 3179              	.LLST0:
 3180 0004 00000000 		.4byte	.LVL0
 3181 0008 24000000 		.4byte	.LVL1
 3182 000c 0100     		.2byte	0x1
 3183 000e 50       		.byte	0x50
 3184 000f 24000000 		.4byte	.LVL1
 3185 0013 94010000 		.4byte	.LFE9
 3186 0017 0400     		.2byte	0x4
 3187 0019 F3       		.byte	0xf3
 3188 001a 01       		.uleb128 0x1
 3189 001b 50       		.byte	0x50
 3190 001c 9F       		.byte	0x9f
 3191 001d 00000000 		.4byte	0
 3192 0021 00000000 		.4byte	0
 3193              	.LVUS1:
 3194 0025 00       		.uleb128 .LVU9
 3195 0026 01       		.uleb128 .LVU10
 3196 0027 00       		.uleb128 .LVU46
 3197 0028 00       		.uleb128 .LVU47
 3198 0029 00       		.uleb128 .LVU47
 3199 002a 00       		.uleb128 .LVU63
 3200              	.LLST1:
 3201 002b 24000000 		.4byte	.LVL1
 3202 002f 24000000 		.4byte	.LVL1
 3203 0033 0100     		.2byte	0x1
 3204 0035 56       		.byte	0x56
 3205 0036 F0000000 		.4byte	.LVL16
 3206 003a F4000000 		.4byte	.LVL17
 3207 003e 0100     		.2byte	0x1
 3208 0040 50       		.byte	0x50
 3209 0041 F4000000 		.4byte	.LVL17
 3210 0045 54010000 		.4byte	.LVL26
 3211 0049 0100     		.2byte	0x1
 3212 004b 56       		.byte	0x56
 3213 004c 00000000 		.4byte	0
 3214 0050 00000000 		.4byte	0
 3215              	.LVUS2:
 3216 0054 01       		.uleb128 .LVU49
 3217 0055 00       		.uleb128 .LVU53
 3218              	.LLST2:
 3219 0056 F8000000 		.4byte	.LVL18
 3220 005a 0B010000 		.4byte	.LVL19-1
 3221 005e 1F00     		.2byte	0x1f
 3222 0060 91       		.byte	0x91
 3223 0061 50       		.sleb128 -48
 3224 0062 94       		.byte	0x94
 3225 0063 02       		.byte	0x2
 3226 0064 38       		.byte	0x38
 3227 0065 14       		.byte	0x14
 3228 0066 14       		.byte	0x14
 3229 0067 1F       		.byte	0x1f
ARM GAS  /var/folders/l5/0x54b2c10074c8bt31ycjvl80000gp/T//cclaVARJ.s 			page 58


 3230 0068 23       		.byte	0x23
 3231 0069 10       		.uleb128 0x10
 3232 006a 24       		.byte	0x24
 3233 006b 0A       		.byte	0xa
 3234 006c FFFF     		.2byte	0xffff
 3235 006e 1A       		.byte	0x1a
 3236 006f 17       		.byte	0x17
 3237 0070 16       		.byte	0x16
 3238 0071 0A       		.byte	0xa
 3239 0072 FFFF     		.2byte	0xffff
 3240 0074 1A       		.byte	0x1a
 3241 0075 16       		.byte	0x16
 3242 0076 25       		.byte	0x25
 3243 0077 21       		.byte	0x21
 3244 0078 0A       		.byte	0xa
 3245 0079 FFFF     		.2byte	0xffff
 3246 007b 1A       		.byte	0x1a
 3247 007c 34       		.byte	0x34
 3248 007d 26       		.byte	0x26
 3249 007e 9F       		.byte	0x9f
 3250 007f 00000000 		.4byte	0
 3251 0083 00000000 		.4byte	0
 3252              	.LVUS3:
 3253 0087 02       		.uleb128 .LVU50
 3254 0088 00       		.uleb128 .LVU53
 3255              	.LLST3:
 3256 0089 F8000000 		.4byte	.LVL18
 3257 008d 0B010000 		.4byte	.LVL19-1
 3258 0091 3100     		.2byte	0x31
 3259 0093 91       		.byte	0x91
 3260 0094 50       		.sleb128 -48
 3261 0095 94       		.byte	0x94
 3262 0096 02       		.byte	0x2
 3263 0097 38       		.byte	0x38
 3264 0098 14       		.byte	0x14
 3265 0099 14       		.byte	0x14
 3266 009a 1F       		.byte	0x1f
 3267 009b 23       		.byte	0x23
 3268 009c 10       		.uleb128 0x10
 3269 009d 24       		.byte	0x24
 3270 009e 0A       		.byte	0xa
 3271 009f FFFF     		.2byte	0xffff
 3272 00a1 1A       		.byte	0x1a
 3273 00a2 17       		.byte	0x17
 3274 00a3 16       		.byte	0x16
 3275 00a4 0A       		.byte	0xa
 3276 00a5 FFFF     		.2byte	0xffff
 3277 00a7 1A       		.byte	0x1a
 3278 00a8 16       		.byte	0x16
 3279 00a9 25       		.byte	0x25
 3280 00aa 21       		.byte	0x21
 3281 00ab 0A       		.byte	0xa
 3282 00ac FFFF     		.2byte	0xffff
 3283 00ae 1A       		.byte	0x1a
 3284 00af 34       		.byte	0x34
 3285 00b0 26       		.byte	0x26
 3286 00b1 F7       		.byte	0xf7
ARM GAS  /var/folders/l5/0x54b2c10074c8bt31ycjvl80000gp/T//cclaVARJ.s 			page 59


 3287 00b2 2C       		.uleb128 0x2c
 3288 00b3 F7       		.byte	0xf7
 3289 00b4 25       		.uleb128 0x25
 3290 00b5 F4       		.byte	0xf4
 3291 00b6 25       		.uleb128 0x25
 3292 00b7 08       		.byte	0x8
 3293 00b8 00000000 		.4byte	0
 3294 00bc 0000B03F 		.4byte	0x3fb00000
 3295 00c0 1E       		.byte	0x1e
 3296 00c1 F7       		.byte	0xf7
 3297 00c2 33       		.uleb128 0x33
 3298 00c3 9F       		.byte	0x9f
 3299 00c4 00000000 		.4byte	0
 3300 00c8 00000000 		.4byte	0
 3301              	.LVUS4:
 3302 00cc 03       		.uleb128 .LVU15
 3303 00cd 00       		.uleb128 .LVU27
 3304              	.LLST4:
 3305 00ce 48000000 		.4byte	.LVL3
 3306 00d2 A8000000 		.4byte	.LVL9
 3307 00d6 2000     		.2byte	0x20
 3308 00d8 F5       		.byte	0xf5
 3309 00d9 06       		.uleb128 0x6
 3310 00da 25       		.uleb128 0x25
 3311 00db F4       		.byte	0xf4
 3312 00dc 25       		.uleb128 0x25
 3313 00dd 08       		.byte	0x8
 3314 00de 4260E5D0 		.4byte	0xd0e56042
 3315 00e2 22DBF33F 		.4byte	0x3ff3db22
 3316 00e6 1E       		.byte	0x1e
 3317 00e7 F4       		.byte	0xf4
 3318 00e8 25       		.uleb128 0x25
 3319 00e9 08       		.byte	0x8
 3320 00ea 00000060 		.4byte	0x60000000
 3321 00ee B81EF13F 		.4byte	0x3ff11eb8
 3322 00f2 1E       		.byte	0x1e
 3323 00f3 F7       		.byte	0xf7
 3324 00f4 3A       		.uleb128 0x3a
 3325 00f5 F7       		.byte	0xf7
 3326 00f6 00       		.uleb128 0
 3327 00f7 9F       		.byte	0x9f
 3328 00f8 00000000 		.4byte	0
 3329 00fc 00000000 		.4byte	0
 3330              	.LVUS5:
 3331 0100 00       		.uleb128 .LVU27
 3332 0101 00       		.uleb128 .LVU28
 3333 0102 00       		.uleb128 .LVU28
 3334 0103 00       		.uleb128 .LVU31
 3335 0104 00       		.uleb128 .LVU63
 3336 0105 00       		.uleb128 0
 3337              	.LLST5:
 3338 0106 A8000000 		.4byte	.LVL9
 3339 010a AC000000 		.4byte	.LVL10
 3340 010e 0100     		.2byte	0x1
 3341 0110 50       		.byte	0x50
 3342 0111 AC000000 		.4byte	.LVL10
 3343 0115 B8000000 		.4byte	.LVL12
ARM GAS  /var/folders/l5/0x54b2c10074c8bt31ycjvl80000gp/T//cclaVARJ.s 			page 60


 3344 0119 0100     		.2byte	0x1
 3345 011b 56       		.byte	0x56
 3346 011c 54010000 		.4byte	.LVL26
 3347 0120 94010000 		.4byte	.LFE9
 3348 0124 0100     		.2byte	0x1
 3349 0126 56       		.byte	0x56
 3350 0127 00000000 		.4byte	0
 3351 012b 00000000 		.4byte	0
 3352              		.section	.debug_aranges,"",%progbits
 3353 0000 24000000 		.4byte	0x24
 3354 0004 0200     		.2byte	0x2
 3355 0006 00000000 		.4byte	.Ldebug_info0
 3356 000a 04       		.byte	0x4
 3357 000b 00       		.byte	0
 3358 000c 0000     		.2byte	0
 3359 000e 0000     		.2byte	0
 3360 0010 00000000 		.4byte	.LFB9
 3361 0014 94010000 		.4byte	.LFE9-.LFB9
 3362 0018 00000000 		.4byte	.LFB10
 3363 001c 84000000 		.4byte	.LFE10-.LFB10
 3364 0020 00000000 		.4byte	0
 3365 0024 00000000 		.4byte	0
 3366              		.section	.debug_ranges,"",%progbits
 3367              	.Ldebug_ranges0:
 3368 0000 04000000 		.4byte	.LBB7
 3369 0004 08000000 		.4byte	.LBE7
 3370 0008 0C000000 		.4byte	.LBB18
 3371 000c C0000000 		.4byte	.LBE18
 3372 0010 C0000000 		.4byte	.LBB19
 3373 0014 94010000 		.4byte	.LBE19
 3374 0018 00000000 		.4byte	0
 3375 001c 00000000 		.4byte	0
 3376 0020 04000000 		.4byte	.LBB8
 3377 0024 08000000 		.4byte	.LBE8
 3378 0028 0C000000 		.4byte	.LBB12
 3379 002c 24000000 		.4byte	.LBE12
 3380 0030 C0000000 		.4byte	.LBB16
 3381 0034 54010000 		.4byte	.LBE16
 3382 0038 00000000 		.4byte	0
 3383 003c 00000000 		.4byte	0
 3384 0040 48000000 		.4byte	.LBB13
 3385 0044 B8000000 		.4byte	.LBE13
 3386 0048 54010000 		.4byte	.LBB17
 3387 004c 94010000 		.4byte	.LBE17
 3388 0050 00000000 		.4byte	0
 3389 0054 00000000 		.4byte	0
 3390 0058 00000000 		.4byte	.LFB9
 3391 005c 94010000 		.4byte	.LFE9
 3392 0060 00000000 		.4byte	.LFB10
 3393 0064 84000000 		.4byte	.LFE10
 3394 0068 00000000 		.4byte	0
 3395 006c 00000000 		.4byte	0
 3396              		.section	.debug_line,"",%progbits
 3397              	.Ldebug_line0:
 3398 0000 37040000 		.section	.debug_str,"MS",%progbits,1
 3398      0300AD02 
 3398      00000201 
ARM GAS  /var/folders/l5/0x54b2c10074c8bt31ycjvl80000gp/T//cclaVARJ.s 			page 61


 3398      FB0E0D00 
 3398      01010101 
 3399              	.LASF7:
 3400 0000 73697A65 		.ascii	"size_t\000"
 3400      5F7400
 3401              	.LASF73:
 3402 0007 7264796D 		.ascii	"rdymsg\000"
 3402      736700
 3403              	.LASF88:
 3404 000e 4F757470 		.ascii	"OutputQueue\000"
 3404      75745175 
 3404      65756500 
 3405              	.LASF8:
 3406 001a 5F5F7569 		.ascii	"__uint8_t\000"
 3406      6E74385F 
 3406      7400
 3407              	.LASF60:
 3408 0024 76746C69 		.ascii	"vtlist\000"
 3408      737400
 3409              	.LASF94:
 3410 002b 62736364 		.ascii	"bscdevice_t\000"
 3410      65766963 
 3410      655F7400 
 3411              	.LASF132:
 3412 0037 72786275 		.ascii	"rxbuf\000"
 3412      6600
 3413              	.LASF157:
 3414 003d 69326343 		.ascii	"i2cConfig\000"
 3414      6F6E6669 
 3414      6700
 3415              	.LASF15:
 3416 0047 6C6F6E67 		.ascii	"long long unsigned int\000"
 3416      206C6F6E 
 3416      6720756E 
 3416      7369676E 
 3416      65642069 
 3417              	.LASF155:
 3418 005e 6D637034 		.ascii	"mcp4725_address\000"
 3418      3732355F 
 3418      61646472 
 3418      65737300 
 3419              	.LASF128:
 3420 006e 61646472 		.ascii	"addr\000"
 3420      00
 3421              	.LASF169:
 3422 0073 69326353 		.ascii	"i2cStart\000"
 3422      74617274 
 3422      00
 3423              	.LASF74:
 3424 007c 65786974 		.ascii	"exitcode\000"
 3424      636F6465 
 3424      00
 3425              	.LASF174:
 3426 0085 69326352 		.ascii	"i2cReleaseBus\000"
 3426      656C6561 
 3426      73654275 
 3426      7300
ARM GAS  /var/folders/l5/0x54b2c10074c8bt31ycjvl80000gp/T//cclaVARJ.s 			page 62


 3427              	.LASF99:
 3428 0093 64617461 		.ascii	"dataFifo\000"
 3428      4669666F 
 3428      00
 3429              	.LASF31:
 3430 009c 705F7072 		.ascii	"p_prio\000"
 3430      696F00
 3431              	.LASF175:
 3432 00a3 6932634D 		.ascii	"i2cMasterTransmitTimeout\000"
 3432      61737465 
 3432      72547261 
 3432      6E736D69 
 3432      7454696D 
 3433              	.LASF152:
 3434 00bc 72656164 		.ascii	"readt\000"
 3434      7400
 3435              	.LASF125:
 3436 00c2 64657669 		.ascii	"device\000"
 3436      636500
 3437              	.LASF78:
 3438 00c9 715F7761 		.ascii	"q_waiting\000"
 3438      6974696E 
 3438      6700
 3439              	.LASF14:
 3440 00d3 6C6F6E67 		.ascii	"long long int\000"
 3440      206C6F6E 
 3440      6720696E 
 3440      7400
 3441              	.LASF6:
 3442 00e1 7369676E 		.ascii	"signed char\000"
 3442      65642063 
 3442      68617200 
 3443              	.LASF166:
 3444 00ed 63685379 		.ascii	"chSysInit\000"
 3444      73496E69 
 3444      7400
 3445              	.LASF141:
 3446 00f7 53445F53 		.ascii	"SD_STOP\000"
 3446      544F5000 
 3447              	.LASF63:
 3448 00ff 6D5F7175 		.ascii	"m_queue\000"
 3448      65756500 
 3449              	.LASF22:
 3450 0107 74736C69 		.ascii	"tslices_t\000"
 3450      6365735F 
 3450      7400
 3451              	.LASF114:
 3452 0111 4932435F 		.ascii	"I2C_UNINIT\000"
 3452      554E494E 
 3452      495400
 3453              	.LASF136:
 3454 011c 69326361 		.ascii	"i2caddr_t\000"
 3454      6464725F 
 3454      7400
 3455              	.LASF122:
 3456 0126 73746174 		.ascii	"state\000"
 3456      6500
ARM GAS  /var/folders/l5/0x54b2c10074c8bt31ycjvl80000gp/T//cclaVARJ.s 			page 63


 3457              	.LASF4:
 3458 012c 6C6F6E67 		.ascii	"long int\000"
 3458      20696E74 
 3458      00
 3459              	.LASF21:
 3460 0135 74737461 		.ascii	"tstate_t\000"
 3460      74655F74 
 3460      00
 3461              	.LASF183:
 3462 013e 6D696C6C 		.ascii	"millivolts\000"
 3462      69766F6C 
 3462      747300
 3463              	.LASF127:
 3464 0149 74687265 		.ascii	"thread\000"
 3464      616400
 3465              	.LASF101:
 3466 0150 64617461 		.ascii	"dataDelay\000"
 3466      44656C61 
 3466      7900
 3467              	.LASF80:
 3468 015a 715F6275 		.ascii	"q_buffer\000"
 3468      66666572 
 3468      00
 3469              	.LASF17:
 3470 0163 75696E74 		.ascii	"uint16_t\000"
 3470      31365F74 
 3470      00
 3471              	.LASF0:
 3472 016c 646F7562 		.ascii	"double\000"
 3472      6C6500
 3473              	.LASF117:
 3474 0173 4932435F 		.ascii	"I2C_ACTIVE_TX\000"
 3474      41435449 
 3474      56455F54 
 3474      5800
 3475              	.LASF158:
 3476 0181 74656D70 		.ascii	"temperature\000"
 3476      65726174 
 3476      75726500 
 3477              	.LASF97:
 3478 018d 64617461 		.ascii	"dataLength\000"
 3478      4C656E67 
 3478      746800
 3479              	.LASF93:
 3480 0198 5F69646C 		.ascii	"_idle_thread_wa\000"
 3480      655F7468 
 3480      72656164 
 3480      5F776100 
 3481              	.LASF95:
 3482 01a8 636F6E74 		.ascii	"control\000"
 3482      726F6C00 
 3483              	.LASF13:
 3484 01b0 5F5F7569 		.ascii	"__uint32_t\000"
 3484      6E743332 
 3484      5F7400
 3485              	.LASF43:
 3486 01bb 72656761 		.ascii	"regarm_t\000"
ARM GAS  /var/folders/l5/0x54b2c10074c8bt31ycjvl80000gp/T//cclaVARJ.s 			page 64


 3486      726D5F74 
 3486      00
 3487              	.LASF49:
 3488 01c4 76745F70 		.ascii	"vt_prev\000"
 3488      72657600 
 3489              	.LASF98:
 3490 01cc 736C6176 		.ascii	"slaveAddress\000"
 3490      65416464 
 3490      72657373 
 3490      00
 3491              	.LASF177:
 3492 01d9 474E5520 		.ascii	"GNU C17 8.3.1 20190703 (release) [gcc-8-branch revi"
 3492      43313720 
 3492      382E332E 
 3492      31203230 
 3492      31393037 
 3493 020c 73696F6E 		.ascii	"sion 273027] -mcpu=arm1176jz-s -mabi=apcs-gnu -mno-"
 3493      20323733 
 3493      3032375D 
 3493      202D6D63 
 3493      70753D61 
 3494 023f 7468756D 		.ascii	"thumb-interwork -mfloat-abi=soft -marm -march=armv6"
 3494      622D696E 
 3494      74657277 
 3494      6F726B20 
 3494      2D6D666C 
 3495 0272 6B7A202D 		.ascii	"kz -ggdb -O2 -fomit-frame-pointer -ffunction-sectio"
 3495      67676462 
 3495      202D4F32 
 3495      202D666F 
 3495      6D69742D 
 3496 02a5 6E73202D 		.ascii	"ns -fdata-sections\000"
 3496      66646174 
 3496      612D7365 
 3496      6374696F 
 3496      6E7300
 3497              	.LASF139:
 3498 02b8 49324330 		.ascii	"I2C0\000"
 3498      00
 3499              	.LASF71:
 3500 02bd 4576656E 		.ascii	"EventSource\000"
 3500      74536F75 
 3500      72636500 
 3501              	.LASF92:
 3502 02c9 42617365 		.ascii	"BaseSequentialStream\000"
 3502      53657175 
 3502      656E7469 
 3502      616C5374 
 3502      7265616D 
 3503              	.LASF168:
 3504 02de 63687072 		.ascii	"chprintf\000"
 3504      696E7466 
 3504      00
 3505              	.LASF1:
 3506 02e7 756E7369 		.ascii	"unsigned int\000"
 3506      676E6564 
 3506      20696E74 
ARM GAS  /var/folders/l5/0x54b2c10074c8bt31ycjvl80000gp/T//cclaVARJ.s 			page 65


 3506      00
 3507              	.LASF48:
 3508 02f4 76745F6E 		.ascii	"vt_next\000"
 3508      65787400 
 3509              	.LASF129:
 3510 02fc 74786275 		.ascii	"txbuf\000"
 3510      6600
 3511              	.LASF148:
 3512 0302 53657269 		.ascii	"SerialDriverVMT\000"
 3512      616C4472 
 3512      69766572 
 3512      564D5400 
 3513              	.LASF124:
 3514 0312 6572726F 		.ascii	"errors\000"
 3514      727300
 3515              	.LASF146:
 3516 0319 69717565 		.ascii	"iqueue\000"
 3516      756500
 3517              	.LASF5:
 3518 0320 6C6F6E67 		.ascii	"long unsigned int\000"
 3518      20756E73 
 3518      69676E65 
 3518      6420696E 
 3518      7400
 3519              	.LASF165:
 3520 0332 68616C49 		.ascii	"halInit\000"
 3520      6E697400 
 3521              	.LASF164:
 3522 033a 66616872 		.ascii	"fahrenheit\000"
 3522      656E6865 
 3522      697400
 3523              	.LASF150:
 3524 0345 67657474 		.ascii	"gett\000"
 3524      00
 3525              	.LASF46:
 3526 034a 76746675 		.ascii	"vtfunc_t\000"
 3526      6E635F74 
 3526      00
 3527              	.LASF153:
 3528 0353 746D7031 		.ascii	"tmp102_address\000"
 3528      30325F61 
 3528      64647265 
 3528      737300
 3529              	.LASF159:
 3530 0362 6C657665 		.ascii	"level\000"
 3530      6C00
 3531              	.LASF145:
 3532 0368 6576656E 		.ascii	"event\000"
 3532      7400
 3533              	.LASF3:
 3534 036e 73686F72 		.ascii	"short unsigned int\000"
 3534      7420756E 
 3534      7369676E 
 3534      65642069 
 3534      6E7400
 3535              	.LASF109:
 3536 0381 6770696F 		.ascii	"gpio_port_t\000"
ARM GAS  /var/folders/l5/0x54b2c10074c8bt31ycjvl80000gp/T//cclaVARJ.s 			page 66


 3536      5F706F72 
 3536      745F7400 
 3537              	.LASF105:
 3538 038d 6770636C 		.ascii	"gpclr\000"
 3538      7200
 3539              	.LASF162:
 3540 0393 7469636B 		.ascii	"ticks\000"
 3540      7300
 3541              	.LASF24:
 3542 0399 6D73675F 		.ascii	"msg_t\000"
 3542      7400
 3543              	.LASF147:
 3544 039f 6F717565 		.ascii	"oqueue\000"
 3544      756500
 3545              	.LASF179:
 3546 03a6 2F557365 		.ascii	"/Users/fernandoguirado/eclipse-workspace/ChibiOS-RP"
 3546      72732F66 
 3546      65726E61 
 3546      6E646F67 
 3546      75697261 
 3547 03d9 692D6D69 		.ascii	"i-minimo/testhal/BCM2835/I2C\000"
 3547      6E696D6F 
 3547      2F746573 
 3547      7468616C 
 3547      2F42434D 
 3548              	.LASF67:
 3549 03f6 656C5F6E 		.ascii	"el_next\000"
 3549      65787400 
 3550              	.LASF178:
 3551 03fe 6D61696E 		.ascii	"main.c\000"
 3551      2E6300
 3552              	.LASF151:
 3553 0405 77726974 		.ascii	"writet\000"
 3553      657400
 3554              	.LASF20:
 3555 040c 746D6F64 		.ascii	"tmode_t\000"
 3555      655F7400 
 3556              	.LASF163:
 3557 0414 63656C73 		.ascii	"celsius\000"
 3557      69757300 
 3558              	.LASF41:
 3559 041c 54687265 		.ascii	"ThreadsList\000"
 3559      6164734C 
 3559      69737400 
 3560              	.LASF25:
 3561 0428 6576656E 		.ascii	"eventmask_t\000"
 3561      746D6173 
 3561      6B5F7400 
 3562              	.LASF87:
 3563 0434 496E7075 		.ascii	"InputQueue\000"
 3563      74517565 
 3563      756500
 3564              	.LASF62:
 3565 043f 4D757465 		.ascii	"Mutex\000"
 3565      7800
 3566              	.LASF77:
 3567 0445 47656E65 		.ascii	"GenericQueue\000"
ARM GAS  /var/folders/l5/0x54b2c10074c8bt31ycjvl80000gp/T//cclaVARJ.s 			page 67


 3567      72696351 
 3567      75657565 
 3567      00
 3568              	.LASF42:
 3569 0452 73746B61 		.ascii	"stkalign_t\000"
 3569      6C69676E 
 3569      5F7400
 3570              	.LASF181:
 3571 045d 54687265 		.ascii	"Thread1\000"
 3571      61643100 
 3572              	.LASF170:
 3573 0465 63685468 		.ascii	"chThdCreateStatic\000"
 3573      64437265 
 3573      61746553 
 3573      74617469 
 3573      6300
 3574              	.LASF90:
 3575 0477 77726974 		.ascii	"write\000"
 3575      6500
 3576              	.LASF106:
 3577 047d 67706C65 		.ascii	"gplev\000"
 3577      7600
 3578              	.LASF149:
 3579 0483 70757474 		.ascii	"putt\000"
 3579      00
 3580              	.LASF50:
 3581 0488 76745F74 		.ascii	"vt_time\000"
 3581      696D6500 
 3582              	.LASF115:
 3583 0490 4932435F 		.ascii	"I2C_STOP\000"
 3583      53544F50 
 3583      00
 3584              	.LASF100:
 3585 0499 636C6F63 		.ascii	"clockDivider\000"
 3585      6B446976 
 3585      69646572 
 3585      00
 3586              	.LASF79:
 3587 04a6 715F636F 		.ascii	"q_counter\000"
 3587      756E7465 
 3587      7200
 3588              	.LASF51:
 3589 04b0 76745F66 		.ascii	"vt_func\000"
 3589      756E6300 
 3590              	.LASF180:
 3591 04b8 6D61696E 		.ascii	"main\000"
 3591      00
 3592              	.LASF160:
 3593 04bd 72657175 		.ascii	"request\000"
 3593      65737400 
 3594              	.LASF137:
 3595 04c5 69635F73 		.ascii	"ic_speed\000"
 3595      70656564 
 3595      00
 3596              	.LASF54:
 3597 04ce 56544C69 		.ascii	"VTList\000"
 3597      737400
ARM GAS  /var/folders/l5/0x54b2c10074c8bt31ycjvl80000gp/T//cclaVARJ.s 			page 68


 3598              	.LASF133:
 3599 04d5 72786279 		.ascii	"rxbytes\000"
 3599      74657300 
 3600              	.LASF82:
 3601 04dd 715F7772 		.ascii	"q_wrptr\000"
 3601      70747200 
 3602              	.LASF57:
 3603 04e5 725F6374 		.ascii	"r_ctx\000"
 3603      7800
 3604              	.LASF40:
 3605 04eb 54687265 		.ascii	"ThreadsQueue\000"
 3605      61647351 
 3605      75657565 
 3605      00
 3606              	.LASF111:
 3607 04f8 494F504F 		.ascii	"IOPORT0\000"
 3607      52543000 
 3608              	.LASF58:
 3609 0500 725F6375 		.ascii	"r_current\000"
 3609      7272656E 
 3609      7400
 3610              	.LASF69:
 3611 050a 656C5F6D 		.ascii	"el_mask\000"
 3611      61736B00 
 3612              	.LASF176:
 3613 0512 63685468 		.ascii	"chThdSleep\000"
 3613      64536C65 
 3613      657000
 3614              	.LASF104:
 3615 051d 67707365 		.ascii	"gpset\000"
 3615      7400
 3616              	.LASF107:
 3617 0523 67707075 		.ascii	"gppudclk\000"
 3617      64636C6B 
 3617      00
 3618              	.LASF2:
 3619 052c 666C6F61 		.ascii	"float\000"
 3619      7400
 3620              	.LASF156:
 3621 0532 77615468 		.ascii	"waThread1\000"
 3621      72656164 
 3621      3100
 3622              	.LASF134:
 3623 053c 72786964 		.ascii	"rxidx\000"
 3623      7800
 3624              	.LASF120:
 3625 0542 69326373 		.ascii	"i2cstate_t\000"
 3625      74617465 
 3625      5F7400
 3626              	.LASF86:
 3627 054d 716E6F74 		.ascii	"qnotify_t\000"
 3627      6966795F 
 3627      7400
 3628              	.LASF30:
 3629 0557 705F7072 		.ascii	"p_prev\000"
 3629      657600
 3630              	.LASF172:
ARM GAS  /var/folders/l5/0x54b2c10074c8bt31ycjvl80000gp/T//cclaVARJ.s 			page 69


 3631 055e 69326341 		.ascii	"i2cAcquireBus\000"
 3631      63717569 
 3631      72654275 
 3631      7300
 3632              	.LASF23:
 3633 056c 74707269 		.ascii	"tprio_t\000"
 3633      6F5F7400 
 3634              	.LASF83:
 3635 0574 715F7264 		.ascii	"q_rdptr\000"
 3635      70747200 
 3636              	.LASF135:
 3637 057c 69326366 		.ascii	"i2cflags_t\000"
 3637      6C616773 
 3637      5F7400
 3638              	.LASF126:
 3639 0587 6D757465 		.ascii	"mutex\000"
 3639      7800
 3640              	.LASF18:
 3641 058d 696E7433 		.ascii	"int32_t\000"
 3641      325F7400 
 3642              	.LASF9:
 3643 0595 756E7369 		.ascii	"unsigned char\000"
 3643      676E6564 
 3643      20636861 
 3643      7200
 3644              	.LASF68:
 3645 05a3 656C5F6C 		.ascii	"el_listener\000"
 3645      69737465 
 3645      6E657200 
 3646              	.LASF70:
 3647 05af 656C5F66 		.ascii	"el_flags\000"
 3647      6C616773 
 3647      00
 3648              	.LASF38:
 3649 05b8 705F6D74 		.ascii	"p_mtxlist\000"
 3649      786C6973 
 3649      7400
 3650              	.LASF10:
 3651 05c2 73686F72 		.ascii	"short int\000"
 3651      7420696E 
 3651      7400
 3652              	.LASF33:
 3653 05cc 705F7374 		.ascii	"p_state\000"
 3653      61746500 
 3654              	.LASF35:
 3655 05d4 705F7072 		.ascii	"p_preempt\000"
 3655      65656D70 
 3655      7400
 3656              	.LASF56:
 3657 05de 725F7072 		.ascii	"r_prio\000"
 3657      696F00
 3658              	.LASF108:
 3659 05e5 70696E5F 		.ascii	"pin_base\000"
 3659      62617365 
 3659      00
 3660              	.LASF76:
 3661 05ee 65776D61 		.ascii	"ewmask\000"
ARM GAS  /var/folders/l5/0x54b2c10074c8bt31ycjvl80000gp/T//cclaVARJ.s 			page 70


 3661      736B00
 3662              	.LASF29:
 3663 05f5 705F6E65 		.ascii	"p_next\000"
 3663      787400
 3664              	.LASF112:
 3665 05fc 494F504F 		.ascii	"IOPORT1\000"
 3665      52543100 
 3666              	.LASF89:
 3667 0604 42617365 		.ascii	"BaseSequentialStreamVMT\000"
 3667      53657175 
 3667      656E7469 
 3667      616C5374 
 3667      7265616D 
 3668              	.LASF34:
 3669 061c 705F666C 		.ascii	"p_flags\000"
 3669      61677300 
 3670              	.LASF28:
 3671 0624 54687265 		.ascii	"Thread\000"
 3671      616400
 3672              	.LASF119:
 3673 062b 4932435F 		.ascii	"I2C_LOCKED\000"
 3673      4C4F434B 
 3673      454400
 3674              	.LASF37:
 3675 0636 705F6570 		.ascii	"p_epending\000"
 3675      656E6469 
 3675      6E6700
 3676              	.LASF140:
 3677 0641 53445F55 		.ascii	"SD_UNINIT\000"
 3677      4E494E49 
 3677      5400
 3678              	.LASF19:
 3679 064b 75696E74 		.ascii	"uint32_t\000"
 3679      33325F74 
 3679      00
 3680              	.LASF184:
 3681 0654 6765745F 		.ascii	"get_temperature\000"
 3681      74656D70 
 3681      65726174 
 3681      75726500 
 3682              	.LASF55:
 3683 0664 725F7175 		.ascii	"r_queue\000"
 3683      65756500 
 3684              	.LASF47:
 3685 066c 56697274 		.ascii	"VirtualTimer\000"
 3685      75616C54 
 3685      696D6572 
 3685      00
 3686              	.LASF144:
 3687 0679 53657269 		.ascii	"SerialDriver\000"
 3687      616C4472 
 3687      69766572 
 3687      00
 3688              	.LASF118:
 3689 0686 4932435F 		.ascii	"I2C_ACTIVE_RX\000"
 3689      41435449 
 3689      56455F52 
ARM GAS  /var/folders/l5/0x54b2c10074c8bt31ycjvl80000gp/T//cclaVARJ.s 			page 71


 3689      5800
 3690              	.LASF91:
 3691 0694 72656164 		.ascii	"read\000"
 3691      00
 3692              	.LASF123:
 3693 0699 636F6E66 		.ascii	"config\000"
 3693      696700
 3694              	.LASF167:
 3695 06a0 73645374 		.ascii	"sdStart\000"
 3695      61727400 
 3696              	.LASF11:
 3697 06a8 5F5F7569 		.ascii	"__uint16_t\000"
 3697      6E743136 
 3697      5F7400
 3698              	.LASF65:
 3699 06b3 6D5F6E65 		.ascii	"m_next\000"
 3699      787400
 3700              	.LASF27:
 3701 06ba 73797374 		.ascii	"systime_t\000"
 3701      696D655F 
 3701      7400
 3702              	.LASF39:
 3703 06c4 705F7265 		.ascii	"p_realprio\000"
 3703      616C7072 
 3703      696F00
 3704              	.LASF12:
 3705 06cf 5F5F696E 		.ascii	"__int32_t\000"
 3705      7433325F 
 3705      7400
 3706              	.LASF116:
 3707 06d9 4932435F 		.ascii	"I2C_READY\000"
 3707      52454144 
 3707      5900
 3708              	.LASF121:
 3709 06e3 49324344 		.ascii	"I2CDriver\000"
 3709      72697665 
 3709      7200
 3710              	.LASF45:
 3711 06ed 636F6E74 		.ascii	"context\000"
 3711      65787400 
 3712              	.LASF44:
 3713 06f5 696E7463 		.ascii	"intctx\000"
 3713      747800
 3714              	.LASF142:
 3715 06fc 53445F52 		.ascii	"SD_READY\000"
 3715      45414459 
 3715      00
 3716              	.LASF154:
 3717 0705 74656D70 		.ascii	"temperature_scaling\000"
 3717      65726174 
 3717      7572655F 
 3717      7363616C 
 3717      696E6700 
 3718              	.LASF182:
 3719 0719 7365745F 		.ascii	"set_voltage\000"
 3719      766F6C74 
 3719      61676500 
ARM GAS  /var/folders/l5/0x54b2c10074c8bt31ycjvl80000gp/T//cclaVARJ.s 			page 72


 3720              	.LASF171:
 3721 0725 63685468 		.ascii	"chThdWait\000"
 3721      64576169 
 3721      7400
 3722              	.LASF52:
 3723 072f 76745F70 		.ascii	"vt_par\000"
 3723      617200
 3724              	.LASF26:
 3725 0736 666C6167 		.ascii	"flagsmask_t\000"
 3725      736D6173 
 3725      6B5F7400 
 3726              	.LASF138:
 3727 0742 49324343 		.ascii	"I2CConfig\000"
 3727      6F6E6669 
 3727      6700
 3728              	.LASF143:
 3729 074c 73647374 		.ascii	"sdstate_t\000"
 3729      6174655F 
 3729      7400
 3730              	.LASF131:
 3731 0756 74786964 		.ascii	"txidx\000"
 3731      7800
 3732              	.LASF81:
 3733 075c 715F746F 		.ascii	"q_top\000"
 3733      7000
 3734              	.LASF72:
 3735 0762 65735F6E 		.ascii	"es_next\000"
 3735      65787400 
 3736              	.LASF96:
 3737 076a 73746174 		.ascii	"status\000"
 3737      757300
 3738              	.LASF59:
 3739 0771 52656164 		.ascii	"ReadyList\000"
 3739      794C6973 
 3739      7400
 3740              	.LASF84:
 3741 077b 715F6E6F 		.ascii	"q_notify\000"
 3741      74696679 
 3741      00
 3742              	.LASF61:
 3743 0784 726C6973 		.ascii	"rlist\000"
 3743      7400
 3744              	.LASF16:
 3745 078a 75696E74 		.ascii	"uint8_t\000"
 3745      385F7400 
 3746              	.LASF103:
 3747 0792 6C617463 		.ascii	"latch\000"
 3747      6800
 3748              	.LASF173:
 3749 0798 6932634D 		.ascii	"i2cMasterReceiveTimeout\000"
 3749      61737465 
 3749      72526563 
 3749      65697665 
 3749      54696D65 
 3750              	.LASF66:
 3751 07b0 4576656E 		.ascii	"EventListener\000"
 3751      744C6973 
ARM GAS  /var/folders/l5/0x54b2c10074c8bt31ycjvl80000gp/T//cclaVARJ.s 			page 73


 3751      74656E65 
 3751      7200
 3752              	.LASF75:
 3753 07be 77746F62 		.ascii	"wtobjp\000"
 3753      6A7000
 3754              	.LASF53:
 3755 07c5 76745F73 		.ascii	"vt_systime\000"
 3755      79737469 
 3755      6D6500
 3756              	.LASF85:
 3757 07d0 715F6C69 		.ascii	"q_link\000"
 3757      6E6B00
 3758              	.LASF110:
 3759 07d7 50414C43 		.ascii	"PALConfig\000"
 3759      6F6E6669 
 3759      6700
 3760              	.LASF64:
 3761 07e1 6D5F6F77 		.ascii	"m_owner\000"
 3761      6E657200 
 3762              	.LASF161:
 3763 07e9 72657375 		.ascii	"result\000"
 3763      6C7400
 3764              	.LASF113:
 3765 07f0 70616C5F 		.ascii	"pal_default_config\000"
 3765      64656661 
 3765      756C745F 
 3765      636F6E66 
 3765      696700
 3766              	.LASF32:
 3767 0803 705F6374 		.ascii	"p_ctx\000"
 3767      7800
 3768              	.LASF36:
 3769 0809 705F7761 		.ascii	"p_waiting\000"
 3769      6974696E 
 3769      6700
 3770              	.LASF130:
 3771 0813 74786279 		.ascii	"txbytes\000"
 3771      74657300 
 3772              	.LASF102:
 3773 081b 636C6F63 		.ascii	"clockStretchTimeout\000"
 3773      6B537472 
 3773      65746368 
 3773      54696D65 
 3773      6F757400 
 3774              		.ident	"GCC: (GNU Tools for Arm Embedded Processors 8-2019-q3-update) 8.3.1 20190703 (release) [gc
ARM GAS  /var/folders/l5/0x54b2c10074c8bt31ycjvl80000gp/T//cclaVARJ.s 			page 74


DEFINED SYMBOLS
                            *ABS*:0000000000000000 main.c
/var/folders/l5/0x54b2c10074c8bt31ycjvl80000gp/T//cclaVARJ.s:14     .text.Thread1:0000000000000000 $a
/var/folders/l5/0x54b2c10074c8bt31ycjvl80000gp/T//cclaVARJ.s:20     .text.Thread1:0000000000000000 Thread1
/var/folders/l5/0x54b2c10074c8bt31ycjvl80000gp/T//cclaVARJ.s:252    .text.Thread1:0000000000000168 $d
/var/folders/l5/0x54b2c10074c8bt31ycjvl80000gp/T//cclaVARJ.s:270    .text.startup.main:0000000000000000 $a
/var/folders/l5/0x54b2c10074c8bt31ycjvl80000gp/T//cclaVARJ.s:276    .text.startup.main:0000000000000000 main
/var/folders/l5/0x54b2c10074c8bt31ycjvl80000gp/T//cclaVARJ.s:341    .text.startup.main:000000000000006c $d
/var/folders/l5/0x54b2c10074c8bt31ycjvl80000gp/T//cclaVARJ.s:351    .bss.waThread1:0000000000000000 $d
/var/folders/l5/0x54b2c10074c8bt31ycjvl80000gp/T//cclaVARJ.s:355    .bss.waThread1:0000000000000000 waThread1
/var/folders/l5/0x54b2c10074c8bt31ycjvl80000gp/T//cclaVARJ.s:358    .rodata.Thread1.str1.4:0000000000000000 $d
/var/folders/l5/0x54b2c10074c8bt31ycjvl80000gp/T//cclaVARJ.s:367    .rodata.main.str1.4:0000000000000000 $d

UNDEFINED SYMBOLS
__floatunsidf
__muldf3
__truncdfsf2
__mulsf3
__divsf3
__addsf3
__extendsfdf2
__fixunsdfsi
chprintf
i2cAcquireBus
i2cMasterTransmitTimeout
i2cReleaseBus
chThdSleep
i2cMasterReceiveTimeout
I2C0
SD1
halInit
chSysInit
sdStart
i2cStart
chThdCreateStatic
chThdWait
rlist
