ARM GAS  /var/folders/l5/0x54b2c10074c8bt31ycjvl80000gp/T//cclaVARJ.s 			page 1


   1              		.file	"main.c"
   2              		.text
   3              	.Ltext0:
   4              		.cfi_sections	.debug_frame
   5              		.global	__floatunsidf
   6              		.global	__muldf3
   7              		.global	__truncdfsf2
   8              		.global	__mulsf3
   9              		.global	__divsf3
  10              		.global	__addsf3
  11              		.global	__extendsfdf2
  12              		.global	__fixunsdfsi
  13              		.section	.text.Thread1,"ax",%progbits
  14              		.align	2
  15              		.arch armv6kz
  16              		.syntax unified
  17              		.arm
  18              		.fpu softvfp
  19              		.type	Thread1, %function
  20              	Thread1:
  21              	.LVL0:
  22              	.LFB9:
  23              		.file 1 "main.c"
  24              		.loc 1 72 31 view -0
  25              		.cfi_startproc
  26              		@ args = 0, pretend = 0, frame = 4
  27              		@ frame_needed = 0, uses_anonymous_args = 0
  28              		.loc 1 72 31 is_stmt 0 view .LVU1
  29 0000 F04F2DE9 		push	{r4, r5, r6, r7, r8, r9, r10, fp, lr}
  30              		.cfi_def_cfa_offset 36
  31              		.cfi_offset 4, -36
  32              		.cfi_offset 5, -32
  33              		.cfi_offset 6, -28
  34              		.cfi_offset 7, -24
  35              		.cfi_offset 8, -20
  36              		.cfi_offset 9, -16
  37              		.cfi_offset 10, -12
  38              		.cfi_offset 11, -8
  39              		.cfi_offset 14, -4
  40              	.LBB7:
  41              	.LBB8:
  42              	.LBB9:
  43              		.loc 1 41 25 view .LVU2
  44 0004 0080A0E3 		mov	r8, #0
  45              	.LBE9:
  46              	.LBE8:
  47              	.LBE7:
  48              		.loc 1 72 31 view .LVU3
  49 0008 10D04DE2 		sub	sp, sp, #16
  50              		.cfi_def_cfa_offset 52
  51              	.LBB18:
  52              	.LBB12:
  53              	.LBB10:
  54              		.loc 1 41 25 view .LVU4
  55 000c 54919FE5 		ldr	r9, .L14
  56              		.loc 1 33 3 view .LVU5
  57 0010 54419FE5 		ldr	r4, .L14+4
ARM GAS  /var/folders/l5/0x54b2c10074c8bt31ycjvl80000gp/T//cclaVARJ.s 			page 2


  58              		.loc 1 42 31 view .LVU6
  59 0014 54B19FE5 		ldr	fp, .L14+8
  60              		.loc 1 42 35 view .LVU7
  61 0018 54A19FE5 		ldr	r10, .L14+12
  62              		.loc 1 45 5 view .LVU8
  63 001c 54519FE5 		ldr	r5, .L14+16
  64 0020 260000EA 		b	.L4
  65              	.LVL1:
  66              	.L2:
  67              		.loc 1 47 3 is_stmt 1 view .LVU9
  68              		.loc 1 47 3 is_stmt 0 view .LVU10
  69              	.LBE10:
  70              	.LBE12:
  71              		.loc 1 77 5 is_stmt 1 view .LVU11
  72 0024 0700A0E1 		mov	r0, r7
  73 0028 FEFFFFEB 		bl	__extendsfdf2
  74              	.LVL2:
  75 002c 0060A0E1 		mov	r6, r0
  76 0030 0170A0E1 		mov	r7, r1
  77 0034 0020A0E1 		mov	r2, r0
  78 0038 0130A0E1 		mov	r3, r1
  79 003c 0500A0E1 		mov	r0, r5
  80 0040 34119FE5 		ldr	r1, .L14+20
  81 0044 FEFFFFEB 		bl	chprintf
  82              	.LVL3:
  83              		.loc 1 78 5 view .LVU12
  84              	.LBB13:
  85              	.LBI13:
  86              		.loc 1 52 13 view .LVU13
  87              	.LBB14:
  88              		.loc 1 53 3 view .LVU14
  89              		.loc 1 54 3 view .LVU15
  90              		.loc 1 55 3 view .LVU16
  91              		.loc 1 56 3 view .LVU17
  92              		.loc 1 53 31 is_stmt 0 view .LVU18
  93 0048 30219FE5 		ldr	r2, .L14+24
  94 004c 30319FE5 		ldr	r3, .L14+28
  95 0050 0600A0E1 		mov	r0, r6
  96 0054 0710A0E1 		mov	r1, r7
  97 0058 FEFFFFEB 		bl	__muldf3
  98              	.LVL4:
  99              		.loc 1 53 39 view .LVU19
 100 005c 0622A0E3 		mov	r2, #1610612736
 101 0060 20319FE5 		ldr	r3, .L14+32
 102 0064 FEFFFFEB 		bl	__muldf3
 103              	.LVL5:
 104              		.loc 1 53 12 view .LVU20
 105 0068 FEFFFFEB 		bl	__fixunsdfsi
 106              	.LVL6:
 107              		.loc 1 55 14 view .LVU21
 108 006c B03FBFE6 		rev16	r3, r0
 109              		.loc 1 58 3 view .LVU22
 110 0070 0400A0E1 		mov	r0, r4
 111              		.loc 1 55 14 view .LVU23
 112 0074 BC30CDE1 		strh	r3, [sp, #12]	@ movhi
 113              		.loc 1 58 3 is_stmt 1 view .LVU24
 114 0078 FEFFFFEB 		bl	i2cAcquireBus
ARM GAS  /var/folders/l5/0x54b2c10074c8bt31ycjvl80000gp/T//cclaVARJ.s 			page 3


 115              	.LVL7:
 116              		.loc 1 60 3 view .LVU25
 117              		.loc 1 60 18 is_stmt 0 view .LVU26
 118 007c 0030A0E3 		mov	r3, #0
 119 0080 FA2FA0E3 		mov	r2, #1000
 120 0084 04308DE5 		str	r3, [sp, #4]
 121 0088 08208DE5 		str	r2, [sp, #8]
 122 008c 00308DE5 		str	r3, [sp]
 123 0090 0C208DE2 		add	r2, sp, #12
 124 0094 0230A0E3 		mov	r3, #2
 125 0098 6210A0E3 		mov	r1, #98
 126 009c 0400A0E1 		mov	r0, r4
 127 00a0 FEFFFFEB 		bl	i2cMasterTransmitTimeout
 128              	.LVL8:
 129 00a4 0060A0E1 		mov	r6, r0
 130              	.LVL9:
 131              		.loc 1 64 3 is_stmt 1 view .LVU27
 132 00a8 0400A0E1 		mov	r0, r4
 133              	.LVL10:
 134              		.loc 1 64 3 is_stmt 0 view .LVU28
 135 00ac FEFFFFEB 		bl	i2cReleaseBus
 136              	.LVL11:
 137              		.loc 1 66 3 is_stmt 1 view .LVU29
 138              		.loc 1 66 6 is_stmt 0 view .LVU30
 139 00b0 000056E3 		cmp	r6, #0
 140 00b4 2600001A 		bne	.L13
 141              	.L3:
 142              	.LVL12:
 143              		.loc 1 66 6 view .LVU31
 144              	.LBE14:
 145              	.LBE13:
 146              		.loc 1 79 5 is_stmt 1 view .LVU32
 147 00b8 FA0FA0E3 		mov	r0, #1000
 148 00bc FEFFFFEB 		bl	chThdSleep
 149              	.LVL13:
 150              	.L4:
 151              		.loc 1 79 5 is_stmt 0 view .LVU33
 152              	.LBE18:
 153              		.loc 1 73 3 is_stmt 1 discriminator 1 view .LVU34
 154              		.loc 1 74 39 discriminator 1 view .LVU35
 155              		.loc 1 75 3 discriminator 1 view .LVU36
 156              	.LBB19:
 157              		.loc 1 76 5 discriminator 1 view .LVU37
 158              	.LBB16:
 159              	.LBI8:
 160              		.loc 1 30 14 discriminator 1 view .LVU38
 161              	.LBB11:
 162              		.loc 1 31 3 discriminator 1 view .LVU39
 163              		.loc 1 31 11 is_stmt 0 discriminator 1 view .LVU40
 164 00c0 0030A0E3 		mov	r3, #0
 165              		.loc 1 33 3 discriminator 1 view .LVU41
 166 00c4 0400A0E1 		mov	r0, r4
 167              		.loc 1 31 11 discriminator 1 view .LVU42
 168 00c8 BC30CDE1 		strh	r3, [sp, #12]	@ movhi
 169              		.loc 1 33 3 is_stmt 1 discriminator 1 view .LVU43
 170 00cc FEFFFFEB 		bl	i2cAcquireBus
 171              	.LVL14:
ARM GAS  /var/folders/l5/0x54b2c10074c8bt31ycjvl80000gp/T//cclaVARJ.s 			page 4


 172              		.loc 1 35 3 discriminator 1 view .LVU44
 173              		.loc 1 35 18 is_stmt 0 discriminator 1 view .LVU45
 174 00d0 FA2FA0E3 		mov	r2, #1000
 175 00d4 0230A0E3 		mov	r3, #2
 176 00d8 4810A0E3 		mov	r1, #72
 177 00dc 00208DE5 		str	r2, [sp]
 178 00e0 0400A0E1 		mov	r0, r4
 179 00e4 0C208DE2 		add	r2, sp, #12
 180 00e8 FEFFFFEB 		bl	i2cMasterReceiveTimeout
 181              	.LVL15:
 182 00ec 0060A0E1 		mov	r6, r0
 183              	.LVL16:
 184              		.loc 1 38 3 is_stmt 1 discriminator 1 view .LVU46
 185 00f0 0400A0E1 		mov	r0, r4
 186              	.LVL17:
 187              		.loc 1 38 3 is_stmt 0 discriminator 1 view .LVU47
 188 00f4 FEFFFFEB 		bl	i2cReleaseBus
 189              	.LVL18:
 190              		.loc 1 40 3 is_stmt 1 discriminator 1 view .LVU48
 191              		.loc 1 41 3 discriminator 1 view .LVU49
 192              		.loc 1 42 3 discriminator 1 view .LVU50
 193              		.loc 1 40 51 is_stmt 0 discriminator 1 view .LVU51
 194 00f8 BC00DDE1 		ldrh	r0, [sp, #12]
 195 00fc B00FBFE6 		rev16	r0, r0
 196 0100 7000FFE6 		uxth	r0, r0
 197              		.loc 1 41 25 discriminator 1 view .LVU52
 198 0104 2002A0E1 		lsr	r0, r0, #4
 199 0108 FEFFFFEB 		bl	__floatunsidf
 200              	.LVL19:
 201              		.loc 1 41 25 discriminator 1 view .LVU53
 202 010c 0820A0E1 		mov	r2, r8
 203 0110 0930A0E1 		mov	r3, r9
 204 0114 FEFFFFEB 		bl	__muldf3
 205              	.LVL20:
 206              		.loc 1 41 9 discriminator 1 view .LVU54
 207 0118 FEFFFFEB 		bl	__truncdfsf2
 208              	.LVL21:
 209              		.loc 1 42 31 discriminator 1 view .LVU55
 210 011c 0B10A0E1 		mov	r1, fp
 211 0120 FEFFFFEB 		bl	__mulsf3
 212              	.LVL22:
 213              		.loc 1 42 35 discriminator 1 view .LVU56
 214 0124 0A10A0E1 		mov	r1, r10
 215 0128 FEFFFFEB 		bl	__divsf3
 216              	.LVL23:
 217              		.loc 1 42 9 discriminator 1 view .LVU57
 218 012c 4214A0E3 		mov	r1, #1107296256
 219 0130 FEFFFFEB 		bl	__addsf3
 220              	.LVL24:
 221              		.loc 1 44 6 discriminator 1 view .LVU58
 222 0134 000056E3 		cmp	r6, #0
 223              		.loc 1 42 9 discriminator 1 view .LVU59
 224 0138 0070A0E1 		mov	r7, r0
 225              		.loc 1 44 3 is_stmt 1 discriminator 1 view .LVU60
 226              		.loc 1 44 6 is_stmt 0 discriminator 1 view .LVU61
 227 013c B8FFFF0A 		beq	.L2
 228              		.loc 1 45 5 is_stmt 1 view .LVU62
ARM GAS  /var/folders/l5/0x54b2c10074c8bt31ycjvl80000gp/T//cclaVARJ.s 			page 5


 229 0140 0620A0E1 		mov	r2, r6
 230 0144 40109FE5 		ldr	r1, .L14+36
 231 0148 0500A0E1 		mov	r0, r5
 232 014c FEFFFFEB 		bl	chprintf
 233              	.LVL25:
 234 0150 B3FFFFEA 		b	.L2
 235              	.LVL26:
 236              	.L13:
 237              		.loc 1 45 5 is_stmt 0 view .LVU63
 238              	.LBE11:
 239              	.LBE16:
 240              	.LBB17:
 241              	.LBB15:
 242              		.loc 1 67 5 is_stmt 1 view .LVU64
 243 0154 0620A0E1 		mov	r2, r6
 244 0158 30109FE5 		ldr	r1, .L14+40
 245 015c 0500A0E1 		mov	r0, r5
 246 0160 FEFFFFEB 		bl	chprintf
 247              	.LVL27:
 248 0164 D3FFFFEA 		b	.L3
 249              	.L15:
 250              		.align	2
 251              	.L14:
 252 0168 0000B03F 		.word	1068498944
 253 016c 00000000 		.word	I2C0
 254 0170 00001041 		.word	1091567616
 255 0174 0000A040 		.word	1084227584
 256 0178 00000000 		.word	SD1
 257 017c 24000000 		.word	.LC1
 258 0180 4260E5D0 		.word	-790273982
 259 0184 22DBF33F 		.word	1072945954
 260 0188 B81EF13F 		.word	1072766648
 261 018c 00000000 		.word	.LC0
 262 0190 38000000 		.word	.LC2
 263              	.LBE15:
 264              	.LBE17:
 265              	.LBE19:
 266              		.cfi_endproc
 267              	.LFE9:
 268              		.size	Thread1, .-Thread1
 269              		.section	.text.startup.main,"ax",%progbits
 270              		.align	2
 271              		.global	main
 272              		.syntax unified
 273              		.arm
 274              		.fpu softvfp
 275              		.type	main, %function
 276              	main:
 277              	.LFB10:
 278              		.loc 1 87 16 view -0
 279              		.cfi_startproc
 280              		@ args = 0, pretend = 0, frame = 4
 281              		@ frame_needed = 0, uses_anonymous_args = 0
 282              		.loc 1 88 3 view .LVU66
 283              		.loc 1 87 16 is_stmt 0 view .LVU67
 284 0000 30402DE9 		push	{r4, r5, lr}
 285              		.cfi_def_cfa_offset 12
ARM GAS  /var/folders/l5/0x54b2c10074c8bt31ycjvl80000gp/T//cclaVARJ.s 			page 6


 286              		.cfi_offset 4, -12
 287              		.cfi_offset 5, -8
 288              		.cfi_offset 14, -4
 289              		.loc 1 106 3 view .LVU68
 290 0004 0040A0E3 		mov	r4, #0
 291              		.loc 1 94 3 view .LVU69
 292 0008 5C509FE5 		ldr	r5, .L18
 293              		.loc 1 87 16 view .LVU70
 294 000c 08D04DE2 		sub	sp, sp, #8
 295              		.cfi_def_cfa_offset 20
 296              		.loc 1 88 3 view .LVU71
 297 0010 FEFFFFEB 		bl	halInit
 298              	.LVL28:
 299              		.loc 1 89 3 is_stmt 1 view .LVU72
 300 0014 FEFFFFEB 		bl	chSysInit
 301              	.LVL29:
 302              		.loc 1 94 3 view .LVU73
 303 0018 0500A0E1 		mov	r0, r5
 304 001c 0410A0E1 		mov	r1, r4
 305 0020 FEFFFFEB 		bl	sdStart
 306              	.LVL30:
 307              		.loc 1 95 3 view .LVU74
 308 0024 0500A0E1 		mov	r0, r5
 309 0028 40109FE5 		ldr	r1, .L18+4
 310 002c FEFFFFEB 		bl	chprintf
 311              	.LVL31:
 312              		.loc 1 100 3 view .LVU75
 313              		.loc 1 101 3 view .LVU76
 314 0030 04108DE2 		add	r1, sp, #4
 315 0034 38009FE5 		ldr	r0, .L18+8
 316 0038 FEFFFFEB 		bl	i2cStart
 317              	.LVL32:
 318              		.loc 1 106 3 view .LVU77
 319 003c 4020A0E3 		mov	r2, #64
 320 0040 FC10A0E3 		mov	r1, #252
 321 0044 00408DE5 		str	r4, [sp]
 322 0048 28309FE5 		ldr	r3, .L18+12
 323 004c 28009FE5 		ldr	r0, .L18+16
 324 0050 FEFFFFEB 		bl	chThdCreateStatic
 325              	.LVL33:
 326              		.loc 1 111 3 view .LVU78
 327 0054 24309FE5 		ldr	r3, .L18+20
 328 0058 100093E5 		ldr	r0, [r3, #16]
 329 005c FEFFFFEB 		bl	chThdWait
 330              	.LVL34:
 331              		.loc 1 113 3 view .LVU79
 332              		.loc 1 114 1 is_stmt 0 view .LVU80
 333 0060 0400A0E1 		mov	r0, r4
 334 0064 08D08DE2 		add	sp, sp, #8
 335              		.cfi_def_cfa_offset 12
 336              		@ sp needed
 337 0068 3080BDE8 		pop	{r4, r5, pc}
 338              	.L19:
 339              		.align	2
 340              	.L18:
 341 006c 00000000 		.word	SD1
 342 0070 00000000 		.word	.LC3
ARM GAS  /var/folders/l5/0x54b2c10074c8bt31ycjvl80000gp/T//cclaVARJ.s 			page 7


 343 0074 00000000 		.word	I2C0
 344 0078 00000000 		.word	Thread1
 345 007c 00000000 		.word	.LANCHOR0
 346 0080 00000000 		.word	rlist
 347              		.cfi_endproc
 348              	.LFE10:
 349              		.size	main, .-main
 350              		.section	.bss.waThread1,"aw",%nobits
 351              		.align	2
 352              		.set	.LANCHOR0,. + 0
 353              		.type	waThread1, %object
 354              		.size	waThread1, 252
 355              	waThread1:
 356 0000 00000000 		.space	252
 356      00000000 
 356      00000000 
 356      00000000 
 356      00000000 
 357              		.section	.rodata.Thread1.str1.4,"aMS",%progbits,1
 358              		.align	2
 359              	.LC0:
 360 0000 4572726F 		.ascii	"Error while getting voltage: %d\015\012\000"
 360      72207768 
 360      696C6520 
 360      67657474 
 360      696E6720 
 361 0022 0000     		.space	2
 362              	.LC1:
 363 0024 54656D70 		.ascii	"Temperature: %f F\015\012\000"
 363      65726174 
 363      7572653A 
 363      20256620 
 363      460D0A00 
 364              	.LC2:
 365 0038 4572726F 		.ascii	"Error while setting voltage: %d\015\012\000"
 365      72207768 
 365      696C6520 
 365      73657474 
 365      696E6720 
 366              		.section	.rodata.main.str1.4,"aMS",%progbits,1
 367              		.align	2
 368              	.LC3:
 369 0000 42434D32 		.ascii	"BCM2835 I2C Demonstration\015\012\000"
 369      38333520 
 369      49324320 
 369      44656D6F 
 369      6E737472 
 370              		.text
 371              	.Letext0:
 372              		.file 2 "/usr/local/Cellar/arm-gcc-bin/8-2019-q3-update/lib/gcc/arm-none-eabi/8.3.1/include/stddef
 373              		.file 3 "/usr/local/Cellar/arm-gcc-bin/8-2019-q3-update/arm-none-eabi/include/machine/_default_typ
 374              		.file 4 "/usr/local/Cellar/arm-gcc-bin/8-2019-q3-update/arm-none-eabi/include/sys/_stdint.h"
 375              		.file 5 "../../../os/ports/GCC/ARM/chtypes.h"
 376              		.file 6 "../../../os/kernel/include/chlists.h"
 377              		.file 7 "../../../os/kernel/include/chthreads.h"
 378              		.file 8 "../../../os/ports/GCC/ARM/chcore.h"
 379              		.file 9 "../../../os/kernel/include/chvt.h"
ARM GAS  /var/folders/l5/0x54b2c10074c8bt31ycjvl80000gp/T//cclaVARJ.s 			page 8


 380              		.file 10 "../../../os/kernel/include/chschd.h"
 381              		.file 11 "../../../os/kernel/include/chmtx.h"
 382              		.file 12 "../../../os/kernel/include/chevents.h"
 383              		.file 13 "../../../os/kernel/include/chqueues.h"
 384              		.file 14 "../../../os/kernel/include/chstreams.h"
 385              		.file 15 "../../../os/kernel/include/ch.h"
 386              		.file 16 "../../../os/hal/platforms/BCM2835/bcm2835.h"
 387              		.file 17 "../../../os/hal/platforms/BCM2835/pal_lld.h"
 388              		.file 18 "../../../os/hal/include/i2c.h"
 389              		.file 19 "../../../os/hal/platforms/BCM2835/i2c_lld.h"
 390              		.file 20 "../../../os/hal/include/serial.h"
 391              		.file 21 "../../../os/hal/include/hal.h"
 392              		.file 22 "../../../os/kernel/include/chsys.h"
 393              		.file 23 "../../../os/various/chprintf.h"
 394              		.file 24 "../../../os/hal/platforms/BCM2835/serial_lld.h"