ARM GAS  /var/folders/l5/0x54b2c10074c8bt31ycjvl80000gp/T//ccw4pyDy.s 			page 1


   1              		.file	"pal.c"
   2              		.text
   3              	.Ltext0:
   4              		.cfi_sections	.debug_frame
   5              		.section	.text.palReadBus,"ax",%progbits
   6              		.align	2
   7              		.global	palReadBus
   8              		.arch armv6kz
   9              		.syntax unified
  10              		.arm
  11              		.fpu softvfp
  12              		.type	palReadBus, %function
  13              	palReadBus:
  14              	.LVL0:
  15              	.LFB7:
  16              		.file 1 "../../../os/hal/src/pal.c"
  17              		.loc 1 69 37 view -0
  18              		.cfi_startproc
  19              		@ args = 0, pretend = 0, frame = 0
  20              		@ frame_needed = 0, uses_anonymous_args = 0
  21              		@ link register save eliminated.
  22              		.loc 1 71 3 view .LVU1
  23              		.loc 1 72 62 view .LVU2
  24              		.loc 1 74 3 view .LVU3
  25              		.loc 1 74 10 is_stmt 0 view .LVU4
  26 0000 003090E5 		ldr	r3, [r0]
  27 0004 082090E5 		ldr	r2, [r0, #8]
  28 0008 0C1093E5 		ldr	r1, [r3, #12]
  29 000c 043090E5 		ldr	r3, [r0, #4]
  30 0010 000091E5 		ldr	r0, [r1]
  31              	.LVL1:
  32              		.loc 1 75 1 view .LVU5
  33 0014 300203E0 		and	r0, r3, r0, lsr r2
  34 0018 1EFF2FE1 		bx	lr
  35              		.cfi_endproc
  36              	.LFE7:
  37              		.size	palReadBus, .-palReadBus
  38              		.section	.text.palWriteBus,"ax",%progbits
  39              		.align	2
  40              		.global	palWriteBus
  41              		.syntax unified
  42              		.arm
  43              		.fpu softvfp
  44              		.type	palWriteBus, %function
  45              	palWriteBus:
  46              	.LVL2:
  47              	.LFB8:
  48              		.loc 1 94 49 is_stmt 1 view -0
  49              		.cfi_startproc
  50              		@ args = 0, pretend = 0, frame = 0
  51              		@ frame_needed = 0, uses_anonymous_args = 0
  52              		@ link register save eliminated.
  53              		.loc 1 96 3 view .LVU7
  54              		.loc 1 97 63 view .LVU8
  55              		.loc 1 99 3 view .LVU9
  56              		.loc 1 94 49 is_stmt 0 view .LVU10
  57 0000 0020A0E1 		mov	r2, r0
ARM GAS  /var/folders/l5/0x54b2c10074c8bt31ycjvl80000gp/T//ccw4pyDy.s 			page 2


  58              		.loc 1 99 3 view .LVU11
  59 0004 011090E8 		ldm	r0, {r0, ip}
  60              	.LVL3:
  61              		.loc 1 99 3 view .LVU12
  62 0008 082092E5 		ldr	r2, [r2, #8]
  63              	.LVL4:
  64              		.loc 1 99 3 view .LVU13
  65 000c 003090E5 		ldr	r3, [r0]
  66 0010 0C1001E0 		and	r1, r1, ip
  67              	.LVL5:
  68              		.loc 1 99 3 view .LVU14
  69 0014 1C32C3E1 		bic	r3, r3, ip, lsl r2
  70 0018 111283E1 		orr	r1, r3, r1, lsl r2
  71 001c FEFFFFEA 		b	_pal_lld_writeport
  72              	.LVL6:
  73              		.cfi_endproc
  74              	.LFE8:
  75              		.size	palWriteBus, .-palWriteBus
  76              		.section	.text.palSetBusMode,"ax",%progbits
  77              		.align	2
  78              		.global	palSetBusMode
  79              		.syntax unified
  80              		.arm
  81              		.fpu softvfp
  82              		.type	palSetBusMode, %function
  83              	palSetBusMode:
  84              	.LVL7:
  85              	.LFB9:
  86              		.loc 1 117 47 is_stmt 1 view -0
  87              		.cfi_startproc
  88              		@ args = 0, pretend = 0, frame = 0
  89              		@ frame_needed = 0, uses_anonymous_args = 0
  90              		@ link register save eliminated.
  91              		.loc 1 119 3 view .LVU16
  92              		.loc 1 120 65 view .LVU17
  93              		.loc 1 122 3 view .LVU18
  94 0000 04C090E5 		ldr	ip, [r0, #4]
  95 0004 083090E5 		ldr	r3, [r0, #8]
  96 0008 0120A0E1 		mov	r2, r1
  97 000c 000090E5 		ldr	r0, [r0]
  98              	.LVL8:
  99              		.loc 1 122 3 is_stmt 0 view .LVU19
 100 0010 1C13A0E1 		lsl	r1, ip, r3
 101              	.LVL9:
 102              		.loc 1 122 3 view .LVU20
 103 0014 FEFFFFEA 		b	_pal_lld_setgroupmode
 104              	.LVL10:
 105              		.loc 1 122 3 view .LVU21
 106              		.cfi_endproc
 107              	.LFE9:
 108              		.size	palSetBusMode, .-palSetBusMode
 109              		.text
 110              	.Letext0:
 111              		.file 2 "/usr/local/Cellar/arm-gcc-bin/8-2019-q3-update/lib/gcc/arm-none-eabi/8.3.1/include/stddef
 112              		.file 3 "/usr/local/Cellar/arm-gcc-bin/8-2019-q3-update/arm-none-eabi/include/machine/_default_typ
 113              		.file 4 "/usr/local/Cellar/arm-gcc-bin/8-2019-q3-update/arm-none-eabi/include/sys/_stdint.h"
 114              		.file 5 "/usr/local/Cellar/arm-gcc-bin/8-2019-q3-update/arm-none-eabi/include/stdint.h"
ARM GAS  /var/folders/l5/0x54b2c10074c8bt31ycjvl80000gp/T//ccw4pyDy.s 			page 3


 115              		.file 6 "../../../os/ports/GCC/ARM/chtypes.h"
 116              		.file 7 "../../../os/kernel/include/chlists.h"
 117              		.file 8 "../../../os/kernel/include/chthreads.h"
 118              		.file 9 "../../../os/ports/GCC/ARM/chcore.h"
 119              		.file 10 "../../../os/kernel/include/chvt.h"
 120              		.file 11 "../../../os/kernel/include/chschd.h"
 121              		.file 12 "../../../os/kernel/include/chmtx.h"
 122              		.file 13 "../../../os/kernel/include/chevents.h"
 123              		.file 14 "../../../os/kernel/include/chqueues.h"
 124              		.file 15 "../../../os/kernel/include/ch.h"
 125              		.file 16 "../../../os/hal/platforms/BCM2835/bcm2835.h"
 126              		.file 17 "../../../os/hal/platforms/BCM2835/pal_lld.h"
 127              		.file 18 "../../../os/hal/include/pal.h"
 128              		.file 19 "../../../os/hal/include/i2c.h"
 129              		.file 20 "../../../os/hal/platforms/BCM2835/i2c_lld.h"
 130              		.file 21 "../../../os/hal/include/serial.h"
 131              		.file 22 "../../../os/hal/platforms/BCM2835/serial_lld.h"