ARM GAS  /var/folders/l5/0x54b2c10074c8bt31ycjvl80000gp/T//ccw4pyDy.s 			page 1


   1              		.file	"pal.c"
   2              		.text
   3              	.Ltext0:
   4              		.cfi_sections	.debug_frame
   5              		.section	.text.palReadBus,"ax",%progbits
   6              		.align	2
   7              		.global	palReadBus
   8              		.arch armv6kz
   9              		.syntax unified
  10              		.arm
  11              		.fpu softvfp
  12              		.type	palReadBus, %function
  13              	palReadBus:
  14              	.LVL0:
  15              	.LFB7:
  16              		.file 1 "../../../os/hal/src/pal.c"
  17              		.loc 1 69 37 view -0
  18              		.cfi_startproc
  19              		@ args = 0, pretend = 0, frame = 0
  20              		@ frame_needed = 0, uses_anonymous_args = 0
  21              		@ link register save eliminated.
  22              		.loc 1 71 3 view .LVU1
  23              		.loc 1 72 62 view .LVU2
  24              		.loc 1 74 3 view .LVU3
  25              		.loc 1 74 10 is_stmt 0 view .LVU4
  26 0000 003090E5 		ldr	r3, [r0]
  27 0004 082090E5 		ldr	r2, [r0, #8]
  28 0008 0C1093E5 		ldr	r1, [r3, #12]
  29 000c 043090E5 		ldr	r3, [r0, #4]
  30 0010 000091E5 		ldr	r0, [r1]
  31              	.LVL1:
  32              		.loc 1 75 1 view .LVU5
  33 0014 300203E0 		and	r0, r3, r0, lsr r2
  34 0018 1EFF2FE1 		bx	lr
  35              		.cfi_endproc
  36              	.LFE7:
  37              		.size	palReadBus, .-palReadBus
  38              		.section	.text.palWriteBus,"ax",%progbits
  39              		.align	2
  40              		.global	palWriteBus
  41              		.syntax unified
  42              		.arm
  43              		.fpu softvfp
  44              		.type	palWriteBus, %function
  45              	palWriteBus:
  46              	.LVL2:
  47              	.LFB8:
  48              		.loc 1 94 49 is_stmt 1 view -0
  49              		.cfi_startproc
  50              		@ args = 0, pretend = 0, frame = 0
  51              		@ frame_needed = 0, uses_anonymous_args = 0
  52              		@ link register save eliminated.
  53              		.loc 1 96 3 view .LVU7
  54              		.loc 1 97 63 view .LVU8
  55              		.loc 1 99 3 view .LVU9
  56              		.loc 1 94 49 is_stmt 0 view .LVU10
  57 0000 0020A0E1 		mov	r2, r0
ARM GAS  /var/folders/l5/0x54b2c10074c8bt31ycjvl80000gp/T//ccw4pyDy.s 			page 2


  58              		.loc 1 99 3 view .LVU11
  59 0004 011090E8 		ldm	r0, {r0, ip}
  60              	.LVL3:
  61              		.loc 1 99 3 view .LVU12
  62 0008 082092E5 		ldr	r2, [r2, #8]
  63              	.LVL4:
  64              		.loc 1 99 3 view .LVU13
  65 000c 003090E5 		ldr	r3, [r0]
  66 0010 0C1001E0 		and	r1, r1, ip
  67              	.LVL5:
  68              		.loc 1 99 3 view .LVU14
  69 0014 1C32C3E1 		bic	r3, r3, ip, lsl r2
  70 0018 111283E1 		orr	r1, r3, r1, lsl r2
  71 001c FEFFFFEA 		b	_pal_lld_writeport
  72              	.LVL6:
  73              		.cfi_endproc
  74              	.LFE8:
  75              		.size	palWriteBus, .-palWriteBus
  76              		.section	.text.palSetBusMode,"ax",%progbits
  77              		.align	2
  78              		.global	palSetBusMode
  79              		.syntax unified
  80              		.arm
  81              		.fpu softvfp
  82              		.type	palSetBusMode, %function
  83              	palSetBusMode:
  84              	.LVL7:
  85              	.LFB9:
  86              		.loc 1 117 47 is_stmt 1 view -0
  87              		.cfi_startproc
  88              		@ args = 0, pretend = 0, frame = 0
  89              		@ frame_needed = 0, uses_anonymous_args = 0
  90              		@ link register save eliminated.
  91              		.loc 1 119 3 view .LVU16
  92              		.loc 1 120 65 view .LVU17
  93              		.loc 1 122 3 view .LVU18
  94 0000 04C090E5 		ldr	ip, [r0, #4]
  95 0004 083090E5 		ldr	r3, [r0, #8]
  96 0008 0120A0E1 		mov	r2, r1
  97 000c 000090E5 		ldr	r0, [r0]
  98              	.LVL8:
  99              		.loc 1 122 3 is_stmt 0 view .LVU19
 100 0010 1C13A0E1 		lsl	r1, ip, r3
 101              	.LVL9:
 102              		.loc 1 122 3 view .LVU20
 103 0014 FEFFFFEA 		b	_pal_lld_setgroupmode
 104              	.LVL10:
 105              		.loc 1 122 3 view .LVU21
 106              		.cfi_endproc
 107              	.LFE9:
 108              		.size	palSetBusMode, .-palSetBusMode
 109              		.text
 110              	.Letext0:
 111              		.file 2 "/usr/local/Cellar/arm-gcc-bin/8-2019-q3-update/lib/gcc/arm-none-eabi/8.3.1/include/stddef
 112              		.file 3 "/usr/local/Cellar/arm-gcc-bin/8-2019-q3-update/arm-none-eabi/include/machine/_default_typ
 113              		.file 4 "/usr/local/Cellar/arm-gcc-bin/8-2019-q3-update/arm-none-eabi/include/sys/_stdint.h"
 114              		.file 5 "/usr/local/Cellar/arm-gcc-bin/8-2019-q3-update/arm-none-eabi/include/stdint.h"
ARM GAS  /var/folders/l5/0x54b2c10074c8bt31ycjvl80000gp/T//ccw4pyDy.s 			page 3


 115              		.file 6 "../../../os/ports/GCC/ARM/chtypes.h"
 116              		.file 7 "../../../os/kernel/include/chlists.h"
 117              		.file 8 "../../../os/kernel/include/chthreads.h"
 118              		.file 9 "../../../os/ports/GCC/ARM/chcore.h"
 119              		.file 10 "../../../os/kernel/include/chvt.h"
 120              		.file 11 "../../../os/kernel/include/chschd.h"
 121              		.file 12 "../../../os/kernel/include/chmtx.h"
 122              		.file 13 "../../../os/kernel/include/chevents.h"
 123              		.file 14 "../../../os/kernel/include/chqueues.h"
 124              		.file 15 "../../../os/kernel/include/ch.h"
 125              		.file 16 "../../../os/hal/platforms/BCM2835/bcm2835.h"
 126              		.file 17 "../../../os/hal/platforms/BCM2835/pal_lld.h"
 127              		.file 18 "../../../os/hal/include/pal.h"
 128              		.file 19 "../../../os/hal/include/i2c.h"
 129              		.file 20 "../../../os/hal/platforms/BCM2835/i2c_lld.h"
 130              		.file 21 "../../../os/hal/include/serial.h"
 131              		.file 22 "../../../os/hal/platforms/BCM2835/serial_lld.h"
 132              		.section	.debug_info,"",%progbits
 133              	.Ldebug_info0:
 134 0000 290C0000 		.4byte	0xc29
 135 0004 0400     		.2byte	0x4
 136 0006 00000000 		.4byte	.Ldebug_abbrev0
 137 000a 04       		.byte	0x4
 138 000b 01       		.uleb128 0x1
 139 000c 98010000 		.4byte	.LASF163
 140 0010 0C       		.byte	0xc
 141 0011 50010000 		.4byte	.LASF164
 142 0015 1F030000 		.4byte	.LASF165
 143 0019 00000000 		.4byte	.Ldebug_ranges0+0
 144 001d 00000000 		.4byte	0
 145 0021 00000000 		.4byte	.Ldebug_line0
 146 0025 02       		.uleb128 0x2
 147 0026 04       		.byte	0x4
 148 0027 05       		.byte	0x5
 149 0028 F2000000 		.4byte	.LASF0
 150 002c 03       		.uleb128 0x3
 151 002d 00000000 		.4byte	.LASF3
 152 0031 02       		.byte	0x2
 153 0032 D8       		.byte	0xd8
 154 0033 17       		.byte	0x17
 155 0034 38000000 		.4byte	0x38
 156 0038 02       		.uleb128 0x2
 157 0039 04       		.byte	0x4
 158 003a 07       		.byte	0x7
 159 003b C7020000 		.4byte	.LASF1
 160 003f 02       		.uleb128 0x2
 161 0040 01       		.byte	0x1
 162 0041 06       		.byte	0x6
 163 0042 AC000000 		.4byte	.LASF2
 164 0046 03       		.uleb128 0x3
 165 0047 1A000000 		.4byte	.LASF4
 166 004b 03       		.byte	0x3
 167 004c 2B       		.byte	0x2b
 168 004d 18       		.byte	0x18
 169 004e 52000000 		.4byte	0x52
 170 0052 02       		.uleb128 0x2
 171 0053 01       		.byte	0x1
ARM GAS  /var/folders/l5/0x54b2c10074c8bt31ycjvl80000gp/T//ccw4pyDy.s 			page 4


 172 0054 08       		.byte	0x8
 173 0055 D7040000 		.4byte	.LASF5
 174 0059 02       		.uleb128 0x2
 175 005a 02       		.byte	0x2
 176 005b 05       		.byte	0x5
 177 005c 04050000 		.4byte	.LASF6
 178 0060 03       		.uleb128 0x3
 179 0061 D7050000 		.4byte	.LASF7
 180 0065 03       		.byte	0x3
 181 0066 39       		.byte	0x39
 182 0067 19       		.byte	0x19
 183 0068 6C000000 		.4byte	0x6c
 184 006c 02       		.uleb128 0x2
 185 006d 02       		.byte	0x2
 186 006e 07       		.byte	0x7
 187 006f ED020000 		.4byte	.LASF8
 188 0073 03       		.uleb128 0x3
 189 0074 FE050000 		.4byte	.LASF9
 190 0078 03       		.byte	0x3
 191 0079 4D       		.byte	0x4d
 192 007a 18       		.byte	0x18
 193 007b 25000000 		.4byte	0x25
 194 007f 03       		.uleb128 0x3
 195 0080 6A010000 		.4byte	.LASF10
 196 0084 03       		.byte	0x3
 197 0085 4F       		.byte	0x4f
 198 0086 19       		.byte	0x19
 199 0087 38000000 		.4byte	0x38
 200 008b 02       		.uleb128 0x2
 201 008c 08       		.byte	0x8
 202 008d 05       		.byte	0x5
 203 008e 9E000000 		.4byte	.LASF11
 204 0092 02       		.uleb128 0x2
 205 0093 08       		.byte	0x8
 206 0094 07       		.byte	0x7
 207 0095 44000000 		.4byte	.LASF12
 208 0099 03       		.uleb128 0x3
 209 009a C3060000 		.4byte	.LASF13
 210 009e 04       		.byte	0x4
 211 009f 18       		.byte	0x18
 212 00a0 13       		.byte	0x13
 213 00a1 46000000 		.4byte	0x46
 214 00a5 04       		.uleb128 0x4
 215 00a6 99000000 		.4byte	0x99
 216 00aa 03       		.uleb128 0x3
 217 00ab 1E010000 		.4byte	.LASF14
 218 00af 04       		.byte	0x4
 219 00b0 24       		.byte	0x24
 220 00b1 14       		.byte	0x14
 221 00b2 60000000 		.4byte	0x60
 222 00b6 03       		.uleb128 0x3
 223 00b7 CF040000 		.4byte	.LASF15
 224 00bb 04       		.byte	0x4
 225 00bc 2C       		.byte	0x2c
 226 00bd 13       		.byte	0x13
 227 00be 73000000 		.4byte	0x73
 228 00c2 03       		.uleb128 0x3
ARM GAS  /var/folders/l5/0x54b2c10074c8bt31ycjvl80000gp/T//ccw4pyDy.s 			page 5


 229 00c3 82050000 		.4byte	.LASF16
 230 00c7 04       		.byte	0x4
 231 00c8 30       		.byte	0x30
 232 00c9 14       		.byte	0x14
 233 00ca 7F000000 		.4byte	0x7f
 234 00ce 05       		.uleb128 0x5
 235 00cf C2000000 		.4byte	0xc2
 236 00d3 06       		.uleb128 0x6
 237 00d4 04       		.byte	0x4
 238 00d5 05       		.byte	0x5
 239 00d6 696E7400 		.ascii	"int\000"
 240 00da 03       		.uleb128 0x3
 241 00db 3E050000 		.4byte	.LASF17
 242 00df 05       		.byte	0x5
 243 00e0 34       		.byte	0x34
 244 00e1 1F       		.byte	0x1f
 245 00e2 E6000000 		.4byte	0xe6
 246 00e6 02       		.uleb128 0x2
 247 00e7 04       		.byte	0x4
 248 00e8 07       		.byte	0x7
 249 00e9 8E020000 		.4byte	.LASF18
 250 00ed 05       		.uleb128 0x5
 251 00ee E6000000 		.4byte	0xe6
 252 00f2 03       		.uleb128 0x3
 253 00f3 7E030000 		.4byte	.LASF19
 254 00f7 06       		.byte	0x6
 255 00f8 2A       		.byte	0x2a
 256 00f9 19       		.byte	0x19
 257 00fa 99000000 		.4byte	0x99
 258 00fe 03       		.uleb128 0x3
 259 00ff FB000000 		.4byte	.LASF20
 260 0103 06       		.byte	0x6
 261 0104 2B       		.byte	0x2b
 262 0105 19       		.byte	0x19
 263 0106 99000000 		.4byte	0x99
 264 010a 03       		.uleb128 0x3
 265 010b C8000000 		.4byte	.LASF21
 266 010f 06       		.byte	0x6
 267 0110 2D       		.byte	0x2d
 268 0111 19       		.byte	0x19
 269 0112 99000000 		.4byte	0x99
 270 0116 03       		.uleb128 0x3
 271 0117 AE040000 		.4byte	.LASF22
 272 011b 06       		.byte	0x6
 273 011c 2E       		.byte	0x2e
 274 011d 19       		.byte	0x19
 275 011e C2000000 		.4byte	0xc2
 276 0122 03       		.uleb128 0x3
 277 0123 12030000 		.4byte	.LASF23
 278 0127 06       		.byte	0x6
 279 0128 2F       		.byte	0x2f
 280 0129 19       		.byte	0x19
 281 012a B6000000 		.4byte	0xb6
 282 012e 03       		.uleb128 0x3
 283 012f A5030000 		.4byte	.LASF24
 284 0133 06       		.byte	0x6
 285 0134 31       		.byte	0x31
ARM GAS  /var/folders/l5/0x54b2c10074c8bt31ycjvl80000gp/T//ccw4pyDy.s 			page 6


 286 0135 19       		.byte	0x19
 287 0136 C2000000 		.4byte	0xc2
 288 013a 03       		.uleb128 0x3
 289 013b 63060000 		.4byte	.LASF25
 290 013f 06       		.byte	0x6
 291 0140 32       		.byte	0x32
 292 0141 19       		.byte	0x19
 293 0142 C2000000 		.4byte	0xc2
 294 0146 03       		.uleb128 0x3
 295 0147 E9050000 		.4byte	.LASF26
 296 014b 06       		.byte	0x6
 297 014c 33       		.byte	0x33
 298 014d 19       		.byte	0x19
 299 014e C2000000 		.4byte	0xc2
 300 0152 05       		.uleb128 0x5
 301 0153 46010000 		.4byte	0x146
 302 0157 03       		.uleb128 0x3
 303 0158 53050000 		.4byte	.LASF27
 304 015c 07       		.byte	0x7
 305 015d 23       		.byte	0x23
 306 015e 17       		.byte	0x17
 307 015f 63010000 		.4byte	0x163
 308 0163 07       		.uleb128 0x7
 309 0164 53050000 		.4byte	.LASF27
 310 0168 28       		.byte	0x28
 311 0169 08       		.byte	0x8
 312 016a 57       		.byte	0x57
 313 016b 08       		.byte	0x8
 314 016c 0D020000 		.4byte	0x20d
 315 0170 08       		.uleb128 0x8
 316 0171 37050000 		.4byte	.LASF28
 317 0175 08       		.byte	0x8
 318 0176 58       		.byte	0x58
 319 0177 1A       		.byte	0x1a
 320 0178 31020000 		.4byte	0x231
 321 017c 00       		.byte	0
 322 017d 08       		.uleb128 0x8
 323 017e A7040000 		.4byte	.LASF29
 324 0182 08       		.byte	0x8
 325 0183 5A       		.byte	0x5a
 326 0184 1A       		.byte	0x1a
 327 0185 31020000 		.4byte	0x231
 328 0189 04       		.byte	0x4
 329 018a 08       		.uleb128 0x8
 330 018b 80000000 		.4byte	.LASF30
 331 018f 08       		.byte	0x8
 332 0190 5C       		.byte	0x5c
 333 0191 19       		.byte	0x19
 334 0192 16010000 		.4byte	0x116
 335 0196 08       		.byte	0x8
 336 0197 08       		.uleb128 0x8
 337 0198 26070000 		.4byte	.LASF31
 338 019c 08       		.byte	0x8
 339 019d 5D       		.byte	0x5d
 340 019e 19       		.byte	0x19
 341 019f FC020000 		.4byte	0x2fc
 342 01a3 0C       		.byte	0xc
ARM GAS  /var/folders/l5/0x54b2c10074c8bt31ycjvl80000gp/T//ccw4pyDy.s 			page 7


 343 01a4 08       		.uleb128 0x8
 344 01a5 0E050000 		.4byte	.LASF32
 345 01a9 08       		.byte	0x8
 346 01aa 72       		.byte	0x72
 347 01ab 19       		.byte	0x19
 348 01ac FE000000 		.4byte	0xfe
 349 01b0 10       		.byte	0x10
 350 01b1 08       		.uleb128 0x8
 351 01b2 4B050000 		.4byte	.LASF33
 352 01b6 08       		.byte	0x8
 353 01b7 76       		.byte	0x76
 354 01b8 19       		.byte	0x19
 355 01b9 F2000000 		.4byte	0xf2
 356 01bd 11       		.byte	0x11
 357 01be 08       		.uleb128 0x8
 358 01bf 16050000 		.4byte	.LASF34
 359 01c3 08       		.byte	0x8
 360 01c4 81       		.byte	0x81
 361 01c5 19       		.byte	0x19
 362 01c6 0A010000 		.4byte	0x10a
 363 01ca 12       		.byte	0x12
 364 01cb 09       		.uleb128 0x9
 365 01cc 705F7500 		.ascii	"p_u\000"
 366 01d0 08       		.byte	0x8
 367 01d1 AD       		.byte	0xad
 368 01d2 19       		.byte	0x19
 369 01d3 09050000 		.4byte	0x509
 370 01d7 14       		.byte	0x14
 371 01d8 08       		.uleb128 0x8
 372 01d9 2C070000 		.4byte	.LASF35
 373 01dd 08       		.byte	0x8
 374 01de B2       		.byte	0xb2
 375 01df 19       		.byte	0x19
 376 01e0 5A020000 		.4byte	0x25a
 377 01e4 18       		.byte	0x18
 378 01e5 08       		.uleb128 0x8
 379 01e6 65050000 		.4byte	.LASF36
 380 01ea 08       		.byte	0x8
 381 01eb C2       		.byte	0xc2
 382 01ec 19       		.byte	0x19
 383 01ed 2E010000 		.4byte	0x12e
 384 01f1 1C       		.byte	0x1c
 385 01f2 08       		.uleb128 0x8
 386 01f3 FA040000 		.4byte	.LASF37
 387 01f7 08       		.byte	0x8
 388 01f8 C9       		.byte	0xc9
 389 01f9 1A       		.byte	0x1a
 390 01fa 43050000 		.4byte	0x543
 391 01fe 20       		.byte	0x20
 392 01ff 08       		.uleb128 0x8
 393 0200 F3050000 		.4byte	.LASF38
 394 0204 08       		.byte	0x8
 395 0205 CD       		.byte	0xcd
 396 0206 19       		.byte	0x19
 397 0207 16010000 		.4byte	0x116
 398 020b 24       		.byte	0x24
 399 020c 00       		.byte	0
ARM GAS  /var/folders/l5/0x54b2c10074c8bt31ycjvl80000gp/T//ccw4pyDy.s 			page 8


 400 020d 0A       		.uleb128 0xa
 401 020e 08       		.byte	0x8
 402 020f 07       		.byte	0x7
 403 0210 5A       		.byte	0x5a
 404 0211 09       		.byte	0x9
 405 0212 31020000 		.4byte	0x231
 406 0216 08       		.uleb128 0x8
 407 0217 37050000 		.4byte	.LASF28
 408 021b 07       		.byte	0x7
 409 021c 5B       		.byte	0x5b
 410 021d 1A       		.byte	0x1a
 411 021e 31020000 		.4byte	0x231
 412 0222 00       		.byte	0
 413 0223 08       		.uleb128 0x8
 414 0224 A7040000 		.4byte	.LASF29
 415 0228 07       		.byte	0x7
 416 0229 5D       		.byte	0x5d
 417 022a 1A       		.byte	0x1a
 418 022b 31020000 		.4byte	0x231
 419 022f 04       		.byte	0x4
 420 0230 00       		.byte	0
 421 0231 0B       		.uleb128 0xb
 422 0232 04       		.byte	0x4
 423 0233 57010000 		.4byte	0x157
 424 0237 03       		.uleb128 0x3
 425 0238 41040000 		.4byte	.LASF39
 426 023c 07       		.byte	0x7
 427 023d 5F       		.byte	0x5f
 428 023e 03       		.byte	0x3
 429 023f 0D020000 		.4byte	0x20d
 430 0243 0A       		.uleb128 0xa
 431 0244 04       		.byte	0x4
 432 0245 07       		.byte	0x7
 433 0246 64       		.byte	0x64
 434 0247 09       		.byte	0x9
 435 0248 5A020000 		.4byte	0x25a
 436 024c 08       		.uleb128 0x8
 437 024d 37050000 		.4byte	.LASF28
 438 0251 07       		.byte	0x7
 439 0252 66       		.byte	0x66
 440 0253 16       		.byte	0x16
 441 0254 31020000 		.4byte	0x231
 442 0258 00       		.byte	0
 443 0259 00       		.byte	0
 444 025a 03       		.uleb128 0x3
 445 025b 99030000 		.4byte	.LASF40
 446 025f 07       		.byte	0x7
 447 0260 69       		.byte	0x69
 448 0261 03       		.byte	0x3
 449 0262 43020000 		.4byte	0x243
 450 0266 03       		.uleb128 0x3
 451 0267 CF030000 		.4byte	.LASF41
 452 026b 09       		.byte	0x9
 453 026c 9D       		.byte	0x9d
 454 026d 12       		.byte	0x12
 455 026e C2000000 		.4byte	0xc2
 456 0272 03       		.uleb128 0x3
ARM GAS  /var/folders/l5/0x54b2c10074c8bt31ycjvl80000gp/T//ccw4pyDy.s 			page 9


 457 0273 7A010000 		.4byte	.LASF42
 458 0277 09       		.byte	0x9
 459 0278 A2       		.byte	0xa2
 460 0279 0F       		.byte	0xf
 461 027a 7E020000 		.4byte	0x27e
 462 027e 0C       		.uleb128 0xc
 463 027f 04       		.byte	0x4
 464 0280 07       		.uleb128 0x7
 465 0281 4C060000 		.4byte	.LASF43
 466 0285 24       		.byte	0x24
 467 0286 09       		.byte	0x9
 468 0287 B9       		.byte	0xb9
 469 0288 08       		.byte	0x8
 470 0289 FC020000 		.4byte	0x2fc
 471 028d 09       		.uleb128 0x9
 472 028e 723400   		.ascii	"r4\000"
 473 0291 09       		.byte	0x9
 474 0292 BA       		.byte	0xba
 475 0293 11       		.byte	0x11
 476 0294 72020000 		.4byte	0x272
 477 0298 00       		.byte	0
 478 0299 09       		.uleb128 0x9
 479 029a 723500   		.ascii	"r5\000"
 480 029d 09       		.byte	0x9
 481 029e BB       		.byte	0xbb
 482 029f 11       		.byte	0x11
 483 02a0 72020000 		.4byte	0x272
 484 02a4 04       		.byte	0x4
 485 02a5 09       		.uleb128 0x9
 486 02a6 723600   		.ascii	"r6\000"
 487 02a9 09       		.byte	0x9
 488 02aa BC       		.byte	0xbc
 489 02ab 11       		.byte	0x11
 490 02ac 72020000 		.4byte	0x272
 491 02b0 08       		.byte	0x8
 492 02b1 09       		.uleb128 0x9
 493 02b2 723700   		.ascii	"r7\000"
 494 02b5 09       		.byte	0x9
 495 02b6 BD       		.byte	0xbd
 496 02b7 11       		.byte	0x11
 497 02b8 72020000 		.4byte	0x272
 498 02bc 0C       		.byte	0xc
 499 02bd 09       		.uleb128 0x9
 500 02be 723800   		.ascii	"r8\000"
 501 02c1 09       		.byte	0x9
 502 02c2 BE       		.byte	0xbe
 503 02c3 11       		.byte	0x11
 504 02c4 72020000 		.4byte	0x272
 505 02c8 10       		.byte	0x10
 506 02c9 09       		.uleb128 0x9
 507 02ca 723900   		.ascii	"r9\000"
 508 02cd 09       		.byte	0x9
 509 02ce BF       		.byte	0xbf
 510 02cf 11       		.byte	0x11
 511 02d0 72020000 		.4byte	0x272
 512 02d4 14       		.byte	0x14
 513 02d5 09       		.uleb128 0x9
ARM GAS  /var/folders/l5/0x54b2c10074c8bt31ycjvl80000gp/T//ccw4pyDy.s 			page 10


 514 02d6 72313000 		.ascii	"r10\000"
 515 02da 09       		.byte	0x9
 516 02db C0       		.byte	0xc0
 517 02dc 11       		.byte	0x11
 518 02dd 72020000 		.4byte	0x272
 519 02e1 18       		.byte	0x18
 520 02e2 09       		.uleb128 0x9
 521 02e3 72313100 		.ascii	"r11\000"
 522 02e7 09       		.byte	0x9
 523 02e8 C1       		.byte	0xc1
 524 02e9 11       		.byte	0x11
 525 02ea 72020000 		.4byte	0x272
 526 02ee 1C       		.byte	0x1c
 527 02ef 09       		.uleb128 0x9
 528 02f0 6C7200   		.ascii	"lr\000"
 529 02f3 09       		.byte	0x9
 530 02f4 C2       		.byte	0xc2
 531 02f5 11       		.byte	0x11
 532 02f6 72020000 		.4byte	0x272
 533 02fa 20       		.byte	0x20
 534 02fb 00       		.byte	0
 535 02fc 07       		.uleb128 0x7
 536 02fd 2E060000 		.4byte	.LASF44
 537 0301 04       		.byte	0x4
 538 0302 09       		.byte	0x9
 539 0303 CA       		.byte	0xca
 540 0304 08       		.byte	0x8
 541 0305 17030000 		.4byte	0x317
 542 0309 09       		.uleb128 0x9
 543 030a 72313300 		.ascii	"r13\000"
 544 030e 09       		.byte	0x9
 545 030f CB       		.byte	0xcb
 546 0310 12       		.byte	0x12
 547 0311 17030000 		.4byte	0x317
 548 0315 00       		.byte	0
 549 0316 00       		.byte	0
 550 0317 0B       		.uleb128 0xb
 551 0318 04       		.byte	0x4
 552 0319 80020000 		.4byte	0x280
 553 031d 03       		.uleb128 0x3
 554 031e DE020000 		.4byte	.LASF45
 555 0322 0A       		.byte	0xa
 556 0323 4E       		.byte	0x4e
 557 0324 10       		.byte	0x10
 558 0325 29030000 		.4byte	0x329
 559 0329 0B       		.uleb128 0xb
 560 032a 04       		.byte	0x4
 561 032b 2F030000 		.4byte	0x32f
 562 032f 0D       		.uleb128 0xd
 563 0330 3A030000 		.4byte	0x33a
 564 0334 0E       		.uleb128 0xe
 565 0335 7E020000 		.4byte	0x27e
 566 0339 00       		.byte	0
 567 033a 03       		.uleb128 0x3
 568 033b 93050000 		.4byte	.LASF46
 569 033f 0A       		.byte	0xa
 570 0340 53       		.byte	0x53
ARM GAS  /var/folders/l5/0x54b2c10074c8bt31ycjvl80000gp/T//ccw4pyDy.s 			page 11


 571 0341 1D       		.byte	0x1d
 572 0342 46030000 		.4byte	0x346
 573 0346 07       		.uleb128 0x7
 574 0347 93050000 		.4byte	.LASF46
 575 034b 14       		.byte	0x14
 576 034c 0A       		.byte	0xa
 577 034d 5A       		.byte	0x5a
 578 034e 08       		.byte	0x8
 579 034f 95030000 		.4byte	0x395
 580 0353 08       		.uleb128 0x8
 581 0354 9B020000 		.4byte	.LASF47
 582 0358 0A       		.byte	0xa
 583 0359 5B       		.byte	0x5b
 584 035a 1A       		.byte	0x1a
 585 035b 95030000 		.4byte	0x395
 586 035f 00       		.byte	0
 587 0360 08       		.uleb128 0x8
 588 0361 83010000 		.4byte	.LASF48
 589 0365 0A       		.byte	0xa
 590 0366 5D       		.byte	0x5d
 591 0367 1A       		.byte	0x1a
 592 0368 95030000 		.4byte	0x395
 593 036c 04       		.byte	0x4
 594 036d 08       		.uleb128 0x8
 595 036e EB030000 		.4byte	.LASF49
 596 0372 0A       		.byte	0xa
 597 0373 5F       		.byte	0x5f
 598 0374 19       		.byte	0x19
 599 0375 46010000 		.4byte	0x146
 600 0379 08       		.byte	0x8
 601 037a 08       		.uleb128 0x8
 602 037b 13040000 		.4byte	.LASF50
 603 037f 0A       		.byte	0xa
 604 0380 60       		.byte	0x60
 605 0381 19       		.byte	0x19
 606 0382 1D030000 		.4byte	0x31d
 607 0386 0C       		.byte	0xc
 608 0387 08       		.uleb128 0x8
 609 0388 5C060000 		.4byte	.LASF51
 610 038c 0A       		.byte	0xa
 611 038d 62       		.byte	0x62
 612 038e 1A       		.byte	0x1a
 613 038f 7E020000 		.4byte	0x27e
 614 0393 10       		.byte	0x10
 615 0394 00       		.byte	0
 616 0395 0B       		.uleb128 0xb
 617 0396 04       		.byte	0x4
 618 0397 3A030000 		.4byte	0x33a
 619 039b 0A       		.uleb128 0xa
 620 039c 10       		.byte	0x10
 621 039d 0A       		.byte	0xa
 622 039e 6C       		.byte	0x6c
 623 039f 09       		.byte	0x9
 624 03a0 D9030000 		.4byte	0x3d9
 625 03a4 08       		.uleb128 0x8
 626 03a5 9B020000 		.4byte	.LASF47
 627 03a9 0A       		.byte	0xa
ARM GAS  /var/folders/l5/0x54b2c10074c8bt31ycjvl80000gp/T//ccw4pyDy.s 			page 12


 628 03aa 6D       		.byte	0x6d
 629 03ab 1A       		.byte	0x1a
 630 03ac 95030000 		.4byte	0x395
 631 03b0 00       		.byte	0
 632 03b1 08       		.uleb128 0x8
 633 03b2 83010000 		.4byte	.LASF48
 634 03b6 0A       		.byte	0xa
 635 03b7 6F       		.byte	0x6f
 636 03b8 1A       		.byte	0x1a
 637 03b9 95030000 		.4byte	0x395
 638 03bd 04       		.byte	0x4
 639 03be 08       		.uleb128 0x8
 640 03bf EB030000 		.4byte	.LASF49
 641 03c3 0A       		.byte	0xa
 642 03c4 71       		.byte	0x71
 643 03c5 19       		.byte	0x19
 644 03c6 46010000 		.4byte	0x146
 645 03ca 08       		.byte	0x8
 646 03cb 08       		.uleb128 0x8
 647 03cc E6060000 		.4byte	.LASF52
 648 03d0 0A       		.byte	0xa
 649 03d1 72       		.byte	0x72
 650 03d2 19       		.byte	0x19
 651 03d3 52010000 		.4byte	0x152
 652 03d7 0C       		.byte	0xc
 653 03d8 00       		.byte	0
 654 03d9 03       		.uleb128 0x3
 655 03da 24040000 		.4byte	.LASF53
 656 03de 0A       		.byte	0xa
 657 03df 73       		.byte	0x73
 658 03e0 03       		.byte	0x3
 659 03e1 9B030000 		.4byte	0x39b
 660 03e5 0F       		.uleb128 0xf
 661 03e6 24000000 		.4byte	.LASF59
 662 03ea 0A       		.byte	0xa
 663 03eb D1       		.byte	0xd1
 664 03ec 0F       		.byte	0xf
 665 03ed D9030000 		.4byte	0x3d9
 666 03f1 0A       		.uleb128 0xa
 667 03f2 14       		.byte	0x14
 668 03f3 0B       		.byte	0xb
 669 03f4 57       		.byte	0x57
 670 03f5 09       		.byte	0x9
 671 03f6 2F040000 		.4byte	0x42f
 672 03fa 08       		.uleb128 0x8
 673 03fb 8B050000 		.4byte	.LASF54
 674 03ff 0B       		.byte	0xb
 675 0400 58       		.byte	0x58
 676 0401 19       		.byte	0x19
 677 0402 37020000 		.4byte	0x237
 678 0406 00       		.byte	0
 679 0407 08       		.uleb128 0x8
 680 0408 20050000 		.4byte	.LASF55
 681 040c 0B       		.byte	0xb
 682 040d 59       		.byte	0x59
 683 040e 19       		.byte	0x19
 684 040f 16010000 		.4byte	0x116
ARM GAS  /var/folders/l5/0x54b2c10074c8bt31ycjvl80000gp/T//ccw4pyDy.s 			page 13


 685 0413 08       		.byte	0x8
 686 0414 08       		.uleb128 0x8
 687 0415 3B040000 		.4byte	.LASF56
 688 0419 0B       		.byte	0xb
 689 041a 5B       		.byte	0x5b
 690 041b 19       		.byte	0x19
 691 041c FC020000 		.4byte	0x2fc
 692 0420 0C       		.byte	0xc
 693 0421 08       		.uleb128 0x8
 694 0422 56040000 		.4byte	.LASF57
 695 0426 0B       		.byte	0xb
 696 0427 62       		.byte	0x62
 697 0428 1A       		.byte	0x1a
 698 0429 31020000 		.4byte	0x231
 699 042d 10       		.byte	0x10
 700 042e 00       		.byte	0
 701 042f 03       		.uleb128 0x3
 702 0430 AA060000 		.4byte	.LASF58
 703 0434 0B       		.byte	0xb
 704 0435 64       		.byte	0x64
 705 0436 03       		.byte	0x3
 706 0437 F1030000 		.4byte	0x3f1
 707 043b 0F       		.uleb128 0xf
 708 043c BD060000 		.4byte	.LASF60
 709 0440 0B       		.byte	0xb
 710 0441 68       		.byte	0x68
 711 0442 12       		.byte	0x12
 712 0443 2F040000 		.4byte	0x42f
 713 0447 07       		.uleb128 0x7
 714 0448 BC030000 		.4byte	.LASF61
 715 044c 10       		.byte	0x10
 716 044d 0C       		.byte	0xc
 717 044e 25       		.byte	0x25
 718 044f 10       		.byte	0x10
 719 0450 7C040000 		.4byte	0x47c
 720 0454 08       		.uleb128 0x8
 721 0455 C0000000 		.4byte	.LASF62
 722 0459 0C       		.byte	0xc
 723 045a 26       		.byte	0x26
 724 045b 19       		.byte	0x19
 725 045c 37020000 		.4byte	0x237
 726 0460 00       		.byte	0
 727 0461 08       		.uleb128 0x8
 728 0462 0B070000 		.4byte	.LASF63
 729 0466 0C       		.byte	0xc
 730 0467 28       		.byte	0x28
 731 0468 1A       		.byte	0x1a
 732 0469 31020000 		.4byte	0x231
 733 046d 08       		.byte	0x8
 734 046e 08       		.uleb128 0x8
 735 046f E2050000 		.4byte	.LASF64
 736 0473 0C       		.byte	0xc
 737 0474 2A       		.byte	0x2a
 738 0475 1A       		.byte	0x1a
 739 0476 7C040000 		.4byte	0x47c
 740 047a 0C       		.byte	0xc
 741 047b 00       		.byte	0
ARM GAS  /var/folders/l5/0x54b2c10074c8bt31ycjvl80000gp/T//ccw4pyDy.s 			page 14


 742 047c 0B       		.uleb128 0xb
 743 047d 04       		.byte	0x4
 744 047e 47040000 		.4byte	0x447
 745 0482 03       		.uleb128 0x3
 746 0483 BC030000 		.4byte	.LASF61
 747 0487 0C       		.byte	0xc
 748 0488 2C       		.byte	0x2c
 749 0489 03       		.byte	0x3
 750 048a 47040000 		.4byte	0x447
 751 048e 03       		.uleb128 0x3
 752 048f D1060000 		.4byte	.LASF65
 753 0493 0D       		.byte	0xd
 754 0494 25       		.byte	0x25
 755 0495 1E       		.byte	0x1e
 756 0496 9A040000 		.4byte	0x49a
 757 049a 07       		.uleb128 0x7
 758 049b D1060000 		.4byte	.LASF65
 759 049f 10       		.byte	0x10
 760 04a0 0D       		.byte	0xd
 761 04a1 2A       		.byte	0x2a
 762 04a2 08       		.byte	0x8
 763 04a3 DC040000 		.4byte	0x4dc
 764 04a7 08       		.uleb128 0x8
 765 04a8 6F030000 		.4byte	.LASF66
 766 04ac 0D       		.byte	0xd
 767 04ad 2B       		.byte	0x2b
 768 04ae 1A       		.byte	0x1a
 769 04af DC040000 		.4byte	0x4dc
 770 04b3 00       		.byte	0
 771 04b4 08       		.uleb128 0x8
 772 04b5 E5040000 		.4byte	.LASF67
 773 04b9 0D       		.byte	0xd
 774 04ba 2E       		.byte	0x2e
 775 04bb 1A       		.byte	0x1a
 776 04bc 31020000 		.4byte	0x231
 777 04c0 04       		.byte	0x4
 778 04c1 08       		.uleb128 0x8
 779 04c2 60040000 		.4byte	.LASF68
 780 04c6 0D       		.byte	0xd
 781 04c7 30       		.byte	0x30
 782 04c8 19       		.byte	0x19
 783 04c9 2E010000 		.4byte	0x12e
 784 04cd 08       		.byte	0x8
 785 04ce 08       		.uleb128 0x8
 786 04cf F1040000 		.4byte	.LASF69
 787 04d3 0D       		.byte	0xd
 788 04d4 33       		.byte	0x33
 789 04d5 19       		.byte	0x19
 790 04d6 3A010000 		.4byte	0x13a
 791 04da 0C       		.byte	0xc
 792 04db 00       		.byte	0
 793 04dc 0B       		.uleb128 0xb
 794 04dd 04       		.byte	0x4
 795 04de 8E040000 		.4byte	0x48e
 796 04e2 07       		.uleb128 0x7
 797 04e3 7C020000 		.4byte	.LASF70
 798 04e7 04       		.byte	0x4
ARM GAS  /var/folders/l5/0x54b2c10074c8bt31ycjvl80000gp/T//ccw4pyDy.s 			page 15


 799 04e8 0D       		.byte	0xd
 800 04e9 3A       		.byte	0x3a
 801 04ea 10       		.byte	0x10
 802 04eb FD040000 		.4byte	0x4fd
 803 04ef 08       		.uleb128 0x8
 804 04f0 9B060000 		.4byte	.LASF71
 805 04f4 0D       		.byte	0xd
 806 04f5 3B       		.byte	0x3b
 807 04f6 1A       		.byte	0x1a
 808 04f7 DC040000 		.4byte	0x4dc
 809 04fb 00       		.byte	0
 810 04fc 00       		.byte	0
 811 04fd 03       		.uleb128 0x3
 812 04fe 7C020000 		.4byte	.LASF70
 813 0502 0D       		.byte	0xd
 814 0503 3E       		.byte	0x3e
 815 0504 03       		.byte	0x3
 816 0505 E2040000 		.4byte	0x4e2
 817 0509 10       		.uleb128 0x10
 818 050a 04       		.byte	0x4
 819 050b 08       		.byte	0x8
 820 050c 8F       		.byte	0x8f
 821 050d 03       		.byte	0x3
 822 050e 43050000 		.4byte	0x543
 823 0512 11       		.uleb128 0x11
 824 0513 07000000 		.4byte	.LASF72
 825 0517 08       		.byte	0x8
 826 0518 96       		.byte	0x96
 827 0519 19       		.byte	0x19
 828 051a 22010000 		.4byte	0x122
 829 051e 11       		.uleb128 0x11
 830 051f 60000000 		.4byte	.LASF73
 831 0523 08       		.byte	0x8
 832 0524 9D       		.byte	0x9d
 833 0525 19       		.byte	0x19
 834 0526 22010000 		.4byte	0x122
 835 052a 11       		.uleb128 0x11
 836 052b DF060000 		.4byte	.LASF74
 837 052f 08       		.byte	0x8
 838 0530 A4       		.byte	0xa4
 839 0531 1A       		.byte	0x1a
 840 0532 7E020000 		.4byte	0x27e
 841 0536 11       		.uleb128 0x11
 842 0537 30050000 		.4byte	.LASF75
 843 053b 08       		.byte	0x8
 844 053c AB       		.byte	0xab
 845 053d 19       		.byte	0x19
 846 053e 2E010000 		.4byte	0x12e
 847 0542 00       		.byte	0
 848 0543 0B       		.uleb128 0xb
 849 0544 04       		.byte	0x4
 850 0545 82040000 		.4byte	0x482
 851 0549 0B       		.uleb128 0xb
 852 054a 04       		.byte	0x4
 853 054b 4F050000 		.4byte	0x54f
 854 054f 12       		.uleb128 0x12
 855 0550 22010000 		.4byte	0x122
ARM GAS  /var/folders/l5/0x54b2c10074c8bt31ycjvl80000gp/T//ccw4pyDy.s 			page 16


 856 0554 5E050000 		.4byte	0x55e
 857 0558 0E       		.uleb128 0xe
 858 0559 7E020000 		.4byte	0x27e
 859 055d 00       		.byte	0
 860 055e 03       		.uleb128 0x3
 861 055f C2030000 		.4byte	.LASF76
 862 0563 0E       		.byte	0xe
 863 0564 30       		.byte	0x30
 864 0565 1D       		.byte	0x1d
 865 0566 6A050000 		.4byte	0x56a
 866 056a 07       		.uleb128 0x7
 867 056b C2030000 		.4byte	.LASF76
 868 056f 24       		.byte	0x24
 869 0570 0E       		.byte	0xe
 870 0571 3E       		.byte	0x3e
 871 0572 08       		.byte	0x8
 872 0573 E0050000 		.4byte	0x5e0
 873 0577 08       		.uleb128 0x8
 874 0578 94000000 		.4byte	.LASF77
 875 057c 0E       		.byte	0xe
 876 057d 3F       		.byte	0x3f
 877 057e 19       		.byte	0x19
 878 057f 37020000 		.4byte	0x237
 879 0583 00       		.byte	0
 880 0584 08       		.uleb128 0x8
 881 0585 09040000 		.4byte	.LASF78
 882 0589 0E       		.byte	0xe
 883 058a 40       		.byte	0x40
 884 058b 19       		.byte	0x19
 885 058c 2C000000 		.4byte	0x2c
 886 0590 08       		.byte	0x8
 887 0591 08       		.uleb128 0x8
 888 0592 15010000 		.4byte	.LASF79
 889 0596 0E       		.byte	0xe
 890 0597 41       		.byte	0x41
 891 0598 1A       		.byte	0x1a
 892 0599 03060000 		.4byte	0x603
 893 059d 0C       		.byte	0xc
 894 059e 08       		.uleb128 0x8
 895 059f 95060000 		.4byte	.LASF80
 896 05a3 0E       		.byte	0xe
 897 05a4 42       		.byte	0x42
 898 05a5 1A       		.byte	0x1a
 899 05a6 03060000 		.4byte	0x603
 900 05aa 10       		.byte	0x10
 901 05ab 08       		.uleb128 0x8
 902 05ac 33040000 		.4byte	.LASF81
 903 05b0 0E       		.byte	0xe
 904 05b1 44       		.byte	0x44
 905 05b2 1A       		.byte	0x1a
 906 05b3 03060000 		.4byte	0x603
 907 05b7 14       		.byte	0x14
 908 05b8 08       		.uleb128 0x8
 909 05b9 B6040000 		.4byte	.LASF82
 910 05bd 0E       		.byte	0xe
 911 05be 45       		.byte	0x45
 912 05bf 1A       		.byte	0x1a
ARM GAS  /var/folders/l5/0x54b2c10074c8bt31ycjvl80000gp/T//ccw4pyDy.s 			page 17


 913 05c0 03060000 		.4byte	0x603
 914 05c4 18       		.byte	0x18
 915 05c5 08       		.uleb128 0x8
 916 05c6 B4060000 		.4byte	.LASF83
 917 05ca 0E       		.byte	0xe
 918 05cb 46       		.byte	0x46
 919 05cc 19       		.byte	0x19
 920 05cd E0050000 		.4byte	0x5e0
 921 05d1 1C       		.byte	0x1c
 922 05d2 08       		.uleb128 0x8
 923 05d3 F1060000 		.4byte	.LASF84
 924 05d7 0E       		.byte	0xe
 925 05d8 47       		.byte	0x47
 926 05d9 1A       		.byte	0x1a
 927 05da 7E020000 		.4byte	0x27e
 928 05de 20       		.byte	0x20
 929 05df 00       		.byte	0
 930 05e0 03       		.uleb128 0x3
 931 05e1 9D040000 		.4byte	.LASF85
 932 05e5 0E       		.byte	0xe
 933 05e6 33       		.byte	0x33
 934 05e7 10       		.byte	0x10
 935 05e8 EC050000 		.4byte	0x5ec
 936 05ec 0B       		.uleb128 0xb
 937 05ed 04       		.byte	0x4
 938 05ee F2050000 		.4byte	0x5f2
 939 05f2 0D       		.uleb128 0xd
 940 05f3 FD050000 		.4byte	0x5fd
 941 05f7 0E       		.uleb128 0xe
 942 05f8 FD050000 		.4byte	0x5fd
 943 05fc 00       		.byte	0
 944 05fd 0B       		.uleb128 0xb
 945 05fe 04       		.byte	0x4
 946 05ff 5E050000 		.4byte	0x55e
 947 0603 0B       		.uleb128 0xb
 948 0604 04       		.byte	0x4
 949 0605 99000000 		.4byte	0x99
 950 0609 03       		.uleb128 0x3
 951 060a B1030000 		.4byte	.LASF86
 952 060e 0E       		.byte	0xe
 953 060f 7B       		.byte	0x7b
 954 0610 16       		.byte	0x16
 955 0611 5E050000 		.4byte	0x55e
 956 0615 03       		.uleb128 0x3
 957 0616 0E000000 		.4byte	.LASF87
 958 061a 0E       		.byte	0xe
 959 061b EE       		.byte	0xee
 960 061c 16       		.byte	0x16
 961 061d 5E050000 		.4byte	0x55e
 962 0621 12       		.uleb128 0x12
 963 0622 2C000000 		.4byte	0x2c
 964 0626 3A060000 		.4byte	0x63a
 965 062a 0E       		.uleb128 0xe
 966 062b 7E020000 		.4byte	0x27e
 967 062f 0E       		.uleb128 0xe
 968 0630 3A060000 		.4byte	0x63a
 969 0634 0E       		.uleb128 0xe
ARM GAS  /var/folders/l5/0x54b2c10074c8bt31ycjvl80000gp/T//ccw4pyDy.s 			page 18


 970 0635 2C000000 		.4byte	0x2c
 971 0639 00       		.byte	0
 972 063a 0B       		.uleb128 0xb
 973 063b 04       		.byte	0x4
 974 063c A5000000 		.4byte	0xa5
 975 0640 0B       		.uleb128 0xb
 976 0641 04       		.byte	0x4
 977 0642 21060000 		.4byte	0x621
 978 0646 12       		.uleb128 0x12
 979 0647 2C000000 		.4byte	0x2c
 980 064b 5F060000 		.4byte	0x65f
 981 064f 0E       		.uleb128 0xe
 982 0650 7E020000 		.4byte	0x27e
 983 0654 0E       		.uleb128 0xe
 984 0655 03060000 		.4byte	0x603
 985 0659 0E       		.uleb128 0xe
 986 065a 2C000000 		.4byte	0x2c
 987 065e 00       		.byte	0
 988 065f 0B       		.uleb128 0xb
 989 0660 04       		.byte	0x4
 990 0661 46060000 		.4byte	0x646
 991 0665 12       		.uleb128 0x12
 992 0666 22010000 		.4byte	0x122
 993 066a 79060000 		.4byte	0x679
 994 066e 0E       		.uleb128 0xe
 995 066f 7E020000 		.4byte	0x27e
 996 0673 0E       		.uleb128 0xe
 997 0674 99000000 		.4byte	0x99
 998 0678 00       		.byte	0
 999 0679 0B       		.uleb128 0xb
 1000 067a 04       		.byte	0x4
 1001 067b 65060000 		.4byte	0x665
 1002 067f 13       		.uleb128 0x13
 1003 0680 66020000 		.4byte	0x266
 1004 0684 8F060000 		.4byte	0x68f
 1005 0688 14       		.uleb128 0x14
 1006 0689 38000000 		.4byte	0x38
 1007 068d 1F       		.byte	0x1f
 1008 068e 00       		.byte	0
 1009 068f 0F       		.uleb128 0xf
 1010 0690 40010000 		.4byte	.LASF88
 1011 0694 0F       		.byte	0xf
 1012 0695 82       		.byte	0x82
 1013 0696 08       		.byte	0x8
 1014 0697 7F060000 		.4byte	0x67f
 1015 069b 07       		.uleb128 0x7
 1016 069c 2B000000 		.4byte	.LASF89
 1017 06a0 20       		.byte	0x20
 1018 06a1 10       		.byte	0x10
 1019 06a2 FD       		.byte	0xfd
 1020 06a3 08       		.byte	0x8
 1021 06a4 17070000 		.4byte	0x717
 1022 06a8 08       		.uleb128 0x8
 1023 06a9 7A050000 		.4byte	.LASF90
 1024 06ad 10       		.byte	0x10
 1025 06ae FE       		.byte	0xfe
 1026 06af 19       		.byte	0x19
ARM GAS  /var/folders/l5/0x54b2c10074c8bt31ycjvl80000gp/T//ccw4pyDy.s 			page 19


 1027 06b0 ED000000 		.4byte	0xed
 1028 06b4 00       		.byte	0
 1029 06b5 08       		.uleb128 0x8
 1030 06b6 A3060000 		.4byte	.LASF91
 1031 06ba 10       		.byte	0x10
 1032 06bb FF       		.byte	0xff
 1033 06bc 19       		.byte	0x19
 1034 06bd ED000000 		.4byte	0xed
 1035 06c1 04       		.byte	0x4
 1036 06c2 15       		.uleb128 0x15
 1037 06c3 35010000 		.4byte	.LASF92
 1038 06c7 10       		.byte	0x10
 1039 06c8 0001     		.2byte	0x100
 1040 06ca 19       		.byte	0x19
 1041 06cb ED000000 		.4byte	0xed
 1042 06cf 08       		.byte	0x8
 1043 06d0 15       		.uleb128 0x15
 1044 06d1 8B010000 		.4byte	.LASF93
 1045 06d5 10       		.byte	0x10
 1046 06d6 0101     		.2byte	0x101
 1047 06d8 19       		.byte	0x19
 1048 06d9 ED000000 		.4byte	0xed
 1049 06dd 0C       		.byte	0xc
 1050 06de 15       		.uleb128 0x15
 1051 06df 6F000000 		.4byte	.LASF94
 1052 06e3 10       		.byte	0x10
 1053 06e4 0201     		.2byte	0x102
 1054 06e6 19       		.byte	0x19
 1055 06e7 ED000000 		.4byte	0xed
 1056 06eb 10       		.byte	0x10
 1057 06ec 15       		.uleb128 0x15
 1058 06ed FC030000 		.4byte	.LASF95
 1059 06f1 10       		.byte	0x10
 1060 06f2 0301     		.2byte	0x103
 1061 06f4 19       		.byte	0x19
 1062 06f5 ED000000 		.4byte	0xed
 1063 06f9 14       		.byte	0x14
 1064 06fa 15       		.uleb128 0x15
 1065 06fb 0B010000 		.4byte	.LASF96
 1066 06ff 10       		.byte	0x10
 1067 0700 0401     		.2byte	0x104
 1068 0702 19       		.byte	0x19
 1069 0703 ED000000 		.4byte	0xed
 1070 0707 18       		.byte	0x18
 1071 0708 15       		.uleb128 0x15
 1072 0709 3E070000 		.4byte	.LASF97
 1073 070d 10       		.byte	0x10
 1074 070e 0501     		.2byte	0x105
 1075 0710 19       		.byte	0x19
 1076 0711 ED000000 		.4byte	0xed
 1077 0715 1C       		.byte	0x1c
 1078 0716 00       		.byte	0
 1079 0717 16       		.uleb128 0x16
 1080 0718 2B000000 		.4byte	.LASF89
 1081 071c 10       		.byte	0x10
 1082 071d 0801     		.2byte	0x108
 1083 071f 1C       		.byte	0x1c
ARM GAS  /var/folders/l5/0x54b2c10074c8bt31ycjvl80000gp/T//ccw4pyDy.s 			page 20


 1084 0720 9B060000 		.4byte	0x69b
 1085 0724 12       		.uleb128 0x12
 1086 0725 22010000 		.4byte	0x122
 1087 0729 3D070000 		.4byte	0x73d
 1088 072d 0E       		.uleb128 0xe
 1089 072e 7E020000 		.4byte	0x27e
 1090 0732 0E       		.uleb128 0xe
 1091 0733 99000000 		.4byte	0x99
 1092 0737 0E       		.uleb128 0xe
 1093 0738 46010000 		.4byte	0x146
 1094 073c 00       		.byte	0
 1095 073d 0B       		.uleb128 0xb
 1096 073e 04       		.byte	0x4
 1097 073f 24070000 		.4byte	0x724
 1098 0743 12       		.uleb128 0x12
 1099 0744 22010000 		.4byte	0x122
 1100 0748 57070000 		.4byte	0x757
 1101 074c 0E       		.uleb128 0xe
 1102 074d 7E020000 		.4byte	0x27e
 1103 0751 0E       		.uleb128 0xe
 1104 0752 46010000 		.4byte	0x146
 1105 0756 00       		.byte	0
 1106 0757 0B       		.uleb128 0xb
 1107 0758 04       		.byte	0x4
 1108 0759 43070000 		.4byte	0x743
 1109 075d 12       		.uleb128 0x12
 1110 075e 2C000000 		.4byte	0x2c
 1111 0762 7B070000 		.4byte	0x77b
 1112 0766 0E       		.uleb128 0xe
 1113 0767 7E020000 		.4byte	0x27e
 1114 076b 0E       		.uleb128 0xe
 1115 076c 3A060000 		.4byte	0x63a
 1116 0770 0E       		.uleb128 0xe
 1117 0771 2C000000 		.4byte	0x2c
 1118 0775 0E       		.uleb128 0xe
 1119 0776 46010000 		.4byte	0x146
 1120 077a 00       		.byte	0
 1121 077b 0B       		.uleb128 0xb
 1122 077c 04       		.byte	0x4
 1123 077d 5D070000 		.4byte	0x75d
 1124 0781 12       		.uleb128 0x12
 1125 0782 2C000000 		.4byte	0x2c
 1126 0786 9F070000 		.4byte	0x79f
 1127 078a 0E       		.uleb128 0xe
 1128 078b 7E020000 		.4byte	0x27e
 1129 078f 0E       		.uleb128 0xe
 1130 0790 03060000 		.4byte	0x603
 1131 0794 0E       		.uleb128 0xe
 1132 0795 2C000000 		.4byte	0x2c
 1133 0799 0E       		.uleb128 0xe
 1134 079a 46010000 		.4byte	0x146
 1135 079e 00       		.byte	0
 1136 079f 0B       		.uleb128 0xb
 1137 07a0 04       		.byte	0x4
 1138 07a1 81070000 		.4byte	0x781
 1139 07a5 0A       		.uleb128 0xa
 1140 07a6 18       		.byte	0x18
ARM GAS  /var/folders/l5/0x54b2c10074c8bt31ycjvl80000gp/T//ccw4pyDy.s 			page 21


 1141 07a7 11       		.byte	0x11
 1142 07a8 2A       		.byte	0x2a
 1143 07a9 09       		.byte	0x9
 1144 07aa FD070000 		.4byte	0x7fd
 1145 07ae 08       		.uleb128 0x8
 1146 07af CB060000 		.4byte	.LASF98
 1147 07b3 11       		.byte	0x11
 1148 07b4 2F       		.byte	0x2f
 1149 07b5 15       		.byte	0x15
 1150 07b6 C2000000 		.4byte	0xc2
 1151 07ba 00       		.byte	0
 1152 07bb 08       		.uleb128 0x8
 1153 07bc 68040000 		.4byte	.LASF99
 1154 07c0 11       		.byte	0x11
 1155 07c1 31       		.byte	0x31
 1156 07c2 16       		.byte	0x16
 1157 07c3 FD070000 		.4byte	0x7fd
 1158 07c7 04       		.byte	0x4
 1159 07c8 08       		.uleb128 0x8
 1160 07c9 0C030000 		.4byte	.LASF100
 1161 07cd 11       		.byte	0x11
 1162 07ce 32       		.byte	0x32
 1163 07cf 16       		.byte	0x16
 1164 07d0 FD070000 		.4byte	0x7fd
 1165 07d4 08       		.byte	0x8
 1166 07d5 08       		.uleb128 0x8
 1167 07d6 E0030000 		.4byte	.LASF101
 1168 07da 11       		.byte	0x11
 1169 07db 33       		.byte	0x33
 1170 07dc 16       		.byte	0x16
 1171 07dd FD070000 		.4byte	0x7fd
 1172 07e1 0C       		.byte	0xc
 1173 07e2 08       		.uleb128 0x8
 1174 07e3 75040000 		.4byte	.LASF102
 1175 07e7 11       		.byte	0x11
 1176 07e8 34       		.byte	0x34
 1177 07e9 16       		.byte	0x16
 1178 07ea FD070000 		.4byte	0x7fd
 1179 07ee 10       		.byte	0x10
 1180 07ef 08       		.uleb128 0x8
 1181 07f0 27050000 		.4byte	.LASF103
 1182 07f4 11       		.byte	0x11
 1183 07f5 35       		.byte	0x35
 1184 07f6 10       		.byte	0x10
 1185 07f7 E6000000 		.4byte	0xe6
 1186 07fb 14       		.byte	0x14
 1187 07fc 00       		.byte	0
 1188 07fd 0B       		.uleb128 0xb
 1189 07fe 04       		.byte	0x4
 1190 07ff CE000000 		.4byte	0xce
 1191 0803 03       		.uleb128 0x3
 1192 0804 00030000 		.4byte	.LASF104
 1193 0808 11       		.byte	0x11
 1194 0809 37       		.byte	0x37
 1195 080a 03       		.byte	0x3
 1196 080b A5070000 		.4byte	0x7a5
 1197 080f 17       		.uleb128 0x17
ARM GAS  /var/folders/l5/0x54b2c10074c8bt31ycjvl80000gp/T//ccw4pyDy.s 			page 22


 1198 0810 00       		.byte	0
 1199 0811 11       		.byte	0x11
 1200 0812 43       		.byte	0x43
 1201 0813 09       		.byte	0x9
 1202 0814 03       		.uleb128 0x3
 1203 0815 01070000 		.4byte	.LASF105
 1204 0819 11       		.byte	0x11
 1205 081a 45       		.byte	0x45
 1206 081b 03       		.byte	0x3
 1207 081c 0F080000 		.4byte	0x80f
 1208 0820 04       		.uleb128 0x4
 1209 0821 14080000 		.4byte	0x814
 1210 0825 03       		.uleb128 0x3
 1211 0826 37000000 		.4byte	.LASF106
 1212 082a 11       		.byte	0x11
 1213 082b 55       		.byte	0x55
 1214 082c 12       		.byte	0x12
 1215 082d C2000000 		.4byte	0xc2
 1216 0831 03       		.uleb128 0x3
 1217 0832 F8060000 		.4byte	.LASF107
 1218 0836 11       		.byte	0x11
 1219 0837 5A       		.byte	0x5a
 1220 0838 12       		.byte	0x12
 1221 0839 C2000000 		.4byte	0xc2
 1222 083d 03       		.uleb128 0x3
 1223 083e 23060000 		.4byte	.LASF108
 1224 0842 11       		.byte	0x11
 1225 0843 62       		.byte	0x62
 1226 0844 16       		.byte	0x16
 1227 0845 49080000 		.4byte	0x849
 1228 0849 0B       		.uleb128 0xb
 1229 084a 04       		.byte	0x4
 1230 084b 03080000 		.4byte	0x803
 1231 084f 0F       		.uleb128 0xf
 1232 0850 4E040000 		.4byte	.LASF109
 1233 0854 11       		.byte	0x11
 1234 0855 6D       		.byte	0x6d
 1235 0856 14       		.byte	0x14
 1236 0857 03080000 		.4byte	0x803
 1237 085b 0F       		.uleb128 0xf
 1238 085c 78000000 		.4byte	.LASF110
 1239 0860 11       		.byte	0x11
 1240 0861 6E       		.byte	0x6e
 1241 0862 14       		.byte	0x14
 1242 0863 03080000 		.4byte	0x803
 1243 0867 0F       		.uleb128 0xf
 1244 0868 13070000 		.4byte	.LASF111
 1245 086c 11       		.byte	0x11
 1246 086d 75       		.byte	0x75
 1247 086e 18       		.byte	0x18
 1248 086f 20080000 		.4byte	0x820
 1249 0873 0A       		.uleb128 0xa
 1250 0874 0C       		.byte	0xc
 1251 0875 12       		.byte	0x12
 1252 0876 7E       		.byte	0x7e
 1253 0877 09       		.byte	0x9
 1254 0878 A4080000 		.4byte	0x8a4
ARM GAS  /var/folders/l5/0x54b2c10074c8bt31ycjvl80000gp/T//ccw4pyDy.s 			page 23


 1255 087c 08       		.uleb128 0x8
 1256 087d 6E040000 		.4byte	.LASF112
 1257 0881 12       		.byte	0x12
 1258 0882 82       		.byte	0x82
 1259 0883 19       		.byte	0x19
 1260 0884 3D080000 		.4byte	0x83d
 1261 0888 00       		.byte	0
 1262 0889 08       		.uleb128 0x8
 1263 088a 75010000 		.4byte	.LASF113
 1264 088e 12       		.byte	0x12
 1265 088f 88       		.byte	0x88
 1266 0890 19       		.byte	0x19
 1267 0891 25080000 		.4byte	0x825
 1268 0895 04       		.byte	0x4
 1269 0896 08       		.uleb128 0x8
 1270 0897 12060000 		.4byte	.LASF114
 1271 089b 12       		.byte	0x12
 1272 089c 8C       		.byte	0x8c
 1273 089d 19       		.byte	0x19
 1274 089e DA000000 		.4byte	0xda
 1275 08a2 08       		.byte	0x8
 1276 08a3 00       		.byte	0
 1277 08a4 03       		.uleb128 0x3
 1278 08a5 88020000 		.4byte	.LASF115
 1279 08a9 12       		.byte	0x12
 1280 08aa 8D       		.byte	0x8d
 1281 08ab 03       		.byte	0x3
 1282 08ac 73080000 		.4byte	0x873
 1283 08b0 18       		.uleb128 0x18
 1284 08b1 07       		.byte	0x7
 1285 08b2 04       		.byte	0x4
 1286 08b3 E6000000 		.4byte	0xe6
 1287 08b7 13       		.byte	0x13
 1288 08b8 54       		.byte	0x54
 1289 08b9 0E       		.byte	0xe
 1290 08ba E3080000 		.4byte	0x8e3
 1291 08be 19       		.uleb128 0x19
 1292 08bf D2000000 		.4byte	.LASF116
 1293 08c3 00       		.byte	0
 1294 08c4 19       		.uleb128 0x19
 1295 08c5 F3030000 		.4byte	.LASF117
 1296 08c9 01       		.byte	0x1
 1297 08ca 19       		.uleb128 0x19
 1298 08cb 08060000 		.4byte	.LASF118
 1299 08cf 02       		.byte	0x2
 1300 08d0 19       		.uleb128 0x19
 1301 08d1 27010000 		.4byte	.LASF119
 1302 08d5 03       		.byte	0x3
 1303 08d6 19       		.uleb128 0x19
 1304 08d7 AD050000 		.4byte	.LASF120
 1305 08db 04       		.byte	0x4
 1306 08dc 19       		.uleb128 0x19
 1307 08dd 5A050000 		.4byte	.LASF121
 1308 08e1 05       		.byte	0x5
 1309 08e2 00       		.byte	0
 1310 08e3 03       		.uleb128 0x3
 1311 08e4 92040000 		.4byte	.LASF122
ARM GAS  /var/folders/l5/0x54b2c10074c8bt31ycjvl80000gp/T//ccw4pyDy.s 			page 24


 1312 08e8 13       		.byte	0x13
 1313 08e9 5B       		.byte	0x5b
 1314 08ea 03       		.byte	0x3
 1315 08eb B0080000 		.4byte	0x8b0
 1316 08ef 03       		.uleb128 0x3
 1317 08f0 19060000 		.4byte	.LASF123
 1318 08f4 14       		.byte	0x14
 1319 08f5 38       		.byte	0x38
 1320 08f6 1A       		.byte	0x1a
 1321 08f7 FB080000 		.4byte	0x8fb
 1322 08fb 07       		.uleb128 0x7
 1323 08fc 19060000 		.4byte	.LASF123
 1324 0900 40       		.byte	0x40
 1325 0901 14       		.byte	0x14
 1326 0902 62       		.byte	0x62
 1327 0903 08       		.byte	0x8
 1328 0904 B2090000 		.4byte	0x9b2
 1329 0908 08       		.uleb128 0x8
 1330 0909 E7000000 		.4byte	.LASF124
 1331 090d 14       		.byte	0x14
 1332 090e 64       		.byte	0x64
 1333 090f 1D       		.byte	0x1d
 1334 0910 E3080000 		.4byte	0x8e3
 1335 0914 00       		.byte	0
 1336 0915 08       		.uleb128 0x8
 1337 0916 D0050000 		.4byte	.LASF125
 1338 091a 14       		.byte	0x14
 1339 091b 66       		.byte	0x66
 1340 091c 1E       		.byte	0x1e
 1341 091d F2090000 		.4byte	0x9f2
 1342 0921 04       		.byte	0x4
 1343 0922 08       		.uleb128 0x8
 1344 0923 B9020000 		.4byte	.LASF126
 1345 0927 14       		.byte	0x14
 1346 0928 68       		.byte	0x68
 1347 0929 1D       		.byte	0x1d
 1348 092a B2090000 		.4byte	0x9b2
 1349 092e 08       		.byte	0x8
 1350 092f 08       		.uleb128 0x8
 1351 0930 8D000000 		.4byte	.LASF127
 1352 0934 14       		.byte	0x14
 1353 0935 6A       		.byte	0x6a
 1354 0936 1E       		.byte	0x1e
 1355 0937 F8090000 		.4byte	0x9f8
 1356 093b 0C       		.byte	0xc
 1357 093c 08       		.uleb128 0x8
 1358 093d C9040000 		.4byte	.LASF128
 1359 0941 14       		.byte	0x14
 1360 0942 6D       		.byte	0x6d
 1361 0943 1D       		.byte	0x1d
 1362 0944 82040000 		.4byte	0x482
 1363 0948 10       		.byte	0x10
 1364 0949 08       		.uleb128 0x8
 1365 094a 04010000 		.4byte	.LASF129
 1366 094e 14       		.byte	0x14
 1367 094f 77       		.byte	0x77
 1368 0950 1E       		.byte	0x1e
ARM GAS  /var/folders/l5/0x54b2c10074c8bt31ycjvl80000gp/T//ccw4pyDy.s 			page 25


 1369 0951 31020000 		.4byte	0x231
 1370 0955 20       		.byte	0x20
 1371 0956 08       		.uleb128 0x8
 1372 0957 5B000000 		.4byte	.LASF130
 1373 095b 14       		.byte	0x14
 1374 095c 7B       		.byte	0x7b
 1375 095d 1D       		.byte	0x1d
 1376 095e BE090000 		.4byte	0x9be
 1377 0962 24       		.byte	0x24
 1378 0963 08       		.uleb128 0x8
 1379 0964 A3020000 		.4byte	.LASF131
 1380 0968 14       		.byte	0x14
 1381 0969 7F       		.byte	0x7f
 1382 096a 1E       		.byte	0x1e
 1383 096b 3A060000 		.4byte	0x63a
 1384 096f 28       		.byte	0x28
 1385 0970 08       		.uleb128 0x8
 1386 0971 36070000 		.4byte	.LASF132
 1387 0975 14       		.byte	0x14
 1388 0976 83       		.byte	0x83
 1389 0977 1D       		.byte	0x1d
 1390 0978 2C000000 		.4byte	0x2c
 1391 097c 2C       		.byte	0x2c
 1392 097d 08       		.uleb128 0x8
 1393 097e 83060000 		.4byte	.LASF133
 1394 0982 14       		.byte	0x14
 1395 0983 87       		.byte	0x87
 1396 0984 1D       		.byte	0x1d
 1397 0985 2C000000 		.4byte	0x2c
 1398 0989 30       		.byte	0x30
 1399 098a 08       		.uleb128 0x8
 1400 098b 69000000 		.4byte	.LASF134
 1401 098f 14       		.byte	0x14
 1402 0990 8B       		.byte	0x8b
 1403 0991 1E       		.byte	0x1e
 1404 0992 03060000 		.4byte	0x603
 1405 0996 34       		.byte	0x34
 1406 0997 08       		.uleb128 0x8
 1407 0998 2B040000 		.4byte	.LASF135
 1408 099c 14       		.byte	0x14
 1409 099d 8F       		.byte	0x8f
 1410 099e 1D       		.byte	0x1d
 1411 099f 2C000000 		.4byte	0x2c
 1412 09a3 38       		.byte	0x38
 1413 09a4 08       		.uleb128 0x8
 1414 09a5 8C040000 		.4byte	.LASF136
 1415 09a9 14       		.byte	0x14
 1416 09aa 93       		.byte	0x93
 1417 09ab 1D       		.byte	0x1d
 1418 09ac 2C000000 		.4byte	0x2c
 1419 09b0 3C       		.byte	0x3c
 1420 09b1 00       		.byte	0
 1421 09b2 03       		.uleb128 0x3
 1422 09b3 BE040000 		.4byte	.LASF137
 1423 09b7 14       		.byte	0x14
 1424 09b8 42       		.byte	0x42
 1425 09b9 12       		.byte	0x12
ARM GAS  /var/folders/l5/0x54b2c10074c8bt31ycjvl80000gp/T//ccw4pyDy.s 			page 26


 1426 09ba C2000000 		.4byte	0xc2
 1427 09be 03       		.uleb128 0x3
 1428 09bf DD000000 		.4byte	.LASF138
 1429 09c3 14       		.byte	0x14
 1430 09c4 48       		.byte	0x48
 1431 09c5 12       		.byte	0x12
 1432 09c6 AA000000 		.4byte	0xaa
 1433 09ca 0A       		.uleb128 0xa
 1434 09cb 04       		.byte	0x4
 1435 09cc 14       		.byte	0x14
 1436 09cd 57       		.byte	0x57
 1437 09ce 09       		.byte	0x9
 1438 09cf E1090000 		.4byte	0x9e1
 1439 09d3 08       		.uleb128 0x8
 1440 09d4 1B040000 		.4byte	.LASF139
 1441 09d8 14       		.byte	0x14
 1442 09d9 59       		.byte	0x59
 1443 09da 1D       		.byte	0x1d
 1444 09db C2000000 		.4byte	0xc2
 1445 09df 00       		.byte	0
 1446 09e0 00       		.byte	0
 1447 09e1 03       		.uleb128 0x3
 1448 09e2 6F060000 		.4byte	.LASF140
 1449 09e6 14       		.byte	0x14
 1450 09e7 5B       		.byte	0x5b
 1451 09e8 03       		.byte	0x3
 1452 09e9 CA090000 		.4byte	0x9ca
 1453 09ed 04       		.uleb128 0x4
 1454 09ee E1090000 		.4byte	0x9e1
 1455 09f2 0B       		.uleb128 0xb
 1456 09f3 04       		.byte	0x4
 1457 09f4 ED090000 		.4byte	0x9ed
 1458 09f8 0B       		.uleb128 0xb
 1459 09f9 04       		.byte	0x4
 1460 09fa 17070000 		.4byte	0x717
 1461 09fe 0F       		.uleb128 0xf
 1462 09ff 77020000 		.4byte	.LASF141
 1463 0a03 14       		.byte	0x14
 1464 0a04 A6       		.byte	0xa6
 1465 0a05 12       		.byte	0x12
 1466 0a06 EF080000 		.4byte	0x8ef
 1467 0a0a 18       		.uleb128 0x18
 1468 0a0b 07       		.byte	0x7
 1469 0a0c 04       		.byte	0x4
 1470 0a0d E6000000 		.4byte	0xe6
 1471 0a11 15       		.byte	0x15
 1472 0a12 5D       		.byte	0x5d
 1473 0a13 0E       		.byte	0xe
 1474 0a14 2B0A0000 		.4byte	0xa2b
 1475 0a18 19       		.uleb128 0x19
 1476 0a19 70050000 		.4byte	.LASF142
 1477 0a1d 00       		.byte	0
 1478 0a1e 19       		.uleb128 0x19
 1479 0a1f B8000000 		.4byte	.LASF143
 1480 0a23 01       		.byte	0x1
 1481 0a24 19       		.uleb128 0x19
 1482 0a25 53060000 		.4byte	.LASF144
ARM GAS  /var/folders/l5/0x54b2c10074c8bt31ycjvl80000gp/T//ccw4pyDy.s 			page 27


 1483 0a29 02       		.byte	0x2
 1484 0a2a 00       		.byte	0
 1485 0a2b 03       		.uleb128 0x3
 1486 0a2c 79060000 		.4byte	.LASF145
 1487 0a30 15       		.byte	0x15
 1488 0a31 61       		.byte	0x61
 1489 0a32 03       		.byte	0x3
 1490 0a33 0A0A0000 		.4byte	0xa0a
 1491 0a37 03       		.uleb128 0x3
 1492 0a38 A0050000 		.4byte	.LASF146
 1493 0a3c 15       		.byte	0x15
 1494 0a3d 66       		.byte	0x66
 1495 0a3e 1D       		.byte	0x1d
 1496 0a3f 430A0000 		.4byte	0xa43
 1497 0a43 07       		.uleb128 0x7
 1498 0a44 A0050000 		.4byte	.LASF146
 1499 0a48 74       		.byte	0x74
 1500 0a49 15       		.byte	0x15
 1501 0a4a 80       		.byte	0x80
 1502 0a4b 08       		.byte	0x8
 1503 0a4c AA0A0000 		.4byte	0xaaa
 1504 0a50 09       		.uleb128 0x9
 1505 0a51 766D7400 		.ascii	"vmt\000"
 1506 0a55 15       		.byte	0x15
 1507 0a56 82       		.byte	0x82
 1508 0a57 21       		.byte	0x21
 1509 0a58 310B0000 		.4byte	0xb31
 1510 0a5c 00       		.byte	0
 1511 0a5d 08       		.uleb128 0x8
 1512 0a5e E7020000 		.4byte	.LASF147
 1513 0a62 15       		.byte	0x15
 1514 0a63 83       		.byte	0x83
 1515 0a64 03       		.byte	0x3
 1516 0a65 FD040000 		.4byte	0x4fd
 1517 0a69 04       		.byte	0x4
 1518 0a6a 08       		.uleb128 0x8
 1519 0a6b E7000000 		.4byte	.LASF124
 1520 0a6f 15       		.byte	0x15
 1521 0a70 83       		.byte	0x83
 1522 0a71 03       		.byte	0x3
 1523 0a72 2B0A0000 		.4byte	0xa2b
 1524 0a76 08       		.byte	0x8
 1525 0a77 08       		.uleb128 0x8
 1526 0a78 C0020000 		.4byte	.LASF148
 1527 0a7c 15       		.byte	0x15
 1528 0a7d 83       		.byte	0x83
 1529 0a7e 03       		.byte	0x3
 1530 0a7f 09060000 		.4byte	0x609
 1531 0a83 0C       		.byte	0xc
 1532 0a84 08       		.uleb128 0x8
 1533 0a85 18030000 		.4byte	.LASF149
 1534 0a89 15       		.byte	0x15
 1535 0a8a 83       		.byte	0x83
 1536 0a8b 03       		.byte	0x3
 1537 0a8c 15060000 		.4byte	0x615
 1538 0a90 30       		.byte	0x30
 1539 0a91 09       		.uleb128 0x9
ARM GAS  /var/folders/l5/0x54b2c10074c8bt31ycjvl80000gp/T//ccw4pyDy.s 			page 28


 1540 0a92 696200   		.ascii	"ib\000"
 1541 0a95 15       		.byte	0x15
 1542 0a96 83       		.byte	0x83
 1543 0a97 03       		.byte	0x3
 1544 0a98 370B0000 		.4byte	0xb37
 1545 0a9c 54       		.byte	0x54
 1546 0a9d 09       		.uleb128 0x9
 1547 0a9e 6F6200   		.ascii	"ob\000"
 1548 0aa1 15       		.byte	0x15
 1549 0aa2 83       		.byte	0x83
 1550 0aa3 03       		.byte	0x3
 1551 0aa4 370B0000 		.4byte	0xb37
 1552 0aa8 64       		.byte	0x64
 1553 0aa9 00       		.byte	0
 1554 0aaa 1A       		.uleb128 0x1a
 1555 0aab 53443100 		.ascii	"SD1\000"
 1556 0aaf 16       		.byte	0x16
 1557 0ab0 62       		.byte	0x62
 1558 0ab1 15       		.byte	0x15
 1559 0ab2 370A0000 		.4byte	0xa37
 1560 0ab6 07       		.uleb128 0x7
 1561 0ab7 A9020000 		.4byte	.LASF150
 1562 0abb 20       		.byte	0x20
 1563 0abc 15       		.byte	0x15
 1564 0abd 75       		.byte	0x75
 1565 0abe 08       		.byte	0x8
 1566 0abf 2C0B0000 		.4byte	0xb2c
 1567 0ac3 08       		.uleb128 0x8
 1568 0ac4 DA030000 		.4byte	.LASF151
 1569 0ac8 15       		.byte	0x15
 1570 0ac9 76       		.byte	0x76
 1571 0aca 03       		.byte	0x3
 1572 0acb 40060000 		.4byte	0x640
 1573 0acf 00       		.byte	0
 1574 0ad0 08       		.uleb128 0x8
 1575 0ad1 BB050000 		.4byte	.LASF152
 1576 0ad5 15       		.byte	0x15
 1577 0ad6 76       		.byte	0x76
 1578 0ad7 03       		.byte	0x3
 1579 0ad8 5F060000 		.4byte	0x65f
 1580 0adc 04       		.byte	0x4
 1581 0add 09       		.uleb128 0x9
 1582 0ade 70757400 		.ascii	"put\000"
 1583 0ae2 15       		.byte	0x15
 1584 0ae3 76       		.byte	0x76
 1585 0ae4 03       		.byte	0x3
 1586 0ae5 79060000 		.4byte	0x679
 1587 0ae9 08       		.byte	0x8
 1588 0aea 09       		.uleb128 0x9
 1589 0aeb 67657400 		.ascii	"get\000"
 1590 0aef 15       		.byte	0x15
 1591 0af0 76       		.byte	0x76
 1592 0af1 03       		.byte	0x3
 1593 0af2 49050000 		.4byte	0x549
 1594 0af6 0C       		.byte	0xc
 1595 0af7 08       		.uleb128 0x8
 1596 0af8 E6030000 		.4byte	.LASF153
ARM GAS  /var/folders/l5/0x54b2c10074c8bt31ycjvl80000gp/T//ccw4pyDy.s 			page 29


 1597 0afc 15       		.byte	0x15
 1598 0afd 76       		.byte	0x76
 1599 0afe 03       		.byte	0x3
 1600 0aff 3D070000 		.4byte	0x73d
 1601 0b03 10       		.byte	0x10
 1602 0b04 08       		.uleb128 0x8
 1603 0b05 D9020000 		.4byte	.LASF154
 1604 0b09 15       		.byte	0x15
 1605 0b0a 76       		.byte	0x76
 1606 0b0b 03       		.byte	0x3
 1607 0b0c 57070000 		.4byte	0x757
 1608 0b10 14       		.byte	0x14
 1609 0b11 08       		.uleb128 0x8
 1610 0b12 77030000 		.4byte	.LASF155
 1611 0b16 15       		.byte	0x15
 1612 0b17 76       		.byte	0x76
 1613 0b18 03       		.byte	0x3
 1614 0b19 7B070000 		.4byte	0x77b
 1615 0b1d 18       		.byte	0x18
 1616 0b1e 08       		.uleb128 0x8
 1617 0b1f 87000000 		.4byte	.LASF156
 1618 0b23 15       		.byte	0x15
 1619 0b24 76       		.byte	0x76
 1620 0b25 03       		.byte	0x3
 1621 0b26 9F070000 		.4byte	0x79f
 1622 0b2a 1C       		.byte	0x1c
 1623 0b2b 00       		.byte	0
 1624 0b2c 04       		.uleb128 0x4
 1625 0b2d B60A0000 		.4byte	0xab6
 1626 0b31 0B       		.uleb128 0xb
 1627 0b32 04       		.byte	0x4
 1628 0b33 2C0B0000 		.4byte	0xb2c
 1629 0b37 13       		.uleb128 0x13
 1630 0b38 99000000 		.4byte	0x99
 1631 0b3c 470B0000 		.4byte	0xb47
 1632 0b40 14       		.uleb128 0x14
 1633 0b41 38000000 		.4byte	0x38
 1634 0b45 0F       		.byte	0xf
 1635 0b46 00       		.byte	0
 1636 0b47 1B       		.uleb128 0x1b
 1637 0b48 7E040000 		.4byte	.LASF158
 1638 0b4c 01       		.byte	0x1
 1639 0b4d 75       		.byte	0x75
 1640 0b4e 06       		.byte	0x6
 1641 0b4f 00000000 		.4byte	.LFB9
 1642 0b53 18000000 		.4byte	.LFE9-.LFB9
 1643 0b57 01       		.uleb128 0x1
 1644 0b58 9C       		.byte	0x9c
 1645 0b59 970B0000 		.4byte	0xb97
 1646 0b5d 1C       		.uleb128 0x1c
 1647 0b5e 62757300 		.ascii	"bus\000"
 1648 0b62 01       		.byte	0x1
 1649 0b63 75       		.byte	0x75
 1650 0b64 1B       		.byte	0x1b
 1651 0b65 970B0000 		.4byte	0xb97
 1652 0b69 04000000 		.4byte	.LLST3
 1653 0b6d 00000000 		.4byte	.LVUS3
ARM GAS  /var/folders/l5/0x54b2c10074c8bt31ycjvl80000gp/T//ccw4pyDy.s 			page 30


 1654 0b71 1D       		.uleb128 0x1d
 1655 0b72 C0050000 		.4byte	.LASF157
 1656 0b76 01       		.byte	0x1
 1657 0b77 75       		.byte	0x75
 1658 0b78 29       		.byte	0x29
 1659 0b79 31080000 		.4byte	0x831
 1660 0b7d 2B000000 		.4byte	.LLST4
 1661 0b81 25000000 		.4byte	.LVUS4
 1662 0b85 1E       		.uleb128 0x1e
 1663 0b86 18000000 		.4byte	.LVL10
 1664 0b8a 140C0000 		.4byte	0xc14
 1665 0b8e 1F       		.uleb128 0x1f
 1666 0b8f 01       		.uleb128 0x1
 1667 0b90 52       		.byte	0x52
 1668 0b91 03       		.uleb128 0x3
 1669 0b92 F3       		.byte	0xf3
 1670 0b93 01       		.uleb128 0x1
 1671 0b94 51       		.byte	0x51
 1672 0b95 00       		.byte	0
 1673 0b96 00       		.byte	0
 1674 0b97 0B       		.uleb128 0xb
 1675 0b98 04       		.byte	0x4
 1676 0b99 A4080000 		.4byte	0x8a4
 1677 0b9d 1B       		.uleb128 0x1b
 1678 0b9e 89060000 		.4byte	.LASF159
 1679 0ba2 01       		.byte	0x1
 1680 0ba3 5E       		.byte	0x5e
 1681 0ba4 06       		.byte	0x6
 1682 0ba5 00000000 		.4byte	.LFB8
 1683 0ba9 20000000 		.4byte	.LFE8-.LFB8
 1684 0bad 01       		.uleb128 0x1
 1685 0bae 9C       		.byte	0x9c
 1686 0baf E50B0000 		.4byte	0xbe5
 1687 0bb3 1C       		.uleb128 0x1c
 1688 0bb4 62757300 		.ascii	"bus\000"
 1689 0bb8 01       		.byte	0x1
 1690 0bb9 5E       		.byte	0x5e
 1691 0bba 19       		.byte	0x19
 1692 0bbb 970B0000 		.4byte	0xb97
 1693 0bbf 5D000000 		.4byte	.LLST1
 1694 0bc3 57000000 		.4byte	.LVUS1
 1695 0bc7 1D       		.uleb128 0x1d
 1696 0bc8 ED000000 		.4byte	.LASF160
 1697 0bcc 01       		.byte	0x1
 1698 0bcd 5E       		.byte	0x5e
 1699 0bce 2B       		.byte	0x2b
 1700 0bcf 25080000 		.4byte	0x825
 1701 0bd3 8D000000 		.4byte	.LLST2
 1702 0bd7 89000000 		.4byte	.LVUS2
 1703 0bdb 20       		.uleb128 0x20
 1704 0bdc 20000000 		.4byte	.LVL6
 1705 0be0 200C0000 		.4byte	0xc20
 1706 0be4 00       		.byte	0
 1707 0be5 21       		.uleb128 0x21
 1708 0be6 C5050000 		.4byte	.LASF166
 1709 0bea 01       		.byte	0x1
 1710 0beb 45       		.byte	0x45
ARM GAS  /var/folders/l5/0x54b2c10074c8bt31ycjvl80000gp/T//ccw4pyDy.s 			page 31


 1711 0bec 0E       		.byte	0xe
 1712 0bed 25080000 		.4byte	0x825
 1713 0bf1 00000000 		.4byte	.LFB7
 1714 0bf5 1C000000 		.4byte	.LFE7-.LFB7
 1715 0bf9 01       		.uleb128 0x1
 1716 0bfa 9C       		.byte	0x9c
 1717 0bfb 140C0000 		.4byte	0xc14
 1718 0bff 1C       		.uleb128 0x1c
 1719 0c00 62757300 		.ascii	"bus\000"
 1720 0c04 01       		.byte	0x1
 1721 0c05 45       		.byte	0x45
 1722 0c06 20       		.byte	0x20
 1723 0c07 970B0000 		.4byte	0xb97
 1724 0c0b B2000000 		.4byte	.LLST0
 1725 0c0f AE000000 		.4byte	.LVUS0
 1726 0c13 00       		.byte	0
 1727 0c14 22       		.uleb128 0x22
 1728 0c15 36060000 		.4byte	.LASF161
 1729 0c19 36060000 		.4byte	.LASF161
 1730 0c1d 11       		.byte	0x11
 1731 0c1e B6       		.byte	0xb6
 1732 0c1f 08       		.byte	0x8
 1733 0c20 22       		.uleb128 0x22
 1734 0c21 86030000 		.4byte	.LASF162
 1735 0c25 86030000 		.4byte	.LASF162
 1736 0c29 11       		.byte	0x11
 1737 0c2a BA       		.byte	0xba
 1738 0c2b 08       		.byte	0x8
 1739 0c2c 00       		.byte	0
 1740              		.section	.debug_abbrev,"",%progbits
 1741              	.Ldebug_abbrev0:
 1742 0000 01       		.uleb128 0x1
 1743 0001 11       		.uleb128 0x11
 1744 0002 01       		.byte	0x1
 1745 0003 25       		.uleb128 0x25
 1746 0004 0E       		.uleb128 0xe
 1747 0005 13       		.uleb128 0x13
 1748 0006 0B       		.uleb128 0xb
 1749 0007 03       		.uleb128 0x3
 1750 0008 0E       		.uleb128 0xe
 1751 0009 1B       		.uleb128 0x1b
 1752 000a 0E       		.uleb128 0xe
 1753 000b 55       		.uleb128 0x55
 1754 000c 17       		.uleb128 0x17
 1755 000d 11       		.uleb128 0x11
 1756 000e 01       		.uleb128 0x1
 1757 000f 10       		.uleb128 0x10
 1758 0010 17       		.uleb128 0x17
 1759 0011 00       		.byte	0
 1760 0012 00       		.byte	0
 1761 0013 02       		.uleb128 0x2
 1762 0014 24       		.uleb128 0x24
 1763 0015 00       		.byte	0
 1764 0016 0B       		.uleb128 0xb
 1765 0017 0B       		.uleb128 0xb
 1766 0018 3E       		.uleb128 0x3e
 1767 0019 0B       		.uleb128 0xb
ARM GAS  /var/folders/l5/0x54b2c10074c8bt31ycjvl80000gp/T//ccw4pyDy.s 			page 32


 1768 001a 03       		.uleb128 0x3
 1769 001b 0E       		.uleb128 0xe
 1770 001c 00       		.byte	0
 1771 001d 00       		.byte	0
 1772 001e 03       		.uleb128 0x3
 1773 001f 16       		.uleb128 0x16
 1774 0020 00       		.byte	0
 1775 0021 03       		.uleb128 0x3
 1776 0022 0E       		.uleb128 0xe
 1777 0023 3A       		.uleb128 0x3a
 1778 0024 0B       		.uleb128 0xb
 1779 0025 3B       		.uleb128 0x3b
 1780 0026 0B       		.uleb128 0xb
 1781 0027 39       		.uleb128 0x39
 1782 0028 0B       		.uleb128 0xb
 1783 0029 49       		.uleb128 0x49
 1784 002a 13       		.uleb128 0x13
 1785 002b 00       		.byte	0
 1786 002c 00       		.byte	0
 1787 002d 04       		.uleb128 0x4
 1788 002e 26       		.uleb128 0x26
 1789 002f 00       		.byte	0
 1790 0030 49       		.uleb128 0x49
 1791 0031 13       		.uleb128 0x13
 1792 0032 00       		.byte	0
 1793 0033 00       		.byte	0
 1794 0034 05       		.uleb128 0x5
 1795 0035 35       		.uleb128 0x35
 1796 0036 00       		.byte	0
 1797 0037 49       		.uleb128 0x49
 1798 0038 13       		.uleb128 0x13
 1799 0039 00       		.byte	0
 1800 003a 00       		.byte	0
 1801 003b 06       		.uleb128 0x6
 1802 003c 24       		.uleb128 0x24
 1803 003d 00       		.byte	0
 1804 003e 0B       		.uleb128 0xb
 1805 003f 0B       		.uleb128 0xb
 1806 0040 3E       		.uleb128 0x3e
 1807 0041 0B       		.uleb128 0xb
 1808 0042 03       		.uleb128 0x3
 1809 0043 08       		.uleb128 0x8
 1810 0044 00       		.byte	0
 1811 0045 00       		.byte	0
 1812 0046 07       		.uleb128 0x7
 1813 0047 13       		.uleb128 0x13
 1814 0048 01       		.byte	0x1
 1815 0049 03       		.uleb128 0x3
 1816 004a 0E       		.uleb128 0xe
 1817 004b 0B       		.uleb128 0xb
 1818 004c 0B       		.uleb128 0xb
 1819 004d 3A       		.uleb128 0x3a
 1820 004e 0B       		.uleb128 0xb
 1821 004f 3B       		.uleb128 0x3b
 1822 0050 0B       		.uleb128 0xb
 1823 0051 39       		.uleb128 0x39
 1824 0052 0B       		.uleb128 0xb
ARM GAS  /var/folders/l5/0x54b2c10074c8bt31ycjvl80000gp/T//ccw4pyDy.s 			page 33


 1825 0053 01       		.uleb128 0x1
 1826 0054 13       		.uleb128 0x13
 1827 0055 00       		.byte	0
 1828 0056 00       		.byte	0
 1829 0057 08       		.uleb128 0x8
 1830 0058 0D       		.uleb128 0xd
 1831 0059 00       		.byte	0
 1832 005a 03       		.uleb128 0x3
 1833 005b 0E       		.uleb128 0xe
 1834 005c 3A       		.uleb128 0x3a
 1835 005d 0B       		.uleb128 0xb
 1836 005e 3B       		.uleb128 0x3b
 1837 005f 0B       		.uleb128 0xb
 1838 0060 39       		.uleb128 0x39
 1839 0061 0B       		.uleb128 0xb
 1840 0062 49       		.uleb128 0x49
 1841 0063 13       		.uleb128 0x13
 1842 0064 38       		.uleb128 0x38
 1843 0065 0B       		.uleb128 0xb
 1844 0066 00       		.byte	0
 1845 0067 00       		.byte	0
 1846 0068 09       		.uleb128 0x9
 1847 0069 0D       		.uleb128 0xd
 1848 006a 00       		.byte	0
 1849 006b 03       		.uleb128 0x3
 1850 006c 08       		.uleb128 0x8
 1851 006d 3A       		.uleb128 0x3a
 1852 006e 0B       		.uleb128 0xb
 1853 006f 3B       		.uleb128 0x3b
 1854 0070 0B       		.uleb128 0xb
 1855 0071 39       		.uleb128 0x39
 1856 0072 0B       		.uleb128 0xb
 1857 0073 49       		.uleb128 0x49
 1858 0074 13       		.uleb128 0x13
 1859 0075 38       		.uleb128 0x38
 1860 0076 0B       		.uleb128 0xb
 1861 0077 00       		.byte	0
 1862 0078 00       		.byte	0
 1863 0079 0A       		.uleb128 0xa
 1864 007a 13       		.uleb128 0x13
 1865 007b 01       		.byte	0x1
 1866 007c 0B       		.uleb128 0xb
 1867 007d 0B       		.uleb128 0xb
 1868 007e 3A       		.uleb128 0x3a
 1869 007f 0B       		.uleb128 0xb
 1870 0080 3B       		.uleb128 0x3b
 1871 0081 0B       		.uleb128 0xb
 1872 0082 39       		.uleb128 0x39
 1873 0083 0B       		.uleb128 0xb
 1874 0084 01       		.uleb128 0x1
 1875 0085 13       		.uleb128 0x13
 1876 0086 00       		.byte	0
 1877 0087 00       		.byte	0
 1878 0088 0B       		.uleb128 0xb
 1879 0089 0F       		.uleb128 0xf
 1880 008a 00       		.byte	0
 1881 008b 0B       		.uleb128 0xb
ARM GAS  /var/folders/l5/0x54b2c10074c8bt31ycjvl80000gp/T//ccw4pyDy.s 			page 34


 1882 008c 0B       		.uleb128 0xb
 1883 008d 49       		.uleb128 0x49
 1884 008e 13       		.uleb128 0x13
 1885 008f 00       		.byte	0
 1886 0090 00       		.byte	0
 1887 0091 0C       		.uleb128 0xc
 1888 0092 0F       		.uleb128 0xf
 1889 0093 00       		.byte	0
 1890 0094 0B       		.uleb128 0xb
 1891 0095 0B       		.uleb128 0xb
 1892 0096 00       		.byte	0
 1893 0097 00       		.byte	0
 1894 0098 0D       		.uleb128 0xd
 1895 0099 15       		.uleb128 0x15
 1896 009a 01       		.byte	0x1
 1897 009b 27       		.uleb128 0x27
 1898 009c 19       		.uleb128 0x19
 1899 009d 01       		.uleb128 0x1
 1900 009e 13       		.uleb128 0x13
 1901 009f 00       		.byte	0
 1902 00a0 00       		.byte	0
 1903 00a1 0E       		.uleb128 0xe
 1904 00a2 05       		.uleb128 0x5
 1905 00a3 00       		.byte	0
 1906 00a4 49       		.uleb128 0x49
 1907 00a5 13       		.uleb128 0x13
 1908 00a6 00       		.byte	0
 1909 00a7 00       		.byte	0
 1910 00a8 0F       		.uleb128 0xf
 1911 00a9 34       		.uleb128 0x34
 1912 00aa 00       		.byte	0
 1913 00ab 03       		.uleb128 0x3
 1914 00ac 0E       		.uleb128 0xe
 1915 00ad 3A       		.uleb128 0x3a
 1916 00ae 0B       		.uleb128 0xb
 1917 00af 3B       		.uleb128 0x3b
 1918 00b0 0B       		.uleb128 0xb
 1919 00b1 39       		.uleb128 0x39
 1920 00b2 0B       		.uleb128 0xb
 1921 00b3 49       		.uleb128 0x49
 1922 00b4 13       		.uleb128 0x13
 1923 00b5 3F       		.uleb128 0x3f
 1924 00b6 19       		.uleb128 0x19
 1925 00b7 3C       		.uleb128 0x3c
 1926 00b8 19       		.uleb128 0x19
 1927 00b9 00       		.byte	0
 1928 00ba 00       		.byte	0
 1929 00bb 10       		.uleb128 0x10
 1930 00bc 17       		.uleb128 0x17
 1931 00bd 01       		.byte	0x1
 1932 00be 0B       		.uleb128 0xb
 1933 00bf 0B       		.uleb128 0xb
 1934 00c0 3A       		.uleb128 0x3a
 1935 00c1 0B       		.uleb128 0xb
 1936 00c2 3B       		.uleb128 0x3b
 1937 00c3 0B       		.uleb128 0xb
 1938 00c4 39       		.uleb128 0x39
ARM GAS  /var/folders/l5/0x54b2c10074c8bt31ycjvl80000gp/T//ccw4pyDy.s 			page 35


 1939 00c5 0B       		.uleb128 0xb
 1940 00c6 01       		.uleb128 0x1
 1941 00c7 13       		.uleb128 0x13
 1942 00c8 00       		.byte	0
 1943 00c9 00       		.byte	0
 1944 00ca 11       		.uleb128 0x11
 1945 00cb 0D       		.uleb128 0xd
 1946 00cc 00       		.byte	0
 1947 00cd 03       		.uleb128 0x3
 1948 00ce 0E       		.uleb128 0xe
 1949 00cf 3A       		.uleb128 0x3a
 1950 00d0 0B       		.uleb128 0xb
 1951 00d1 3B       		.uleb128 0x3b
 1952 00d2 0B       		.uleb128 0xb
 1953 00d3 39       		.uleb128 0x39
 1954 00d4 0B       		.uleb128 0xb
 1955 00d5 49       		.uleb128 0x49
 1956 00d6 13       		.uleb128 0x13
 1957 00d7 00       		.byte	0
 1958 00d8 00       		.byte	0
 1959 00d9 12       		.uleb128 0x12
 1960 00da 15       		.uleb128 0x15
 1961 00db 01       		.byte	0x1
 1962 00dc 27       		.uleb128 0x27
 1963 00dd 19       		.uleb128 0x19
 1964 00de 49       		.uleb128 0x49
 1965 00df 13       		.uleb128 0x13
 1966 00e0 01       		.uleb128 0x1
 1967 00e1 13       		.uleb128 0x13
 1968 00e2 00       		.byte	0
 1969 00e3 00       		.byte	0
 1970 00e4 13       		.uleb128 0x13
 1971 00e5 01       		.uleb128 0x1
 1972 00e6 01       		.byte	0x1
 1973 00e7 49       		.uleb128 0x49
 1974 00e8 13       		.uleb128 0x13
 1975 00e9 01       		.uleb128 0x1
 1976 00ea 13       		.uleb128 0x13
 1977 00eb 00       		.byte	0
 1978 00ec 00       		.byte	0
 1979 00ed 14       		.uleb128 0x14
 1980 00ee 21       		.uleb128 0x21
 1981 00ef 00       		.byte	0
 1982 00f0 49       		.uleb128 0x49
 1983 00f1 13       		.uleb128 0x13
 1984 00f2 2F       		.uleb128 0x2f
 1985 00f3 0B       		.uleb128 0xb
 1986 00f4 00       		.byte	0
 1987 00f5 00       		.byte	0
 1988 00f6 15       		.uleb128 0x15
 1989 00f7 0D       		.uleb128 0xd
 1990 00f8 00       		.byte	0
 1991 00f9 03       		.uleb128 0x3
 1992 00fa 0E       		.uleb128 0xe
 1993 00fb 3A       		.uleb128 0x3a
 1994 00fc 0B       		.uleb128 0xb
 1995 00fd 3B       		.uleb128 0x3b
ARM GAS  /var/folders/l5/0x54b2c10074c8bt31ycjvl80000gp/T//ccw4pyDy.s 			page 36


 1996 00fe 05       		.uleb128 0x5
 1997 00ff 39       		.uleb128 0x39
 1998 0100 0B       		.uleb128 0xb
 1999 0101 49       		.uleb128 0x49
 2000 0102 13       		.uleb128 0x13
 2001 0103 38       		.uleb128 0x38
 2002 0104 0B       		.uleb128 0xb
 2003 0105 00       		.byte	0
 2004 0106 00       		.byte	0
 2005 0107 16       		.uleb128 0x16
 2006 0108 16       		.uleb128 0x16
 2007 0109 00       		.byte	0
 2008 010a 03       		.uleb128 0x3
 2009 010b 0E       		.uleb128 0xe
 2010 010c 3A       		.uleb128 0x3a
 2011 010d 0B       		.uleb128 0xb
 2012 010e 3B       		.uleb128 0x3b
 2013 010f 05       		.uleb128 0x5
 2014 0110 39       		.uleb128 0x39
 2015 0111 0B       		.uleb128 0xb
 2016 0112 49       		.uleb128 0x49
 2017 0113 13       		.uleb128 0x13
 2018 0114 00       		.byte	0
 2019 0115 00       		.byte	0
 2020 0116 17       		.uleb128 0x17
 2021 0117 13       		.uleb128 0x13
 2022 0118 00       		.byte	0
 2023 0119 0B       		.uleb128 0xb
 2024 011a 0B       		.uleb128 0xb
 2025 011b 3A       		.uleb128 0x3a
 2026 011c 0B       		.uleb128 0xb
 2027 011d 3B       		.uleb128 0x3b
 2028 011e 0B       		.uleb128 0xb
 2029 011f 39       		.uleb128 0x39
 2030 0120 0B       		.uleb128 0xb
 2031 0121 00       		.byte	0
 2032 0122 00       		.byte	0
 2033 0123 18       		.uleb128 0x18
 2034 0124 04       		.uleb128 0x4
 2035 0125 01       		.byte	0x1
 2036 0126 3E       		.uleb128 0x3e
 2037 0127 0B       		.uleb128 0xb
 2038 0128 0B       		.uleb128 0xb
 2039 0129 0B       		.uleb128 0xb
 2040 012a 49       		.uleb128 0x49
 2041 012b 13       		.uleb128 0x13
 2042 012c 3A       		.uleb128 0x3a
 2043 012d 0B       		.uleb128 0xb
 2044 012e 3B       		.uleb128 0x3b
 2045 012f 0B       		.uleb128 0xb
 2046 0130 39       		.uleb128 0x39
 2047 0131 0B       		.uleb128 0xb
 2048 0132 01       		.uleb128 0x1
 2049 0133 13       		.uleb128 0x13
 2050 0134 00       		.byte	0
 2051 0135 00       		.byte	0
 2052 0136 19       		.uleb128 0x19
ARM GAS  /var/folders/l5/0x54b2c10074c8bt31ycjvl80000gp/T//ccw4pyDy.s 			page 37


 2053 0137 28       		.uleb128 0x28
 2054 0138 00       		.byte	0
 2055 0139 03       		.uleb128 0x3
 2056 013a 0E       		.uleb128 0xe
 2057 013b 1C       		.uleb128 0x1c
 2058 013c 0B       		.uleb128 0xb
 2059 013d 00       		.byte	0
 2060 013e 00       		.byte	0
 2061 013f 1A       		.uleb128 0x1a
 2062 0140 34       		.uleb128 0x34
 2063 0141 00       		.byte	0
 2064 0142 03       		.uleb128 0x3
 2065 0143 08       		.uleb128 0x8
 2066 0144 3A       		.uleb128 0x3a
 2067 0145 0B       		.uleb128 0xb
 2068 0146 3B       		.uleb128 0x3b
 2069 0147 0B       		.uleb128 0xb
 2070 0148 39       		.uleb128 0x39
 2071 0149 0B       		.uleb128 0xb
 2072 014a 49       		.uleb128 0x49
 2073 014b 13       		.uleb128 0x13
 2074 014c 3F       		.uleb128 0x3f
 2075 014d 19       		.uleb128 0x19
 2076 014e 3C       		.uleb128 0x3c
 2077 014f 19       		.uleb128 0x19
 2078 0150 00       		.byte	0
 2079 0151 00       		.byte	0
 2080 0152 1B       		.uleb128 0x1b
 2081 0153 2E       		.uleb128 0x2e
 2082 0154 01       		.byte	0x1
 2083 0155 3F       		.uleb128 0x3f
 2084 0156 19       		.uleb128 0x19
 2085 0157 03       		.uleb128 0x3
 2086 0158 0E       		.uleb128 0xe
 2087 0159 3A       		.uleb128 0x3a
 2088 015a 0B       		.uleb128 0xb
 2089 015b 3B       		.uleb128 0x3b
 2090 015c 0B       		.uleb128 0xb
 2091 015d 39       		.uleb128 0x39
 2092 015e 0B       		.uleb128 0xb
 2093 015f 27       		.uleb128 0x27
 2094 0160 19       		.uleb128 0x19
 2095 0161 11       		.uleb128 0x11
 2096 0162 01       		.uleb128 0x1
 2097 0163 12       		.uleb128 0x12
 2098 0164 06       		.uleb128 0x6
 2099 0165 40       		.uleb128 0x40
 2100 0166 18       		.uleb128 0x18
 2101 0167 9742     		.uleb128 0x2117
 2102 0169 19       		.uleb128 0x19
 2103 016a 01       		.uleb128 0x1
 2104 016b 13       		.uleb128 0x13
 2105 016c 00       		.byte	0
 2106 016d 00       		.byte	0
 2107 016e 1C       		.uleb128 0x1c
 2108 016f 05       		.uleb128 0x5
 2109 0170 00       		.byte	0
ARM GAS  /var/folders/l5/0x54b2c10074c8bt31ycjvl80000gp/T//ccw4pyDy.s 			page 38


 2110 0171 03       		.uleb128 0x3
 2111 0172 08       		.uleb128 0x8
 2112 0173 3A       		.uleb128 0x3a
 2113 0174 0B       		.uleb128 0xb
 2114 0175 3B       		.uleb128 0x3b
 2115 0176 0B       		.uleb128 0xb
 2116 0177 39       		.uleb128 0x39
 2117 0178 0B       		.uleb128 0xb
 2118 0179 49       		.uleb128 0x49
 2119 017a 13       		.uleb128 0x13
 2120 017b 02       		.uleb128 0x2
 2121 017c 17       		.uleb128 0x17
 2122 017d B742     		.uleb128 0x2137
 2123 017f 17       		.uleb128 0x17
 2124 0180 00       		.byte	0
 2125 0181 00       		.byte	0
 2126 0182 1D       		.uleb128 0x1d
 2127 0183 05       		.uleb128 0x5
 2128 0184 00       		.byte	0
 2129 0185 03       		.uleb128 0x3
 2130 0186 0E       		.uleb128 0xe
 2131 0187 3A       		.uleb128 0x3a
 2132 0188 0B       		.uleb128 0xb
 2133 0189 3B       		.uleb128 0x3b
 2134 018a 0B       		.uleb128 0xb
 2135 018b 39       		.uleb128 0x39
 2136 018c 0B       		.uleb128 0xb
 2137 018d 49       		.uleb128 0x49
 2138 018e 13       		.uleb128 0x13
 2139 018f 02       		.uleb128 0x2
 2140 0190 17       		.uleb128 0x17
 2141 0191 B742     		.uleb128 0x2137
 2142 0193 17       		.uleb128 0x17
 2143 0194 00       		.byte	0
 2144 0195 00       		.byte	0
 2145 0196 1E       		.uleb128 0x1e
 2146 0197 898201   		.uleb128 0x4109
 2147 019a 01       		.byte	0x1
 2148 019b 11       		.uleb128 0x11
 2149 019c 01       		.uleb128 0x1
 2150 019d 9542     		.uleb128 0x2115
 2151 019f 19       		.uleb128 0x19
 2152 01a0 31       		.uleb128 0x31
 2153 01a1 13       		.uleb128 0x13
 2154 01a2 00       		.byte	0
 2155 01a3 00       		.byte	0
 2156 01a4 1F       		.uleb128 0x1f
 2157 01a5 8A8201   		.uleb128 0x410a
 2158 01a8 00       		.byte	0
 2159 01a9 02       		.uleb128 0x2
 2160 01aa 18       		.uleb128 0x18
 2161 01ab 9142     		.uleb128 0x2111
 2162 01ad 18       		.uleb128 0x18
 2163 01ae 00       		.byte	0
 2164 01af 00       		.byte	0
 2165 01b0 20       		.uleb128 0x20
 2166 01b1 898201   		.uleb128 0x4109
ARM GAS  /var/folders/l5/0x54b2c10074c8bt31ycjvl80000gp/T//ccw4pyDy.s 			page 39


 2167 01b4 00       		.byte	0
 2168 01b5 11       		.uleb128 0x11
 2169 01b6 01       		.uleb128 0x1
 2170 01b7 9542     		.uleb128 0x2115
 2171 01b9 19       		.uleb128 0x19
 2172 01ba 31       		.uleb128 0x31
 2173 01bb 13       		.uleb128 0x13
 2174 01bc 00       		.byte	0
 2175 01bd 00       		.byte	0
 2176 01be 21       		.uleb128 0x21
 2177 01bf 2E       		.uleb128 0x2e
 2178 01c0 01       		.byte	0x1
 2179 01c1 3F       		.uleb128 0x3f
 2180 01c2 19       		.uleb128 0x19
 2181 01c3 03       		.uleb128 0x3
 2182 01c4 0E       		.uleb128 0xe
 2183 01c5 3A       		.uleb128 0x3a
 2184 01c6 0B       		.uleb128 0xb
 2185 01c7 3B       		.uleb128 0x3b
 2186 01c8 0B       		.uleb128 0xb
 2187 01c9 39       		.uleb128 0x39
 2188 01ca 0B       		.uleb128 0xb
 2189 01cb 27       		.uleb128 0x27
 2190 01cc 19       		.uleb128 0x19
 2191 01cd 49       		.uleb128 0x49
 2192 01ce 13       		.uleb128 0x13
 2193 01cf 11       		.uleb128 0x11
 2194 01d0 01       		.uleb128 0x1
 2195 01d1 12       		.uleb128 0x12
 2196 01d2 06       		.uleb128 0x6
 2197 01d3 40       		.uleb128 0x40
 2198 01d4 18       		.uleb128 0x18
 2199 01d5 9742     		.uleb128 0x2117
 2200 01d7 19       		.uleb128 0x19
 2201 01d8 01       		.uleb128 0x1
 2202 01d9 13       		.uleb128 0x13
 2203 01da 00       		.byte	0
 2204 01db 00       		.byte	0
 2205 01dc 22       		.uleb128 0x22
 2206 01dd 2E       		.uleb128 0x2e
 2207 01de 00       		.byte	0
 2208 01df 3F       		.uleb128 0x3f
 2209 01e0 19       		.uleb128 0x19
 2210 01e1 3C       		.uleb128 0x3c
 2211 01e2 19       		.uleb128 0x19
 2212 01e3 6E       		.uleb128 0x6e
 2213 01e4 0E       		.uleb128 0xe
 2214 01e5 03       		.uleb128 0x3
 2215 01e6 0E       		.uleb128 0xe
 2216 01e7 3A       		.uleb128 0x3a
 2217 01e8 0B       		.uleb128 0xb
 2218 01e9 3B       		.uleb128 0x3b
 2219 01ea 0B       		.uleb128 0xb
 2220 01eb 39       		.uleb128 0x39
 2221 01ec 0B       		.uleb128 0xb
 2222 01ed 00       		.byte	0
 2223 01ee 00       		.byte	0
ARM GAS  /var/folders/l5/0x54b2c10074c8bt31ycjvl80000gp/T//ccw4pyDy.s 			page 40


 2224 01ef 00       		.byte	0
 2225              		.section	.debug_loc,"",%progbits
 2226              	.Ldebug_loc0:
 2227              	.LVUS3:
 2228 0000 00       		.uleb128 0
 2229 0001 00       		.uleb128 .LVU19
 2230 0002 00       		.uleb128 .LVU19
 2231 0003 00       		.uleb128 0
 2232              	.LLST3:
 2233 0004 00000000 		.4byte	.LVL7
 2234 0008 10000000 		.4byte	.LVL8
 2235 000c 0100     		.2byte	0x1
 2236 000e 50       		.byte	0x50
 2237 000f 10000000 		.4byte	.LVL8
 2238 0013 18000000 		.4byte	.LFE9
 2239 0017 0400     		.2byte	0x4
 2240 0019 F3       		.byte	0xf3
 2241 001a 01       		.uleb128 0x1
 2242 001b 50       		.byte	0x50
 2243 001c 9F       		.byte	0x9f
 2244 001d 00000000 		.4byte	0
 2245 0021 00000000 		.4byte	0
 2246              	.LVUS4:
 2247 0025 00       		.uleb128 0
 2248 0026 00       		.uleb128 .LVU20
 2249 0027 00       		.uleb128 .LVU20
 2250 0028 00       		.uleb128 .LVU21
 2251 0029 00       		.uleb128 .LVU21
 2252 002a 00       		.uleb128 0
 2253              	.LLST4:
 2254 002b 00000000 		.4byte	.LVL7
 2255 002f 14000000 		.4byte	.LVL9
 2256 0033 0100     		.2byte	0x1
 2257 0035 51       		.byte	0x51
 2258 0036 14000000 		.4byte	.LVL9
 2259 003a 17000000 		.4byte	.LVL10-1
 2260 003e 0100     		.2byte	0x1
 2261 0040 52       		.byte	0x52
 2262 0041 17000000 		.4byte	.LVL10-1
 2263 0045 18000000 		.4byte	.LFE9
 2264 0049 0400     		.2byte	0x4
 2265 004b F3       		.byte	0xf3
 2266 004c 01       		.uleb128 0x1
 2267 004d 51       		.byte	0x51
 2268 004e 9F       		.byte	0x9f
 2269 004f 00000000 		.4byte	0
 2270 0053 00000000 		.4byte	0
 2271              	.LVUS1:
 2272 0057 00       		.uleb128 0
 2273 0058 00       		.uleb128 .LVU12
 2274 0059 00       		.uleb128 .LVU12
 2275 005a 00       		.uleb128 .LVU13
 2276 005b 00       		.uleb128 .LVU13
 2277 005c 00       		.uleb128 0
 2278              	.LLST1:
 2279 005d 00000000 		.4byte	.LVL2
 2280 0061 08000000 		.4byte	.LVL3
ARM GAS  /var/folders/l5/0x54b2c10074c8bt31ycjvl80000gp/T//ccw4pyDy.s 			page 41


 2281 0065 0100     		.2byte	0x1
 2282 0067 50       		.byte	0x50
 2283 0068 08000000 		.4byte	.LVL3
 2284 006c 0C000000 		.4byte	.LVL4
 2285 0070 0100     		.2byte	0x1
 2286 0072 52       		.byte	0x52
 2287 0073 0C000000 		.4byte	.LVL4
 2288 0077 20000000 		.4byte	.LFE8
 2289 007b 0400     		.2byte	0x4
 2290 007d F3       		.byte	0xf3
 2291 007e 01       		.uleb128 0x1
 2292 007f 50       		.byte	0x50
 2293 0080 9F       		.byte	0x9f
 2294 0081 00000000 		.4byte	0
 2295 0085 00000000 		.4byte	0
 2296              	.LVUS2:
 2297 0089 00       		.uleb128 0
 2298 008a 00       		.uleb128 .LVU14
 2299 008b 00       		.uleb128 .LVU14
 2300 008c 00       		.uleb128 0
 2301              	.LLST2:
 2302 008d 00000000 		.4byte	.LVL2
 2303 0091 14000000 		.4byte	.LVL5
 2304 0095 0100     		.2byte	0x1
 2305 0097 51       		.byte	0x51
 2306 0098 14000000 		.4byte	.LVL5
 2307 009c 20000000 		.4byte	.LFE8
 2308 00a0 0400     		.2byte	0x4
 2309 00a2 F3       		.byte	0xf3
 2310 00a3 01       		.uleb128 0x1
 2311 00a4 51       		.byte	0x51
 2312 00a5 9F       		.byte	0x9f
 2313 00a6 00000000 		.4byte	0
 2314 00aa 00000000 		.4byte	0
 2315              	.LVUS0:
 2316 00ae 00       		.uleb128 0
 2317 00af 00       		.uleb128 .LVU5
 2318 00b0 00       		.uleb128 .LVU5
 2319 00b1 00       		.uleb128 0
 2320              	.LLST0:
 2321 00b2 00000000 		.4byte	.LVL0
 2322 00b6 14000000 		.4byte	.LVL1
 2323 00ba 0100     		.2byte	0x1
 2324 00bc 50       		.byte	0x50
 2325 00bd 14000000 		.4byte	.LVL1
 2326 00c1 1C000000 		.4byte	.LFE7
 2327 00c5 0400     		.2byte	0x4
 2328 00c7 F3       		.byte	0xf3
 2329 00c8 01       		.uleb128 0x1
 2330 00c9 50       		.byte	0x50
 2331 00ca 9F       		.byte	0x9f
 2332 00cb 00000000 		.4byte	0
 2333 00cf 00000000 		.4byte	0
 2334              		.section	.debug_aranges,"",%progbits
 2335 0000 2C000000 		.4byte	0x2c
 2336 0004 0200     		.2byte	0x2
 2337 0006 00000000 		.4byte	.Ldebug_info0
ARM GAS  /var/folders/l5/0x54b2c10074c8bt31ycjvl80000gp/T//ccw4pyDy.s 			page 42


 2338 000a 04       		.byte	0x4
 2339 000b 00       		.byte	0
 2340 000c 0000     		.2byte	0
 2341 000e 0000     		.2byte	0
 2342 0010 00000000 		.4byte	.LFB7
 2343 0014 1C000000 		.4byte	.LFE7-.LFB7
 2344 0018 00000000 		.4byte	.LFB8
 2345 001c 20000000 		.4byte	.LFE8-.LFB8
 2346 0020 00000000 		.4byte	.LFB9
 2347 0024 18000000 		.4byte	.LFE9-.LFB9
 2348 0028 00000000 		.4byte	0
 2349 002c 00000000 		.4byte	0
 2350              		.section	.debug_ranges,"",%progbits
 2351              	.Ldebug_ranges0:
 2352 0000 00000000 		.4byte	.LFB7
 2353 0004 1C000000 		.4byte	.LFE7
 2354 0008 00000000 		.4byte	.LFB8
 2355 000c 20000000 		.4byte	.LFE8
 2356 0010 00000000 		.4byte	.LFB9
 2357 0014 18000000 		.4byte	.LFE9
 2358 0018 00000000 		.4byte	0
 2359 001c 00000000 		.4byte	0
 2360              		.section	.debug_line,"",%progbits
 2361              	.Ldebug_line0:
 2362 0000 41030000 		.section	.debug_str,"MS",%progbits,1
 2362      0300D502 
 2362      00000201 
 2362      FB0E0D00 
 2362      01010101 
 2363              	.LASF3:
 2364 0000 73697A65 		.ascii	"size_t\000"
 2364      5F7400
 2365              	.LASF72:
 2366 0007 7264796D 		.ascii	"rdymsg\000"
 2366      736700
 2367              	.LASF87:
 2368 000e 4F757470 		.ascii	"OutputQueue\000"
 2368      75745175 
 2368      65756500 
 2369              	.LASF4:
 2370 001a 5F5F7569 		.ascii	"__uint8_t\000"
 2370      6E74385F 
 2370      7400
 2371              	.LASF59:
 2372 0024 76746C69 		.ascii	"vtlist\000"
 2372      737400
 2373              	.LASF89:
 2374 002b 62736364 		.ascii	"bscdevice_t\000"
 2374      65766963 
 2374      655F7400 
 2375              	.LASF106:
 2376 0037 696F706F 		.ascii	"ioportmask_t\000"
 2376      72746D61 
 2376      736B5F74 
 2376      00
 2377              	.LASF12:
 2378 0044 6C6F6E67 		.ascii	"long long unsigned int\000"
ARM GAS  /var/folders/l5/0x54b2c10074c8bt31ycjvl80000gp/T//ccw4pyDy.s 			page 43


 2378      206C6F6E 
 2378      6720756E 
 2378      7369676E 
 2378      65642069 
 2379              	.LASF130:
 2380 005b 61646472 		.ascii	"addr\000"
 2380      00
 2381              	.LASF73:
 2382 0060 65786974 		.ascii	"exitcode\000"
 2382      636F6465 
 2382      00
 2383              	.LASF134:
 2384 0069 72786275 		.ascii	"rxbuf\000"
 2384      6600
 2385              	.LASF94:
 2386 006f 64617461 		.ascii	"dataFifo\000"
 2386      4669666F 
 2386      00
 2387              	.LASF110:
 2388 0078 494F504F 		.ascii	"IOPORT1\000"
 2388      52543100 
 2389              	.LASF30:
 2390 0080 705F7072 		.ascii	"p_prio\000"
 2390      696F00
 2391              	.LASF156:
 2392 0087 72656164 		.ascii	"readt\000"
 2392      7400
 2393              	.LASF127:
 2394 008d 64657669 		.ascii	"device\000"
 2394      636500
 2395              	.LASF77:
 2396 0094 715F7761 		.ascii	"q_waiting\000"
 2396      6974696E 
 2396      6700
 2397              	.LASF11:
 2398 009e 6C6F6E67 		.ascii	"long long int\000"
 2398      206C6F6E 
 2398      6720696E 
 2398      7400
 2399              	.LASF2:
 2400 00ac 7369676E 		.ascii	"signed char\000"
 2400      65642063 
 2400      68617200 
 2401              	.LASF143:
 2402 00b8 53445F53 		.ascii	"SD_STOP\000"
 2402      544F5000 
 2403              	.LASF62:
 2404 00c0 6D5F7175 		.ascii	"m_queue\000"
 2404      65756500 
 2405              	.LASF21:
 2406 00c8 74736C69 		.ascii	"tslices_t\000"
 2406      6365735F 
 2406      7400
 2407              	.LASF116:
 2408 00d2 4932435F 		.ascii	"I2C_UNINIT\000"
 2408      554E494E 
 2408      495400
ARM GAS  /var/folders/l5/0x54b2c10074c8bt31ycjvl80000gp/T//ccw4pyDy.s 			page 44


 2409              	.LASF138:
 2410 00dd 69326361 		.ascii	"i2caddr_t\000"
 2410      6464725F 
 2410      7400
 2411              	.LASF124:
 2412 00e7 73746174 		.ascii	"state\000"
 2412      6500
 2413              	.LASF160:
 2414 00ed 62697473 		.ascii	"bits\000"
 2414      00
 2415              	.LASF0:
 2416 00f2 6C6F6E67 		.ascii	"long int\000"
 2416      20696E74 
 2416      00
 2417              	.LASF20:
 2418 00fb 74737461 		.ascii	"tstate_t\000"
 2418      74655F74 
 2418      00
 2419              	.LASF129:
 2420 0104 74687265 		.ascii	"thread\000"
 2420      616400
 2421              	.LASF96:
 2422 010b 64617461 		.ascii	"dataDelay\000"
 2422      44656C61 
 2422      7900
 2423              	.LASF79:
 2424 0115 715F6275 		.ascii	"q_buffer\000"
 2424      66666572 
 2424      00
 2425              	.LASF14:
 2426 011e 75696E74 		.ascii	"uint16_t\000"
 2426      31365F74 
 2426      00
 2427              	.LASF119:
 2428 0127 4932435F 		.ascii	"I2C_ACTIVE_TX\000"
 2428      41435449 
 2428      56455F54 
 2428      5800
 2429              	.LASF92:
 2430 0135 64617461 		.ascii	"dataLength\000"
 2430      4C656E67 
 2430      746800
 2431              	.LASF88:
 2432 0140 5F69646C 		.ascii	"_idle_thread_wa\000"
 2432      655F7468 
 2432      72656164 
 2432      5F776100 
 2433              	.LASF164:
 2434 0150 2E2E2F2E 		.ascii	"../../../os/hal/src/pal.c\000"
 2434      2E2F2E2E 
 2434      2F6F732F 
 2434      68616C2F 
 2434      7372632F 
 2435              	.LASF10:
 2436 016a 5F5F7569 		.ascii	"__uint32_t\000"
 2436      6E743332 
 2436      5F7400
ARM GAS  /var/folders/l5/0x54b2c10074c8bt31ycjvl80000gp/T//ccw4pyDy.s 			page 45


 2437              	.LASF113:
 2438 0175 6D61736B 		.ascii	"mask\000"
 2438      00
 2439              	.LASF42:
 2440 017a 72656761 		.ascii	"regarm_t\000"
 2440      726D5F74 
 2440      00
 2441              	.LASF48:
 2442 0183 76745F70 		.ascii	"vt_prev\000"
 2442      72657600 
 2443              	.LASF93:
 2444 018b 736C6176 		.ascii	"slaveAddress\000"
 2444      65416464 
 2444      72657373 
 2444      00
 2445              	.LASF163:
 2446 0198 474E5520 		.ascii	"GNU C17 8.3.1 20190703 (release) [gcc-8-branch revi"
 2446      43313720 
 2446      382E332E 
 2446      31203230 
 2446      31393037 
 2447 01cb 73696F6E 		.ascii	"sion 273027] -mcpu=arm1176jz-s -mabi=apcs-gnu -mno-"
 2447      20323733 
 2447      3032375D 
 2447      202D6D63 
 2447      70753D61 
 2448 01fe 7468756D 		.ascii	"thumb-interwork -mfloat-abi=soft -marm -march=armv6"
 2448      622D696E 
 2448      74657277 
 2448      6F726B20 
 2448      2D6D666C 
 2449 0231 6B7A202D 		.ascii	"kz -ggdb -O2 -fomit-frame-pointer -ffunction-sectio"
 2449      67676462 
 2449      202D4F32 
 2449      202D666F 
 2449      6D69742D 
 2450 0264 6E73202D 		.ascii	"ns -fdata-sections\000"
 2450      66646174 
 2450      612D7365 
 2450      6374696F 
 2450      6E7300
 2451              	.LASF141:
 2452 0277 49324330 		.ascii	"I2C0\000"
 2452      00
 2453              	.LASF70:
 2454 027c 4576656E 		.ascii	"EventSource\000"
 2454      74536F75 
 2454      72636500 
 2455              	.LASF115:
 2456 0288 494F4275 		.ascii	"IOBus\000"
 2456      7300
 2457              	.LASF18:
 2458 028e 756E7369 		.ascii	"unsigned int\000"
 2458      676E6564 
 2458      20696E74 
 2458      00
 2459              	.LASF47:
ARM GAS  /var/folders/l5/0x54b2c10074c8bt31ycjvl80000gp/T//ccw4pyDy.s 			page 46


 2460 029b 76745F6E 		.ascii	"vt_next\000"
 2460      65787400 
 2461              	.LASF131:
 2462 02a3 74786275 		.ascii	"txbuf\000"
 2462      6600
 2463              	.LASF150:
 2464 02a9 53657269 		.ascii	"SerialDriverVMT\000"
 2464      616C4472 
 2464      69766572 
 2464      564D5400 
 2465              	.LASF126:
 2466 02b9 6572726F 		.ascii	"errors\000"
 2466      727300
 2467              	.LASF148:
 2468 02c0 69717565 		.ascii	"iqueue\000"
 2468      756500
 2469              	.LASF1:
 2470 02c7 6C6F6E67 		.ascii	"long unsigned int\000"
 2470      20756E73 
 2470      69676E65 
 2470      6420696E 
 2470      7400
 2471              	.LASF154:
 2472 02d9 67657474 		.ascii	"gett\000"
 2472      00
 2473              	.LASF45:
 2474 02de 76746675 		.ascii	"vtfunc_t\000"
 2474      6E635F74 
 2474      00
 2475              	.LASF147:
 2476 02e7 6576656E 		.ascii	"event\000"
 2476      7400
 2477              	.LASF8:
 2478 02ed 73686F72 		.ascii	"short unsigned int\000"
 2478      7420756E 
 2478      7369676E 
 2478      65642069 
 2478      6E7400
 2479              	.LASF104:
 2480 0300 6770696F 		.ascii	"gpio_port_t\000"
 2480      5F706F72 
 2480      745F7400 
 2481              	.LASF100:
 2482 030c 6770636C 		.ascii	"gpclr\000"
 2482      7200
 2483              	.LASF23:
 2484 0312 6D73675F 		.ascii	"msg_t\000"
 2484      7400
 2485              	.LASF149:
 2486 0318 6F717565 		.ascii	"oqueue\000"
 2486      756500
 2487              	.LASF165:
 2488 031f 2F557365 		.ascii	"/Users/fernandoguirado/eclipse-workspace/ChibiOS-RP"
 2488      72732F66 
 2488      65726E61 
 2488      6E646F67 
 2488      75697261 
ARM GAS  /var/folders/l5/0x54b2c10074c8bt31ycjvl80000gp/T//ccw4pyDy.s 			page 47


 2489 0352 692D6D69 		.ascii	"i-minimo/testhal/BCM2835/I2C\000"
 2489      6E696D6F 
 2489      2F746573 
 2489      7468616C 
 2489      2F42434D 
 2490              	.LASF66:
 2491 036f 656C5F6E 		.ascii	"el_next\000"
 2491      65787400 
 2492              	.LASF155:
 2493 0377 77726974 		.ascii	"writet\000"
 2493      657400
 2494              	.LASF19:
 2495 037e 746D6F64 		.ascii	"tmode_t\000"
 2495      655F7400 
 2496              	.LASF162:
 2497 0386 5F70616C 		.ascii	"_pal_lld_writeport\000"
 2497      5F6C6C64 
 2497      5F777269 
 2497      7465706F 
 2497      727400
 2498              	.LASF40:
 2499 0399 54687265 		.ascii	"ThreadsList\000"
 2499      6164734C 
 2499      69737400 
 2500              	.LASF24:
 2501 03a5 6576656E 		.ascii	"eventmask_t\000"
 2501      746D6173 
 2501      6B5F7400 
 2502              	.LASF86:
 2503 03b1 496E7075 		.ascii	"InputQueue\000"
 2503      74517565 
 2503      756500
 2504              	.LASF61:
 2505 03bc 4D757465 		.ascii	"Mutex\000"
 2505      7800
 2506              	.LASF76:
 2507 03c2 47656E65 		.ascii	"GenericQueue\000"
 2507      72696351 
 2507      75657565 
 2507      00
 2508              	.LASF41:
 2509 03cf 73746B61 		.ascii	"stkalign_t\000"
 2509      6C69676E 
 2509      5F7400
 2510              	.LASF151:
 2511 03da 77726974 		.ascii	"write\000"
 2511      6500
 2512              	.LASF101:
 2513 03e0 67706C65 		.ascii	"gplev\000"
 2513      7600
 2514              	.LASF153:
 2515 03e6 70757474 		.ascii	"putt\000"
 2515      00
 2516              	.LASF49:
 2517 03eb 76745F74 		.ascii	"vt_time\000"
 2517      696D6500 
 2518              	.LASF117:
ARM GAS  /var/folders/l5/0x54b2c10074c8bt31ycjvl80000gp/T//ccw4pyDy.s 			page 48


 2519 03f3 4932435F 		.ascii	"I2C_STOP\000"
 2519      53544F50 
 2519      00
 2520              	.LASF95:
 2521 03fc 636C6F63 		.ascii	"clockDivider\000"
 2521      6B446976 
 2521      69646572 
 2521      00
 2522              	.LASF78:
 2523 0409 715F636F 		.ascii	"q_counter\000"
 2523      756E7465 
 2523      7200
 2524              	.LASF50:
 2525 0413 76745F66 		.ascii	"vt_func\000"
 2525      756E6300 
 2526              	.LASF139:
 2527 041b 69635F73 		.ascii	"ic_speed\000"
 2527      70656564 
 2527      00
 2528              	.LASF53:
 2529 0424 56544C69 		.ascii	"VTList\000"
 2529      737400
 2530              	.LASF135:
 2531 042b 72786279 		.ascii	"rxbytes\000"
 2531      74657300 
 2532              	.LASF81:
 2533 0433 715F7772 		.ascii	"q_wrptr\000"
 2533      70747200 
 2534              	.LASF56:
 2535 043b 725F6374 		.ascii	"r_ctx\000"
 2535      7800
 2536              	.LASF39:
 2537 0441 54687265 		.ascii	"ThreadsQueue\000"
 2537      61647351 
 2537      75657565 
 2537      00
 2538              	.LASF109:
 2539 044e 494F504F 		.ascii	"IOPORT0\000"
 2539      52543000 
 2540              	.LASF57:
 2541 0456 725F6375 		.ascii	"r_current\000"
 2541      7272656E 
 2541      7400
 2542              	.LASF68:
 2543 0460 656C5F6D 		.ascii	"el_mask\000"
 2543      61736B00 
 2544              	.LASF99:
 2545 0468 67707365 		.ascii	"gpset\000"
 2545      7400
 2546              	.LASF112:
 2547 046e 706F7274 		.ascii	"portid\000"
 2547      696400
 2548              	.LASF102:
 2549 0475 67707075 		.ascii	"gppudclk\000"
 2549      64636C6B 
 2549      00
 2550              	.LASF158:
ARM GAS  /var/folders/l5/0x54b2c10074c8bt31ycjvl80000gp/T//ccw4pyDy.s 			page 49


 2551 047e 70616C53 		.ascii	"palSetBusMode\000"
 2551      65744275 
 2551      734D6F64 
 2551      6500
 2552              	.LASF136:
 2553 048c 72786964 		.ascii	"rxidx\000"
 2553      7800
 2554              	.LASF122:
 2555 0492 69326373 		.ascii	"i2cstate_t\000"
 2555      74617465 
 2555      5F7400
 2556              	.LASF85:
 2557 049d 716E6F74 		.ascii	"qnotify_t\000"
 2557      6966795F 
 2557      7400
 2558              	.LASF29:
 2559 04a7 705F7072 		.ascii	"p_prev\000"
 2559      657600
 2560              	.LASF22:
 2561 04ae 74707269 		.ascii	"tprio_t\000"
 2561      6F5F7400 
 2562              	.LASF82:
 2563 04b6 715F7264 		.ascii	"q_rdptr\000"
 2563      70747200 
 2564              	.LASF137:
 2565 04be 69326366 		.ascii	"i2cflags_t\000"
 2565      6C616773 
 2565      5F7400
 2566              	.LASF128:
 2567 04c9 6D757465 		.ascii	"mutex\000"
 2567      7800
 2568              	.LASF15:
 2569 04cf 696E7433 		.ascii	"int32_t\000"
 2569      325F7400 
 2570              	.LASF5:
 2571 04d7 756E7369 		.ascii	"unsigned char\000"
 2571      676E6564 
 2571      20636861 
 2571      7200
 2572              	.LASF67:
 2573 04e5 656C5F6C 		.ascii	"el_listener\000"
 2573      69737465 
 2573      6E657200 
 2574              	.LASF69:
 2575 04f1 656C5F66 		.ascii	"el_flags\000"
 2575      6C616773 
 2575      00
 2576              	.LASF37:
 2577 04fa 705F6D74 		.ascii	"p_mtxlist\000"
 2577      786C6973 
 2577      7400
 2578              	.LASF6:
 2579 0504 73686F72 		.ascii	"short int\000"
 2579      7420696E 
 2579      7400
 2580              	.LASF32:
 2581 050e 705F7374 		.ascii	"p_state\000"
ARM GAS  /var/folders/l5/0x54b2c10074c8bt31ycjvl80000gp/T//ccw4pyDy.s 			page 50


 2581      61746500 
 2582              	.LASF34:
 2583 0516 705F7072 		.ascii	"p_preempt\000"
 2583      65656D70 
 2583      7400
 2584              	.LASF55:
 2585 0520 725F7072 		.ascii	"r_prio\000"
 2585      696F00
 2586              	.LASF103:
 2587 0527 70696E5F 		.ascii	"pin_base\000"
 2587      62617365 
 2587      00
 2588              	.LASF75:
 2589 0530 65776D61 		.ascii	"ewmask\000"
 2589      736B00
 2590              	.LASF28:
 2591 0537 705F6E65 		.ascii	"p_next\000"
 2591      787400
 2592              	.LASF17:
 2593 053e 75696E74 		.ascii	"uint_fast8_t\000"
 2593      5F666173 
 2593      74385F74 
 2593      00
 2594              	.LASF33:
 2595 054b 705F666C 		.ascii	"p_flags\000"
 2595      61677300 
 2596              	.LASF27:
 2597 0553 54687265 		.ascii	"Thread\000"
 2597      616400
 2598              	.LASF121:
 2599 055a 4932435F 		.ascii	"I2C_LOCKED\000"
 2599      4C4F434B 
 2599      454400
 2600              	.LASF36:
 2601 0565 705F6570 		.ascii	"p_epending\000"
 2601      656E6469 
 2601      6E6700
 2602              	.LASF142:
 2603 0570 53445F55 		.ascii	"SD_UNINIT\000"
 2603      4E494E49 
 2603      5400
 2604              	.LASF90:
 2605 057a 636F6E74 		.ascii	"control\000"
 2605      726F6C00 
 2606              	.LASF16:
 2607 0582 75696E74 		.ascii	"uint32_t\000"
 2607      33325F74 
 2607      00
 2608              	.LASF54:
 2609 058b 725F7175 		.ascii	"r_queue\000"
 2609      65756500 
 2610              	.LASF46:
 2611 0593 56697274 		.ascii	"VirtualTimer\000"
 2611      75616C54 
 2611      696D6572 
 2611      00
 2612              	.LASF146:
ARM GAS  /var/folders/l5/0x54b2c10074c8bt31ycjvl80000gp/T//ccw4pyDy.s 			page 51


 2613 05a0 53657269 		.ascii	"SerialDriver\000"
 2613      616C4472 
 2613      69766572 
 2613      00
 2614              	.LASF120:
 2615 05ad 4932435F 		.ascii	"I2C_ACTIVE_RX\000"
 2615      41435449 
 2615      56455F52 
 2615      5800
 2616              	.LASF152:
 2617 05bb 72656164 		.ascii	"read\000"
 2617      00
 2618              	.LASF157:
 2619 05c0 6D6F6465 		.ascii	"mode\000"
 2619      00
 2620              	.LASF166:
 2621 05c5 70616C52 		.ascii	"palReadBus\000"
 2621      65616442 
 2621      757300
 2622              	.LASF125:
 2623 05d0 636F6E66 		.ascii	"config\000"
 2623      696700
 2624              	.LASF7:
 2625 05d7 5F5F7569 		.ascii	"__uint16_t\000"
 2625      6E743136 
 2625      5F7400
 2626              	.LASF64:
 2627 05e2 6D5F6E65 		.ascii	"m_next\000"
 2627      787400
 2628              	.LASF26:
 2629 05e9 73797374 		.ascii	"systime_t\000"
 2629      696D655F 
 2629      7400
 2630              	.LASF38:
 2631 05f3 705F7265 		.ascii	"p_realprio\000"
 2631      616C7072 
 2631      696F00
 2632              	.LASF9:
 2633 05fe 5F5F696E 		.ascii	"__int32_t\000"
 2633      7433325F 
 2633      7400
 2634              	.LASF118:
 2635 0608 4932435F 		.ascii	"I2C_READY\000"
 2635      52454144 
 2635      5900
 2636              	.LASF114:
 2637 0612 6F666673 		.ascii	"offset\000"
 2637      657400
 2638              	.LASF123:
 2639 0619 49324344 		.ascii	"I2CDriver\000"
 2639      72697665 
 2639      7200
 2640              	.LASF108:
 2641 0623 696F706F 		.ascii	"ioportid_t\000"
 2641      72746964 
 2641      5F7400
 2642              	.LASF44:
ARM GAS  /var/folders/l5/0x54b2c10074c8bt31ycjvl80000gp/T//ccw4pyDy.s 			page 52


 2643 062e 636F6E74 		.ascii	"context\000"
 2643      65787400 
 2644              	.LASF161:
 2645 0636 5F70616C 		.ascii	"_pal_lld_setgroupmode\000"
 2645      5F6C6C64 
 2645      5F736574 
 2645      67726F75 
 2645      706D6F64 
 2646              	.LASF43:
 2647 064c 696E7463 		.ascii	"intctx\000"
 2647      747800
 2648              	.LASF144:
 2649 0653 53445F52 		.ascii	"SD_READY\000"
 2649      45414459 
 2649      00
 2650              	.LASF51:
 2651 065c 76745F70 		.ascii	"vt_par\000"
 2651      617200
 2652              	.LASF25:
 2653 0663 666C6167 		.ascii	"flagsmask_t\000"
 2653      736D6173 
 2653      6B5F7400 
 2654              	.LASF140:
 2655 066f 49324343 		.ascii	"I2CConfig\000"
 2655      6F6E6669 
 2655      6700
 2656              	.LASF145:
 2657 0679 73647374 		.ascii	"sdstate_t\000"
 2657      6174655F 
 2657      7400
 2658              	.LASF133:
 2659 0683 74786964 		.ascii	"txidx\000"
 2659      7800
 2660              	.LASF159:
 2661 0689 70616C57 		.ascii	"palWriteBus\000"
 2661      72697465 
 2661      42757300 
 2662              	.LASF80:
 2663 0695 715F746F 		.ascii	"q_top\000"
 2663      7000
 2664              	.LASF71:
 2665 069b 65735F6E 		.ascii	"es_next\000"
 2665      65787400 
 2666              	.LASF91:
 2667 06a3 73746174 		.ascii	"status\000"
 2667      757300
 2668              	.LASF58:
 2669 06aa 52656164 		.ascii	"ReadyList\000"
 2669      794C6973 
 2669      7400
 2670              	.LASF83:
 2671 06b4 715F6E6F 		.ascii	"q_notify\000"
 2671      74696679 
 2671      00
 2672              	.LASF60:
 2673 06bd 726C6973 		.ascii	"rlist\000"
 2673      7400
ARM GAS  /var/folders/l5/0x54b2c10074c8bt31ycjvl80000gp/T//ccw4pyDy.s 			page 53


 2674              	.LASF13:
 2675 06c3 75696E74 		.ascii	"uint8_t\000"
 2675      385F7400 
 2676              	.LASF98:
 2677 06cb 6C617463 		.ascii	"latch\000"
 2677      6800
 2678              	.LASF65:
 2679 06d1 4576656E 		.ascii	"EventListener\000"
 2679      744C6973 
 2679      74656E65 
 2679      7200
 2680              	.LASF74:
 2681 06df 77746F62 		.ascii	"wtobjp\000"
 2681      6A7000
 2682              	.LASF52:
 2683 06e6 76745F73 		.ascii	"vt_systime\000"
 2683      79737469 
 2683      6D6500
 2684              	.LASF84:
 2685 06f1 715F6C69 		.ascii	"q_link\000"
 2685      6E6B00
 2686              	.LASF107:
 2687 06f8 696F6D6F 		.ascii	"iomode_t\000"
 2687      64655F74 
 2687      00
 2688              	.LASF105:
 2689 0701 50414C43 		.ascii	"PALConfig\000"
 2689      6F6E6669 
 2689      6700
 2690              	.LASF63:
 2691 070b 6D5F6F77 		.ascii	"m_owner\000"
 2691      6E657200 
 2692              	.LASF111:
 2693 0713 70616C5F 		.ascii	"pal_default_config\000"
 2693      64656661 
 2693      756C745F 
 2693      636F6E66 
 2693      696700
 2694              	.LASF31:
 2695 0726 705F6374 		.ascii	"p_ctx\000"
 2695      7800
 2696              	.LASF35:
 2697 072c 705F7761 		.ascii	"p_waiting\000"
 2697      6974696E 
 2697      6700
 2698              	.LASF132:
 2699 0736 74786279 		.ascii	"txbytes\000"
 2699      74657300 
 2700              	.LASF97:
 2701 073e 636C6F63 		.ascii	"clockStretchTimeout\000"
 2701      6B537472 
 2701      65746368 
 2701      54696D65 
 2701      6F757400 
 2702              		.ident	"GCC: (GNU Tools for Arm Embedded Processors 8-2019-q3-update) 8.3.1 20190703 (release) [gc
ARM GAS  /var/folders/l5/0x54b2c10074c8bt31ycjvl80000gp/T//ccw4pyDy.s 			page 54


DEFINED SYMBOLS
                            *ABS*:0000000000000000 pal.c
/var/folders/l5/0x54b2c10074c8bt31ycjvl80000gp/T//ccw4pyDy.s:6      .text.palReadBus:0000000000000000 $a
/var/folders/l5/0x54b2c10074c8bt31ycjvl80000gp/T//ccw4pyDy.s:13     .text.palReadBus:0000000000000000 palReadBus
/var/folders/l5/0x54b2c10074c8bt31ycjvl80000gp/T//ccw4pyDy.s:39     .text.palWriteBus:0000000000000000 $a
/var/folders/l5/0x54b2c10074c8bt31ycjvl80000gp/T//ccw4pyDy.s:45     .text.palWriteBus:0000000000000000 palWriteBus
/var/folders/l5/0x54b2c10074c8bt31ycjvl80000gp/T//ccw4pyDy.s:77     .text.palSetBusMode:0000000000000000 $a
/var/folders/l5/0x54b2c10074c8bt31ycjvl80000gp/T//ccw4pyDy.s:83     .text.palSetBusMode:0000000000000000 palSetBusMode

UNDEFINED SYMBOLS
_pal_lld_writeport
_pal_lld_setgroupmode
