ARM GAS  /var/folders/l5/0x54b2c10074c8bt31ycjvl80000gp/T//ccPV8Vrh.s 			page 1


   1              		.file	"pal_lld.c"
   2              		.text
   3              	.Ltext0:
   4              		.cfi_sections	.debug_frame
   5              		.section	.text.set_gpio_in.isra.0,"ax",%progbits
   6              		.align	2
   7              		.arch armv6kz
   8              		.syntax unified
   9              		.arm
  10              		.fpu softvfp
  11              		.type	set_gpio_in.isra.0, %function
  12              	set_gpio_in.isra.0:
  13              	.LVL0:
  14              	.LFB12:
  15              		.file 1 "../../../os/hal/platforms/BCM2835/pal_lld.c"
  16              		.loc 1 64 13 view -0
  17              		.cfi_startproc
  18              		@ args = 0, pretend = 0, frame = 0
  19              		@ frame_needed = 0, uses_anonymous_args = 0
  20              		.loc 1 65 3 view .LVU1
  21              		.loc 1 66 3 view .LVU2
  22              		.loc 1 64 13 is_stmt 0 view .LVU3
  23 0000 70402DE9 		push	{r4, r5, r6, lr}
  24              		.cfi_def_cfa_offset 16
  25              		.cfi_offset 4, -16
  26              		.cfi_offset 5, -12
  27              		.cfi_offset 6, -8
  28              		.cfi_offset 14, -4
  29              		.loc 1 64 13 view .LVU4
  30 0004 0060A0E1 		mov	r6, r0
  31 0008 0150A0E1 		mov	r5, r1
  32              		.loc 1 66 10 view .LVU5
  33 000c 0040A0E3 		mov	r4, #0
  34 0010 030000EA 		b	.L3
  35              	.LVL1:
  36              	.L2:
  37              	.LBB3:
  38              		.loc 1 70 5 is_stmt 1 view .LVU6
  39              	.LBE3:
  40              		.loc 1 66 24 is_stmt 0 view .LVU7
  41 0014 014084E2 		add	r4, r4, #1
  42              	.LVL2:
  43              		.loc 1 66 3 view .LVU8
  44 0018 200054E3 		cmp	r4, #32
  45              	.LBB4:
  46              		.loc 1 70 10 view .LVU9
  47 001c A550A0E1 		lsr	r5, r5, #1
  48              	.LVL3:
  49              		.loc 1 70 10 view .LVU10
  50              	.LBE4:
  51              		.loc 1 66 3 view .LVU11
  52 0020 7080BD08 		popeq	{r4, r5, r6, pc}
  53              	.LVL4:
  54              	.L3:
  55              	.LBB5:
  56              		.loc 1 67 5 is_stmt 1 view .LVU12
  57              		.loc 1 68 5 view .LVU13
ARM GAS  /var/folders/l5/0x54b2c10074c8bt31ycjvl80000gp/T//ccPV8Vrh.s 			page 2


  58              		.loc 1 68 8 is_stmt 0 view .LVU14
  59 0024 010015E3 		tst	r5, #1
  60 0028 F9FFFF0A 		beq	.L2
  61              		.loc 1 69 7 is_stmt 1 view .LVU15
  62              		.loc 1 69 28 is_stmt 0 view .LVU16
  63 002c 000096E5 		ldr	r0, [r6]
  64              		.loc 1 69 7 view .LVU17
  65 0030 0010A0E3 		mov	r1, #0
  66 0034 000084E0 		add	r0, r4, r0
  67 0038 FEFFFFEB 		bl	bcm2835_gpio_fnsel
  68              	.LVL5:
  69 003c F4FFFFEA 		b	.L2
  70              	.LBE5:
  71              		.cfi_endproc
  72              	.LFE12:
  73              		.size	set_gpio_in.isra.0, .-set_gpio_in.isra.0
  74              		.section	.text.set_gpio_pud.isra.1,"ax",%progbits
  75              		.align	2
  76              		.syntax unified
  77              		.arm
  78              		.fpu softvfp
  79              		.type	set_gpio_pud.isra.1, %function
  80              	set_gpio_pud.isra.1:
  81              	.LVL6:
  82              	.LFB13:
  83              		.loc 1 54 13 is_stmt 1 view -0
  84              		.cfi_startproc
  85              		@ args = 0, pretend = 0, frame = 0
  86              		@ frame_needed = 0, uses_anonymous_args = 0
  87              		.loc 1 56 3 view .LVU19
  88              		.loc 1 54 13 is_stmt 0 view .LVU20
  89 0000 70402DE9 		push	{r4, r5, r6, lr}
  90              		.cfi_def_cfa_offset 16
  91              		.cfi_offset 4, -16
  92              		.cfi_offset 5, -12
  93              		.cfi_offset 6, -8
  94              		.cfi_offset 14, -4
  95              		.loc 1 54 13 view .LVU21
  96 0004 0050A0E1 		mov	r5, r0
  97 0008 0160A0E1 		mov	r6, r1
  98              		.loc 1 56 9 view .LVU22
  99 000c 2C409FE5 		ldr	r4, .L13
 100              		.loc 1 57 3 view .LVU23
 101 0010 9600A0E3 		mov	r0, #150
 102              		.loc 1 56 9 view .LVU24
 103 0014 942084E5 		str	r2, [r4, #148]
 104              		.loc 1 57 3 is_stmt 1 view .LVU25
 105 0018 FEFFFFEB 		bl	bcm2835_delay
 106              	.LVL7:
 107              		.loc 1 58 3 view .LVU26
 108              		.loc 1 58 8 is_stmt 0 view .LVU27
 109 001c 003095E5 		ldr	r3, [r5]
 110              		.loc 1 59 3 view .LVU28
 111 0020 9600A0E3 		mov	r0, #150
 112              		.loc 1 58 19 view .LVU29
 113 0024 006083E5 		str	r6, [r3]
 114              		.loc 1 59 3 is_stmt 1 view .LVU30
ARM GAS  /var/folders/l5/0x54b2c10074c8bt31ycjvl80000gp/T//ccPV8Vrh.s 			page 3


 115 0028 FEFFFFEB 		bl	bcm2835_delay
 116              	.LVL8:
 117              		.loc 1 60 3 view .LVU31
 118              		.loc 1 60 9 is_stmt 0 view .LVU32
 119 002c 0030A0E3 		mov	r3, #0
 120              		.loc 1 61 8 view .LVU33
 121 0030 002095E5 		ldr	r2, [r5]
 122              		.loc 1 60 9 view .LVU34
 123 0034 943084E5 		str	r3, [r4, #148]
 124              		.loc 1 61 3 is_stmt 1 view .LVU35
 125              		.loc 1 61 19 is_stmt 0 view .LVU36
 126 0038 003082E5 		str	r3, [r2]
 127              		.loc 1 62 1 view .LVU37
 128 003c 7080BDE8 		pop	{r4, r5, r6, pc}
 129              	.L14:
 130              		.align	2
 131              	.L13:
 132 0040 00002020 		.word	538968064
 133              		.cfi_endproc
 134              	.LFE13:
 135              		.size	set_gpio_pud.isra.1, .-set_gpio_pud.isra.1
 136              		.section	.text._pal_lld_init,"ax",%progbits
 137              		.align	2
 138              		.global	_pal_lld_init
 139              		.syntax unified
 140              		.arm
 141              		.fpu softvfp
 142              		.type	_pal_lld_init, %function
 143              	_pal_lld_init:
 144              	.LVL9:
 145              	.LFB9:
 146              		.loc 1 82 45 is_stmt 1 view -0
 147              		.cfi_startproc
 148              		@ args = 0, pretend = 0, frame = 0
 149              		@ frame_needed = 0, uses_anonymous_args = 0
 150              		.loc 1 84 3 view .LVU39
 151              		.loc 1 86 3 view .LVU40
 152              		.loc 1 86 17 is_stmt 0 view .LVU41
 153 0000 68309FE5 		ldr	r3, .L17
 154 0004 68109FE5 		ldr	r1, .L17+4
 155              		.loc 1 82 45 view .LVU42
 156 0008 04E02DE5 		str	lr, [sp, #-4]!
 157              		.cfi_def_cfa_offset 4
 158              		.cfi_offset 14, -4
 159              		.loc 1 88 17 view .LVU43
 160 000c 64C09FE5 		ldr	ip, .L17+8
 161              		.loc 1 87 17 view .LVU44
 162 0010 64E09FE5 		ldr	lr, .L17+12
 163              		.loc 1 89 20 view .LVU45
 164 0014 64209FE5 		ldr	r2, .L17+16
 165              		.loc 1 90 3 view .LVU46
 166 0018 140083E2 		add	r0, r3, #20
 167              	.LVL10:
 168              		.loc 1 86 17 view .LVU47
 169 001c 041083E5 		str	r1, [r3, #4]
 170              		.loc 1 87 3 is_stmt 1 view .LVU48
 171              		.loc 1 90 3 is_stmt 0 view .LVU49
ARM GAS  /var/folders/l5/0x54b2c10074c8bt31ycjvl80000gp/T//ccPV8Vrh.s 			page 4


 172 0020 0010E0E3 		mvn	r1, #0
 173              		.loc 1 87 17 view .LVU50
 174 0024 08E083E5 		str	lr, [r3, #8]
 175              		.loc 1 88 3 is_stmt 1 view .LVU51
 176              		.loc 1 88 17 is_stmt 0 view .LVU52
 177 0028 0CC083E5 		str	ip, [r3, #12]
 178              		.loc 1 89 3 is_stmt 1 view .LVU53
 179              		.loc 1 89 20 is_stmt 0 view .LVU54
 180 002c 102083E5 		str	r2, [r3, #16]
 181              		.loc 1 90 3 is_stmt 1 view .LVU55
 182 0030 FEFFFFEB 		bl	set_gpio_in.isra.0
 183              	.LVL11:
 184              		.loc 1 92 3 view .LVU56
 185              		.loc 1 92 17 is_stmt 0 view .LVU57
 186 0034 48309FE5 		ldr	r3, .L17+20
 187              		.loc 1 96 20 view .LVU58
 188 0038 2020A0E3 		mov	r2, #32
 189 003c 0300A0E1 		mov	r0, r3
 190              		.loc 1 92 17 view .LVU59
 191 0040 40109FE5 		ldr	r1, .L17+24
 192              		.loc 1 93 17 view .LVU60
 193 0044 40E09FE5 		ldr	lr, .L17+28
 194              		.loc 1 96 20 view .LVU61
 195 0048 1420A0E5 		str	r2, [r0, #20]!
 196              		.loc 1 94 17 view .LVU62
 197 004c 3CC09FE5 		ldr	ip, .L17+32
 198              		.loc 1 95 20 view .LVU63
 199 0050 3C209FE5 		ldr	r2, .L17+36
 200              		.loc 1 92 17 view .LVU64
 201 0054 041083E5 		str	r1, [r3, #4]
 202              		.loc 1 93 3 is_stmt 1 view .LVU65
 203              		.loc 1 93 17 is_stmt 0 view .LVU66
 204 0058 08E083E5 		str	lr, [r3, #8]
 205              		.loc 1 94 3 is_stmt 1 view .LVU67
 206              		.loc 1 97 3 is_stmt 0 view .LVU68
 207 005c 0010E0E3 		mvn	r1, #0
 208              		.loc 1 98 1 view .LVU69
 209 0060 04E09DE4 		ldr	lr, [sp], #4
 210              		.cfi_restore 14
 211              		.cfi_def_cfa_offset 0
 212              		.loc 1 94 17 view .LVU70
 213 0064 0CC083E5 		str	ip, [r3, #12]
 214              		.loc 1 95 3 is_stmt 1 view .LVU71
 215              		.loc 1 95 20 is_stmt 0 view .LVU72
 216 0068 102083E5 		str	r2, [r3, #16]
 217              		.loc 1 96 3 is_stmt 1 view .LVU73
 218              		.loc 1 97 3 view .LVU74
 219 006c FEFFFFEA 		b	set_gpio_in.isra.0
 220              	.LVL12:
 221              	.L18:
 222              		.align	2
 223              	.L17:
 224 0070 00000000 		.word	IOPORT0
 225 0074 1C002020 		.word	538968092
 226 0078 34002020 		.word	538968116
 227 007c 28002020 		.word	538968104
 228 0080 98002020 		.word	538968216
ARM GAS  /var/folders/l5/0x54b2c10074c8bt31ycjvl80000gp/T//ccPV8Vrh.s 			page 5


 229 0084 00000000 		.word	IOPORT1
 230 0088 20002020 		.word	538968096
 231 008c 2C002020 		.word	538968108
 232 0090 38002020 		.word	538968120
 233 0094 9C002020 		.word	538968220
 234              		.cfi_endproc
 235              	.LFE9:
 236              		.size	_pal_lld_init, .-_pal_lld_init
 237              		.section	.text._pal_lld_setgroupmode,"ax",%progbits
 238              		.align	2
 239              		.global	_pal_lld_setgroupmode
 240              		.syntax unified
 241              		.arm
 242              		.fpu softvfp
 243              		.type	_pal_lld_setgroupmode, %function
 244              	_pal_lld_setgroupmode:
 245              	.LVL13:
 246              	.LFB10:
 247              		.loc 1 100 79 view -0
 248              		.cfi_startproc
 249              		@ args = 0, pretend = 0, frame = 0
 250              		@ frame_needed = 0, uses_anonymous_args = 0
 251              		.loc 1 101 3 view .LVU76
 252              		.loc 1 102 3 view .LVU77
 253 0000 040052E3 		cmp	r2, #4
 254              		.loc 1 100 79 is_stmt 0 view .LVU78
 255 0004 70402DE9 		push	{r4, r5, r6, lr}
 256              		.cfi_def_cfa_offset 16
 257              		.cfi_offset 4, -16
 258              		.cfi_offset 5, -12
 259              		.cfi_offset 6, -8
 260              		.cfi_offset 14, -4
 261              		.loc 1 100 79 view .LVU79
 262 0008 0060A0E1 		mov	r6, r0
 263 000c 0150A0E1 		mov	r5, r1
 264              		.loc 1 102 3 view .LVU80
 265 0010 1E00000A 		beq	.L20
 266 0014 0A00008A 		bhi	.L21
 267 0018 020052E3 		cmp	r2, #2
 268 001c 2200000A 		beq	.L22
 269 0020 030052E3 		cmp	r2, #3
 270 0024 7080BD18 		popne	{r4, r5, r6, pc}
 271              		.loc 1 108 5 is_stmt 1 view .LVU81
 272 0028 140080E2 		add	r0, r0, #20
 273              	.LVL14:
 274              		.loc 1 108 5 is_stmt 0 view .LVU82
 275 002c FEFFFFEB 		bl	set_gpio_in.isra.0
 276              	.LVL15:
 277              		.loc 1 109 5 is_stmt 1 view .LVU83
 278 0030 0510A0E1 		mov	r1, r5
 279 0034 100086E2 		add	r0, r6, #16
 280 0038 0220A0E3 		mov	r2, #2
 281              		.loc 1 126 1 is_stmt 0 view .LVU84
 282 003c 7040BDE8 		pop	{r4, r5, r6, lr}
 283              		.cfi_remember_state
 284              		.cfi_restore 14
 285              		.cfi_restore 6
ARM GAS  /var/folders/l5/0x54b2c10074c8bt31ycjvl80000gp/T//ccPV8Vrh.s 			page 6


 286              		.cfi_restore 5
 287              		.cfi_restore 4
 288              		.cfi_def_cfa_offset 0
 289              	.LVL16:
 290              		.loc 1 109 5 view .LVU85
 291 0040 FEFFFFEA 		b	set_gpio_pud.isra.1
 292              	.LVL17:
 293              	.L21:
 294              		.cfi_restore_state
 295              		.loc 1 102 3 view .LVU86
 296 0044 060052E3 		cmp	r2, #6
 297 0048 7080BD38 		popcc	{r4, r5, r6, pc}
 298 004c 070052E3 		cmp	r2, #7
 299 0050 0100009A 		bls	.L29
 300 0054 FF0052E3 		cmp	r2, #255
 301 0058 7080BD18 		popne	{r4, r5, r6, pc}
 302              	.L29:
 303              		.loc 1 118 12 view .LVU87
 304 005c 0040A0E3 		mov	r4, #0
 305 0060 030000EA 		b	.L27
 306              	.LVL18:
 307              	.L26:
 308              	.LBB6:
 309              		.loc 1 122 7 is_stmt 1 discriminator 2 view .LVU88
 310              	.LBE6:
 311              		.loc 1 118 26 is_stmt 0 discriminator 2 view .LVU89
 312 0064 014084E2 		add	r4, r4, #1
 313              	.LVL19:
 314              		.loc 1 118 5 discriminator 2 view .LVU90
 315 0068 200054E3 		cmp	r4, #32
 316              	.LBB7:
 317              		.loc 1 122 12 discriminator 2 view .LVU91
 318 006c A550A0E1 		lsr	r5, r5, #1
 319              	.LVL20:
 320              		.loc 1 122 12 discriminator 2 view .LVU92
 321              	.LBE7:
 322              		.loc 1 118 5 discriminator 2 view .LVU93
 323 0070 7080BD08 		popeq	{r4, r5, r6, pc}
 324              	.LVL21:
 325              	.L27:
 326              	.LBB8:
 327              		.loc 1 119 7 is_stmt 1 view .LVU94
 328              		.loc 1 120 7 view .LVU95
 329              		.loc 1 120 10 is_stmt 0 view .LVU96
 330 0074 010015E3 		tst	r5, #1
 331 0078 F9FFFF0A 		beq	.L26
 332              		.loc 1 121 9 is_stmt 1 view .LVU97
 333              		.loc 1 121 30 is_stmt 0 view .LVU98
 334 007c 140096E5 		ldr	r0, [r6, #20]
 335              		.loc 1 121 9 view .LVU99
 336 0080 0110A0E3 		mov	r1, #1
 337 0084 000084E0 		add	r0, r4, r0
 338 0088 FEFFFFEB 		bl	bcm2835_gpio_fnsel
 339              	.LVL22:
 340 008c F4FFFFEA 		b	.L26
 341              	.LVL23:
 342              	.L20:
ARM GAS  /var/folders/l5/0x54b2c10074c8bt31ycjvl80000gp/T//ccPV8Vrh.s 			page 7


 343              		.loc 1 121 9 view .LVU100
 344              	.LBE8:
 345              		.loc 1 112 5 is_stmt 1 view .LVU101
 346 0090 140080E2 		add	r0, r0, #20
 347              	.LVL24:
 348              		.loc 1 112 5 is_stmt 0 view .LVU102
 349 0094 FEFFFFEB 		bl	set_gpio_in.isra.0
 350              	.LVL25:
 351              		.loc 1 113 5 is_stmt 1 view .LVU103
 352 0098 0510A0E1 		mov	r1, r5
 353 009c 100086E2 		add	r0, r6, #16
 354 00a0 0120A0E3 		mov	r2, #1
 355              		.loc 1 126 1 is_stmt 0 view .LVU104
 356 00a4 7040BDE8 		pop	{r4, r5, r6, lr}
 357              		.cfi_remember_state
 358              		.cfi_restore 14
 359              		.cfi_restore 6
 360              		.cfi_restore 5
 361              		.cfi_restore 4
 362              		.cfi_def_cfa_offset 0
 363              	.LVL26:
 364              		.loc 1 113 5 view .LVU105
 365 00a8 FEFFFFEA 		b	set_gpio_pud.isra.1
 366              	.LVL27:
 367              	.L22:
 368              		.cfi_restore_state
 369              		.loc 1 104 5 is_stmt 1 view .LVU106
 370 00ac 140080E2 		add	r0, r0, #20
 371              	.LVL28:
 372              		.loc 1 104 5 is_stmt 0 view .LVU107
 373 00b0 FEFFFFEB 		bl	set_gpio_in.isra.0
 374              	.LVL29:
 375              		.loc 1 105 5 is_stmt 1 view .LVU108
 376 00b4 0510A0E1 		mov	r1, r5
 377 00b8 100086E2 		add	r0, r6, #16
 378 00bc 0020A0E3 		mov	r2, #0
 379              		.loc 1 126 1 is_stmt 0 view .LVU109
 380 00c0 7040BDE8 		pop	{r4, r5, r6, lr}
 381              		.cfi_restore 14
 382              		.cfi_restore 6
 383              		.cfi_restore 5
 384              		.cfi_restore 4
 385              		.cfi_def_cfa_offset 0
 386              	.LVL30:
 387              		.loc 1 105 5 view .LVU110
 388 00c4 FEFFFFEA 		b	set_gpio_pud.isra.1
 389              	.LVL31:
 390              		.loc 1 105 5 view .LVU111
 391              		.cfi_endproc
 392              	.LFE10:
 393              		.size	_pal_lld_setgroupmode, .-_pal_lld_setgroupmode
 394              		.section	.text._pal_lld_writeport,"ax",%progbits
 395              		.align	2
 396              		.global	_pal_lld_writeport
 397              		.syntax unified
 398              		.arm
 399              		.fpu softvfp
ARM GAS  /var/folders/l5/0x54b2c10074c8bt31ycjvl80000gp/T//ccPV8Vrh.s 			page 8


 400              		.type	_pal_lld_writeport, %function
 401              	_pal_lld_writeport:
 402              	.LVL32:
 403              	.LFB11:
 404              		.loc 1 128 61 is_stmt 1 view -0
 405              		.cfi_startproc
 406              		@ args = 0, pretend = 0, frame = 0
 407              		@ frame_needed = 0, uses_anonymous_args = 0
 408              		@ link register save eliminated.
 409              		.loc 1 129 3 view .LVU113
 410              		.loc 1 130 20 is_stmt 0 view .LVU114
 411 0000 0120E0E1 		mvn	r2, r1
 412              		.loc 1 129 9 view .LVU115
 413 0004 04C090E5 		ldr	ip, [r0, #4]
 414              		.loc 1 130 9 view .LVU116
 415 0008 083090E5 		ldr	r3, [r0, #8]
 416              		.loc 1 129 32 view .LVU117
 417 000c 001080E5 		str	r1, [r0]
 418              		.loc 1 129 18 view .LVU118
 419 0010 00108CE5 		str	r1, [ip]
 420              		.loc 1 130 3 is_stmt 1 view .LVU119
 421              		.loc 1 130 18 is_stmt 0 view .LVU120
 422 0014 002083E5 		str	r2, [r3]
 423              		.loc 1 131 1 view .LVU121
 424 0018 1EFF2FE1 		bx	lr
 425              		.cfi_endproc
 426              	.LFE11:
 427              		.size	_pal_lld_writeport, .-_pal_lld_writeport
 428              		.comm	IOPORT1,24,4
 429              		.comm	IOPORT0,24,4
 430              		.text
 431              	.Letext0:
 432              		.file 2 "/usr/local/Cellar/arm-gcc-bin/8-2019-q3-update/lib/gcc/arm-none-eabi/8.3.1/include/stddef
 433              		.file 3 "/usr/local/Cellar/arm-gcc-bin/8-2019-q3-update/arm-none-eabi/include/machine/_default_typ
 434              		.file 4 "/usr/local/Cellar/arm-gcc-bin/8-2019-q3-update/arm-none-eabi/include/sys/_stdint.h"
 435              		.file 5 "../../../os/ports/GCC/ARM/chtypes.h"
 436              		.file 6 "../../../os/kernel/include/chlists.h"
 437              		.file 7 "../../../os/kernel/include/chthreads.h"
 438              		.file 8 "../../../os/ports/GCC/ARM/chcore.h"
 439              		.file 9 "../../../os/kernel/include/chvt.h"
 440              		.file 10 "../../../os/kernel/include/chschd.h"
 441              		.file 11 "../../../os/kernel/include/chmtx.h"
 442              		.file 12 "../../../os/kernel/include/chevents.h"
 443              		.file 13 "../../../os/kernel/include/chqueues.h"
 444              		.file 14 "../../../os/kernel/include/ch.h"
 445              		.file 15 "../../../os/hal/platforms/BCM2835/bcm2835.h"
 446              		.file 16 "../../../os/hal/platforms/BCM2835/pal_lld.h"
 447              		.file 17 "../../../os/hal/include/i2c.h"
 448              		.file 18 "../../../os/hal/platforms/BCM2835/i2c_lld.h"
 449              		.file 19 "../../../os/hal/include/serial.h"
 450              		.file 20 "../../../os/hal/platforms/BCM2835/serial_lld.h"