ARM GAS  /var/folders/l5/0x54b2c10074c8bt31ycjvl80000gp/T//ccPV8Vrh.s 			page 1


   1              		.file	"pal_lld.c"
   2              		.text
   3              	.Ltext0:
   4              		.cfi_sections	.debug_frame
   5              		.section	.text.set_gpio_in.isra.0,"ax",%progbits
   6              		.align	2
   7              		.arch armv6kz
   8              		.syntax unified
   9              		.arm
  10              		.fpu softvfp
  11              		.type	set_gpio_in.isra.0, %function
  12              	set_gpio_in.isra.0:
  13              	.LVL0:
  14              	.LFB12:
  15              		.file 1 "../../../os/hal/platforms/BCM2835/pal_lld.c"
  16              		.loc 1 64 13 view -0
  17              		.cfi_startproc
  18              		@ args = 0, pretend = 0, frame = 0
  19              		@ frame_needed = 0, uses_anonymous_args = 0
  20              		.loc 1 65 3 view .LVU1
  21              		.loc 1 66 3 view .LVU2
  22              		.loc 1 64 13 is_stmt 0 view .LVU3
  23 0000 70402DE9 		push	{r4, r5, r6, lr}
  24              		.cfi_def_cfa_offset 16
  25              		.cfi_offset 4, -16
  26              		.cfi_offset 5, -12
  27              		.cfi_offset 6, -8
  28              		.cfi_offset 14, -4
  29              		.loc 1 64 13 view .LVU4
  30 0004 0060A0E1 		mov	r6, r0
  31 0008 0150A0E1 		mov	r5, r1
  32              		.loc 1 66 10 view .LVU5
  33 000c 0040A0E3 		mov	r4, #0
  34 0010 030000EA 		b	.L3
  35              	.LVL1:
  36              	.L2:
  37              	.LBB3:
  38              		.loc 1 70 5 is_stmt 1 view .LVU6
  39              	.LBE3:
  40              		.loc 1 66 24 is_stmt 0 view .LVU7
  41 0014 014084E2 		add	r4, r4, #1
  42              	.LVL2:
  43              		.loc 1 66 3 view .LVU8
  44 0018 200054E3 		cmp	r4, #32
  45              	.LBB4:
  46              		.loc 1 70 10 view .LVU9
  47 001c A550A0E1 		lsr	r5, r5, #1
  48              	.LVL3:
  49              		.loc 1 70 10 view .LVU10
  50              	.LBE4:
  51              		.loc 1 66 3 view .LVU11
  52 0020 7080BD08 		popeq	{r4, r5, r6, pc}
  53              	.LVL4:
  54              	.L3:
  55              	.LBB5:
  56              		.loc 1 67 5 is_stmt 1 view .LVU12
  57              		.loc 1 68 5 view .LVU13
ARM GAS  /var/folders/l5/0x54b2c10074c8bt31ycjvl80000gp/T//ccPV8Vrh.s 			page 2


  58              		.loc 1 68 8 is_stmt 0 view .LVU14
  59 0024 010015E3 		tst	r5, #1
  60 0028 F9FFFF0A 		beq	.L2
  61              		.loc 1 69 7 is_stmt 1 view .LVU15
  62              		.loc 1 69 28 is_stmt 0 view .LVU16
  63 002c 000096E5 		ldr	r0, [r6]
  64              		.loc 1 69 7 view .LVU17
  65 0030 0010A0E3 		mov	r1, #0
  66 0034 000084E0 		add	r0, r4, r0
  67 0038 FEFFFFEB 		bl	bcm2835_gpio_fnsel
  68              	.LVL5:
  69 003c F4FFFFEA 		b	.L2
  70              	.LBE5:
  71              		.cfi_endproc
  72              	.LFE12:
  73              		.size	set_gpio_in.isra.0, .-set_gpio_in.isra.0
  74              		.section	.text.set_gpio_pud.isra.1,"ax",%progbits
  75              		.align	2
  76              		.syntax unified
  77              		.arm
  78              		.fpu softvfp
  79              		.type	set_gpio_pud.isra.1, %function
  80              	set_gpio_pud.isra.1:
  81              	.LVL6:
  82              	.LFB13:
  83              		.loc 1 54 13 is_stmt 1 view -0
  84              		.cfi_startproc
  85              		@ args = 0, pretend = 0, frame = 0
  86              		@ frame_needed = 0, uses_anonymous_args = 0
  87              		.loc 1 56 3 view .LVU19
  88              		.loc 1 54 13 is_stmt 0 view .LVU20
  89 0000 70402DE9 		push	{r4, r5, r6, lr}
  90              		.cfi_def_cfa_offset 16
  91              		.cfi_offset 4, -16
  92              		.cfi_offset 5, -12
  93              		.cfi_offset 6, -8
  94              		.cfi_offset 14, -4
  95              		.loc 1 54 13 view .LVU21
  96 0004 0050A0E1 		mov	r5, r0
  97 0008 0160A0E1 		mov	r6, r1
  98              		.loc 1 56 9 view .LVU22
  99 000c 2C409FE5 		ldr	r4, .L13
 100              		.loc 1 57 3 view .LVU23
 101 0010 9600A0E3 		mov	r0, #150
 102              		.loc 1 56 9 view .LVU24
 103 0014 942084E5 		str	r2, [r4, #148]
 104              		.loc 1 57 3 is_stmt 1 view .LVU25
 105 0018 FEFFFFEB 		bl	bcm2835_delay
 106              	.LVL7:
 107              		.loc 1 58 3 view .LVU26
 108              		.loc 1 58 8 is_stmt 0 view .LVU27
 109 001c 003095E5 		ldr	r3, [r5]
 110              		.loc 1 59 3 view .LVU28
 111 0020 9600A0E3 		mov	r0, #150
 112              		.loc 1 58 19 view .LVU29
 113 0024 006083E5 		str	r6, [r3]
 114              		.loc 1 59 3 is_stmt 1 view .LVU30
ARM GAS  /var/folders/l5/0x54b2c10074c8bt31ycjvl80000gp/T//ccPV8Vrh.s 			page 3


 115 0028 FEFFFFEB 		bl	bcm2835_delay
 116              	.LVL8:
 117              		.loc 1 60 3 view .LVU31
 118              		.loc 1 60 9 is_stmt 0 view .LVU32
 119 002c 0030A0E3 		mov	r3, #0
 120              		.loc 1 61 8 view .LVU33
 121 0030 002095E5 		ldr	r2, [r5]
 122              		.loc 1 60 9 view .LVU34
 123 0034 943084E5 		str	r3, [r4, #148]
 124              		.loc 1 61 3 is_stmt 1 view .LVU35
 125              		.loc 1 61 19 is_stmt 0 view .LVU36
 126 0038 003082E5 		str	r3, [r2]
 127              		.loc 1 62 1 view .LVU37
 128 003c 7080BDE8 		pop	{r4, r5, r6, pc}
 129              	.L14:
 130              		.align	2
 131              	.L13:
 132 0040 00002020 		.word	538968064
 133              		.cfi_endproc
 134              	.LFE13:
 135              		.size	set_gpio_pud.isra.1, .-set_gpio_pud.isra.1
 136              		.section	.text._pal_lld_init,"ax",%progbits
 137              		.align	2
 138              		.global	_pal_lld_init
 139              		.syntax unified
 140              		.arm
 141              		.fpu softvfp
 142              		.type	_pal_lld_init, %function
 143              	_pal_lld_init:
 144              	.LVL9:
 145              	.LFB9:
 146              		.loc 1 82 45 is_stmt 1 view -0
 147              		.cfi_startproc
 148              		@ args = 0, pretend = 0, frame = 0
 149              		@ frame_needed = 0, uses_anonymous_args = 0
 150              		.loc 1 84 3 view .LVU39
 151              		.loc 1 86 3 view .LVU40
 152              		.loc 1 86 17 is_stmt 0 view .LVU41
 153 0000 68309FE5 		ldr	r3, .L17
 154 0004 68109FE5 		ldr	r1, .L17+4
 155              		.loc 1 82 45 view .LVU42
 156 0008 04E02DE5 		str	lr, [sp, #-4]!
 157              		.cfi_def_cfa_offset 4
 158              		.cfi_offset 14, -4
 159              		.loc 1 88 17 view .LVU43
 160 000c 64C09FE5 		ldr	ip, .L17+8
 161              		.loc 1 87 17 view .LVU44
 162 0010 64E09FE5 		ldr	lr, .L17+12
 163              		.loc 1 89 20 view .LVU45
 164 0014 64209FE5 		ldr	r2, .L17+16
 165              		.loc 1 90 3 view .LVU46
 166 0018 140083E2 		add	r0, r3, #20
 167              	.LVL10:
 168              		.loc 1 86 17 view .LVU47
 169 001c 041083E5 		str	r1, [r3, #4]
 170              		.loc 1 87 3 is_stmt 1 view .LVU48
 171              		.loc 1 90 3 is_stmt 0 view .LVU49
ARM GAS  /var/folders/l5/0x54b2c10074c8bt31ycjvl80000gp/T//ccPV8Vrh.s 			page 4


 172 0020 0010E0E3 		mvn	r1, #0
 173              		.loc 1 87 17 view .LVU50
 174 0024 08E083E5 		str	lr, [r3, #8]
 175              		.loc 1 88 3 is_stmt 1 view .LVU51
 176              		.loc 1 88 17 is_stmt 0 view .LVU52
 177 0028 0CC083E5 		str	ip, [r3, #12]
 178              		.loc 1 89 3 is_stmt 1 view .LVU53
 179              		.loc 1 89 20 is_stmt 0 view .LVU54
 180 002c 102083E5 		str	r2, [r3, #16]
 181              		.loc 1 90 3 is_stmt 1 view .LVU55
 182 0030 FEFFFFEB 		bl	set_gpio_in.isra.0
 183              	.LVL11:
 184              		.loc 1 92 3 view .LVU56
 185              		.loc 1 92 17 is_stmt 0 view .LVU57
 186 0034 48309FE5 		ldr	r3, .L17+20
 187              		.loc 1 96 20 view .LVU58
 188 0038 2020A0E3 		mov	r2, #32
 189 003c 0300A0E1 		mov	r0, r3
 190              		.loc 1 92 17 view .LVU59
 191 0040 40109FE5 		ldr	r1, .L17+24
 192              		.loc 1 93 17 view .LVU60
 193 0044 40E09FE5 		ldr	lr, .L17+28
 194              		.loc 1 96 20 view .LVU61
 195 0048 1420A0E5 		str	r2, [r0, #20]!
 196              		.loc 1 94 17 view .LVU62
 197 004c 3CC09FE5 		ldr	ip, .L17+32
 198              		.loc 1 95 20 view .LVU63
 199 0050 3C209FE5 		ldr	r2, .L17+36
 200              		.loc 1 92 17 view .LVU64
 201 0054 041083E5 		str	r1, [r3, #4]
 202              		.loc 1 93 3 is_stmt 1 view .LVU65
 203              		.loc 1 93 17 is_stmt 0 view .LVU66
 204 0058 08E083E5 		str	lr, [r3, #8]
 205              		.loc 1 94 3 is_stmt 1 view .LVU67
 206              		.loc 1 97 3 is_stmt 0 view .LVU68
 207 005c 0010E0E3 		mvn	r1, #0
 208              		.loc 1 98 1 view .LVU69
 209 0060 04E09DE4 		ldr	lr, [sp], #4
 210              		.cfi_restore 14
 211              		.cfi_def_cfa_offset 0
 212              		.loc 1 94 17 view .LVU70
 213 0064 0CC083E5 		str	ip, [r3, #12]
 214              		.loc 1 95 3 is_stmt 1 view .LVU71
 215              		.loc 1 95 20 is_stmt 0 view .LVU72
 216 0068 102083E5 		str	r2, [r3, #16]
 217              		.loc 1 96 3 is_stmt 1 view .LVU73
 218              		.loc 1 97 3 view .LVU74
 219 006c FEFFFFEA 		b	set_gpio_in.isra.0
 220              	.LVL12:
 221              	.L18:
 222              		.align	2
 223              	.L17:
 224 0070 00000000 		.word	IOPORT0
 225 0074 1C002020 		.word	538968092
 226 0078 34002020 		.word	538968116
 227 007c 28002020 		.word	538968104
 228 0080 98002020 		.word	538968216
ARM GAS  /var/folders/l5/0x54b2c10074c8bt31ycjvl80000gp/T//ccPV8Vrh.s 			page 5


 229 0084 00000000 		.word	IOPORT1
 230 0088 20002020 		.word	538968096
 231 008c 2C002020 		.word	538968108
 232 0090 38002020 		.word	538968120
 233 0094 9C002020 		.word	538968220
 234              		.cfi_endproc
 235              	.LFE9:
 236              		.size	_pal_lld_init, .-_pal_lld_init
 237              		.section	.text._pal_lld_setgroupmode,"ax",%progbits
 238              		.align	2
 239              		.global	_pal_lld_setgroupmode
 240              		.syntax unified
 241              		.arm
 242              		.fpu softvfp
 243              		.type	_pal_lld_setgroupmode, %function
 244              	_pal_lld_setgroupmode:
 245              	.LVL13:
 246              	.LFB10:
 247              		.loc 1 100 79 view -0
 248              		.cfi_startproc
 249              		@ args = 0, pretend = 0, frame = 0
 250              		@ frame_needed = 0, uses_anonymous_args = 0
 251              		.loc 1 101 3 view .LVU76
 252              		.loc 1 102 3 view .LVU77
 253 0000 040052E3 		cmp	r2, #4
 254              		.loc 1 100 79 is_stmt 0 view .LVU78
 255 0004 70402DE9 		push	{r4, r5, r6, lr}
 256              		.cfi_def_cfa_offset 16
 257              		.cfi_offset 4, -16
 258              		.cfi_offset 5, -12
 259              		.cfi_offset 6, -8
 260              		.cfi_offset 14, -4
 261              		.loc 1 100 79 view .LVU79
 262 0008 0060A0E1 		mov	r6, r0
 263 000c 0150A0E1 		mov	r5, r1
 264              		.loc 1 102 3 view .LVU80
 265 0010 1E00000A 		beq	.L20
 266 0014 0A00008A 		bhi	.L21
 267 0018 020052E3 		cmp	r2, #2
 268 001c 2200000A 		beq	.L22
 269 0020 030052E3 		cmp	r2, #3
 270 0024 7080BD18 		popne	{r4, r5, r6, pc}
 271              		.loc 1 108 5 is_stmt 1 view .LVU81
 272 0028 140080E2 		add	r0, r0, #20
 273              	.LVL14:
 274              		.loc 1 108 5 is_stmt 0 view .LVU82
 275 002c FEFFFFEB 		bl	set_gpio_in.isra.0
 276              	.LVL15:
 277              		.loc 1 109 5 is_stmt 1 view .LVU83
 278 0030 0510A0E1 		mov	r1, r5
 279 0034 100086E2 		add	r0, r6, #16
 280 0038 0220A0E3 		mov	r2, #2
 281              		.loc 1 126 1 is_stmt 0 view .LVU84
 282 003c 7040BDE8 		pop	{r4, r5, r6, lr}
 283              		.cfi_remember_state
 284              		.cfi_restore 14
 285              		.cfi_restore 6
ARM GAS  /var/folders/l5/0x54b2c10074c8bt31ycjvl80000gp/T//ccPV8Vrh.s 			page 6


 286              		.cfi_restore 5
 287              		.cfi_restore 4
 288              		.cfi_def_cfa_offset 0
 289              	.LVL16:
 290              		.loc 1 109 5 view .LVU85
 291 0040 FEFFFFEA 		b	set_gpio_pud.isra.1
 292              	.LVL17:
 293              	.L21:
 294              		.cfi_restore_state
 295              		.loc 1 102 3 view .LVU86
 296 0044 060052E3 		cmp	r2, #6
 297 0048 7080BD38 		popcc	{r4, r5, r6, pc}
 298 004c 070052E3 		cmp	r2, #7
 299 0050 0100009A 		bls	.L29
 300 0054 FF0052E3 		cmp	r2, #255
 301 0058 7080BD18 		popne	{r4, r5, r6, pc}
 302              	.L29:
 303              		.loc 1 118 12 view .LVU87
 304 005c 0040A0E3 		mov	r4, #0
 305 0060 030000EA 		b	.L27
 306              	.LVL18:
 307              	.L26:
 308              	.LBB6:
 309              		.loc 1 122 7 is_stmt 1 discriminator 2 view .LVU88
 310              	.LBE6:
 311              		.loc 1 118 26 is_stmt 0 discriminator 2 view .LVU89
 312 0064 014084E2 		add	r4, r4, #1
 313              	.LVL19:
 314              		.loc 1 118 5 discriminator 2 view .LVU90
 315 0068 200054E3 		cmp	r4, #32
 316              	.LBB7:
 317              		.loc 1 122 12 discriminator 2 view .LVU91
 318 006c A550A0E1 		lsr	r5, r5, #1
 319              	.LVL20:
 320              		.loc 1 122 12 discriminator 2 view .LVU92
 321              	.LBE7:
 322              		.loc 1 118 5 discriminator 2 view .LVU93
 323 0070 7080BD08 		popeq	{r4, r5, r6, pc}
 324              	.LVL21:
 325              	.L27:
 326              	.LBB8:
 327              		.loc 1 119 7 is_stmt 1 view .LVU94
 328              		.loc 1 120 7 view .LVU95
 329              		.loc 1 120 10 is_stmt 0 view .LVU96
 330 0074 010015E3 		tst	r5, #1
 331 0078 F9FFFF0A 		beq	.L26
 332              		.loc 1 121 9 is_stmt 1 view .LVU97
 333              		.loc 1 121 30 is_stmt 0 view .LVU98
 334 007c 140096E5 		ldr	r0, [r6, #20]
 335              		.loc 1 121 9 view .LVU99
 336 0080 0110A0E3 		mov	r1, #1
 337 0084 000084E0 		add	r0, r4, r0
 338 0088 FEFFFFEB 		bl	bcm2835_gpio_fnsel
 339              	.LVL22:
 340 008c F4FFFFEA 		b	.L26
 341              	.LVL23:
 342              	.L20:
ARM GAS  /var/folders/l5/0x54b2c10074c8bt31ycjvl80000gp/T//ccPV8Vrh.s 			page 7


 343              		.loc 1 121 9 view .LVU100
 344              	.LBE8:
 345              		.loc 1 112 5 is_stmt 1 view .LVU101
 346 0090 140080E2 		add	r0, r0, #20
 347              	.LVL24:
 348              		.loc 1 112 5 is_stmt 0 view .LVU102
 349 0094 FEFFFFEB 		bl	set_gpio_in.isra.0
 350              	.LVL25:
 351              		.loc 1 113 5 is_stmt 1 view .LVU103
 352 0098 0510A0E1 		mov	r1, r5
 353 009c 100086E2 		add	r0, r6, #16
 354 00a0 0120A0E3 		mov	r2, #1
 355              		.loc 1 126 1 is_stmt 0 view .LVU104
 356 00a4 7040BDE8 		pop	{r4, r5, r6, lr}
 357              		.cfi_remember_state
 358              		.cfi_restore 14
 359              		.cfi_restore 6
 360              		.cfi_restore 5
 361              		.cfi_restore 4
 362              		.cfi_def_cfa_offset 0
 363              	.LVL26:
 364              		.loc 1 113 5 view .LVU105
 365 00a8 FEFFFFEA 		b	set_gpio_pud.isra.1
 366              	.LVL27:
 367              	.L22:
 368              		.cfi_restore_state
 369              		.loc 1 104 5 is_stmt 1 view .LVU106
 370 00ac 140080E2 		add	r0, r0, #20
 371              	.LVL28:
 372              		.loc 1 104 5 is_stmt 0 view .LVU107
 373 00b0 FEFFFFEB 		bl	set_gpio_in.isra.0
 374              	.LVL29:
 375              		.loc 1 105 5 is_stmt 1 view .LVU108
 376 00b4 0510A0E1 		mov	r1, r5
 377 00b8 100086E2 		add	r0, r6, #16
 378 00bc 0020A0E3 		mov	r2, #0
 379              		.loc 1 126 1 is_stmt 0 view .LVU109
 380 00c0 7040BDE8 		pop	{r4, r5, r6, lr}
 381              		.cfi_restore 14
 382              		.cfi_restore 6
 383              		.cfi_restore 5
 384              		.cfi_restore 4
 385              		.cfi_def_cfa_offset 0
 386              	.LVL30:
 387              		.loc 1 105 5 view .LVU110
 388 00c4 FEFFFFEA 		b	set_gpio_pud.isra.1
 389              	.LVL31:
 390              		.loc 1 105 5 view .LVU111
 391              		.cfi_endproc
 392              	.LFE10:
 393              		.size	_pal_lld_setgroupmode, .-_pal_lld_setgroupmode
 394              		.section	.text._pal_lld_writeport,"ax",%progbits
 395              		.align	2
 396              		.global	_pal_lld_writeport
 397              		.syntax unified
 398              		.arm
 399              		.fpu softvfp
ARM GAS  /var/folders/l5/0x54b2c10074c8bt31ycjvl80000gp/T//ccPV8Vrh.s 			page 8


 400              		.type	_pal_lld_writeport, %function
 401              	_pal_lld_writeport:
 402              	.LVL32:
 403              	.LFB11:
 404              		.loc 1 128 61 is_stmt 1 view -0
 405              		.cfi_startproc
 406              		@ args = 0, pretend = 0, frame = 0
 407              		@ frame_needed = 0, uses_anonymous_args = 0
 408              		@ link register save eliminated.
 409              		.loc 1 129 3 view .LVU113
 410              		.loc 1 130 20 is_stmt 0 view .LVU114
 411 0000 0120E0E1 		mvn	r2, r1
 412              		.loc 1 129 9 view .LVU115
 413 0004 04C090E5 		ldr	ip, [r0, #4]
 414              		.loc 1 130 9 view .LVU116
 415 0008 083090E5 		ldr	r3, [r0, #8]
 416              		.loc 1 129 32 view .LVU117
 417 000c 001080E5 		str	r1, [r0]
 418              		.loc 1 129 18 view .LVU118
 419 0010 00108CE5 		str	r1, [ip]
 420              		.loc 1 130 3 is_stmt 1 view .LVU119
 421              		.loc 1 130 18 is_stmt 0 view .LVU120
 422 0014 002083E5 		str	r2, [r3]
 423              		.loc 1 131 1 view .LVU121
 424 0018 1EFF2FE1 		bx	lr
 425              		.cfi_endproc
 426              	.LFE11:
 427              		.size	_pal_lld_writeport, .-_pal_lld_writeport
 428              		.comm	IOPORT1,24,4
 429              		.comm	IOPORT0,24,4
 430              		.text
 431              	.Letext0:
 432              		.file 2 "/usr/local/Cellar/arm-gcc-bin/8-2019-q3-update/lib/gcc/arm-none-eabi/8.3.1/include/stddef
 433              		.file 3 "/usr/local/Cellar/arm-gcc-bin/8-2019-q3-update/arm-none-eabi/include/machine/_default_typ
 434              		.file 4 "/usr/local/Cellar/arm-gcc-bin/8-2019-q3-update/arm-none-eabi/include/sys/_stdint.h"
 435              		.file 5 "../../../os/ports/GCC/ARM/chtypes.h"
 436              		.file 6 "../../../os/kernel/include/chlists.h"
 437              		.file 7 "../../../os/kernel/include/chthreads.h"
 438              		.file 8 "../../../os/ports/GCC/ARM/chcore.h"
 439              		.file 9 "../../../os/kernel/include/chvt.h"
 440              		.file 10 "../../../os/kernel/include/chschd.h"
 441              		.file 11 "../../../os/kernel/include/chmtx.h"
 442              		.file 12 "../../../os/kernel/include/chevents.h"
 443              		.file 13 "../../../os/kernel/include/chqueues.h"
 444              		.file 14 "../../../os/kernel/include/ch.h"
 445              		.file 15 "../../../os/hal/platforms/BCM2835/bcm2835.h"
 446              		.file 16 "../../../os/hal/platforms/BCM2835/pal_lld.h"
 447              		.file 17 "../../../os/hal/include/i2c.h"
 448              		.file 18 "../../../os/hal/platforms/BCM2835/i2c_lld.h"
 449              		.file 19 "../../../os/hal/include/serial.h"
 450              		.file 20 "../../../os/hal/platforms/BCM2835/serial_lld.h"
 451              		.section	.debug_info,"",%progbits
 452              	.Ldebug_info0:
 453 0000 610E0000 		.4byte	0xe61
 454 0004 0400     		.2byte	0x4
 455 0006 00000000 		.4byte	.Ldebug_abbrev0
 456 000a 04       		.byte	0x4
ARM GAS  /var/folders/l5/0x54b2c10074c8bt31ycjvl80000gp/T//ccPV8Vrh.s 			page 9


 457 000b 01       		.uleb128 0x1
 458 000c 98010000 		.4byte	.LASF163
 459 0010 0C       		.byte	0xc
 460 0011 B9050000 		.4byte	.LASF164
 461 0015 1E030000 		.4byte	.LASF165
 462 0019 40000000 		.4byte	.Ldebug_ranges0+0x40
 463 001d 00000000 		.4byte	0
 464 0021 00000000 		.4byte	.Ldebug_line0
 465 0025 02       		.uleb128 0x2
 466 0026 04       		.byte	0x4
 467 0027 05       		.byte	0x5
 468 0028 F8000000 		.4byte	.LASF0
 469 002c 03       		.uleb128 0x3
 470 002d 00000000 		.4byte	.LASF3
 471 0031 02       		.byte	0x2
 472 0032 D8       		.byte	0xd8
 473 0033 17       		.byte	0x17
 474 0034 38000000 		.4byte	0x38
 475 0038 02       		.uleb128 0x2
 476 0039 04       		.byte	0x4
 477 003a 07       		.byte	0x7
 478 003b C6020000 		.4byte	.LASF1
 479 003f 02       		.uleb128 0x2
 480 0040 01       		.byte	0x1
 481 0041 06       		.byte	0x6
 482 0042 A4000000 		.4byte	.LASF2
 483 0046 03       		.uleb128 0x3
 484 0047 1A000000 		.4byte	.LASF4
 485 004b 03       		.byte	0x3
 486 004c 2B       		.byte	0x2b
 487 004d 18       		.byte	0x18
 488 004e 52000000 		.4byte	0x52
 489 0052 02       		.uleb128 0x2
 490 0053 01       		.byte	0x1
 491 0054 08       		.byte	0x8
 492 0055 F0040000 		.4byte	.LASF5
 493 0059 02       		.uleb128 0x2
 494 005a 02       		.byte	0x2
 495 005b 05       		.byte	0x5
 496 005c 1D050000 		.4byte	.LASF6
 497 0060 03       		.uleb128 0x3
 498 0061 F6050000 		.4byte	.LASF7
 499 0065 03       		.byte	0x3
 500 0066 39       		.byte	0x39
 501 0067 19       		.byte	0x19
 502 0068 6C000000 		.4byte	0x6c
 503 006c 02       		.uleb128 0x2
 504 006d 02       		.byte	0x2
 505 006e 07       		.byte	0x7
 506 006f EC020000 		.4byte	.LASF8
 507 0073 03       		.uleb128 0x3
 508 0074 1D060000 		.4byte	.LASF9
 509 0078 03       		.byte	0x3
 510 0079 4D       		.byte	0x4d
 511 007a 18       		.byte	0x18
 512 007b 25000000 		.4byte	0x25
 513 007f 03       		.uleb128 0x3
ARM GAS  /var/folders/l5/0x54b2c10074c8bt31ycjvl80000gp/T//ccPV8Vrh.s 			page 10


 514 0080 6A010000 		.4byte	.LASF10
 515 0084 03       		.byte	0x3
 516 0085 4F       		.byte	0x4f
 517 0086 19       		.byte	0x19
 518 0087 38000000 		.4byte	0x38
 519 008b 02       		.uleb128 0x2
 520 008c 08       		.byte	0x8
 521 008d 05       		.byte	0x5
 522 008e 96000000 		.4byte	.LASF11
 523 0092 02       		.uleb128 0x2
 524 0093 08       		.byte	0x8
 525 0094 07       		.byte	0x7
 526 0095 44000000 		.4byte	.LASF12
 527 0099 03       		.uleb128 0x3
 528 009a DC060000 		.4byte	.LASF13
 529 009e 04       		.byte	0x4
 530 009f 18       		.byte	0x18
 531 00a0 13       		.byte	0x13
 532 00a1 46000000 		.4byte	0x46
 533 00a5 04       		.uleb128 0x4
 534 00a6 99000000 		.4byte	0x99
 535 00aa 03       		.uleb128 0x3
 536 00ab 24010000 		.4byte	.LASF14
 537 00af 04       		.byte	0x4
 538 00b0 24       		.byte	0x24
 539 00b1 14       		.byte	0x14
 540 00b2 60000000 		.4byte	0x60
 541 00b6 03       		.uleb128 0x3
 542 00b7 E8040000 		.4byte	.LASF15
 543 00bb 04       		.byte	0x4
 544 00bc 2C       		.byte	0x2c
 545 00bd 13       		.byte	0x13
 546 00be 73000000 		.4byte	0x73
 547 00c2 03       		.uleb128 0x3
 548 00c3 8E050000 		.4byte	.LASF16
 549 00c7 04       		.byte	0x4
 550 00c8 30       		.byte	0x30
 551 00c9 14       		.byte	0x14
 552 00ca 7F000000 		.4byte	0x7f
 553 00ce 05       		.uleb128 0x5
 554 00cf C2000000 		.4byte	0xc2
 555 00d3 06       		.uleb128 0x6
 556 00d4 04       		.byte	0x4
 557 00d5 05       		.byte	0x5
 558 00d6 696E7400 		.ascii	"int\000"
 559 00da 02       		.uleb128 0x2
 560 00db 04       		.byte	0x4
 561 00dc 07       		.byte	0x7
 562 00dd 8D020000 		.4byte	.LASF17
 563 00e1 05       		.uleb128 0x5
 564 00e2 DA000000 		.4byte	0xda
 565 00e6 03       		.uleb128 0x3
 566 00e7 8B030000 		.4byte	.LASF18
 567 00eb 05       		.byte	0x5
 568 00ec 2A       		.byte	0x2a
 569 00ed 19       		.byte	0x19
 570 00ee 99000000 		.4byte	0x99
ARM GAS  /var/folders/l5/0x54b2c10074c8bt31ycjvl80000gp/T//ccPV8Vrh.s 			page 11


 571 00f2 03       		.uleb128 0x3
 572 00f3 01010000 		.4byte	.LASF19
 573 00f7 05       		.byte	0x5
 574 00f8 2B       		.byte	0x2b
 575 00f9 19       		.byte	0x19
 576 00fa 99000000 		.4byte	0x99
 577 00fe 03       		.uleb128 0x3
 578 00ff CE000000 		.4byte	.LASF20
 579 0103 05       		.byte	0x5
 580 0104 2D       		.byte	0x2d
 581 0105 19       		.byte	0x19
 582 0106 99000000 		.4byte	0x99
 583 010a 03       		.uleb128 0x3
 584 010b C7040000 		.4byte	.LASF21
 585 010f 05       		.byte	0x5
 586 0110 2E       		.byte	0x2e
 587 0111 19       		.byte	0x19
 588 0112 C2000000 		.4byte	0xc2
 589 0116 03       		.uleb128 0x3
 590 0117 11030000 		.4byte	.LASF22
 591 011b 05       		.byte	0x5
 592 011c 2F       		.byte	0x2f
 593 011d 19       		.byte	0x19
 594 011e B6000000 		.4byte	0xb6
 595 0122 03       		.uleb128 0x3
 596 0123 B2030000 		.4byte	.LASF23
 597 0127 05       		.byte	0x5
 598 0128 31       		.byte	0x31
 599 0129 19       		.byte	0x19
 600 012a C2000000 		.4byte	0xc2
 601 012e 03       		.uleb128 0x3
 602 012f 7B060000 		.4byte	.LASF24
 603 0133 05       		.byte	0x5
 604 0134 32       		.byte	0x32
 605 0135 19       		.byte	0x19
 606 0136 C2000000 		.4byte	0xc2
 607 013a 03       		.uleb128 0x3
 608 013b 08060000 		.4byte	.LASF25
 609 013f 05       		.byte	0x5
 610 0140 33       		.byte	0x33
 611 0141 19       		.byte	0x19
 612 0142 C2000000 		.4byte	0xc2
 613 0146 05       		.uleb128 0x5
 614 0147 3A010000 		.4byte	0x13a
 615 014b 03       		.uleb128 0x3
 616 014c 67050000 		.4byte	.LASF26
 617 0150 06       		.byte	0x6
 618 0151 23       		.byte	0x23
 619 0152 17       		.byte	0x17
 620 0153 57010000 		.4byte	0x157
 621 0157 07       		.uleb128 0x7
 622 0158 67050000 		.4byte	.LASF26
 623 015c 28       		.byte	0x28
 624 015d 07       		.byte	0x7
 625 015e 57       		.byte	0x57
 626 015f 08       		.byte	0x8
 627 0160 01020000 		.4byte	0x201
ARM GAS  /var/folders/l5/0x54b2c10074c8bt31ycjvl80000gp/T//ccPV8Vrh.s 			page 12


 628 0164 08       		.uleb128 0x8
 629 0165 50050000 		.4byte	.LASF27
 630 0169 07       		.byte	0x7
 631 016a 58       		.byte	0x58
 632 016b 1A       		.byte	0x1a
 633 016c 25020000 		.4byte	0x225
 634 0170 00       		.byte	0
 635 0171 08       		.uleb128 0x8
 636 0172 C0040000 		.4byte	.LASF28
 637 0176 07       		.byte	0x7
 638 0177 5A       		.byte	0x5a
 639 0178 1A       		.byte	0x1a
 640 0179 25020000 		.4byte	0x225
 641 017d 04       		.byte	0x4
 642 017e 08       		.uleb128 0x8
 643 017f 78000000 		.4byte	.LASF29
 644 0183 07       		.byte	0x7
 645 0184 5C       		.byte	0x5c
 646 0185 19       		.byte	0x19
 647 0186 0A010000 		.4byte	0x10a
 648 018a 08       		.byte	0x8
 649 018b 08       		.uleb128 0x8
 650 018c 3F070000 		.4byte	.LASF30
 651 0190 07       		.byte	0x7
 652 0191 5D       		.byte	0x5d
 653 0192 19       		.byte	0x19
 654 0193 F0020000 		.4byte	0x2f0
 655 0197 0C       		.byte	0xc
 656 0198 08       		.uleb128 0x8
 657 0199 27050000 		.4byte	.LASF31
 658 019d 07       		.byte	0x7
 659 019e 72       		.byte	0x72
 660 019f 19       		.byte	0x19
 661 01a0 F2000000 		.4byte	0xf2
 662 01a4 10       		.byte	0x10
 663 01a5 08       		.uleb128 0x8
 664 01a6 5F050000 		.4byte	.LASF32
 665 01aa 07       		.byte	0x7
 666 01ab 76       		.byte	0x76
 667 01ac 19       		.byte	0x19
 668 01ad E6000000 		.4byte	0xe6
 669 01b1 11       		.byte	0x11
 670 01b2 08       		.uleb128 0x8
 671 01b3 2F050000 		.4byte	.LASF33
 672 01b7 07       		.byte	0x7
 673 01b8 81       		.byte	0x81
 674 01b9 19       		.byte	0x19
 675 01ba FE000000 		.4byte	0xfe
 676 01be 12       		.byte	0x12
 677 01bf 09       		.uleb128 0x9
 678 01c0 705F7500 		.ascii	"p_u\000"
 679 01c4 07       		.byte	0x7
 680 01c5 AD       		.byte	0xad
 681 01c6 19       		.byte	0x19
 682 01c7 FD040000 		.4byte	0x4fd
 683 01cb 14       		.byte	0x14
 684 01cc 08       		.uleb128 0x8
ARM GAS  /var/folders/l5/0x54b2c10074c8bt31ycjvl80000gp/T//ccPV8Vrh.s 			page 13


 685 01cd 45070000 		.4byte	.LASF34
 686 01d1 07       		.byte	0x7
 687 01d2 B2       		.byte	0xb2
 688 01d3 19       		.byte	0x19
 689 01d4 4E020000 		.4byte	0x24e
 690 01d8 18       		.byte	0x18
 691 01d9 08       		.uleb128 0x8
 692 01da 79050000 		.4byte	.LASF35
 693 01de 07       		.byte	0x7
 694 01df C2       		.byte	0xc2
 695 01e0 19       		.byte	0x19
 696 01e1 22010000 		.4byte	0x122
 697 01e5 1C       		.byte	0x1c
 698 01e6 08       		.uleb128 0x8
 699 01e7 13050000 		.4byte	.LASF36
 700 01eb 07       		.byte	0x7
 701 01ec C9       		.byte	0xc9
 702 01ed 1A       		.byte	0x1a
 703 01ee 37050000 		.4byte	0x537
 704 01f2 20       		.byte	0x20
 705 01f3 08       		.uleb128 0x8
 706 01f4 12060000 		.4byte	.LASF37
 707 01f8 07       		.byte	0x7
 708 01f9 CD       		.byte	0xcd
 709 01fa 19       		.byte	0x19
 710 01fb 0A010000 		.4byte	0x10a
 711 01ff 24       		.byte	0x24
 712 0200 00       		.byte	0
 713 0201 0A       		.uleb128 0xa
 714 0202 08       		.byte	0x8
 715 0203 06       		.byte	0x6
 716 0204 5A       		.byte	0x5a
 717 0205 09       		.byte	0x9
 718 0206 25020000 		.4byte	0x225
 719 020a 08       		.uleb128 0x8
 720 020b 50050000 		.4byte	.LASF27
 721 020f 06       		.byte	0x6
 722 0210 5B       		.byte	0x5b
 723 0211 1A       		.byte	0x1a
 724 0212 25020000 		.4byte	0x225
 725 0216 00       		.byte	0
 726 0217 08       		.uleb128 0x8
 727 0218 C0040000 		.4byte	.LASF28
 728 021c 06       		.byte	0x6
 729 021d 5D       		.byte	0x5d
 730 021e 1A       		.byte	0x1a
 731 021f 25020000 		.4byte	0x225
 732 0223 04       		.byte	0x4
 733 0224 00       		.byte	0
 734 0225 0B       		.uleb128 0xb
 735 0226 04       		.byte	0x4
 736 0227 4B010000 		.4byte	0x14b
 737 022b 03       		.uleb128 0x3
 738 022c 5C040000 		.4byte	.LASF38
 739 0230 06       		.byte	0x6
 740 0231 5F       		.byte	0x5f
 741 0232 03       		.byte	0x3
ARM GAS  /var/folders/l5/0x54b2c10074c8bt31ycjvl80000gp/T//ccPV8Vrh.s 			page 14


 742 0233 01020000 		.4byte	0x201
 743 0237 0A       		.uleb128 0xa
 744 0238 04       		.byte	0x4
 745 0239 06       		.byte	0x6
 746 023a 64       		.byte	0x64
 747 023b 09       		.byte	0x9
 748 023c 4E020000 		.4byte	0x24e
 749 0240 08       		.uleb128 0x8
 750 0241 50050000 		.4byte	.LASF27
 751 0245 06       		.byte	0x6
 752 0246 66       		.byte	0x66
 753 0247 16       		.byte	0x16
 754 0248 25020000 		.4byte	0x225
 755 024c 00       		.byte	0
 756 024d 00       		.byte	0
 757 024e 03       		.uleb128 0x3
 758 024f A6030000 		.4byte	.LASF39
 759 0253 06       		.byte	0x6
 760 0254 69       		.byte	0x69
 761 0255 03       		.byte	0x3
 762 0256 37020000 		.4byte	0x237
 763 025a 03       		.uleb128 0x3
 764 025b EA030000 		.4byte	.LASF40
 765 025f 08       		.byte	0x8
 766 0260 9D       		.byte	0x9d
 767 0261 12       		.byte	0x12
 768 0262 C2000000 		.4byte	0xc2
 769 0266 03       		.uleb128 0x3
 770 0267 7A010000 		.4byte	.LASF41
 771 026b 08       		.byte	0x8
 772 026c A2       		.byte	0xa2
 773 026d 0F       		.byte	0xf
 774 026e 72020000 		.4byte	0x272
 775 0272 0C       		.uleb128 0xc
 776 0273 04       		.byte	0x4
 777 0274 07       		.uleb128 0x7
 778 0275 64060000 		.4byte	.LASF42
 779 0279 24       		.byte	0x24
 780 027a 08       		.byte	0x8
 781 027b B9       		.byte	0xb9
 782 027c 08       		.byte	0x8
 783 027d F0020000 		.4byte	0x2f0
 784 0281 09       		.uleb128 0x9
 785 0282 723400   		.ascii	"r4\000"
 786 0285 08       		.byte	0x8
 787 0286 BA       		.byte	0xba
 788 0287 11       		.byte	0x11
 789 0288 66020000 		.4byte	0x266
 790 028c 00       		.byte	0
 791 028d 09       		.uleb128 0x9
 792 028e 723500   		.ascii	"r5\000"
 793 0291 08       		.byte	0x8
 794 0292 BB       		.byte	0xbb
 795 0293 11       		.byte	0x11
 796 0294 66020000 		.4byte	0x266
 797 0298 04       		.byte	0x4
 798 0299 09       		.uleb128 0x9
ARM GAS  /var/folders/l5/0x54b2c10074c8bt31ycjvl80000gp/T//ccPV8Vrh.s 			page 15


 799 029a 723600   		.ascii	"r6\000"
 800 029d 08       		.byte	0x8
 801 029e BC       		.byte	0xbc
 802 029f 11       		.byte	0x11
 803 02a0 66020000 		.4byte	0x266
 804 02a4 08       		.byte	0x8
 805 02a5 09       		.uleb128 0x9
 806 02a6 723700   		.ascii	"r7\000"
 807 02a9 08       		.byte	0x8
 808 02aa BD       		.byte	0xbd
 809 02ab 11       		.byte	0x11
 810 02ac 66020000 		.4byte	0x266
 811 02b0 0C       		.byte	0xc
 812 02b1 09       		.uleb128 0x9
 813 02b2 723800   		.ascii	"r8\000"
 814 02b5 08       		.byte	0x8
 815 02b6 BE       		.byte	0xbe
 816 02b7 11       		.byte	0x11
 817 02b8 66020000 		.4byte	0x266
 818 02bc 10       		.byte	0x10
 819 02bd 09       		.uleb128 0x9
 820 02be 723900   		.ascii	"r9\000"
 821 02c1 08       		.byte	0x8
 822 02c2 BF       		.byte	0xbf
 823 02c3 11       		.byte	0x11
 824 02c4 66020000 		.4byte	0x266
 825 02c8 14       		.byte	0x14
 826 02c9 09       		.uleb128 0x9
 827 02ca 72313000 		.ascii	"r10\000"
 828 02ce 08       		.byte	0x8
 829 02cf C0       		.byte	0xc0
 830 02d0 11       		.byte	0x11
 831 02d1 66020000 		.4byte	0x266
 832 02d5 18       		.byte	0x18
 833 02d6 09       		.uleb128 0x9
 834 02d7 72313100 		.ascii	"r11\000"
 835 02db 08       		.byte	0x8
 836 02dc C1       		.byte	0xc1
 837 02dd 11       		.byte	0x11
 838 02de 66020000 		.4byte	0x266
 839 02e2 1C       		.byte	0x1c
 840 02e3 09       		.uleb128 0x9
 841 02e4 6C7200   		.ascii	"lr\000"
 842 02e7 08       		.byte	0x8
 843 02e8 C2       		.byte	0xc2
 844 02e9 11       		.byte	0x11
 845 02ea 66020000 		.4byte	0x266
 846 02ee 20       		.byte	0x20
 847 02ef 00       		.byte	0
 848 02f0 07       		.uleb128 0x7
 849 02f1 46060000 		.4byte	.LASF43
 850 02f5 04       		.byte	0x4
 851 02f6 08       		.byte	0x8
 852 02f7 CA       		.byte	0xca
 853 02f8 08       		.byte	0x8
 854 02f9 0B030000 		.4byte	0x30b
 855 02fd 09       		.uleb128 0x9
ARM GAS  /var/folders/l5/0x54b2c10074c8bt31ycjvl80000gp/T//ccPV8Vrh.s 			page 16


 856 02fe 72313300 		.ascii	"r13\000"
 857 0302 08       		.byte	0x8
 858 0303 CB       		.byte	0xcb
 859 0304 12       		.byte	0x12
 860 0305 0B030000 		.4byte	0x30b
 861 0309 00       		.byte	0
 862 030a 00       		.byte	0
 863 030b 0B       		.uleb128 0xb
 864 030c 04       		.byte	0x4
 865 030d 74020000 		.4byte	0x274
 866 0311 03       		.uleb128 0x3
 867 0312 DD020000 		.4byte	.LASF44
 868 0316 09       		.byte	0x9
 869 0317 4E       		.byte	0x4e
 870 0318 10       		.byte	0x10
 871 0319 1D030000 		.4byte	0x31d
 872 031d 0B       		.uleb128 0xb
 873 031e 04       		.byte	0x4
 874 031f 23030000 		.4byte	0x323
 875 0323 0D       		.uleb128 0xd
 876 0324 2E030000 		.4byte	0x32e
 877 0328 0E       		.uleb128 0xe
 878 0329 72020000 		.4byte	0x272
 879 032d 00       		.byte	0
 880 032e 03       		.uleb128 0x3
 881 032f 9F050000 		.4byte	.LASF45
 882 0333 09       		.byte	0x9
 883 0334 53       		.byte	0x53
 884 0335 1D       		.byte	0x1d
 885 0336 3A030000 		.4byte	0x33a
 886 033a 07       		.uleb128 0x7
 887 033b 9F050000 		.4byte	.LASF45
 888 033f 14       		.byte	0x14
 889 0340 09       		.byte	0x9
 890 0341 5A       		.byte	0x5a
 891 0342 08       		.byte	0x8
 892 0343 89030000 		.4byte	0x389
 893 0347 08       		.uleb128 0x8
 894 0348 9A020000 		.4byte	.LASF46
 895 034c 09       		.byte	0x9
 896 034d 5B       		.byte	0x5b
 897 034e 1A       		.byte	0x1a
 898 034f 89030000 		.4byte	0x389
 899 0353 00       		.byte	0
 900 0354 08       		.uleb128 0x8
 901 0355 83010000 		.4byte	.LASF47
 902 0359 09       		.byte	0x9
 903 035a 5D       		.byte	0x5d
 904 035b 1A       		.byte	0x1a
 905 035c 89030000 		.4byte	0x389
 906 0360 04       		.byte	0x4
 907 0361 08       		.uleb128 0x8
 908 0362 06040000 		.4byte	.LASF48
 909 0366 09       		.byte	0x9
 910 0367 5F       		.byte	0x5f
 911 0368 19       		.byte	0x19
 912 0369 3A010000 		.4byte	0x13a
ARM GAS  /var/folders/l5/0x54b2c10074c8bt31ycjvl80000gp/T//ccPV8Vrh.s 			page 17


 913 036d 08       		.byte	0x8
 914 036e 08       		.uleb128 0x8
 915 036f 2E040000 		.4byte	.LASF49
 916 0373 09       		.byte	0x9
 917 0374 60       		.byte	0x60
 918 0375 19       		.byte	0x19
 919 0376 11030000 		.4byte	0x311
 920 037a 0C       		.byte	0xc
 921 037b 08       		.uleb128 0x8
 922 037c 74060000 		.4byte	.LASF50
 923 0380 09       		.byte	0x9
 924 0381 62       		.byte	0x62
 925 0382 1A       		.byte	0x1a
 926 0383 72020000 		.4byte	0x272
 927 0387 10       		.byte	0x10
 928 0388 00       		.byte	0
 929 0389 0B       		.uleb128 0xb
 930 038a 04       		.byte	0x4
 931 038b 2E030000 		.4byte	0x32e
 932 038f 0A       		.uleb128 0xa
 933 0390 10       		.byte	0x10
 934 0391 09       		.byte	0x9
 935 0392 6C       		.byte	0x6c
 936 0393 09       		.byte	0x9
 937 0394 CD030000 		.4byte	0x3cd
 938 0398 08       		.uleb128 0x8
 939 0399 9A020000 		.4byte	.LASF46
 940 039d 09       		.byte	0x9
 941 039e 6D       		.byte	0x6d
 942 039f 1A       		.byte	0x1a
 943 03a0 89030000 		.4byte	0x389
 944 03a4 00       		.byte	0
 945 03a5 08       		.uleb128 0x8
 946 03a6 83010000 		.4byte	.LASF47
 947 03aa 09       		.byte	0x9
 948 03ab 6F       		.byte	0x6f
 949 03ac 1A       		.byte	0x1a
 950 03ad 89030000 		.4byte	0x389
 951 03b1 04       		.byte	0x4
 952 03b2 08       		.uleb128 0x8
 953 03b3 06040000 		.4byte	.LASF48
 954 03b7 09       		.byte	0x9
 955 03b8 71       		.byte	0x71
 956 03b9 19       		.byte	0x19
 957 03ba 3A010000 		.4byte	0x13a
 958 03be 08       		.byte	0x8
 959 03bf 08       		.uleb128 0x8
 960 03c0 08070000 		.4byte	.LASF51
 961 03c4 09       		.byte	0x9
 962 03c5 72       		.byte	0x72
 963 03c6 19       		.byte	0x19
 964 03c7 46010000 		.4byte	0x146
 965 03cb 0C       		.byte	0xc
 966 03cc 00       		.byte	0
 967 03cd 03       		.uleb128 0x3
 968 03ce 3F040000 		.4byte	.LASF52
 969 03d2 09       		.byte	0x9
ARM GAS  /var/folders/l5/0x54b2c10074c8bt31ycjvl80000gp/T//ccPV8Vrh.s 			page 18


 970 03d3 73       		.byte	0x73
 971 03d4 03       		.byte	0x3
 972 03d5 8F030000 		.4byte	0x38f
 973 03d9 0F       		.uleb128 0xf
 974 03da 24000000 		.4byte	.LASF58
 975 03de 09       		.byte	0x9
 976 03df D1       		.byte	0xd1
 977 03e0 0F       		.byte	0xf
 978 03e1 CD030000 		.4byte	0x3cd
 979 03e5 0A       		.uleb128 0xa
 980 03e6 14       		.byte	0x14
 981 03e7 0A       		.byte	0xa
 982 03e8 57       		.byte	0x57
 983 03e9 09       		.byte	0x9
 984 03ea 23040000 		.4byte	0x423
 985 03ee 08       		.uleb128 0x8
 986 03ef 97050000 		.4byte	.LASF53
 987 03f3 0A       		.byte	0xa
 988 03f4 58       		.byte	0x58
 989 03f5 19       		.byte	0x19
 990 03f6 2B020000 		.4byte	0x22b
 991 03fa 00       		.byte	0
 992 03fb 08       		.uleb128 0x8
 993 03fc 39050000 		.4byte	.LASF54
 994 0400 0A       		.byte	0xa
 995 0401 59       		.byte	0x59
 996 0402 19       		.byte	0x19
 997 0403 0A010000 		.4byte	0x10a
 998 0407 08       		.byte	0x8
 999 0408 08       		.uleb128 0x8
 1000 0409 56040000 		.4byte	.LASF55
 1001 040d 0A       		.byte	0xa
 1002 040e 5B       		.byte	0x5b
 1003 040f 19       		.byte	0x19
 1004 0410 F0020000 		.4byte	0x2f0
 1005 0414 0C       		.byte	0xc
 1006 0415 08       		.uleb128 0x8
 1007 0416 71040000 		.4byte	.LASF56
 1008 041a 0A       		.byte	0xa
 1009 041b 62       		.byte	0x62
 1010 041c 1A       		.byte	0x1a
 1011 041d 25020000 		.4byte	0x225
 1012 0421 10       		.byte	0x10
 1013 0422 00       		.byte	0
 1014 0423 03       		.uleb128 0x3
 1015 0424 B6060000 		.4byte	.LASF57
 1016 0428 0A       		.byte	0xa
 1017 0429 64       		.byte	0x64
 1018 042a 03       		.byte	0x3
 1019 042b E5030000 		.4byte	0x3e5
 1020 042f 0F       		.uleb128 0xf
 1021 0430 C9060000 		.4byte	.LASF59
 1022 0434 0A       		.byte	0xa
 1023 0435 68       		.byte	0x68
 1024 0436 12       		.byte	0x12
 1025 0437 23040000 		.4byte	0x423
 1026 043b 07       		.uleb128 0x7
ARM GAS  /var/folders/l5/0x54b2c10074c8bt31ycjvl80000gp/T//ccPV8Vrh.s 			page 19


 1027 043c C9030000 		.4byte	.LASF60
 1028 0440 10       		.byte	0x10
 1029 0441 0B       		.byte	0xb
 1030 0442 25       		.byte	0x25
 1031 0443 10       		.byte	0x10
 1032 0444 70040000 		.4byte	0x470
 1033 0448 08       		.uleb128 0x8
 1034 0449 B8000000 		.4byte	.LASF61
 1035 044d 0B       		.byte	0xb
 1036 044e 26       		.byte	0x26
 1037 044f 19       		.byte	0x19
 1038 0450 2B020000 		.4byte	0x22b
 1039 0454 00       		.byte	0
 1040 0455 08       		.uleb128 0x8
 1041 0456 24070000 		.4byte	.LASF62
 1042 045a 0B       		.byte	0xb
 1043 045b 28       		.byte	0x28
 1044 045c 1A       		.byte	0x1a
 1045 045d 25020000 		.4byte	0x225
 1046 0461 08       		.byte	0x8
 1047 0462 08       		.uleb128 0x8
 1048 0463 01060000 		.4byte	.LASF63
 1049 0467 0B       		.byte	0xb
 1050 0468 2A       		.byte	0x2a
 1051 0469 1A       		.byte	0x1a
 1052 046a 70040000 		.4byte	0x470
 1053 046e 0C       		.byte	0xc
 1054 046f 00       		.byte	0
 1055 0470 0B       		.uleb128 0xb
 1056 0471 04       		.byte	0x4
 1057 0472 3B040000 		.4byte	0x43b
 1058 0476 03       		.uleb128 0x3
 1059 0477 C9030000 		.4byte	.LASF60
 1060 047b 0B       		.byte	0xb
 1061 047c 2C       		.byte	0x2c
 1062 047d 03       		.byte	0x3
 1063 047e 3B040000 		.4byte	0x43b
 1064 0482 03       		.uleb128 0x3
 1065 0483 EA060000 		.4byte	.LASF64
 1066 0487 0C       		.byte	0xc
 1067 0488 25       		.byte	0x25
 1068 0489 1E       		.byte	0x1e
 1069 048a 8E040000 		.4byte	0x48e
 1070 048e 07       		.uleb128 0x7
 1071 048f EA060000 		.4byte	.LASF64
 1072 0493 10       		.byte	0x10
 1073 0494 0C       		.byte	0xc
 1074 0495 2A       		.byte	0x2a
 1075 0496 08       		.byte	0x8
 1076 0497 D0040000 		.4byte	0x4d0
 1077 049b 08       		.uleb128 0x8
 1078 049c 6E030000 		.4byte	.LASF65
 1079 04a0 0C       		.byte	0xc
 1080 04a1 2B       		.byte	0x2b
 1081 04a2 1A       		.byte	0x1a
 1082 04a3 D0040000 		.4byte	0x4d0
 1083 04a7 00       		.byte	0
ARM GAS  /var/folders/l5/0x54b2c10074c8bt31ycjvl80000gp/T//ccPV8Vrh.s 			page 20


 1084 04a8 08       		.uleb128 0x8
 1085 04a9 FE040000 		.4byte	.LASF66
 1086 04ad 0C       		.byte	0xc
 1087 04ae 2E       		.byte	0x2e
 1088 04af 1A       		.byte	0x1a
 1089 04b0 25020000 		.4byte	0x225
 1090 04b4 04       		.byte	0x4
 1091 04b5 08       		.uleb128 0x8
 1092 04b6 7B040000 		.4byte	.LASF67
 1093 04ba 0C       		.byte	0xc
 1094 04bb 30       		.byte	0x30
 1095 04bc 19       		.byte	0x19
 1096 04bd 22010000 		.4byte	0x122
 1097 04c1 08       		.byte	0x8
 1098 04c2 08       		.uleb128 0x8
 1099 04c3 0A050000 		.4byte	.LASF68
 1100 04c7 0C       		.byte	0xc
 1101 04c8 33       		.byte	0x33
 1102 04c9 19       		.byte	0x19
 1103 04ca 2E010000 		.4byte	0x12e
 1104 04ce 0C       		.byte	0xc
 1105 04cf 00       		.byte	0
 1106 04d0 0B       		.uleb128 0xb
 1107 04d1 04       		.byte	0x4
 1108 04d2 82040000 		.4byte	0x482
 1109 04d6 07       		.uleb128 0x7
 1110 04d7 81020000 		.4byte	.LASF69
 1111 04db 04       		.byte	0x4
 1112 04dc 0C       		.byte	0xc
 1113 04dd 3A       		.byte	0x3a
 1114 04de 10       		.byte	0x10
 1115 04df F1040000 		.4byte	0x4f1
 1116 04e3 08       		.uleb128 0x8
 1117 04e4 A7060000 		.4byte	.LASF70
 1118 04e8 0C       		.byte	0xc
 1119 04e9 3B       		.byte	0x3b
 1120 04ea 1A       		.byte	0x1a
 1121 04eb D0040000 		.4byte	0x4d0
 1122 04ef 00       		.byte	0
 1123 04f0 00       		.byte	0
 1124 04f1 03       		.uleb128 0x3
 1125 04f2 81020000 		.4byte	.LASF69
 1126 04f6 0C       		.byte	0xc
 1127 04f7 3E       		.byte	0x3e
 1128 04f8 03       		.byte	0x3
 1129 04f9 D6040000 		.4byte	0x4d6
 1130 04fd 10       		.uleb128 0x10
 1131 04fe 04       		.byte	0x4
 1132 04ff 07       		.byte	0x7
 1133 0500 8F       		.byte	0x8f
 1134 0501 03       		.byte	0x3
 1135 0502 37050000 		.4byte	0x537
 1136 0506 11       		.uleb128 0x11
 1137 0507 07000000 		.4byte	.LASF71
 1138 050b 07       		.byte	0x7
 1139 050c 96       		.byte	0x96
 1140 050d 19       		.byte	0x19
ARM GAS  /var/folders/l5/0x54b2c10074c8bt31ycjvl80000gp/T//ccPV8Vrh.s 			page 21


 1141 050e 16010000 		.4byte	0x116
 1142 0512 11       		.uleb128 0x11
 1143 0513 60000000 		.4byte	.LASF72
 1144 0517 07       		.byte	0x7
 1145 0518 9D       		.byte	0x9d
 1146 0519 19       		.byte	0x19
 1147 051a 16010000 		.4byte	0x116
 1148 051e 11       		.uleb128 0x11
 1149 051f F8060000 		.4byte	.LASF73
 1150 0523 07       		.byte	0x7
 1151 0524 A4       		.byte	0xa4
 1152 0525 1A       		.byte	0x1a
 1153 0526 72020000 		.4byte	0x272
 1154 052a 11       		.uleb128 0x11
 1155 052b 49050000 		.4byte	.LASF74
 1156 052f 07       		.byte	0x7
 1157 0530 AB       		.byte	0xab
 1158 0531 19       		.byte	0x19
 1159 0532 22010000 		.4byte	0x122
 1160 0536 00       		.byte	0
 1161 0537 0B       		.uleb128 0xb
 1162 0538 04       		.byte	0x4
 1163 0539 76040000 		.4byte	0x476
 1164 053d 0B       		.uleb128 0xb
 1165 053e 04       		.byte	0x4
 1166 053f 43050000 		.4byte	0x543
 1167 0543 12       		.uleb128 0x12
 1168 0544 16010000 		.4byte	0x116
 1169 0548 52050000 		.4byte	0x552
 1170 054c 0E       		.uleb128 0xe
 1171 054d 72020000 		.4byte	0x272
 1172 0551 00       		.byte	0
 1173 0552 03       		.uleb128 0x3
 1174 0553 DD030000 		.4byte	.LASF75
 1175 0557 0D       		.byte	0xd
 1176 0558 30       		.byte	0x30
 1177 0559 1D       		.byte	0x1d
 1178 055a 5E050000 		.4byte	0x55e
 1179 055e 07       		.uleb128 0x7
 1180 055f DD030000 		.4byte	.LASF75
 1181 0563 24       		.byte	0x24
 1182 0564 0D       		.byte	0xd
 1183 0565 3E       		.byte	0x3e
 1184 0566 08       		.byte	0x8
 1185 0567 D4050000 		.4byte	0x5d4
 1186 056b 08       		.uleb128 0x8
 1187 056c 8C000000 		.4byte	.LASF76
 1188 0570 0D       		.byte	0xd
 1189 0571 3F       		.byte	0x3f
 1190 0572 19       		.byte	0x19
 1191 0573 2B020000 		.4byte	0x22b
 1192 0577 00       		.byte	0
 1193 0578 08       		.uleb128 0x8
 1194 0579 24040000 		.4byte	.LASF77
 1195 057d 0D       		.byte	0xd
 1196 057e 40       		.byte	0x40
 1197 057f 19       		.byte	0x19
ARM GAS  /var/folders/l5/0x54b2c10074c8bt31ycjvl80000gp/T//ccPV8Vrh.s 			page 22


 1198 0580 2C000000 		.4byte	0x2c
 1199 0584 08       		.byte	0x8
 1200 0585 08       		.uleb128 0x8
 1201 0586 1B010000 		.4byte	.LASF78
 1202 058a 0D       		.byte	0xd
 1203 058b 41       		.byte	0x41
 1204 058c 1A       		.byte	0x1a
 1205 058d F7050000 		.4byte	0x5f7
 1206 0591 0C       		.byte	0xc
 1207 0592 08       		.uleb128 0x8
 1208 0593 A1060000 		.4byte	.LASF79
 1209 0597 0D       		.byte	0xd
 1210 0598 42       		.byte	0x42
 1211 0599 1A       		.byte	0x1a
 1212 059a F7050000 		.4byte	0x5f7
 1213 059e 10       		.byte	0x10
 1214 059f 08       		.uleb128 0x8
 1215 05a0 4E040000 		.4byte	.LASF80
 1216 05a4 0D       		.byte	0xd
 1217 05a5 44       		.byte	0x44
 1218 05a6 1A       		.byte	0x1a
 1219 05a7 F7050000 		.4byte	0x5f7
 1220 05ab 14       		.byte	0x14
 1221 05ac 08       		.uleb128 0x8
 1222 05ad CF040000 		.4byte	.LASF81
 1223 05b1 0D       		.byte	0xd
 1224 05b2 45       		.byte	0x45
 1225 05b3 1A       		.byte	0x1a
 1226 05b4 F7050000 		.4byte	0x5f7
 1227 05b8 18       		.byte	0x18
 1228 05b9 08       		.uleb128 0x8
 1229 05ba C0060000 		.4byte	.LASF82
 1230 05be 0D       		.byte	0xd
 1231 05bf 46       		.byte	0x46
 1232 05c0 19       		.byte	0x19
 1233 05c1 D4050000 		.4byte	0x5d4
 1234 05c5 1C       		.byte	0x1c
 1235 05c6 08       		.uleb128 0x8
 1236 05c7 13070000 		.4byte	.LASF83
 1237 05cb 0D       		.byte	0xd
 1238 05cc 47       		.byte	0x47
 1239 05cd 1A       		.byte	0x1a
 1240 05ce 72020000 		.4byte	0x272
 1241 05d2 20       		.byte	0x20
 1242 05d3 00       		.byte	0
 1243 05d4 03       		.uleb128 0x3
 1244 05d5 B6040000 		.4byte	.LASF84
 1245 05d9 0D       		.byte	0xd
 1246 05da 33       		.byte	0x33
 1247 05db 10       		.byte	0x10
 1248 05dc E0050000 		.4byte	0x5e0
 1249 05e0 0B       		.uleb128 0xb
 1250 05e1 04       		.byte	0x4
 1251 05e2 E6050000 		.4byte	0x5e6
 1252 05e6 0D       		.uleb128 0xd
 1253 05e7 F1050000 		.4byte	0x5f1
 1254 05eb 0E       		.uleb128 0xe
ARM GAS  /var/folders/l5/0x54b2c10074c8bt31ycjvl80000gp/T//ccPV8Vrh.s 			page 23


 1255 05ec F1050000 		.4byte	0x5f1
 1256 05f0 00       		.byte	0
 1257 05f1 0B       		.uleb128 0xb
 1258 05f2 04       		.byte	0x4
 1259 05f3 52050000 		.4byte	0x552
 1260 05f7 0B       		.uleb128 0xb
 1261 05f8 04       		.byte	0x4
 1262 05f9 99000000 		.4byte	0x99
 1263 05fd 03       		.uleb128 0x3
 1264 05fe BE030000 		.4byte	.LASF85
 1265 0602 0D       		.byte	0xd
 1266 0603 7B       		.byte	0x7b
 1267 0604 16       		.byte	0x16
 1268 0605 52050000 		.4byte	0x552
 1269 0609 03       		.uleb128 0x3
 1270 060a 0E000000 		.4byte	.LASF86
 1271 060e 0D       		.byte	0xd
 1272 060f EE       		.byte	0xee
 1273 0610 16       		.byte	0x16
 1274 0611 52050000 		.4byte	0x552
 1275 0615 12       		.uleb128 0x12
 1276 0616 2C000000 		.4byte	0x2c
 1277 061a 2E060000 		.4byte	0x62e
 1278 061e 0E       		.uleb128 0xe
 1279 061f 72020000 		.4byte	0x272
 1280 0623 0E       		.uleb128 0xe
 1281 0624 2E060000 		.4byte	0x62e
 1282 0628 0E       		.uleb128 0xe
 1283 0629 2C000000 		.4byte	0x2c
 1284 062d 00       		.byte	0
 1285 062e 0B       		.uleb128 0xb
 1286 062f 04       		.byte	0x4
 1287 0630 A5000000 		.4byte	0xa5
 1288 0634 0B       		.uleb128 0xb
 1289 0635 04       		.byte	0x4
 1290 0636 15060000 		.4byte	0x615
 1291 063a 12       		.uleb128 0x12
 1292 063b 2C000000 		.4byte	0x2c
 1293 063f 53060000 		.4byte	0x653
 1294 0643 0E       		.uleb128 0xe
 1295 0644 72020000 		.4byte	0x272
 1296 0648 0E       		.uleb128 0xe
 1297 0649 F7050000 		.4byte	0x5f7
 1298 064d 0E       		.uleb128 0xe
 1299 064e 2C000000 		.4byte	0x2c
 1300 0652 00       		.byte	0
 1301 0653 0B       		.uleb128 0xb
 1302 0654 04       		.byte	0x4
 1303 0655 3A060000 		.4byte	0x63a
 1304 0659 12       		.uleb128 0x12
 1305 065a 16010000 		.4byte	0x116
 1306 065e 6D060000 		.4byte	0x66d
 1307 0662 0E       		.uleb128 0xe
 1308 0663 72020000 		.4byte	0x272
 1309 0667 0E       		.uleb128 0xe
 1310 0668 99000000 		.4byte	0x99
 1311 066c 00       		.byte	0
ARM GAS  /var/folders/l5/0x54b2c10074c8bt31ycjvl80000gp/T//ccPV8Vrh.s 			page 24


 1312 066d 0B       		.uleb128 0xb
 1313 066e 04       		.byte	0x4
 1314 066f 59060000 		.4byte	0x659
 1315 0673 13       		.uleb128 0x13
 1316 0674 5A020000 		.4byte	0x25a
 1317 0678 83060000 		.4byte	0x683
 1318 067c 14       		.uleb128 0x14
 1319 067d 38000000 		.4byte	0x38
 1320 0681 1F       		.byte	0x1f
 1321 0682 00       		.byte	0
 1322 0683 0F       		.uleb128 0xf
 1323 0684 46010000 		.4byte	.LASF87
 1324 0688 0E       		.byte	0xe
 1325 0689 82       		.byte	0x82
 1326 068a 08       		.byte	0x8
 1327 068b 73060000 		.4byte	0x673
 1328 068f 07       		.uleb128 0x7
 1329 0690 2B000000 		.4byte	.LASF88
 1330 0694 20       		.byte	0x20
 1331 0695 0F       		.byte	0xf
 1332 0696 FD       		.byte	0xfd
 1333 0697 08       		.byte	0x8
 1334 0698 0B070000 		.4byte	0x70b
 1335 069c 08       		.uleb128 0x8
 1336 069d 62010000 		.4byte	.LASF89
 1337 06a1 0F       		.byte	0xf
 1338 06a2 FE       		.byte	0xfe
 1339 06a3 19       		.byte	0x19
 1340 06a4 E1000000 		.4byte	0xe1
 1341 06a8 00       		.byte	0
 1342 06a9 08       		.uleb128 0x8
 1343 06aa AF060000 		.4byte	.LASF90
 1344 06ae 0F       		.byte	0xf
 1345 06af FF       		.byte	0xff
 1346 06b0 19       		.byte	0x19
 1347 06b1 E1000000 		.4byte	0xe1
 1348 06b5 04       		.byte	0x4
 1349 06b6 15       		.uleb128 0x15
 1350 06b7 3B010000 		.4byte	.LASF91
 1351 06bb 0F       		.byte	0xf
 1352 06bc 0001     		.2byte	0x100
 1353 06be 19       		.byte	0x19
 1354 06bf E1000000 		.4byte	0xe1
 1355 06c3 08       		.byte	0x8
 1356 06c4 15       		.uleb128 0x15
 1357 06c5 8B010000 		.4byte	.LASF92
 1358 06c9 0F       		.byte	0xf
 1359 06ca 0101     		.2byte	0x101
 1360 06cc 19       		.byte	0x19
 1361 06cd E1000000 		.4byte	0xe1
 1362 06d1 0C       		.byte	0xc
 1363 06d2 15       		.uleb128 0x15
 1364 06d3 6F000000 		.4byte	.LASF93
 1365 06d7 0F       		.byte	0xf
 1366 06d8 0201     		.2byte	0x102
 1367 06da 19       		.byte	0x19
 1368 06db E1000000 		.4byte	0xe1
ARM GAS  /var/folders/l5/0x54b2c10074c8bt31ycjvl80000gp/T//ccPV8Vrh.s 			page 25


 1369 06df 10       		.byte	0x10
 1370 06e0 15       		.uleb128 0x15
 1371 06e1 17040000 		.4byte	.LASF94
 1372 06e5 0F       		.byte	0xf
 1373 06e6 0301     		.2byte	0x103
 1374 06e8 19       		.byte	0x19
 1375 06e9 E1000000 		.4byte	0xe1
 1376 06ed 14       		.byte	0x14
 1377 06ee 15       		.uleb128 0x15
 1378 06ef 11010000 		.4byte	.LASF95
 1379 06f3 0F       		.byte	0xf
 1380 06f4 0401     		.2byte	0x104
 1381 06f6 19       		.byte	0x19
 1382 06f7 E1000000 		.4byte	0xe1
 1383 06fb 18       		.byte	0x18
 1384 06fc 15       		.uleb128 0x15
 1385 06fd 57070000 		.4byte	.LASF96
 1386 0701 0F       		.byte	0xf
 1387 0702 0501     		.2byte	0x105
 1388 0704 19       		.byte	0x19
 1389 0705 E1000000 		.4byte	0xe1
 1390 0709 1C       		.byte	0x1c
 1391 070a 00       		.byte	0
 1392 070b 16       		.uleb128 0x16
 1393 070c 2B000000 		.4byte	.LASF88
 1394 0710 0F       		.byte	0xf
 1395 0711 0801     		.2byte	0x108
 1396 0713 1C       		.byte	0x1c
 1397 0714 8F060000 		.4byte	0x68f
 1398 0718 12       		.uleb128 0x12
 1399 0719 16010000 		.4byte	0x116
 1400 071d 31070000 		.4byte	0x731
 1401 0721 0E       		.uleb128 0xe
 1402 0722 72020000 		.4byte	0x272
 1403 0726 0E       		.uleb128 0xe
 1404 0727 99000000 		.4byte	0x99
 1405 072b 0E       		.uleb128 0xe
 1406 072c 3A010000 		.4byte	0x13a
 1407 0730 00       		.byte	0
 1408 0731 0B       		.uleb128 0xb
 1409 0732 04       		.byte	0x4
 1410 0733 18070000 		.4byte	0x718
 1411 0737 12       		.uleb128 0x12
 1412 0738 16010000 		.4byte	0x116
 1413 073c 4B070000 		.4byte	0x74b
 1414 0740 0E       		.uleb128 0xe
 1415 0741 72020000 		.4byte	0x272
 1416 0745 0E       		.uleb128 0xe
 1417 0746 3A010000 		.4byte	0x13a
 1418 074a 00       		.byte	0
 1419 074b 0B       		.uleb128 0xb
 1420 074c 04       		.byte	0x4
 1421 074d 37070000 		.4byte	0x737
 1422 0751 12       		.uleb128 0x12
 1423 0752 2C000000 		.4byte	0x2c
 1424 0756 6F070000 		.4byte	0x76f
 1425 075a 0E       		.uleb128 0xe
ARM GAS  /var/folders/l5/0x54b2c10074c8bt31ycjvl80000gp/T//ccPV8Vrh.s 			page 26


 1426 075b 72020000 		.4byte	0x272
 1427 075f 0E       		.uleb128 0xe
 1428 0760 2E060000 		.4byte	0x62e
 1429 0764 0E       		.uleb128 0xe
 1430 0765 2C000000 		.4byte	0x2c
 1431 0769 0E       		.uleb128 0xe
 1432 076a 3A010000 		.4byte	0x13a
 1433 076e 00       		.byte	0
 1434 076f 0B       		.uleb128 0xb
 1435 0770 04       		.byte	0x4
 1436 0771 51070000 		.4byte	0x751
 1437 0775 12       		.uleb128 0x12
 1438 0776 2C000000 		.4byte	0x2c
 1439 077a 93070000 		.4byte	0x793
 1440 077e 0E       		.uleb128 0xe
 1441 077f 72020000 		.4byte	0x272
 1442 0783 0E       		.uleb128 0xe
 1443 0784 F7050000 		.4byte	0x5f7
 1444 0788 0E       		.uleb128 0xe
 1445 0789 2C000000 		.4byte	0x2c
 1446 078d 0E       		.uleb128 0xe
 1447 078e 3A010000 		.4byte	0x13a
 1448 0792 00       		.byte	0
 1449 0793 0B       		.uleb128 0xb
 1450 0794 04       		.byte	0x4
 1451 0795 75070000 		.4byte	0x775
 1452 0799 0A       		.uleb128 0xa
 1453 079a 18       		.byte	0x18
 1454 079b 10       		.byte	0x10
 1455 079c 2A       		.byte	0x2a
 1456 079d 09       		.byte	0x9
 1457 079e F1070000 		.4byte	0x7f1
 1458 07a2 08       		.uleb128 0x8
 1459 07a3 E4060000 		.4byte	.LASF97
 1460 07a7 10       		.byte	0x10
 1461 07a8 2F       		.byte	0x2f
 1462 07a9 15       		.byte	0x15
 1463 07aa C2000000 		.4byte	0xc2
 1464 07ae 00       		.byte	0
 1465 07af 08       		.uleb128 0x8
 1466 07b0 83040000 		.4byte	.LASF98
 1467 07b4 10       		.byte	0x10
 1468 07b5 31       		.byte	0x31
 1469 07b6 16       		.byte	0x16
 1470 07b7 F1070000 		.4byte	0x7f1
 1471 07bb 04       		.byte	0x4
 1472 07bc 08       		.uleb128 0x8
 1473 07bd 0B030000 		.4byte	.LASF99
 1474 07c1 10       		.byte	0x10
 1475 07c2 32       		.byte	0x32
 1476 07c3 16       		.byte	0x16
 1477 07c4 F1070000 		.4byte	0x7f1
 1478 07c8 08       		.byte	0x8
 1479 07c9 08       		.uleb128 0x8
 1480 07ca FB030000 		.4byte	.LASF100
 1481 07ce 10       		.byte	0x10
 1482 07cf 33       		.byte	0x33
ARM GAS  /var/folders/l5/0x54b2c10074c8bt31ycjvl80000gp/T//ccPV8Vrh.s 			page 27


 1483 07d0 16       		.byte	0x16
 1484 07d1 F1070000 		.4byte	0x7f1
 1485 07d5 0C       		.byte	0xc
 1486 07d6 08       		.uleb128 0x8
 1487 07d7 89040000 		.4byte	.LASF101
 1488 07db 10       		.byte	0x10
 1489 07dc 34       		.byte	0x34
 1490 07dd 16       		.byte	0x16
 1491 07de F1070000 		.4byte	0x7f1
 1492 07e2 10       		.byte	0x10
 1493 07e3 08       		.uleb128 0x8
 1494 07e4 40050000 		.4byte	.LASF102
 1495 07e8 10       		.byte	0x10
 1496 07e9 35       		.byte	0x35
 1497 07ea 10       		.byte	0x10
 1498 07eb DA000000 		.4byte	0xda
 1499 07ef 14       		.byte	0x14
 1500 07f0 00       		.byte	0
 1501 07f1 0B       		.uleb128 0xb
 1502 07f2 04       		.byte	0x4
 1503 07f3 CE000000 		.4byte	0xce
 1504 07f7 03       		.uleb128 0x3
 1505 07f8 FF020000 		.4byte	.LASF103
 1506 07fc 10       		.byte	0x10
 1507 07fd 37       		.byte	0x37
 1508 07fe 03       		.byte	0x3
 1509 07ff 99070000 		.4byte	0x799
 1510 0803 17       		.uleb128 0x17
 1511 0804 00       		.byte	0
 1512 0805 10       		.byte	0x10
 1513 0806 43       		.byte	0x43
 1514 0807 09       		.byte	0x9
 1515 0808 03       		.uleb128 0x3
 1516 0809 1A070000 		.4byte	.LASF104
 1517 080d 10       		.byte	0x10
 1518 080e 45       		.byte	0x45
 1519 080f 03       		.byte	0x3
 1520 0810 03080000 		.4byte	0x803
 1521 0814 04       		.uleb128 0x4
 1522 0815 08080000 		.4byte	0x808
 1523 0819 03       		.uleb128 0x3
 1524 081a 37000000 		.4byte	.LASF105
 1525 081e 10       		.byte	0x10
 1526 081f 55       		.byte	0x55
 1527 0820 12       		.byte	0x12
 1528 0821 C2000000 		.4byte	0xc2
 1529 0825 03       		.uleb128 0x3
 1530 0826 3B060000 		.4byte	.LASF106
 1531 082a 10       		.byte	0x10
 1532 082b 62       		.byte	0x62
 1533 082c 16       		.byte	0x16
 1534 082d 31080000 		.4byte	0x831
 1535 0831 0B       		.uleb128 0xb
 1536 0832 04       		.byte	0x4
 1537 0833 F7070000 		.4byte	0x7f7
 1538 0837 0F       		.uleb128 0xf
 1539 0838 69040000 		.4byte	.LASF107
ARM GAS  /var/folders/l5/0x54b2c10074c8bt31ycjvl80000gp/T//ccPV8Vrh.s 			page 28


 1540 083c 10       		.byte	0x10
 1541 083d 6D       		.byte	0x6d
 1542 083e 14       		.byte	0x14
 1543 083f F7070000 		.4byte	0x7f7
 1544 0843 0F       		.uleb128 0xf
 1545 0844 57050000 		.4byte	.LASF108
 1546 0848 10       		.byte	0x10
 1547 0849 6E       		.byte	0x6e
 1548 084a 14       		.byte	0x14
 1549 084b F7070000 		.4byte	0x7f7
 1550 084f 0F       		.uleb128 0xf
 1551 0850 2C070000 		.4byte	.LASF109
 1552 0854 10       		.byte	0x10
 1553 0855 75       		.byte	0x75
 1554 0856 18       		.byte	0x18
 1555 0857 14080000 		.4byte	0x814
 1556 085b 18       		.uleb128 0x18
 1557 085c 07       		.byte	0x7
 1558 085d 04       		.byte	0x4
 1559 085e DA000000 		.4byte	0xda
 1560 0862 11       		.byte	0x11
 1561 0863 54       		.byte	0x54
 1562 0864 0E       		.byte	0xe
 1563 0865 8E080000 		.4byte	0x88e
 1564 0869 19       		.uleb128 0x19
 1565 086a D8000000 		.4byte	.LASF110
 1566 086e 00       		.byte	0
 1567 086f 19       		.uleb128 0x19
 1568 0870 0E040000 		.4byte	.LASF111
 1569 0874 01       		.byte	0x1
 1570 0875 19       		.uleb128 0x19
 1571 0876 27060000 		.4byte	.LASF112
 1572 087a 02       		.byte	0x2
 1573 087b 19       		.uleb128 0x19
 1574 087c 2D010000 		.4byte	.LASF113
 1575 0880 03       		.byte	0x3
 1576 0881 19       		.uleb128 0x19
 1577 0882 CF030000 		.4byte	.LASF114
 1578 0886 04       		.byte	0x4
 1579 0887 19       		.uleb128 0x19
 1580 0888 6E050000 		.4byte	.LASF115
 1581 088c 05       		.byte	0x5
 1582 088d 00       		.byte	0
 1583 088e 03       		.uleb128 0x3
 1584 088f AB040000 		.4byte	.LASF116
 1585 0893 11       		.byte	0x11
 1586 0894 5B       		.byte	0x5b
 1587 0895 03       		.byte	0x3
 1588 0896 5B080000 		.4byte	0x85b
 1589 089a 03       		.uleb128 0x3
 1590 089b 31060000 		.4byte	.LASF117
 1591 089f 12       		.byte	0x12
 1592 08a0 38       		.byte	0x38
 1593 08a1 1A       		.byte	0x1a
 1594 08a2 A6080000 		.4byte	0x8a6
 1595 08a6 07       		.uleb128 0x7
 1596 08a7 31060000 		.4byte	.LASF117
ARM GAS  /var/folders/l5/0x54b2c10074c8bt31ycjvl80000gp/T//ccPV8Vrh.s 			page 29


 1597 08ab 40       		.byte	0x40
 1598 08ac 12       		.byte	0x12
 1599 08ad 62       		.byte	0x62
 1600 08ae 08       		.byte	0x8
 1601 08af 5D090000 		.4byte	0x95d
 1602 08b3 08       		.uleb128 0x8
 1603 08b4 ED000000 		.4byte	.LASF118
 1604 08b8 12       		.byte	0x12
 1605 08b9 64       		.byte	0x64
 1606 08ba 1D       		.byte	0x1d
 1607 08bb 8E080000 		.4byte	0x88e
 1608 08bf 00       		.byte	0
 1609 08c0 08       		.uleb128 0x8
 1610 08c1 EF050000 		.4byte	.LASF119
 1611 08c5 12       		.byte	0x12
 1612 08c6 66       		.byte	0x66
 1613 08c7 1E       		.byte	0x1e
 1614 08c8 9D090000 		.4byte	0x99d
 1615 08cc 04       		.byte	0x4
 1616 08cd 08       		.uleb128 0x8
 1617 08ce B8020000 		.4byte	.LASF120
 1618 08d2 12       		.byte	0x12
 1619 08d3 68       		.byte	0x68
 1620 08d4 1D       		.byte	0x1d
 1621 08d5 5D090000 		.4byte	0x95d
 1622 08d9 08       		.byte	0x8
 1623 08da 08       		.uleb128 0x8
 1624 08db 85000000 		.4byte	.LASF121
 1625 08df 12       		.byte	0x12
 1626 08e0 6A       		.byte	0x6a
 1627 08e1 1E       		.byte	0x1e
 1628 08e2 A3090000 		.4byte	0x9a3
 1629 08e6 0C       		.byte	0xc
 1630 08e7 08       		.uleb128 0x8
 1631 08e8 E2040000 		.4byte	.LASF122
 1632 08ec 12       		.byte	0x12
 1633 08ed 6D       		.byte	0x6d
 1634 08ee 1D       		.byte	0x1d
 1635 08ef 76040000 		.4byte	0x476
 1636 08f3 10       		.byte	0x10
 1637 08f4 08       		.uleb128 0x8
 1638 08f5 0A010000 		.4byte	.LASF123
 1639 08f9 12       		.byte	0x12
 1640 08fa 77       		.byte	0x77
 1641 08fb 1E       		.byte	0x1e
 1642 08fc 25020000 		.4byte	0x225
 1643 0900 20       		.byte	0x20
 1644 0901 08       		.uleb128 0x8
 1645 0902 5B000000 		.4byte	.LASF124
 1646 0906 12       		.byte	0x12
 1647 0907 7B       		.byte	0x7b
 1648 0908 1D       		.byte	0x1d
 1649 0909 69090000 		.4byte	0x969
 1650 090d 24       		.byte	0x24
 1651 090e 08       		.uleb128 0x8
 1652 090f A2020000 		.4byte	.LASF125
 1653 0913 12       		.byte	0x12
ARM GAS  /var/folders/l5/0x54b2c10074c8bt31ycjvl80000gp/T//ccPV8Vrh.s 			page 30


 1654 0914 7F       		.byte	0x7f
 1655 0915 1E       		.byte	0x1e
 1656 0916 2E060000 		.4byte	0x62e
 1657 091a 28       		.byte	0x28
 1658 091b 08       		.uleb128 0x8
 1659 091c 4F070000 		.4byte	.LASF126
 1660 0920 12       		.byte	0x12
 1661 0921 83       		.byte	0x83
 1662 0922 1D       		.byte	0x1d
 1663 0923 2C000000 		.4byte	0x2c
 1664 0927 2C       		.byte	0x2c
 1665 0928 08       		.uleb128 0x8
 1666 0929 9B060000 		.4byte	.LASF127
 1667 092d 12       		.byte	0x12
 1668 092e 87       		.byte	0x87
 1669 092f 1D       		.byte	0x1d
 1670 0930 2C000000 		.4byte	0x2c
 1671 0934 30       		.byte	0x30
 1672 0935 08       		.uleb128 0x8
 1673 0936 69000000 		.4byte	.LASF128
 1674 093a 12       		.byte	0x12
 1675 093b 8B       		.byte	0x8b
 1676 093c 1E       		.byte	0x1e
 1677 093d F7050000 		.4byte	0x5f7
 1678 0941 34       		.byte	0x34
 1679 0942 08       		.uleb128 0x8
 1680 0943 46040000 		.4byte	.LASF129
 1681 0947 12       		.byte	0x12
 1682 0948 8F       		.byte	0x8f
 1683 0949 1D       		.byte	0x1d
 1684 094a 2C000000 		.4byte	0x2c
 1685 094e 38       		.byte	0x38
 1686 094f 08       		.uleb128 0x8
 1687 0950 A5040000 		.4byte	.LASF130
 1688 0954 12       		.byte	0x12
 1689 0955 93       		.byte	0x93
 1690 0956 1D       		.byte	0x1d
 1691 0957 2C000000 		.4byte	0x2c
 1692 095b 3C       		.byte	0x3c
 1693 095c 00       		.byte	0
 1694 095d 03       		.uleb128 0x3
 1695 095e D7040000 		.4byte	.LASF131
 1696 0962 12       		.byte	0x12
 1697 0963 42       		.byte	0x42
 1698 0964 12       		.byte	0x12
 1699 0965 C2000000 		.4byte	0xc2
 1700 0969 03       		.uleb128 0x3
 1701 096a E3000000 		.4byte	.LASF132
 1702 096e 12       		.byte	0x12
 1703 096f 48       		.byte	0x48
 1704 0970 12       		.byte	0x12
 1705 0971 AA000000 		.4byte	0xaa
 1706 0975 0A       		.uleb128 0xa
 1707 0976 04       		.byte	0x4
 1708 0977 12       		.byte	0x12
 1709 0978 57       		.byte	0x57
 1710 0979 09       		.byte	0x9
ARM GAS  /var/folders/l5/0x54b2c10074c8bt31ycjvl80000gp/T//ccPV8Vrh.s 			page 31


 1711 097a 8C090000 		.4byte	0x98c
 1712 097e 08       		.uleb128 0x8
 1713 097f 36040000 		.4byte	.LASF133
 1714 0983 12       		.byte	0x12
 1715 0984 59       		.byte	0x59
 1716 0985 1D       		.byte	0x1d
 1717 0986 C2000000 		.4byte	0xc2
 1718 098a 00       		.byte	0
 1719 098b 00       		.byte	0
 1720 098c 03       		.uleb128 0x3
 1721 098d 87060000 		.4byte	.LASF134
 1722 0991 12       		.byte	0x12
 1723 0992 5B       		.byte	0x5b
 1724 0993 03       		.byte	0x3
 1725 0994 75090000 		.4byte	0x975
 1726 0998 04       		.uleb128 0x4
 1727 0999 8C090000 		.4byte	0x98c
 1728 099d 0B       		.uleb128 0xb
 1729 099e 04       		.byte	0x4
 1730 099f 98090000 		.4byte	0x998
 1731 09a3 0B       		.uleb128 0xb
 1732 09a4 04       		.byte	0x4
 1733 09a5 0B070000 		.4byte	0x70b
 1734 09a9 0F       		.uleb128 0xf
 1735 09aa 77020000 		.4byte	.LASF135
 1736 09ae 12       		.byte	0x12
 1737 09af A6       		.byte	0xa6
 1738 09b0 12       		.byte	0x12
 1739 09b1 9A080000 		.4byte	0x89a
 1740 09b5 18       		.uleb128 0x18
 1741 09b6 07       		.byte	0x7
 1742 09b7 04       		.byte	0x4
 1743 09b8 DA000000 		.4byte	0xda
 1744 09bc 13       		.byte	0x13
 1745 09bd 5D       		.byte	0x5d
 1746 09be 0E       		.byte	0xe
 1747 09bf D6090000 		.4byte	0x9d6
 1748 09c3 19       		.uleb128 0x19
 1749 09c4 84050000 		.4byte	.LASF136
 1750 09c8 00       		.byte	0
 1751 09c9 19       		.uleb128 0x19
 1752 09ca B0000000 		.4byte	.LASF137
 1753 09ce 01       		.byte	0x1
 1754 09cf 19       		.uleb128 0x19
 1755 09d0 6B060000 		.4byte	.LASF138
 1756 09d4 02       		.byte	0x2
 1757 09d5 00       		.byte	0
 1758 09d6 03       		.uleb128 0x3
 1759 09d7 91060000 		.4byte	.LASF139
 1760 09db 13       		.byte	0x13
 1761 09dc 61       		.byte	0x61
 1762 09dd 03       		.byte	0x3
 1763 09de B5090000 		.4byte	0x9b5
 1764 09e2 03       		.uleb128 0x3
 1765 09e3 AC050000 		.4byte	.LASF140
 1766 09e7 13       		.byte	0x13
 1767 09e8 66       		.byte	0x66
ARM GAS  /var/folders/l5/0x54b2c10074c8bt31ycjvl80000gp/T//ccPV8Vrh.s 			page 32


 1768 09e9 1D       		.byte	0x1d
 1769 09ea EE090000 		.4byte	0x9ee
 1770 09ee 07       		.uleb128 0x7
 1771 09ef AC050000 		.4byte	.LASF140
 1772 09f3 74       		.byte	0x74
 1773 09f4 13       		.byte	0x13
 1774 09f5 80       		.byte	0x80
 1775 09f6 08       		.byte	0x8
 1776 09f7 550A0000 		.4byte	0xa55
 1777 09fb 09       		.uleb128 0x9
 1778 09fc 766D7400 		.ascii	"vmt\000"
 1779 0a00 13       		.byte	0x13
 1780 0a01 82       		.byte	0x82
 1781 0a02 21       		.byte	0x21
 1782 0a03 DC0A0000 		.4byte	0xadc
 1783 0a07 00       		.byte	0
 1784 0a08 08       		.uleb128 0x8
 1785 0a09 E6020000 		.4byte	.LASF141
 1786 0a0d 13       		.byte	0x13
 1787 0a0e 83       		.byte	0x83
 1788 0a0f 03       		.byte	0x3
 1789 0a10 F1040000 		.4byte	0x4f1
 1790 0a14 04       		.byte	0x4
 1791 0a15 08       		.uleb128 0x8
 1792 0a16 ED000000 		.4byte	.LASF118
 1793 0a1a 13       		.byte	0x13
 1794 0a1b 83       		.byte	0x83
 1795 0a1c 03       		.byte	0x3
 1796 0a1d D6090000 		.4byte	0x9d6
 1797 0a21 08       		.byte	0x8
 1798 0a22 08       		.uleb128 0x8
 1799 0a23 BF020000 		.4byte	.LASF142
 1800 0a27 13       		.byte	0x13
 1801 0a28 83       		.byte	0x83
 1802 0a29 03       		.byte	0x3
 1803 0a2a FD050000 		.4byte	0x5fd
 1804 0a2e 0C       		.byte	0xc
 1805 0a2f 08       		.uleb128 0x8
 1806 0a30 17030000 		.4byte	.LASF143
 1807 0a34 13       		.byte	0x13
 1808 0a35 83       		.byte	0x83
 1809 0a36 03       		.byte	0x3
 1810 0a37 09060000 		.4byte	0x609
 1811 0a3b 30       		.byte	0x30
 1812 0a3c 09       		.uleb128 0x9
 1813 0a3d 696200   		.ascii	"ib\000"
 1814 0a40 13       		.byte	0x13
 1815 0a41 83       		.byte	0x83
 1816 0a42 03       		.byte	0x3
 1817 0a43 E20A0000 		.4byte	0xae2
 1818 0a47 54       		.byte	0x54
 1819 0a48 09       		.uleb128 0x9
 1820 0a49 6F6200   		.ascii	"ob\000"
 1821 0a4c 13       		.byte	0x13
 1822 0a4d 83       		.byte	0x83
 1823 0a4e 03       		.byte	0x3
 1824 0a4f E20A0000 		.4byte	0xae2
ARM GAS  /var/folders/l5/0x54b2c10074c8bt31ycjvl80000gp/T//ccPV8Vrh.s 			page 33


 1825 0a53 64       		.byte	0x64
 1826 0a54 00       		.byte	0
 1827 0a55 1A       		.uleb128 0x1a
 1828 0a56 53443100 		.ascii	"SD1\000"
 1829 0a5a 14       		.byte	0x14
 1830 0a5b 62       		.byte	0x62
 1831 0a5c 15       		.byte	0x15
 1832 0a5d E2090000 		.4byte	0x9e2
 1833 0a61 07       		.uleb128 0x7
 1834 0a62 A8020000 		.4byte	.LASF144
 1835 0a66 20       		.byte	0x20
 1836 0a67 13       		.byte	0x13
 1837 0a68 75       		.byte	0x75
 1838 0a69 08       		.byte	0x8
 1839 0a6a D70A0000 		.4byte	0xad7
 1840 0a6e 08       		.uleb128 0x8
 1841 0a6f F5030000 		.4byte	.LASF145
 1842 0a73 13       		.byte	0x13
 1843 0a74 76       		.byte	0x76
 1844 0a75 03       		.byte	0x3
 1845 0a76 34060000 		.4byte	0x634
 1846 0a7a 00       		.byte	0
 1847 0a7b 08       		.uleb128 0x8
 1848 0a7c E5050000 		.4byte	.LASF146
 1849 0a80 13       		.byte	0x13
 1850 0a81 76       		.byte	0x76
 1851 0a82 03       		.byte	0x3
 1852 0a83 53060000 		.4byte	0x653
 1853 0a87 04       		.byte	0x4
 1854 0a88 09       		.uleb128 0x9
 1855 0a89 70757400 		.ascii	"put\000"
 1856 0a8d 13       		.byte	0x13
 1857 0a8e 76       		.byte	0x76
 1858 0a8f 03       		.byte	0x3
 1859 0a90 6D060000 		.4byte	0x66d
 1860 0a94 08       		.byte	0x8
 1861 0a95 09       		.uleb128 0x9
 1862 0a96 67657400 		.ascii	"get\000"
 1863 0a9a 13       		.byte	0x13
 1864 0a9b 76       		.byte	0x76
 1865 0a9c 03       		.byte	0x3
 1866 0a9d 3D050000 		.4byte	0x53d
 1867 0aa1 0C       		.byte	0xc
 1868 0aa2 08       		.uleb128 0x8
 1869 0aa3 01040000 		.4byte	.LASF147
 1870 0aa7 13       		.byte	0x13
 1871 0aa8 76       		.byte	0x76
 1872 0aa9 03       		.byte	0x3
 1873 0aaa 31070000 		.4byte	0x731
 1874 0aae 10       		.byte	0x10
 1875 0aaf 08       		.uleb128 0x8
 1876 0ab0 D8020000 		.4byte	.LASF148
 1877 0ab4 13       		.byte	0x13
 1878 0ab5 76       		.byte	0x76
 1879 0ab6 03       		.byte	0x3
 1880 0ab7 4B070000 		.4byte	0x74b
 1881 0abb 14       		.byte	0x14
ARM GAS  /var/folders/l5/0x54b2c10074c8bt31ycjvl80000gp/T//ccPV8Vrh.s 			page 34


 1882 0abc 08       		.uleb128 0x8
 1883 0abd 84030000 		.4byte	.LASF149
 1884 0ac1 13       		.byte	0x13
 1885 0ac2 76       		.byte	0x76
 1886 0ac3 03       		.byte	0x3
 1887 0ac4 6F070000 		.4byte	0x76f
 1888 0ac8 18       		.byte	0x18
 1889 0ac9 08       		.uleb128 0x8
 1890 0aca 7F000000 		.4byte	.LASF150
 1891 0ace 13       		.byte	0x13
 1892 0acf 76       		.byte	0x76
 1893 0ad0 03       		.byte	0x3
 1894 0ad1 93070000 		.4byte	0x793
 1895 0ad5 1C       		.byte	0x1c
 1896 0ad6 00       		.byte	0
 1897 0ad7 04       		.uleb128 0x4
 1898 0ad8 610A0000 		.4byte	0xa61
 1899 0adc 0B       		.uleb128 0xb
 1900 0add 04       		.byte	0x4
 1901 0ade D70A0000 		.4byte	0xad7
 1902 0ae2 13       		.uleb128 0x13
 1903 0ae3 99000000 		.4byte	0x99
 1904 0ae7 F20A0000 		.4byte	0xaf2
 1905 0aeb 14       		.uleb128 0x14
 1906 0aec 38000000 		.4byte	0x38
 1907 0af0 0F       		.byte	0xf
 1908 0af1 00       		.byte	0
 1909 0af2 1B       		.uleb128 0x1b
 1910 0af3 37080000 		.4byte	0x837
 1911 0af7 01       		.byte	0x1
 1912 0af8 2B       		.byte	0x2b
 1913 0af9 0D       		.byte	0xd
 1914 0afa 05       		.uleb128 0x5
 1915 0afb 03       		.byte	0x3
 1916 0afc 00000000 		.4byte	IOPORT0
 1917 0b00 1B       		.uleb128 0x1b
 1918 0b01 43080000 		.4byte	0x843
 1919 0b05 01       		.byte	0x1
 1920 0b06 2C       		.byte	0x2c
 1921 0b07 0D       		.byte	0xd
 1922 0b08 05       		.uleb128 0x5
 1923 0b09 03       		.byte	0x3
 1924 0b0a 00000000 		.4byte	IOPORT1
 1925 0b0e 1C       		.uleb128 0x1c
 1926 0b0f 93030000 		.4byte	.LASF153
 1927 0b13 01       		.byte	0x1
 1928 0b14 80       		.byte	0x80
 1929 0b15 06       		.byte	0x6
 1930 0b16 00000000 		.4byte	.LFB11
 1931 0b1a 1C000000 		.4byte	.LFE11-.LFB11
 1932 0b1e 01       		.uleb128 0x1
 1933 0b1f 9C       		.byte	0x9c
 1934 0b20 410B0000 		.4byte	0xb41
 1935 0b24 1D       		.uleb128 0x1d
 1936 0b25 7C020000 		.4byte	.LASF151
 1937 0b29 01       		.byte	0x1
 1938 0b2a 80       		.byte	0x80
ARM GAS  /var/folders/l5/0x54b2c10074c8bt31ycjvl80000gp/T//ccPV8Vrh.s 			page 35


 1939 0b2b 24       		.byte	0x24
 1940 0b2c 25080000 		.4byte	0x825
 1941 0b30 01       		.uleb128 0x1
 1942 0b31 50       		.byte	0x50
 1943 0b32 1D       		.uleb128 0x1d
 1944 0b33 F3000000 		.4byte	.LASF152
 1945 0b37 01       		.byte	0x1
 1946 0b38 80       		.byte	0x80
 1947 0b39 37       		.byte	0x37
 1948 0b3a 19080000 		.4byte	0x819
 1949 0b3e 01       		.uleb128 0x1
 1950 0b3f 51       		.byte	0x51
 1951 0b40 00       		.byte	0
 1952 0b41 1C       		.uleb128 0x1c
 1953 0b42 4E060000 		.4byte	.LASF154
 1954 0b46 01       		.byte	0x1
 1955 0b47 64       		.byte	0x64
 1956 0b48 06       		.byte	0x6
 1957 0b49 00000000 		.4byte	.LFB10
 1958 0b4d C8000000 		.4byte	.LFE10-.LFB10
 1959 0b51 01       		.uleb128 0x1
 1960 0b52 9C       		.byte	0x9c
 1961 0b53 AD0C0000 		.4byte	0xcad
 1962 0b57 1E       		.uleb128 0x1e
 1963 0b58 7C020000 		.4byte	.LASF151
 1964 0b5c 01       		.byte	0x1
 1965 0b5d 64       		.byte	0x64
 1966 0b5e 27       		.byte	0x27
 1967 0b5f 25080000 		.4byte	0x825
 1968 0b63 1C000000 		.4byte	.LLST6
 1969 0b67 00000000 		.4byte	.LVUS6
 1970 0b6b 1E       		.uleb128 0x1e
 1971 0b6c 75010000 		.4byte	.LASF155
 1972 0b70 01       		.byte	0x1
 1973 0b71 64       		.byte	0x64
 1974 0b72 3A       		.byte	0x3a
 1975 0b73 19080000 		.4byte	0x819
 1976 0b77 E9000000 		.4byte	.LLST7
 1977 0b7b CD000000 		.4byte	.LVUS7
 1978 0b7f 1E       		.uleb128 0x1e
 1979 0b80 EA050000 		.4byte	.LASF156
 1980 0b84 01       		.byte	0x1
 1981 0b85 64       		.byte	0x64
 1982 0b86 49       		.byte	0x49
 1983 0b87 C2000000 		.4byte	0xc2
 1984 0b8b A4010000 		.4byte	.LLST8
 1985 0b8f 94010000 		.4byte	.LVUS8
 1986 0b93 1F       		.uleb128 0x1f
 1987 0b94 6900     		.ascii	"i\000"
 1988 0b96 01       		.byte	0x1
 1989 0b97 65       		.byte	0x65
 1990 0b98 07       		.byte	0x7
 1991 0b99 D3000000 		.4byte	0xd3
 1992 0b9d 16020000 		.4byte	.LLST9
 1993 0ba1 10020000 		.4byte	.LVUS9
 1994 0ba5 20       		.uleb128 0x20
 1995 0ba6 20000000 		.4byte	.Ldebug_ranges0+0x20
ARM GAS  /var/folders/l5/0x54b2c10074c8bt31ycjvl80000gp/T//ccPV8Vrh.s 			page 36


 1996 0baa D20B0000 		.4byte	0xbd2
 1997 0bae 1F       		.uleb128 0x1f
 1998 0baf 62697400 		.ascii	"bit\000"
 1999 0bb3 01       		.byte	0x1
 2000 0bb4 77       		.byte	0x77
 2001 0bb5 14       		.byte	0x14
 2002 0bb6 DA000000 		.4byte	0xda
 2003 0bba 45020000 		.4byte	.LLST10
 2004 0bbe 41020000 		.4byte	.LVUS10
 2005 0bc2 21       		.uleb128 0x21
 2006 0bc3 8C000000 		.4byte	.LVL22
 2007 0bc7 4A0E0000 		.4byte	0xe4a
 2008 0bcb 22       		.uleb128 0x22
 2009 0bcc 01       		.uleb128 0x1
 2010 0bcd 51       		.byte	0x51
 2011 0bce 01       		.uleb128 0x1
 2012 0bcf 31       		.byte	0x31
 2013 0bd0 00       		.byte	0
 2014 0bd1 00       		.byte	0
 2015 0bd2 23       		.uleb128 0x23
 2016 0bd3 30000000 		.4byte	.LVL15
 2017 0bd7 9A0D0000 		.4byte	0xd9a
 2018 0bdb F40B0000 		.4byte	0xbf4
 2019 0bdf 22       		.uleb128 0x22
 2020 0be0 01       		.uleb128 0x1
 2021 0be1 50       		.byte	0x50
 2022 0be2 02       		.uleb128 0x2
 2023 0be3 76       		.byte	0x76
 2024 0be4 14       		.sleb128 20
 2025 0be5 22       		.uleb128 0x22
 2026 0be6 01       		.uleb128 0x1
 2027 0be7 51       		.byte	0x51
 2028 0be8 02       		.uleb128 0x2
 2029 0be9 75       		.byte	0x75
 2030 0bea 00       		.sleb128 0
 2031 0beb 24       		.uleb128 0x24
 2032 0bec 370D0000 		.4byte	0xd37
 2033 0bf0 02       		.uleb128 0x2
 2034 0bf1 76       		.byte	0x76
 2035 0bf2 00       		.sleb128 0
 2036 0bf3 00       		.byte	0
 2037 0bf4 25       		.uleb128 0x25
 2038 0bf5 44000000 		.4byte	.LVL17
 2039 0bf9 F30D0000 		.4byte	0xdf3
 2040 0bfd 200C0000 		.4byte	0xc20
 2041 0c01 22       		.uleb128 0x22
 2042 0c02 01       		.uleb128 0x1
 2043 0c03 50       		.byte	0x50
 2044 0c04 05       		.uleb128 0x5
 2045 0c05 F3       		.byte	0xf3
 2046 0c06 01       		.uleb128 0x1
 2047 0c07 50       		.byte	0x50
 2048 0c08 23       		.byte	0x23
 2049 0c09 10       		.uleb128 0x10
 2050 0c0a 22       		.uleb128 0x22
 2051 0c0b 01       		.uleb128 0x1
 2052 0c0c 51       		.byte	0x51
ARM GAS  /var/folders/l5/0x54b2c10074c8bt31ycjvl80000gp/T//ccPV8Vrh.s 			page 37


 2053 0c0d 03       		.uleb128 0x3
 2054 0c0e F3       		.byte	0xf3
 2055 0c0f 01       		.uleb128 0x1
 2056 0c10 51       		.byte	0x51
 2057 0c11 22       		.uleb128 0x22
 2058 0c12 01       		.uleb128 0x1
 2059 0c13 52       		.byte	0x52
 2060 0c14 01       		.uleb128 0x1
 2061 0c15 32       		.byte	0x32
 2062 0c16 24       		.uleb128 0x24
 2063 0c17 750D0000 		.4byte	0xd75
 2064 0c1b 03       		.uleb128 0x3
 2065 0c1c F3       		.byte	0xf3
 2066 0c1d 01       		.uleb128 0x1
 2067 0c1e 50       		.byte	0x50
 2068 0c1f 00       		.byte	0
 2069 0c20 23       		.uleb128 0x23
 2070 0c21 98000000 		.4byte	.LVL25
 2071 0c25 9A0D0000 		.4byte	0xd9a
 2072 0c29 3C0C0000 		.4byte	0xc3c
 2073 0c2d 22       		.uleb128 0x22
 2074 0c2e 01       		.uleb128 0x1
 2075 0c2f 50       		.byte	0x50
 2076 0c30 02       		.uleb128 0x2
 2077 0c31 76       		.byte	0x76
 2078 0c32 14       		.sleb128 20
 2079 0c33 24       		.uleb128 0x24
 2080 0c34 370D0000 		.4byte	0xd37
 2081 0c38 02       		.uleb128 0x2
 2082 0c39 76       		.byte	0x76
 2083 0c3a 00       		.sleb128 0
 2084 0c3b 00       		.byte	0
 2085 0c3c 25       		.uleb128 0x25
 2086 0c3d AC000000 		.4byte	.LVL27
 2087 0c41 F30D0000 		.4byte	0xdf3
 2088 0c45 680C0000 		.4byte	0xc68
 2089 0c49 22       		.uleb128 0x22
 2090 0c4a 01       		.uleb128 0x1
 2091 0c4b 50       		.byte	0x50
 2092 0c4c 05       		.uleb128 0x5
 2093 0c4d F3       		.byte	0xf3
 2094 0c4e 01       		.uleb128 0x1
 2095 0c4f 50       		.byte	0x50
 2096 0c50 23       		.byte	0x23
 2097 0c51 10       		.uleb128 0x10
 2098 0c52 22       		.uleb128 0x22
 2099 0c53 01       		.uleb128 0x1
 2100 0c54 51       		.byte	0x51
 2101 0c55 03       		.uleb128 0x3
 2102 0c56 F3       		.byte	0xf3
 2103 0c57 01       		.uleb128 0x1
 2104 0c58 51       		.byte	0x51
 2105 0c59 22       		.uleb128 0x22
 2106 0c5a 01       		.uleb128 0x1
 2107 0c5b 52       		.byte	0x52
 2108 0c5c 01       		.uleb128 0x1
 2109 0c5d 31       		.byte	0x31
ARM GAS  /var/folders/l5/0x54b2c10074c8bt31ycjvl80000gp/T//ccPV8Vrh.s 			page 38


 2110 0c5e 24       		.uleb128 0x24
 2111 0c5f 750D0000 		.4byte	0xd75
 2112 0c63 03       		.uleb128 0x3
 2113 0c64 F3       		.byte	0xf3
 2114 0c65 01       		.uleb128 0x1
 2115 0c66 50       		.byte	0x50
 2116 0c67 00       		.byte	0
 2117 0c68 23       		.uleb128 0x23
 2118 0c69 B4000000 		.4byte	.LVL29
 2119 0c6d 9A0D0000 		.4byte	0xd9a
 2120 0c71 840C0000 		.4byte	0xc84
 2121 0c75 22       		.uleb128 0x22
 2122 0c76 01       		.uleb128 0x1
 2123 0c77 50       		.byte	0x50
 2124 0c78 02       		.uleb128 0x2
 2125 0c79 76       		.byte	0x76
 2126 0c7a 14       		.sleb128 20
 2127 0c7b 24       		.uleb128 0x24
 2128 0c7c 370D0000 		.4byte	0xd37
 2129 0c80 02       		.uleb128 0x2
 2130 0c81 76       		.byte	0x76
 2131 0c82 00       		.sleb128 0
 2132 0c83 00       		.byte	0
 2133 0c84 26       		.uleb128 0x26
 2134 0c85 C8000000 		.4byte	.LVL31
 2135 0c89 F30D0000 		.4byte	0xdf3
 2136 0c8d 22       		.uleb128 0x22
 2137 0c8e 01       		.uleb128 0x1
 2138 0c8f 50       		.byte	0x50
 2139 0c90 05       		.uleb128 0x5
 2140 0c91 F3       		.byte	0xf3
 2141 0c92 01       		.uleb128 0x1
 2142 0c93 50       		.byte	0x50
 2143 0c94 23       		.byte	0x23
 2144 0c95 10       		.uleb128 0x10
 2145 0c96 22       		.uleb128 0x22
 2146 0c97 01       		.uleb128 0x1
 2147 0c98 51       		.byte	0x51
 2148 0c99 03       		.uleb128 0x3
 2149 0c9a F3       		.byte	0xf3
 2150 0c9b 01       		.uleb128 0x1
 2151 0c9c 51       		.byte	0x51
 2152 0c9d 22       		.uleb128 0x22
 2153 0c9e 01       		.uleb128 0x1
 2154 0c9f 52       		.byte	0x52
 2155 0ca0 01       		.uleb128 0x1
 2156 0ca1 30       		.byte	0x30
 2157 0ca2 24       		.uleb128 0x24
 2158 0ca3 750D0000 		.4byte	0xd75
 2159 0ca7 03       		.uleb128 0x3
 2160 0ca8 F3       		.byte	0xf3
 2161 0ca9 01       		.uleb128 0x1
 2162 0caa 50       		.byte	0x50
 2163 0cab 00       		.byte	0
 2164 0cac 00       		.byte	0
 2165 0cad 1C       		.uleb128 0x1c
 2166 0cae C0000000 		.4byte	.LASF157
ARM GAS  /var/folders/l5/0x54b2c10074c8bt31ycjvl80000gp/T//ccPV8Vrh.s 			page 39


 2167 0cb2 01       		.byte	0x1
 2168 0cb3 52       		.byte	0x52
 2169 0cb4 06       		.byte	0x6
 2170 0cb5 00000000 		.4byte	.LFB9
 2171 0cb9 98000000 		.4byte	.LFE9-.LFB9
 2172 0cbd 01       		.uleb128 0x1
 2173 0cbe 9C       		.byte	0x9c
 2174 0cbf 240D0000 		.4byte	0xd24
 2175 0cc3 1E       		.uleb128 0x1e
 2176 0cc4 EF050000 		.4byte	.LASF119
 2177 0cc8 01       		.byte	0x1
 2178 0cc9 52       		.byte	0x52
 2179 0cca 25       		.byte	0x25
 2180 0ccb 240D0000 		.4byte	0xd24
 2181 0ccf 6F020000 		.4byte	.LLST5
 2182 0cd3 6B020000 		.4byte	.LVUS5
 2183 0cd7 23       		.uleb128 0x23
 2184 0cd8 34000000 		.4byte	.LVL11
 2185 0cdc 9A0D0000 		.4byte	0xd9a
 2186 0ce0 FF0C0000 		.4byte	0xcff
 2187 0ce4 22       		.uleb128 0x22
 2188 0ce5 01       		.uleb128 0x1
 2189 0ce6 50       		.byte	0x50
 2190 0ce7 05       		.uleb128 0x5
 2191 0ce8 03       		.byte	0x3
 2192 0ce9 14000000 		.4byte	IOPORT0+20
 2193 0ced 22       		.uleb128 0x22
 2194 0cee 01       		.uleb128 0x1
 2195 0cef 51       		.byte	0x51
 2196 0cf0 02       		.uleb128 0x2
 2197 0cf1 09       		.byte	0x9
 2198 0cf2 FF       		.byte	0xff
 2199 0cf3 24       		.uleb128 0x24
 2200 0cf4 370D0000 		.4byte	0xd37
 2201 0cf8 05       		.uleb128 0x5
 2202 0cf9 03       		.byte	0x3
 2203 0cfa 00000000 		.4byte	IOPORT0
 2204 0cfe 00       		.byte	0
 2205 0cff 26       		.uleb128 0x26
 2206 0d00 70000000 		.4byte	.LVL12
 2207 0d04 9A0D0000 		.4byte	0xd9a
 2208 0d08 22       		.uleb128 0x22
 2209 0d09 01       		.uleb128 0x1
 2210 0d0a 50       		.byte	0x50
 2211 0d0b 05       		.uleb128 0x5
 2212 0d0c 03       		.byte	0x3
 2213 0d0d 14000000 		.4byte	IOPORT1+20
 2214 0d11 22       		.uleb128 0x22
 2215 0d12 01       		.uleb128 0x1
 2216 0d13 51       		.byte	0x51
 2217 0d14 02       		.uleb128 0x2
 2218 0d15 09       		.byte	0x9
 2219 0d16 FF       		.byte	0xff
 2220 0d17 24       		.uleb128 0x24
 2221 0d18 370D0000 		.4byte	0xd37
 2222 0d1c 05       		.uleb128 0x5
 2223 0d1d 03       		.byte	0x3
ARM GAS  /var/folders/l5/0x54b2c10074c8bt31ycjvl80000gp/T//ccPV8Vrh.s 			page 40


 2224 0d1e 00000000 		.4byte	IOPORT1
 2225 0d22 00       		.byte	0
 2226 0d23 00       		.byte	0
 2227 0d24 0B       		.uleb128 0xb
 2228 0d25 04       		.byte	0x4
 2229 0d26 14080000 		.4byte	0x814
 2230 0d2a 27       		.uleb128 0x27
 2231 0d2b 56010000 		.4byte	.LASF158
 2232 0d2f 01       		.byte	0x1
 2233 0d30 40       		.byte	0x40
 2234 0d31 0D       		.byte	0xd
 2235 0d32 01       		.byte	0x1
 2236 0d33 680D0000 		.4byte	0xd68
 2237 0d37 28       		.uleb128 0x28
 2238 0d38 7C020000 		.4byte	.LASF151
 2239 0d3c 01       		.byte	0x1
 2240 0d3d 40       		.byte	0x40
 2241 0d3e 24       		.byte	0x24
 2242 0d3f 25080000 		.4byte	0x825
 2243 0d43 28       		.uleb128 0x28
 2244 0d44 75010000 		.4byte	.LASF155
 2245 0d48 01       		.byte	0x1
 2246 0d49 40       		.byte	0x40
 2247 0d4a 37       		.byte	0x37
 2248 0d4b 19080000 		.4byte	0x819
 2249 0d4f 29       		.uleb128 0x29
 2250 0d50 6900     		.ascii	"i\000"
 2251 0d52 01       		.byte	0x1
 2252 0d53 41       		.byte	0x41
 2253 0d54 07       		.byte	0x7
 2254 0d55 D3000000 		.4byte	0xd3
 2255 0d59 2A       		.uleb128 0x2a
 2256 0d5a 29       		.uleb128 0x29
 2257 0d5b 62697400 		.ascii	"bit\000"
 2258 0d5f 01       		.byte	0x1
 2259 0d60 43       		.byte	0x43
 2260 0d61 12       		.byte	0x12
 2261 0d62 DA000000 		.4byte	0xda
 2262 0d66 00       		.byte	0
 2263 0d67 00       		.byte	0
 2264 0d68 27       		.uleb128 0x27
 2265 0d69 CF060000 		.4byte	.LASF159
 2266 0d6d 01       		.byte	0x1
 2267 0d6e 36       		.byte	0x36
 2268 0d6f 0D       		.byte	0xd
 2269 0d70 01       		.byte	0x1
 2270 0d71 9A0D0000 		.4byte	0xd9a
 2271 0d75 28       		.uleb128 0x28
 2272 0d76 7C020000 		.4byte	.LASF151
 2273 0d7a 01       		.byte	0x1
 2274 0d7b 36       		.byte	0x36
 2275 0d7c 25       		.byte	0x25
 2276 0d7d 25080000 		.4byte	0x825
 2277 0d81 28       		.uleb128 0x28
 2278 0d82 75010000 		.4byte	.LASF155
 2279 0d86 01       		.byte	0x1
 2280 0d87 36       		.byte	0x36
ARM GAS  /var/folders/l5/0x54b2c10074c8bt31ycjvl80000gp/T//ccPV8Vrh.s 			page 41


 2281 0d88 38       		.byte	0x38
 2282 0d89 19080000 		.4byte	0x819
 2283 0d8d 28       		.uleb128 0x28
 2284 0d8e FF060000 		.4byte	.LASF160
 2285 0d92 01       		.byte	0x1
 2286 0d93 36       		.byte	0x36
 2287 0d94 47       		.byte	0x47
 2288 0d95 C2000000 		.4byte	0xc2
 2289 0d99 00       		.byte	0
 2290 0d9a 2B       		.uleb128 0x2b
 2291 0d9b 2A0D0000 		.4byte	0xd2a
 2292 0d9f 00000000 		.4byte	.LFB12
 2293 0da3 40000000 		.4byte	.LFE12-.LFB12
 2294 0da7 01       		.uleb128 0x1
 2295 0da8 9C       		.byte	0x9c
 2296 0da9 F30D0000 		.4byte	0xdf3
 2297 0dad 2C       		.uleb128 0x2c
 2298 0dae 430D0000 		.4byte	0xd43
 2299 0db2 94020000 		.4byte	.LLST0
 2300 0db6 90020000 		.4byte	.LVUS0
 2301 0dba 2D       		.uleb128 0x2d
 2302 0dbb 370D0000 		.4byte	0xd37
 2303 0dbf 2E       		.uleb128 0x2e
 2304 0dc0 4F0D0000 		.4byte	0xd4f
 2305 0dc4 BA020000 		.4byte	.LLST1
 2306 0dc8 B2020000 		.4byte	.LVUS1
 2307 0dcc 2F       		.uleb128 0x2f
 2308 0dcd 590D0000 		.4byte	0xd59
 2309 0dd1 00000000 		.4byte	.Ldebug_ranges0+0
 2310 0dd5 2E       		.uleb128 0x2e
 2311 0dd6 5A0D0000 		.4byte	0xd5a
 2312 0dda F5020000 		.4byte	.LLST2
 2313 0dde F1020000 		.4byte	.LVUS2
 2314 0de2 21       		.uleb128 0x21
 2315 0de3 3C000000 		.4byte	.LVL5
 2316 0de7 4A0E0000 		.4byte	0xe4a
 2317 0deb 22       		.uleb128 0x22
 2318 0dec 01       		.uleb128 0x1
 2319 0ded 51       		.byte	0x51
 2320 0dee 01       		.uleb128 0x1
 2321 0def 30       		.byte	0x30
 2322 0df0 00       		.byte	0
 2323 0df1 00       		.byte	0
 2324 0df2 00       		.byte	0
 2325 0df3 2B       		.uleb128 0x2b
 2326 0df4 680D0000 		.4byte	0xd68
 2327 0df8 00000000 		.4byte	.LFB13
 2328 0dfc 44000000 		.4byte	.LFE13-.LFB13
 2329 0e00 01       		.uleb128 0x1
 2330 0e01 9C       		.byte	0x9c
 2331 0e02 4A0E0000 		.4byte	0xe4a
 2332 0e06 2C       		.uleb128 0x2c
 2333 0e07 810D0000 		.4byte	0xd81
 2334 0e0b 1F030000 		.4byte	.LLST3
 2335 0e0f 1B030000 		.4byte	.LVUS3
 2336 0e13 2C       		.uleb128 0x2c
 2337 0e14 8D0D0000 		.4byte	0xd8d
ARM GAS  /var/folders/l5/0x54b2c10074c8bt31ycjvl80000gp/T//ccPV8Vrh.s 			page 42


 2338 0e18 41030000 		.4byte	.LLST4
 2339 0e1c 3D030000 		.4byte	.LVUS4
 2340 0e20 2D       		.uleb128 0x2d
 2341 0e21 750D0000 		.4byte	0xd75
 2342 0e25 23       		.uleb128 0x23
 2343 0e26 1C000000 		.4byte	.LVL7
 2344 0e2a 570E0000 		.4byte	0xe57
 2345 0e2e 390E0000 		.4byte	0xe39
 2346 0e32 22       		.uleb128 0x22
 2347 0e33 01       		.uleb128 0x1
 2348 0e34 50       		.byte	0x50
 2349 0e35 02       		.uleb128 0x2
 2350 0e36 08       		.byte	0x8
 2351 0e37 96       		.byte	0x96
 2352 0e38 00       		.byte	0
 2353 0e39 21       		.uleb128 0x21
 2354 0e3a 2C000000 		.4byte	.LVL8
 2355 0e3e 570E0000 		.4byte	0xe57
 2356 0e42 22       		.uleb128 0x22
 2357 0e43 01       		.uleb128 0x1
 2358 0e44 50       		.byte	0x50
 2359 0e45 02       		.uleb128 0x2
 2360 0e46 08       		.byte	0x8
 2361 0e47 96       		.byte	0x96
 2362 0e48 00       		.byte	0
 2363 0e49 00       		.byte	0
 2364 0e4a 30       		.uleb128 0x30
 2365 0e4b 92040000 		.4byte	.LASF161
 2366 0e4f 92040000 		.4byte	.LASF161
 2367 0e53 0F       		.byte	0xf
 2368 0e54 8C01     		.2byte	0x18c
 2369 0e56 08       		.byte	0x8
 2370 0e57 30       		.uleb128 0x30
 2371 0e58 76030000 		.4byte	.LASF162
 2372 0e5c 76030000 		.4byte	.LASF162
 2373 0e60 0F       		.byte	0xf
 2374 0e61 8D01     		.2byte	0x18d
 2375 0e63 08       		.byte	0x8
 2376 0e64 00       		.byte	0
 2377              		.section	.debug_abbrev,"",%progbits
 2378              	.Ldebug_abbrev0:
 2379 0000 01       		.uleb128 0x1
 2380 0001 11       		.uleb128 0x11
 2381 0002 01       		.byte	0x1
 2382 0003 25       		.uleb128 0x25
 2383 0004 0E       		.uleb128 0xe
 2384 0005 13       		.uleb128 0x13
 2385 0006 0B       		.uleb128 0xb
 2386 0007 03       		.uleb128 0x3
 2387 0008 0E       		.uleb128 0xe
 2388 0009 1B       		.uleb128 0x1b
 2389 000a 0E       		.uleb128 0xe
 2390 000b 55       		.uleb128 0x55
 2391 000c 17       		.uleb128 0x17
 2392 000d 11       		.uleb128 0x11
 2393 000e 01       		.uleb128 0x1
 2394 000f 10       		.uleb128 0x10
ARM GAS  /var/folders/l5/0x54b2c10074c8bt31ycjvl80000gp/T//ccPV8Vrh.s 			page 43


 2395 0010 17       		.uleb128 0x17
 2396 0011 00       		.byte	0
 2397 0012 00       		.byte	0
 2398 0013 02       		.uleb128 0x2
 2399 0014 24       		.uleb128 0x24
 2400 0015 00       		.byte	0
 2401 0016 0B       		.uleb128 0xb
 2402 0017 0B       		.uleb128 0xb
 2403 0018 3E       		.uleb128 0x3e
 2404 0019 0B       		.uleb128 0xb
 2405 001a 03       		.uleb128 0x3
 2406 001b 0E       		.uleb128 0xe
 2407 001c 00       		.byte	0
 2408 001d 00       		.byte	0
 2409 001e 03       		.uleb128 0x3
 2410 001f 16       		.uleb128 0x16
 2411 0020 00       		.byte	0
 2412 0021 03       		.uleb128 0x3
 2413 0022 0E       		.uleb128 0xe
 2414 0023 3A       		.uleb128 0x3a
 2415 0024 0B       		.uleb128 0xb
 2416 0025 3B       		.uleb128 0x3b
 2417 0026 0B       		.uleb128 0xb
 2418 0027 39       		.uleb128 0x39
 2419 0028 0B       		.uleb128 0xb
 2420 0029 49       		.uleb128 0x49
 2421 002a 13       		.uleb128 0x13
 2422 002b 00       		.byte	0
 2423 002c 00       		.byte	0
 2424 002d 04       		.uleb128 0x4
 2425 002e 26       		.uleb128 0x26
 2426 002f 00       		.byte	0
 2427 0030 49       		.uleb128 0x49
 2428 0031 13       		.uleb128 0x13
 2429 0032 00       		.byte	0
 2430 0033 00       		.byte	0
 2431 0034 05       		.uleb128 0x5
 2432 0035 35       		.uleb128 0x35
 2433 0036 00       		.byte	0
 2434 0037 49       		.uleb128 0x49
 2435 0038 13       		.uleb128 0x13
 2436 0039 00       		.byte	0
 2437 003a 00       		.byte	0
 2438 003b 06       		.uleb128 0x6
 2439 003c 24       		.uleb128 0x24
 2440 003d 00       		.byte	0
 2441 003e 0B       		.uleb128 0xb
 2442 003f 0B       		.uleb128 0xb
 2443 0040 3E       		.uleb128 0x3e
 2444 0041 0B       		.uleb128 0xb
 2445 0042 03       		.uleb128 0x3
 2446 0043 08       		.uleb128 0x8
 2447 0044 00       		.byte	0
 2448 0045 00       		.byte	0
 2449 0046 07       		.uleb128 0x7
 2450 0047 13       		.uleb128 0x13
 2451 0048 01       		.byte	0x1
ARM GAS  /var/folders/l5/0x54b2c10074c8bt31ycjvl80000gp/T//ccPV8Vrh.s 			page 44


 2452 0049 03       		.uleb128 0x3
 2453 004a 0E       		.uleb128 0xe
 2454 004b 0B       		.uleb128 0xb
 2455 004c 0B       		.uleb128 0xb
 2456 004d 3A       		.uleb128 0x3a
 2457 004e 0B       		.uleb128 0xb
 2458 004f 3B       		.uleb128 0x3b
 2459 0050 0B       		.uleb128 0xb
 2460 0051 39       		.uleb128 0x39
 2461 0052 0B       		.uleb128 0xb
 2462 0053 01       		.uleb128 0x1
 2463 0054 13       		.uleb128 0x13
 2464 0055 00       		.byte	0
 2465 0056 00       		.byte	0
 2466 0057 08       		.uleb128 0x8
 2467 0058 0D       		.uleb128 0xd
 2468 0059 00       		.byte	0
 2469 005a 03       		.uleb128 0x3
 2470 005b 0E       		.uleb128 0xe
 2471 005c 3A       		.uleb128 0x3a
 2472 005d 0B       		.uleb128 0xb
 2473 005e 3B       		.uleb128 0x3b
 2474 005f 0B       		.uleb128 0xb
 2475 0060 39       		.uleb128 0x39
 2476 0061 0B       		.uleb128 0xb
 2477 0062 49       		.uleb128 0x49
 2478 0063 13       		.uleb128 0x13
 2479 0064 38       		.uleb128 0x38
 2480 0065 0B       		.uleb128 0xb
 2481 0066 00       		.byte	0
 2482 0067 00       		.byte	0
 2483 0068 09       		.uleb128 0x9
 2484 0069 0D       		.uleb128 0xd
 2485 006a 00       		.byte	0
 2486 006b 03       		.uleb128 0x3
 2487 006c 08       		.uleb128 0x8
 2488 006d 3A       		.uleb128 0x3a
 2489 006e 0B       		.uleb128 0xb
 2490 006f 3B       		.uleb128 0x3b
 2491 0070 0B       		.uleb128 0xb
 2492 0071 39       		.uleb128 0x39
 2493 0072 0B       		.uleb128 0xb
 2494 0073 49       		.uleb128 0x49
 2495 0074 13       		.uleb128 0x13
 2496 0075 38       		.uleb128 0x38
 2497 0076 0B       		.uleb128 0xb
 2498 0077 00       		.byte	0
 2499 0078 00       		.byte	0
 2500 0079 0A       		.uleb128 0xa
 2501 007a 13       		.uleb128 0x13
 2502 007b 01       		.byte	0x1
 2503 007c 0B       		.uleb128 0xb
 2504 007d 0B       		.uleb128 0xb
 2505 007e 3A       		.uleb128 0x3a
 2506 007f 0B       		.uleb128 0xb
 2507 0080 3B       		.uleb128 0x3b
 2508 0081 0B       		.uleb128 0xb
ARM GAS  /var/folders/l5/0x54b2c10074c8bt31ycjvl80000gp/T//ccPV8Vrh.s 			page 45


 2509 0082 39       		.uleb128 0x39
 2510 0083 0B       		.uleb128 0xb
 2511 0084 01       		.uleb128 0x1
 2512 0085 13       		.uleb128 0x13
 2513 0086 00       		.byte	0
 2514 0087 00       		.byte	0
 2515 0088 0B       		.uleb128 0xb
 2516 0089 0F       		.uleb128 0xf
 2517 008a 00       		.byte	0
 2518 008b 0B       		.uleb128 0xb
 2519 008c 0B       		.uleb128 0xb
 2520 008d 49       		.uleb128 0x49
 2521 008e 13       		.uleb128 0x13
 2522 008f 00       		.byte	0
 2523 0090 00       		.byte	0
 2524 0091 0C       		.uleb128 0xc
 2525 0092 0F       		.uleb128 0xf
 2526 0093 00       		.byte	0
 2527 0094 0B       		.uleb128 0xb
 2528 0095 0B       		.uleb128 0xb
 2529 0096 00       		.byte	0
 2530 0097 00       		.byte	0
 2531 0098 0D       		.uleb128 0xd
 2532 0099 15       		.uleb128 0x15
 2533 009a 01       		.byte	0x1
 2534 009b 27       		.uleb128 0x27
 2535 009c 19       		.uleb128 0x19
 2536 009d 01       		.uleb128 0x1
 2537 009e 13       		.uleb128 0x13
 2538 009f 00       		.byte	0
 2539 00a0 00       		.byte	0
 2540 00a1 0E       		.uleb128 0xe
 2541 00a2 05       		.uleb128 0x5
 2542 00a3 00       		.byte	0
 2543 00a4 49       		.uleb128 0x49
 2544 00a5 13       		.uleb128 0x13
 2545 00a6 00       		.byte	0
 2546 00a7 00       		.byte	0
 2547 00a8 0F       		.uleb128 0xf
 2548 00a9 34       		.uleb128 0x34
 2549 00aa 00       		.byte	0
 2550 00ab 03       		.uleb128 0x3
 2551 00ac 0E       		.uleb128 0xe
 2552 00ad 3A       		.uleb128 0x3a
 2553 00ae 0B       		.uleb128 0xb
 2554 00af 3B       		.uleb128 0x3b
 2555 00b0 0B       		.uleb128 0xb
 2556 00b1 39       		.uleb128 0x39
 2557 00b2 0B       		.uleb128 0xb
 2558 00b3 49       		.uleb128 0x49
 2559 00b4 13       		.uleb128 0x13
 2560 00b5 3F       		.uleb128 0x3f
 2561 00b6 19       		.uleb128 0x19
 2562 00b7 3C       		.uleb128 0x3c
 2563 00b8 19       		.uleb128 0x19
 2564 00b9 00       		.byte	0
 2565 00ba 00       		.byte	0
ARM GAS  /var/folders/l5/0x54b2c10074c8bt31ycjvl80000gp/T//ccPV8Vrh.s 			page 46


 2566 00bb 10       		.uleb128 0x10
 2567 00bc 17       		.uleb128 0x17
 2568 00bd 01       		.byte	0x1
 2569 00be 0B       		.uleb128 0xb
 2570 00bf 0B       		.uleb128 0xb
 2571 00c0 3A       		.uleb128 0x3a
 2572 00c1 0B       		.uleb128 0xb
 2573 00c2 3B       		.uleb128 0x3b
 2574 00c3 0B       		.uleb128 0xb
 2575 00c4 39       		.uleb128 0x39
 2576 00c5 0B       		.uleb128 0xb
 2577 00c6 01       		.uleb128 0x1
 2578 00c7 13       		.uleb128 0x13
 2579 00c8 00       		.byte	0
 2580 00c9 00       		.byte	0
 2581 00ca 11       		.uleb128 0x11
 2582 00cb 0D       		.uleb128 0xd
 2583 00cc 00       		.byte	0
 2584 00cd 03       		.uleb128 0x3
 2585 00ce 0E       		.uleb128 0xe
 2586 00cf 3A       		.uleb128 0x3a
 2587 00d0 0B       		.uleb128 0xb
 2588 00d1 3B       		.uleb128 0x3b
 2589 00d2 0B       		.uleb128 0xb
 2590 00d3 39       		.uleb128 0x39
 2591 00d4 0B       		.uleb128 0xb
 2592 00d5 49       		.uleb128 0x49
 2593 00d6 13       		.uleb128 0x13
 2594 00d7 00       		.byte	0
 2595 00d8 00       		.byte	0
 2596 00d9 12       		.uleb128 0x12
 2597 00da 15       		.uleb128 0x15
 2598 00db 01       		.byte	0x1
 2599 00dc 27       		.uleb128 0x27
 2600 00dd 19       		.uleb128 0x19
 2601 00de 49       		.uleb128 0x49
 2602 00df 13       		.uleb128 0x13
 2603 00e0 01       		.uleb128 0x1
 2604 00e1 13       		.uleb128 0x13
 2605 00e2 00       		.byte	0
 2606 00e3 00       		.byte	0
 2607 00e4 13       		.uleb128 0x13
 2608 00e5 01       		.uleb128 0x1
 2609 00e6 01       		.byte	0x1
 2610 00e7 49       		.uleb128 0x49
 2611 00e8 13       		.uleb128 0x13
 2612 00e9 01       		.uleb128 0x1
 2613 00ea 13       		.uleb128 0x13
 2614 00eb 00       		.byte	0
 2615 00ec 00       		.byte	0
 2616 00ed 14       		.uleb128 0x14
 2617 00ee 21       		.uleb128 0x21
 2618 00ef 00       		.byte	0
 2619 00f0 49       		.uleb128 0x49
 2620 00f1 13       		.uleb128 0x13
 2621 00f2 2F       		.uleb128 0x2f
 2622 00f3 0B       		.uleb128 0xb
ARM GAS  /var/folders/l5/0x54b2c10074c8bt31ycjvl80000gp/T//ccPV8Vrh.s 			page 47


 2623 00f4 00       		.byte	0
 2624 00f5 00       		.byte	0
 2625 00f6 15       		.uleb128 0x15
 2626 00f7 0D       		.uleb128 0xd
 2627 00f8 00       		.byte	0
 2628 00f9 03       		.uleb128 0x3
 2629 00fa 0E       		.uleb128 0xe
 2630 00fb 3A       		.uleb128 0x3a
 2631 00fc 0B       		.uleb128 0xb
 2632 00fd 3B       		.uleb128 0x3b
 2633 00fe 05       		.uleb128 0x5
 2634 00ff 39       		.uleb128 0x39
 2635 0100 0B       		.uleb128 0xb
 2636 0101 49       		.uleb128 0x49
 2637 0102 13       		.uleb128 0x13
 2638 0103 38       		.uleb128 0x38
 2639 0104 0B       		.uleb128 0xb
 2640 0105 00       		.byte	0
 2641 0106 00       		.byte	0
 2642 0107 16       		.uleb128 0x16
 2643 0108 16       		.uleb128 0x16
 2644 0109 00       		.byte	0
 2645 010a 03       		.uleb128 0x3
 2646 010b 0E       		.uleb128 0xe
 2647 010c 3A       		.uleb128 0x3a
 2648 010d 0B       		.uleb128 0xb
 2649 010e 3B       		.uleb128 0x3b
 2650 010f 05       		.uleb128 0x5
 2651 0110 39       		.uleb128 0x39
 2652 0111 0B       		.uleb128 0xb
 2653 0112 49       		.uleb128 0x49
 2654 0113 13       		.uleb128 0x13
 2655 0114 00       		.byte	0
 2656 0115 00       		.byte	0
 2657 0116 17       		.uleb128 0x17
 2658 0117 13       		.uleb128 0x13
 2659 0118 00       		.byte	0
 2660 0119 0B       		.uleb128 0xb
 2661 011a 0B       		.uleb128 0xb
 2662 011b 3A       		.uleb128 0x3a
 2663 011c 0B       		.uleb128 0xb
 2664 011d 3B       		.uleb128 0x3b
 2665 011e 0B       		.uleb128 0xb
 2666 011f 39       		.uleb128 0x39
 2667 0120 0B       		.uleb128 0xb
 2668 0121 00       		.byte	0
 2669 0122 00       		.byte	0
 2670 0123 18       		.uleb128 0x18
 2671 0124 04       		.uleb128 0x4
 2672 0125 01       		.byte	0x1
 2673 0126 3E       		.uleb128 0x3e
 2674 0127 0B       		.uleb128 0xb
 2675 0128 0B       		.uleb128 0xb
 2676 0129 0B       		.uleb128 0xb
 2677 012a 49       		.uleb128 0x49
 2678 012b 13       		.uleb128 0x13
 2679 012c 3A       		.uleb128 0x3a
ARM GAS  /var/folders/l5/0x54b2c10074c8bt31ycjvl80000gp/T//ccPV8Vrh.s 			page 48


 2680 012d 0B       		.uleb128 0xb
 2681 012e 3B       		.uleb128 0x3b
 2682 012f 0B       		.uleb128 0xb
 2683 0130 39       		.uleb128 0x39
 2684 0131 0B       		.uleb128 0xb
 2685 0132 01       		.uleb128 0x1
 2686 0133 13       		.uleb128 0x13
 2687 0134 00       		.byte	0
 2688 0135 00       		.byte	0
 2689 0136 19       		.uleb128 0x19
 2690 0137 28       		.uleb128 0x28
 2691 0138 00       		.byte	0
 2692 0139 03       		.uleb128 0x3
 2693 013a 0E       		.uleb128 0xe
 2694 013b 1C       		.uleb128 0x1c
 2695 013c 0B       		.uleb128 0xb
 2696 013d 00       		.byte	0
 2697 013e 00       		.byte	0
 2698 013f 1A       		.uleb128 0x1a
 2699 0140 34       		.uleb128 0x34
 2700 0141 00       		.byte	0
 2701 0142 03       		.uleb128 0x3
 2702 0143 08       		.uleb128 0x8
 2703 0144 3A       		.uleb128 0x3a
 2704 0145 0B       		.uleb128 0xb
 2705 0146 3B       		.uleb128 0x3b
 2706 0147 0B       		.uleb128 0xb
 2707 0148 39       		.uleb128 0x39
 2708 0149 0B       		.uleb128 0xb
 2709 014a 49       		.uleb128 0x49
 2710 014b 13       		.uleb128 0x13
 2711 014c 3F       		.uleb128 0x3f
 2712 014d 19       		.uleb128 0x19
 2713 014e 3C       		.uleb128 0x3c
 2714 014f 19       		.uleb128 0x19
 2715 0150 00       		.byte	0
 2716 0151 00       		.byte	0
 2717 0152 1B       		.uleb128 0x1b
 2718 0153 34       		.uleb128 0x34
 2719 0154 00       		.byte	0
 2720 0155 47       		.uleb128 0x47
 2721 0156 13       		.uleb128 0x13
 2722 0157 3A       		.uleb128 0x3a
 2723 0158 0B       		.uleb128 0xb
 2724 0159 3B       		.uleb128 0x3b
 2725 015a 0B       		.uleb128 0xb
 2726 015b 39       		.uleb128 0x39
 2727 015c 0B       		.uleb128 0xb
 2728 015d 02       		.uleb128 0x2
 2729 015e 18       		.uleb128 0x18
 2730 015f 00       		.byte	0
 2731 0160 00       		.byte	0
 2732 0161 1C       		.uleb128 0x1c
 2733 0162 2E       		.uleb128 0x2e
 2734 0163 01       		.byte	0x1
 2735 0164 3F       		.uleb128 0x3f
 2736 0165 19       		.uleb128 0x19
ARM GAS  /var/folders/l5/0x54b2c10074c8bt31ycjvl80000gp/T//ccPV8Vrh.s 			page 49


 2737 0166 03       		.uleb128 0x3
 2738 0167 0E       		.uleb128 0xe
 2739 0168 3A       		.uleb128 0x3a
 2740 0169 0B       		.uleb128 0xb
 2741 016a 3B       		.uleb128 0x3b
 2742 016b 0B       		.uleb128 0xb
 2743 016c 39       		.uleb128 0x39
 2744 016d 0B       		.uleb128 0xb
 2745 016e 27       		.uleb128 0x27
 2746 016f 19       		.uleb128 0x19
 2747 0170 11       		.uleb128 0x11
 2748 0171 01       		.uleb128 0x1
 2749 0172 12       		.uleb128 0x12
 2750 0173 06       		.uleb128 0x6
 2751 0174 40       		.uleb128 0x40
 2752 0175 18       		.uleb128 0x18
 2753 0176 9742     		.uleb128 0x2117
 2754 0178 19       		.uleb128 0x19
 2755 0179 01       		.uleb128 0x1
 2756 017a 13       		.uleb128 0x13
 2757 017b 00       		.byte	0
 2758 017c 00       		.byte	0
 2759 017d 1D       		.uleb128 0x1d
 2760 017e 05       		.uleb128 0x5
 2761 017f 00       		.byte	0
 2762 0180 03       		.uleb128 0x3
 2763 0181 0E       		.uleb128 0xe
 2764 0182 3A       		.uleb128 0x3a
 2765 0183 0B       		.uleb128 0xb
 2766 0184 3B       		.uleb128 0x3b
 2767 0185 0B       		.uleb128 0xb
 2768 0186 39       		.uleb128 0x39
 2769 0187 0B       		.uleb128 0xb
 2770 0188 49       		.uleb128 0x49
 2771 0189 13       		.uleb128 0x13
 2772 018a 02       		.uleb128 0x2
 2773 018b 18       		.uleb128 0x18
 2774 018c 00       		.byte	0
 2775 018d 00       		.byte	0
 2776 018e 1E       		.uleb128 0x1e
 2777 018f 05       		.uleb128 0x5
 2778 0190 00       		.byte	0
 2779 0191 03       		.uleb128 0x3
 2780 0192 0E       		.uleb128 0xe
 2781 0193 3A       		.uleb128 0x3a
 2782 0194 0B       		.uleb128 0xb
 2783 0195 3B       		.uleb128 0x3b
 2784 0196 0B       		.uleb128 0xb
 2785 0197 39       		.uleb128 0x39
 2786 0198 0B       		.uleb128 0xb
 2787 0199 49       		.uleb128 0x49
 2788 019a 13       		.uleb128 0x13
 2789 019b 02       		.uleb128 0x2
 2790 019c 17       		.uleb128 0x17
 2791 019d B742     		.uleb128 0x2137
 2792 019f 17       		.uleb128 0x17
 2793 01a0 00       		.byte	0
ARM GAS  /var/folders/l5/0x54b2c10074c8bt31ycjvl80000gp/T//ccPV8Vrh.s 			page 50


 2794 01a1 00       		.byte	0
 2795 01a2 1F       		.uleb128 0x1f
 2796 01a3 34       		.uleb128 0x34
 2797 01a4 00       		.byte	0
 2798 01a5 03       		.uleb128 0x3
 2799 01a6 08       		.uleb128 0x8
 2800 01a7 3A       		.uleb128 0x3a
 2801 01a8 0B       		.uleb128 0xb
 2802 01a9 3B       		.uleb128 0x3b
 2803 01aa 0B       		.uleb128 0xb
 2804 01ab 39       		.uleb128 0x39
 2805 01ac 0B       		.uleb128 0xb
 2806 01ad 49       		.uleb128 0x49
 2807 01ae 13       		.uleb128 0x13
 2808 01af 02       		.uleb128 0x2
 2809 01b0 17       		.uleb128 0x17
 2810 01b1 B742     		.uleb128 0x2137
 2811 01b3 17       		.uleb128 0x17
 2812 01b4 00       		.byte	0
 2813 01b5 00       		.byte	0
 2814 01b6 20       		.uleb128 0x20
 2815 01b7 0B       		.uleb128 0xb
 2816 01b8 01       		.byte	0x1
 2817 01b9 55       		.uleb128 0x55
 2818 01ba 17       		.uleb128 0x17
 2819 01bb 01       		.uleb128 0x1
 2820 01bc 13       		.uleb128 0x13
 2821 01bd 00       		.byte	0
 2822 01be 00       		.byte	0
 2823 01bf 21       		.uleb128 0x21
 2824 01c0 898201   		.uleb128 0x4109
 2825 01c3 01       		.byte	0x1
 2826 01c4 11       		.uleb128 0x11
 2827 01c5 01       		.uleb128 0x1
 2828 01c6 31       		.uleb128 0x31
 2829 01c7 13       		.uleb128 0x13
 2830 01c8 00       		.byte	0
 2831 01c9 00       		.byte	0
 2832 01ca 22       		.uleb128 0x22
 2833 01cb 8A8201   		.uleb128 0x410a
 2834 01ce 00       		.byte	0
 2835 01cf 02       		.uleb128 0x2
 2836 01d0 18       		.uleb128 0x18
 2837 01d1 9142     		.uleb128 0x2111
 2838 01d3 18       		.uleb128 0x18
 2839 01d4 00       		.byte	0
 2840 01d5 00       		.byte	0
 2841 01d6 23       		.uleb128 0x23
 2842 01d7 898201   		.uleb128 0x4109
 2843 01da 01       		.byte	0x1
 2844 01db 11       		.uleb128 0x11
 2845 01dc 01       		.uleb128 0x1
 2846 01dd 31       		.uleb128 0x31
 2847 01de 13       		.uleb128 0x13
 2848 01df 01       		.uleb128 0x1
 2849 01e0 13       		.uleb128 0x13
 2850 01e1 00       		.byte	0
ARM GAS  /var/folders/l5/0x54b2c10074c8bt31ycjvl80000gp/T//ccPV8Vrh.s 			page 51


 2851 01e2 00       		.byte	0
 2852 01e3 24       		.uleb128 0x24
 2853 01e4 8A8201   		.uleb128 0x410a
 2854 01e7 00       		.byte	0
 2855 01e8 31       		.uleb128 0x31
 2856 01e9 13       		.uleb128 0x13
 2857 01ea 9142     		.uleb128 0x2111
 2858 01ec 18       		.uleb128 0x18
 2859 01ed 00       		.byte	0
 2860 01ee 00       		.byte	0
 2861 01ef 25       		.uleb128 0x25
 2862 01f0 898201   		.uleb128 0x4109
 2863 01f3 01       		.byte	0x1
 2864 01f4 11       		.uleb128 0x11
 2865 01f5 01       		.uleb128 0x1
 2866 01f6 9542     		.uleb128 0x2115
 2867 01f8 19       		.uleb128 0x19
 2868 01f9 31       		.uleb128 0x31
 2869 01fa 13       		.uleb128 0x13
 2870 01fb 01       		.uleb128 0x1
 2871 01fc 13       		.uleb128 0x13
 2872 01fd 00       		.byte	0
 2873 01fe 00       		.byte	0
 2874 01ff 26       		.uleb128 0x26
 2875 0200 898201   		.uleb128 0x4109
 2876 0203 01       		.byte	0x1
 2877 0204 11       		.uleb128 0x11
 2878 0205 01       		.uleb128 0x1
 2879 0206 9542     		.uleb128 0x2115
 2880 0208 19       		.uleb128 0x19
 2881 0209 31       		.uleb128 0x31
 2882 020a 13       		.uleb128 0x13
 2883 020b 00       		.byte	0
 2884 020c 00       		.byte	0
 2885 020d 27       		.uleb128 0x27
 2886 020e 2E       		.uleb128 0x2e
 2887 020f 01       		.byte	0x1
 2888 0210 03       		.uleb128 0x3
 2889 0211 0E       		.uleb128 0xe
 2890 0212 3A       		.uleb128 0x3a
 2891 0213 0B       		.uleb128 0xb
 2892 0214 3B       		.uleb128 0x3b
 2893 0215 0B       		.uleb128 0xb
 2894 0216 39       		.uleb128 0x39
 2895 0217 0B       		.uleb128 0xb
 2896 0218 27       		.uleb128 0x27
 2897 0219 19       		.uleb128 0x19
 2898 021a 20       		.uleb128 0x20
 2899 021b 0B       		.uleb128 0xb
 2900 021c 01       		.uleb128 0x1
 2901 021d 13       		.uleb128 0x13
 2902 021e 00       		.byte	0
 2903 021f 00       		.byte	0
 2904 0220 28       		.uleb128 0x28
 2905 0221 05       		.uleb128 0x5
 2906 0222 00       		.byte	0
 2907 0223 03       		.uleb128 0x3
ARM GAS  /var/folders/l5/0x54b2c10074c8bt31ycjvl80000gp/T//ccPV8Vrh.s 			page 52


 2908 0224 0E       		.uleb128 0xe
 2909 0225 3A       		.uleb128 0x3a
 2910 0226 0B       		.uleb128 0xb
 2911 0227 3B       		.uleb128 0x3b
 2912 0228 0B       		.uleb128 0xb
 2913 0229 39       		.uleb128 0x39
 2914 022a 0B       		.uleb128 0xb
 2915 022b 49       		.uleb128 0x49
 2916 022c 13       		.uleb128 0x13
 2917 022d 00       		.byte	0
 2918 022e 00       		.byte	0
 2919 022f 29       		.uleb128 0x29
 2920 0230 34       		.uleb128 0x34
 2921 0231 00       		.byte	0
 2922 0232 03       		.uleb128 0x3
 2923 0233 08       		.uleb128 0x8
 2924 0234 3A       		.uleb128 0x3a
 2925 0235 0B       		.uleb128 0xb
 2926 0236 3B       		.uleb128 0x3b
 2927 0237 0B       		.uleb128 0xb
 2928 0238 39       		.uleb128 0x39
 2929 0239 0B       		.uleb128 0xb
 2930 023a 49       		.uleb128 0x49
 2931 023b 13       		.uleb128 0x13
 2932 023c 00       		.byte	0
 2933 023d 00       		.byte	0
 2934 023e 2A       		.uleb128 0x2a
 2935 023f 0B       		.uleb128 0xb
 2936 0240 01       		.byte	0x1
 2937 0241 00       		.byte	0
 2938 0242 00       		.byte	0
 2939 0243 2B       		.uleb128 0x2b
 2940 0244 2E       		.uleb128 0x2e
 2941 0245 01       		.byte	0x1
 2942 0246 31       		.uleb128 0x31
 2943 0247 13       		.uleb128 0x13
 2944 0248 11       		.uleb128 0x11
 2945 0249 01       		.uleb128 0x1
 2946 024a 12       		.uleb128 0x12
 2947 024b 06       		.uleb128 0x6
 2948 024c 40       		.uleb128 0x40
 2949 024d 18       		.uleb128 0x18
 2950 024e 9742     		.uleb128 0x2117
 2951 0250 19       		.uleb128 0x19
 2952 0251 01       		.uleb128 0x1
 2953 0252 13       		.uleb128 0x13
 2954 0253 00       		.byte	0
 2955 0254 00       		.byte	0
 2956 0255 2C       		.uleb128 0x2c
 2957 0256 05       		.uleb128 0x5
 2958 0257 00       		.byte	0
 2959 0258 31       		.uleb128 0x31
 2960 0259 13       		.uleb128 0x13
 2961 025a 02       		.uleb128 0x2
 2962 025b 17       		.uleb128 0x17
 2963 025c B742     		.uleb128 0x2137
 2964 025e 17       		.uleb128 0x17
ARM GAS  /var/folders/l5/0x54b2c10074c8bt31ycjvl80000gp/T//ccPV8Vrh.s 			page 53


 2965 025f 00       		.byte	0
 2966 0260 00       		.byte	0
 2967 0261 2D       		.uleb128 0x2d
 2968 0262 05       		.uleb128 0x5
 2969 0263 00       		.byte	0
 2970 0264 31       		.uleb128 0x31
 2971 0265 13       		.uleb128 0x13
 2972 0266 00       		.byte	0
 2973 0267 00       		.byte	0
 2974 0268 2E       		.uleb128 0x2e
 2975 0269 34       		.uleb128 0x34
 2976 026a 00       		.byte	0
 2977 026b 31       		.uleb128 0x31
 2978 026c 13       		.uleb128 0x13
 2979 026d 02       		.uleb128 0x2
 2980 026e 17       		.uleb128 0x17
 2981 026f B742     		.uleb128 0x2137
 2982 0271 17       		.uleb128 0x17
 2983 0272 00       		.byte	0
 2984 0273 00       		.byte	0
 2985 0274 2F       		.uleb128 0x2f
 2986 0275 0B       		.uleb128 0xb
 2987 0276 01       		.byte	0x1
 2988 0277 31       		.uleb128 0x31
 2989 0278 13       		.uleb128 0x13
 2990 0279 55       		.uleb128 0x55
 2991 027a 17       		.uleb128 0x17
 2992 027b 00       		.byte	0
 2993 027c 00       		.byte	0
 2994 027d 30       		.uleb128 0x30
 2995 027e 2E       		.uleb128 0x2e
 2996 027f 00       		.byte	0
 2997 0280 3F       		.uleb128 0x3f
 2998 0281 19       		.uleb128 0x19
 2999 0282 3C       		.uleb128 0x3c
 3000 0283 19       		.uleb128 0x19
 3001 0284 6E       		.uleb128 0x6e
 3002 0285 0E       		.uleb128 0xe
 3003 0286 03       		.uleb128 0x3
 3004 0287 0E       		.uleb128 0xe
 3005 0288 3A       		.uleb128 0x3a
 3006 0289 0B       		.uleb128 0xb
 3007 028a 3B       		.uleb128 0x3b
 3008 028b 05       		.uleb128 0x5
 3009 028c 39       		.uleb128 0x39
 3010 028d 0B       		.uleb128 0xb
 3011 028e 00       		.byte	0
 3012 028f 00       		.byte	0
 3013 0290 00       		.byte	0
 3014              		.section	.debug_loc,"",%progbits
 3015              	.Ldebug_loc0:
 3016              	.LVUS6:
 3017 0000 00       		.uleb128 0
 3018 0001 00       		.uleb128 .LVU82
 3019 0002 00       		.uleb128 .LVU82
 3020 0003 00       		.uleb128 .LVU85
 3021 0004 00       		.uleb128 .LVU85
ARM GAS  /var/folders/l5/0x54b2c10074c8bt31ycjvl80000gp/T//ccPV8Vrh.s 			page 54


 3022 0005 00       		.uleb128 .LVU86
 3023 0006 00       		.uleb128 .LVU86
 3024 0007 00       		.uleb128 .LVU86
 3025 0008 00       		.uleb128 .LVU86
 3026 0009 00       		.uleb128 .LVU88
 3027 000a 00       		.uleb128 .LVU88
 3028 000b 00       		.uleb128 .LVU100
 3029 000c 00       		.uleb128 .LVU100
 3030 000d 00       		.uleb128 .LVU102
 3031 000e 00       		.uleb128 .LVU102
 3032 000f 00       		.uleb128 .LVU105
 3033 0010 00       		.uleb128 .LVU105
 3034 0011 00       		.uleb128 .LVU106
 3035 0012 00       		.uleb128 .LVU106
 3036 0013 00       		.uleb128 .LVU106
 3037 0014 00       		.uleb128 .LVU106
 3038 0015 00       		.uleb128 .LVU107
 3039 0016 00       		.uleb128 .LVU107
 3040 0017 00       		.uleb128 .LVU110
 3041 0018 00       		.uleb128 .LVU110
 3042 0019 00       		.uleb128 .LVU111
 3043 001a 00       		.uleb128 .LVU111
 3044 001b 00       		.uleb128 0
 3045              	.LLST6:
 3046 001c 00000000 		.4byte	.LVL13
 3047 0020 2C000000 		.4byte	.LVL14
 3048 0024 0100     		.2byte	0x1
 3049 0026 50       		.byte	0x50
 3050 0027 2C000000 		.4byte	.LVL14
 3051 002b 40000000 		.4byte	.LVL16
 3052 002f 0100     		.2byte	0x1
 3053 0031 56       		.byte	0x56
 3054 0032 40000000 		.4byte	.LVL16
 3055 0036 43000000 		.4byte	.LVL17-1
 3056 003a 0300     		.2byte	0x3
 3057 003c 70       		.byte	0x70
 3058 003d 70       		.sleb128 -16
 3059 003e 9F       		.byte	0x9f
 3060 003f 43000000 		.4byte	.LVL17-1
 3061 0043 44000000 		.4byte	.LVL17
 3062 0047 0400     		.2byte	0x4
 3063 0049 F3       		.byte	0xf3
 3064 004a 01       		.uleb128 0x1
 3065 004b 50       		.byte	0x50
 3066 004c 9F       		.byte	0x9f
 3067 004d 44000000 		.4byte	.LVL17
 3068 0051 64000000 		.4byte	.LVL18
 3069 0055 0100     		.2byte	0x1
 3070 0057 50       		.byte	0x50
 3071 0058 64000000 		.4byte	.LVL18
 3072 005c 90000000 		.4byte	.LVL23
 3073 0060 0100     		.2byte	0x1
 3074 0062 56       		.byte	0x56
 3075 0063 90000000 		.4byte	.LVL23
 3076 0067 94000000 		.4byte	.LVL24
 3077 006b 0100     		.2byte	0x1
 3078 006d 50       		.byte	0x50
ARM GAS  /var/folders/l5/0x54b2c10074c8bt31ycjvl80000gp/T//ccPV8Vrh.s 			page 55


 3079 006e 94000000 		.4byte	.LVL24
 3080 0072 A8000000 		.4byte	.LVL26
 3081 0076 0100     		.2byte	0x1
 3082 0078 56       		.byte	0x56
 3083 0079 A8000000 		.4byte	.LVL26
 3084 007d AB000000 		.4byte	.LVL27-1
 3085 0081 0300     		.2byte	0x3
 3086 0083 70       		.byte	0x70
 3087 0084 70       		.sleb128 -16
 3088 0085 9F       		.byte	0x9f
 3089 0086 AB000000 		.4byte	.LVL27-1
 3090 008a AC000000 		.4byte	.LVL27
 3091 008e 0400     		.2byte	0x4
 3092 0090 F3       		.byte	0xf3
 3093 0091 01       		.uleb128 0x1
 3094 0092 50       		.byte	0x50
 3095 0093 9F       		.byte	0x9f
 3096 0094 AC000000 		.4byte	.LVL27
 3097 0098 B0000000 		.4byte	.LVL28
 3098 009c 0100     		.2byte	0x1
 3099 009e 50       		.byte	0x50
 3100 009f B0000000 		.4byte	.LVL28
 3101 00a3 C4000000 		.4byte	.LVL30
 3102 00a7 0100     		.2byte	0x1
 3103 00a9 56       		.byte	0x56
 3104 00aa C4000000 		.4byte	.LVL30
 3105 00ae C7000000 		.4byte	.LVL31-1
 3106 00b2 0300     		.2byte	0x3
 3107 00b4 70       		.byte	0x70
 3108 00b5 70       		.sleb128 -16
 3109 00b6 9F       		.byte	0x9f
 3110 00b7 C7000000 		.4byte	.LVL31-1
 3111 00bb C8000000 		.4byte	.LFE10
 3112 00bf 0400     		.2byte	0x4
 3113 00c1 F3       		.byte	0xf3
 3114 00c2 01       		.uleb128 0x1
 3115 00c3 50       		.byte	0x50
 3116 00c4 9F       		.byte	0x9f
 3117 00c5 00000000 		.4byte	0
 3118 00c9 00000000 		.4byte	0
 3119              	.LVUS7:
 3120 00cd 00       		.uleb128 0
 3121 00ce 00       		.uleb128 .LVU83
 3122 00cf 00       		.uleb128 .LVU83
 3123 00d0 00       		.uleb128 .LVU85
 3124 00d1 00       		.uleb128 .LVU85
 3125 00d2 00       		.uleb128 .LVU86
 3126 00d3 00       		.uleb128 .LVU86
 3127 00d4 00       		.uleb128 .LVU86
 3128 00d5 00       		.uleb128 .LVU86
 3129 00d6 00       		.uleb128 .LVU88
 3130 00d7 00       		.uleb128 .LVU88
 3131 00d8 00       		.uleb128 .LVU100
 3132 00d9 00       		.uleb128 .LVU100
 3133 00da 00       		.uleb128 .LVU103
 3134 00db 00       		.uleb128 .LVU103
 3135 00dc 00       		.uleb128 .LVU105
ARM GAS  /var/folders/l5/0x54b2c10074c8bt31ycjvl80000gp/T//ccPV8Vrh.s 			page 56


 3136 00dd 00       		.uleb128 .LVU105
 3137 00de 00       		.uleb128 .LVU106
 3138 00df 00       		.uleb128 .LVU106
 3139 00e0 00       		.uleb128 .LVU106
 3140 00e1 00       		.uleb128 .LVU106
 3141 00e2 00       		.uleb128 .LVU108
 3142 00e3 00       		.uleb128 .LVU108
 3143 00e4 00       		.uleb128 .LVU110
 3144 00e5 00       		.uleb128 .LVU110
 3145 00e6 00       		.uleb128 .LVU111
 3146 00e7 00       		.uleb128 .LVU111
 3147 00e8 00       		.uleb128 0
 3148              	.LLST7:
 3149 00e9 00000000 		.4byte	.LVL13
 3150 00ed 2F000000 		.4byte	.LVL15-1
 3151 00f1 0100     		.2byte	0x1
 3152 00f3 51       		.byte	0x51
 3153 00f4 2F000000 		.4byte	.LVL15-1
 3154 00f8 40000000 		.4byte	.LVL16
 3155 00fc 0100     		.2byte	0x1
 3156 00fe 55       		.byte	0x55
 3157 00ff 40000000 		.4byte	.LVL16
 3158 0103 43000000 		.4byte	.LVL17-1
 3159 0107 0100     		.2byte	0x1
 3160 0109 51       		.byte	0x51
 3161 010a 43000000 		.4byte	.LVL17-1
 3162 010e 44000000 		.4byte	.LVL17
 3163 0112 0400     		.2byte	0x4
 3164 0114 F3       		.byte	0xf3
 3165 0115 01       		.uleb128 0x1
 3166 0116 51       		.byte	0x51
 3167 0117 9F       		.byte	0x9f
 3168 0118 44000000 		.4byte	.LVL17
 3169 011c 64000000 		.4byte	.LVL18
 3170 0120 0100     		.2byte	0x1
 3171 0122 51       		.byte	0x51
 3172 0123 64000000 		.4byte	.LVL18
 3173 0127 90000000 		.4byte	.LVL23
 3174 012b 0100     		.2byte	0x1
 3175 012d 55       		.byte	0x55
 3176 012e 90000000 		.4byte	.LVL23
 3177 0132 97000000 		.4byte	.LVL25-1
 3178 0136 0100     		.2byte	0x1
 3179 0138 51       		.byte	0x51
 3180 0139 97000000 		.4byte	.LVL25-1
 3181 013d A8000000 		.4byte	.LVL26
 3182 0141 0100     		.2byte	0x1
 3183 0143 55       		.byte	0x55
 3184 0144 A8000000 		.4byte	.LVL26
 3185 0148 AB000000 		.4byte	.LVL27-1
 3186 014c 0100     		.2byte	0x1
 3187 014e 51       		.byte	0x51
 3188 014f AB000000 		.4byte	.LVL27-1
 3189 0153 AC000000 		.4byte	.LVL27
 3190 0157 0400     		.2byte	0x4
 3191 0159 F3       		.byte	0xf3
 3192 015a 01       		.uleb128 0x1
ARM GAS  /var/folders/l5/0x54b2c10074c8bt31ycjvl80000gp/T//ccPV8Vrh.s 			page 57


 3193 015b 51       		.byte	0x51
 3194 015c 9F       		.byte	0x9f
 3195 015d AC000000 		.4byte	.LVL27
 3196 0161 B3000000 		.4byte	.LVL29-1
 3197 0165 0100     		.2byte	0x1
 3198 0167 51       		.byte	0x51
 3199 0168 B3000000 		.4byte	.LVL29-1
 3200 016c C4000000 		.4byte	.LVL30
 3201 0170 0100     		.2byte	0x1
 3202 0172 55       		.byte	0x55
 3203 0173 C4000000 		.4byte	.LVL30
 3204 0177 C7000000 		.4byte	.LVL31-1
 3205 017b 0100     		.2byte	0x1
 3206 017d 51       		.byte	0x51
 3207 017e C7000000 		.4byte	.LVL31-1
 3208 0182 C8000000 		.4byte	.LFE10
 3209 0186 0400     		.2byte	0x4
 3210 0188 F3       		.byte	0xf3
 3211 0189 01       		.uleb128 0x1
 3212 018a 51       		.byte	0x51
 3213 018b 9F       		.byte	0x9f
 3214 018c 00000000 		.4byte	0
 3215 0190 00000000 		.4byte	0
 3216              	.LVUS8:
 3217 0194 00       		.uleb128 0
 3218 0195 00       		.uleb128 .LVU83
 3219 0196 00       		.uleb128 .LVU83
 3220 0197 00       		.uleb128 .LVU86
 3221 0198 00       		.uleb128 .LVU86
 3222 0199 00       		.uleb128 .LVU88
 3223 019a 00       		.uleb128 .LVU88
 3224 019b 00       		.uleb128 .LVU100
 3225 019c 00       		.uleb128 .LVU100
 3226 019d 00       		.uleb128 .LVU103
 3227 019e 00       		.uleb128 .LVU103
 3228 019f 00       		.uleb128 .LVU106
 3229 01a0 00       		.uleb128 .LVU106
 3230 01a1 00       		.uleb128 .LVU108
 3231 01a2 00       		.uleb128 .LVU108
 3232 01a3 00       		.uleb128 0
 3233              	.LLST8:
 3234 01a4 00000000 		.4byte	.LVL13
 3235 01a8 2F000000 		.4byte	.LVL15-1
 3236 01ac 0100     		.2byte	0x1
 3237 01ae 52       		.byte	0x52
 3238 01af 2F000000 		.4byte	.LVL15-1
 3239 01b3 44000000 		.4byte	.LVL17
 3240 01b7 0400     		.2byte	0x4
 3241 01b9 F3       		.byte	0xf3
 3242 01ba 01       		.uleb128 0x1
 3243 01bb 52       		.byte	0x52
 3244 01bc 9F       		.byte	0x9f
 3245 01bd 44000000 		.4byte	.LVL17
 3246 01c1 64000000 		.4byte	.LVL18
 3247 01c5 0100     		.2byte	0x1
 3248 01c7 52       		.byte	0x52
 3249 01c8 64000000 		.4byte	.LVL18
ARM GAS  /var/folders/l5/0x54b2c10074c8bt31ycjvl80000gp/T//ccPV8Vrh.s 			page 58


 3250 01cc 90000000 		.4byte	.LVL23
 3251 01d0 0400     		.2byte	0x4
 3252 01d2 F3       		.byte	0xf3
 3253 01d3 01       		.uleb128 0x1
 3254 01d4 52       		.byte	0x52
 3255 01d5 9F       		.byte	0x9f
 3256 01d6 90000000 		.4byte	.LVL23
 3257 01da 97000000 		.4byte	.LVL25-1
 3258 01de 0100     		.2byte	0x1
 3259 01e0 52       		.byte	0x52
 3260 01e1 97000000 		.4byte	.LVL25-1
 3261 01e5 AC000000 		.4byte	.LVL27
 3262 01e9 0400     		.2byte	0x4
 3263 01eb F3       		.byte	0xf3
 3264 01ec 01       		.uleb128 0x1
 3265 01ed 52       		.byte	0x52
 3266 01ee 9F       		.byte	0x9f
 3267 01ef AC000000 		.4byte	.LVL27
 3268 01f3 B3000000 		.4byte	.LVL29-1
 3269 01f7 0100     		.2byte	0x1
 3270 01f9 52       		.byte	0x52
 3271 01fa B3000000 		.4byte	.LVL29-1
 3272 01fe C8000000 		.4byte	.LFE10
 3273 0202 0400     		.2byte	0x4
 3274 0204 F3       		.byte	0xf3
 3275 0205 01       		.uleb128 0x1
 3276 0206 52       		.byte	0x52
 3277 0207 9F       		.byte	0x9f
 3278 0208 00000000 		.4byte	0
 3279 020c 00000000 		.4byte	0
 3280              	.LVUS9:
 3281 0210 00       		.uleb128 .LVU88
 3282 0211 00       		.uleb128 .LVU90
 3283 0212 00       		.uleb128 .LVU90
 3284 0213 00       		.uleb128 .LVU92
 3285 0214 00       		.uleb128 .LVU92
 3286 0215 00       		.uleb128 .LVU100
 3287              	.LLST9:
 3288 0216 64000000 		.4byte	.LVL18
 3289 021a 68000000 		.4byte	.LVL19
 3290 021e 0100     		.2byte	0x1
 3291 0220 54       		.byte	0x54
 3292 0221 68000000 		.4byte	.LVL19
 3293 0225 70000000 		.4byte	.LVL20
 3294 0229 0300     		.2byte	0x3
 3295 022b 74       		.byte	0x74
 3296 022c 7F       		.sleb128 -1
 3297 022d 9F       		.byte	0x9f
 3298 022e 70000000 		.4byte	.LVL20
 3299 0232 90000000 		.4byte	.LVL23
 3300 0236 0100     		.2byte	0x1
 3301 0238 54       		.byte	0x54
 3302 0239 00000000 		.4byte	0
 3303 023d 00000000 		.4byte	0
 3304              	.LVUS10:
 3305 0241 00       		.uleb128 .LVU88
 3306 0242 00       		.uleb128 .LVU92
ARM GAS  /var/folders/l5/0x54b2c10074c8bt31ycjvl80000gp/T//ccPV8Vrh.s 			page 59


 3307 0243 01       		.uleb128 .LVU95
 3308 0244 00       		.uleb128 .LVU100
 3309              	.LLST10:
 3310 0245 64000000 		.4byte	.LVL18
 3311 0249 70000000 		.4byte	.LVL20
 3312 024d 0500     		.2byte	0x5
 3313 024f 75       		.byte	0x75
 3314 0250 00       		.sleb128 0
 3315 0251 31       		.byte	0x31
 3316 0252 1A       		.byte	0x1a
 3317 0253 9F       		.byte	0x9f
 3318 0254 74000000 		.4byte	.LVL21
 3319 0258 90000000 		.4byte	.LVL23
 3320 025c 0500     		.2byte	0x5
 3321 025e 75       		.byte	0x75
 3322 025f 00       		.sleb128 0
 3323 0260 31       		.byte	0x31
 3324 0261 1A       		.byte	0x1a
 3325 0262 9F       		.byte	0x9f
 3326 0263 00000000 		.4byte	0
 3327 0267 00000000 		.4byte	0
 3328              	.LVUS5:
 3329 026b 00       		.uleb128 0
 3330 026c 00       		.uleb128 .LVU47
 3331 026d 00       		.uleb128 .LVU47
 3332 026e 00       		.uleb128 0
 3333              	.LLST5:
 3334 026f 00000000 		.4byte	.LVL9
 3335 0273 1C000000 		.4byte	.LVL10
 3336 0277 0100     		.2byte	0x1
 3337 0279 50       		.byte	0x50
 3338 027a 1C000000 		.4byte	.LVL10
 3339 027e 98000000 		.4byte	.LFE9
 3340 0282 0400     		.2byte	0x4
 3341 0284 F3       		.byte	0xf3
 3342 0285 01       		.uleb128 0x1
 3343 0286 50       		.byte	0x50
 3344 0287 9F       		.byte	0x9f
 3345 0288 00000000 		.4byte	0
 3346 028c 00000000 		.4byte	0
 3347              	.LVUS0:
 3348 0290 00       		.uleb128 0
 3349 0291 00       		.uleb128 .LVU6
 3350 0292 00       		.uleb128 .LVU6
 3351 0293 00       		.uleb128 0
 3352              	.LLST0:
 3353 0294 00000000 		.4byte	.LVL0
 3354 0298 14000000 		.4byte	.LVL1
 3355 029c 0100     		.2byte	0x1
 3356 029e 51       		.byte	0x51
 3357 029f 14000000 		.4byte	.LVL1
 3358 02a3 40000000 		.4byte	.LFE12
 3359 02a7 0100     		.2byte	0x1
 3360 02a9 55       		.byte	0x55
 3361 02aa 00000000 		.4byte	0
 3362 02ae 00000000 		.4byte	0
 3363              	.LVUS1:
ARM GAS  /var/folders/l5/0x54b2c10074c8bt31ycjvl80000gp/T//ccPV8Vrh.s 			page 60


 3364 02b2 03       		.uleb128 .LVU3
 3365 02b3 00       		.uleb128 .LVU6
 3366 02b4 00       		.uleb128 .LVU6
 3367 02b5 00       		.uleb128 .LVU8
 3368 02b6 00       		.uleb128 .LVU8
 3369 02b7 00       		.uleb128 .LVU10
 3370 02b8 00       		.uleb128 .LVU10
 3371 02b9 00       		.uleb128 0
 3372              	.LLST1:
 3373 02ba 00000000 		.4byte	.LVL0
 3374 02be 14000000 		.4byte	.LVL1
 3375 02c2 0200     		.2byte	0x2
 3376 02c4 30       		.byte	0x30
 3377 02c5 9F       		.byte	0x9f
 3378 02c6 14000000 		.4byte	.LVL1
 3379 02ca 18000000 		.4byte	.LVL2
 3380 02ce 0100     		.2byte	0x1
 3381 02d0 54       		.byte	0x54
 3382 02d1 18000000 		.4byte	.LVL2
 3383 02d5 20000000 		.4byte	.LVL3
 3384 02d9 0300     		.2byte	0x3
 3385 02db 74       		.byte	0x74
 3386 02dc 7F       		.sleb128 -1
 3387 02dd 9F       		.byte	0x9f
 3388 02de 20000000 		.4byte	.LVL3
 3389 02e2 40000000 		.4byte	.LFE12
 3390 02e6 0100     		.2byte	0x1
 3391 02e8 54       		.byte	0x54
 3392 02e9 00000000 		.4byte	0
 3393 02ed 00000000 		.4byte	0
 3394              	.LVUS2:
 3395 02f1 00       		.uleb128 .LVU6
 3396 02f2 00       		.uleb128 .LVU10
 3397 02f3 01       		.uleb128 .LVU13
 3398 02f4 00       		.uleb128 0
 3399              	.LLST2:
 3400 02f5 14000000 		.4byte	.LVL1
 3401 02f9 20000000 		.4byte	.LVL3
 3402 02fd 0500     		.2byte	0x5
 3403 02ff 75       		.byte	0x75
 3404 0300 00       		.sleb128 0
 3405 0301 31       		.byte	0x31
 3406 0302 1A       		.byte	0x1a
 3407 0303 9F       		.byte	0x9f
 3408 0304 24000000 		.4byte	.LVL4
 3409 0308 40000000 		.4byte	.LFE12
 3410 030c 0500     		.2byte	0x5
 3411 030e 75       		.byte	0x75
 3412 030f 00       		.sleb128 0
 3413 0310 31       		.byte	0x31
 3414 0311 1A       		.byte	0x1a
 3415 0312 9F       		.byte	0x9f
 3416 0313 00000000 		.4byte	0
 3417 0317 00000000 		.4byte	0
 3418              	.LVUS3:
 3419 031b 00       		.uleb128 0
 3420 031c 00       		.uleb128 .LVU26
ARM GAS  /var/folders/l5/0x54b2c10074c8bt31ycjvl80000gp/T//ccPV8Vrh.s 			page 61


 3421 031d 00       		.uleb128 .LVU26
 3422 031e 00       		.uleb128 0
 3423              	.LLST3:
 3424 031f 00000000 		.4byte	.LVL6
 3425 0323 1B000000 		.4byte	.LVL7-1
 3426 0327 0100     		.2byte	0x1
 3427 0329 51       		.byte	0x51
 3428 032a 1B000000 		.4byte	.LVL7-1
 3429 032e 44000000 		.4byte	.LFE13
 3430 0332 0100     		.2byte	0x1
 3431 0334 56       		.byte	0x56
 3432 0335 00000000 		.4byte	0
 3433 0339 00000000 		.4byte	0
 3434              	.LVUS4:
 3435 033d 00       		.uleb128 0
 3436 033e 00       		.uleb128 .LVU26
 3437 033f 00       		.uleb128 .LVU26
 3438 0340 00       		.uleb128 0
 3439              	.LLST4:
 3440 0341 00000000 		.4byte	.LVL6
 3441 0345 1B000000 		.4byte	.LVL7-1
 3442 0349 0100     		.2byte	0x1
 3443 034b 52       		.byte	0x52
 3444 034c 1B000000 		.4byte	.LVL7-1
 3445 0350 44000000 		.4byte	.LFE13
 3446 0354 0400     		.2byte	0x4
 3447 0356 F3       		.byte	0xf3
 3448 0357 01       		.uleb128 0x1
 3449 0358 52       		.byte	0x52
 3450 0359 9F       		.byte	0x9f
 3451 035a 00000000 		.4byte	0
 3452 035e 00000000 		.4byte	0
 3453              		.section	.debug_aranges,"",%progbits
 3454 0000 3C000000 		.4byte	0x3c
 3455 0004 0200     		.2byte	0x2
 3456 0006 00000000 		.4byte	.Ldebug_info0
 3457 000a 04       		.byte	0x4
 3458 000b 00       		.byte	0
 3459 000c 0000     		.2byte	0
 3460 000e 0000     		.2byte	0
 3461 0010 00000000 		.4byte	.LFB12
 3462 0014 40000000 		.4byte	.LFE12-.LFB12
 3463 0018 00000000 		.4byte	.LFB13
 3464 001c 44000000 		.4byte	.LFE13-.LFB13
 3465 0020 00000000 		.4byte	.LFB9
 3466 0024 98000000 		.4byte	.LFE9-.LFB9
 3467 0028 00000000 		.4byte	.LFB10
 3468 002c C8000000 		.4byte	.LFE10-.LFB10
 3469 0030 00000000 		.4byte	.LFB11
 3470 0034 1C000000 		.4byte	.LFE11-.LFB11
 3471 0038 00000000 		.4byte	0
 3472 003c 00000000 		.4byte	0
 3473              		.section	.debug_ranges,"",%progbits
 3474              	.Ldebug_ranges0:
 3475 0000 14000000 		.4byte	.LBB3
 3476 0004 14000000 		.4byte	.LBE3
 3477 0008 1C000000 		.4byte	.LBB4
ARM GAS  /var/folders/l5/0x54b2c10074c8bt31ycjvl80000gp/T//ccPV8Vrh.s 			page 62


 3478 000c 20000000 		.4byte	.LBE4
 3479 0010 24000000 		.4byte	.LBB5
 3480 0014 40000000 		.4byte	.LBE5
 3481 0018 00000000 		.4byte	0
 3482 001c 00000000 		.4byte	0
 3483 0020 64000000 		.4byte	.LBB6
 3484 0024 64000000 		.4byte	.LBE6
 3485 0028 6C000000 		.4byte	.LBB7
 3486 002c 70000000 		.4byte	.LBE7
 3487 0030 74000000 		.4byte	.LBB8
 3488 0034 90000000 		.4byte	.LBE8
 3489 0038 00000000 		.4byte	0
 3490 003c 00000000 		.4byte	0
 3491 0040 00000000 		.4byte	.LFB12
 3492 0044 40000000 		.4byte	.LFE12
 3493 0048 00000000 		.4byte	.LFB13
 3494 004c 44000000 		.4byte	.LFE13
 3495 0050 00000000 		.4byte	.LFB9
 3496 0054 98000000 		.4byte	.LFE9
 3497 0058 00000000 		.4byte	.LFB10
 3498 005c C8000000 		.4byte	.LFE10
 3499 0060 00000000 		.4byte	.LFB11
 3500 0064 1C000000 		.4byte	.LFE11
 3501 0068 00000000 		.4byte	0
 3502 006c 00000000 		.4byte	0
 3503              		.section	.debug_line,"",%progbits
 3504              	.Ldebug_line0:
 3505 0000 50040000 		.section	.debug_str,"MS",%progbits,1
 3505      03006B02 
 3505      00000201 
 3505      FB0E0D00 
 3505      01010101 
 3506              	.LASF3:
 3507 0000 73697A65 		.ascii	"size_t\000"
 3507      5F7400
 3508              	.LASF71:
 3509 0007 7264796D 		.ascii	"rdymsg\000"
 3509      736700
 3510              	.LASF86:
 3511 000e 4F757470 		.ascii	"OutputQueue\000"
 3511      75745175 
 3511      65756500 
 3512              	.LASF4:
 3513 001a 5F5F7569 		.ascii	"__uint8_t\000"
 3513      6E74385F 
 3513      7400
 3514              	.LASF58:
 3515 0024 76746C69 		.ascii	"vtlist\000"
 3515      737400
 3516              	.LASF88:
 3517 002b 62736364 		.ascii	"bscdevice_t\000"
 3517      65766963 
 3517      655F7400 
 3518              	.LASF105:
 3519 0037 696F706F 		.ascii	"ioportmask_t\000"
 3519      72746D61 
 3519      736B5F74 
ARM GAS  /var/folders/l5/0x54b2c10074c8bt31ycjvl80000gp/T//ccPV8Vrh.s 			page 63


 3519      00
 3520              	.LASF12:
 3521 0044 6C6F6E67 		.ascii	"long long unsigned int\000"
 3521      206C6F6E 
 3521      6720756E 
 3521      7369676E 
 3521      65642069 
 3522              	.LASF124:
 3523 005b 61646472 		.ascii	"addr\000"
 3523      00
 3524              	.LASF72:
 3525 0060 65786974 		.ascii	"exitcode\000"
 3525      636F6465 
 3525      00
 3526              	.LASF128:
 3527 0069 72786275 		.ascii	"rxbuf\000"
 3527      6600
 3528              	.LASF93:
 3529 006f 64617461 		.ascii	"dataFifo\000"
 3529      4669666F 
 3529      00
 3530              	.LASF29:
 3531 0078 705F7072 		.ascii	"p_prio\000"
 3531      696F00
 3532              	.LASF150:
 3533 007f 72656164 		.ascii	"readt\000"
 3533      7400
 3534              	.LASF121:
 3535 0085 64657669 		.ascii	"device\000"
 3535      636500
 3536              	.LASF76:
 3537 008c 715F7761 		.ascii	"q_waiting\000"
 3537      6974696E 
 3537      6700
 3538              	.LASF11:
 3539 0096 6C6F6E67 		.ascii	"long long int\000"
 3539      206C6F6E 
 3539      6720696E 
 3539      7400
 3540              	.LASF2:
 3541 00a4 7369676E 		.ascii	"signed char\000"
 3541      65642063 
 3541      68617200 
 3542              	.LASF137:
 3543 00b0 53445F53 		.ascii	"SD_STOP\000"
 3543      544F5000 
 3544              	.LASF61:
 3545 00b8 6D5F7175 		.ascii	"m_queue\000"
 3545      65756500 
 3546              	.LASF157:
 3547 00c0 5F70616C 		.ascii	"_pal_lld_init\000"
 3547      5F6C6C64 
 3547      5F696E69 
 3547      7400
 3548              	.LASF20:
 3549 00ce 74736C69 		.ascii	"tslices_t\000"
 3549      6365735F 
ARM GAS  /var/folders/l5/0x54b2c10074c8bt31ycjvl80000gp/T//ccPV8Vrh.s 			page 64


 3549      7400
 3550              	.LASF110:
 3551 00d8 4932435F 		.ascii	"I2C_UNINIT\000"
 3551      554E494E 
 3551      495400
 3552              	.LASF132:
 3553 00e3 69326361 		.ascii	"i2caddr_t\000"
 3553      6464725F 
 3553      7400
 3554              	.LASF118:
 3555 00ed 73746174 		.ascii	"state\000"
 3555      6500
 3556              	.LASF152:
 3557 00f3 62697473 		.ascii	"bits\000"
 3557      00
 3558              	.LASF0:
 3559 00f8 6C6F6E67 		.ascii	"long int\000"
 3559      20696E74 
 3559      00
 3560              	.LASF19:
 3561 0101 74737461 		.ascii	"tstate_t\000"
 3561      74655F74 
 3561      00
 3562              	.LASF123:
 3563 010a 74687265 		.ascii	"thread\000"
 3563      616400
 3564              	.LASF95:
 3565 0111 64617461 		.ascii	"dataDelay\000"
 3565      44656C61 
 3565      7900
 3566              	.LASF78:
 3567 011b 715F6275 		.ascii	"q_buffer\000"
 3567      66666572 
 3567      00
 3568              	.LASF14:
 3569 0124 75696E74 		.ascii	"uint16_t\000"
 3569      31365F74 
 3569      00
 3570              	.LASF113:
 3571 012d 4932435F 		.ascii	"I2C_ACTIVE_TX\000"
 3571      41435449 
 3571      56455F54 
 3571      5800
 3572              	.LASF91:
 3573 013b 64617461 		.ascii	"dataLength\000"
 3573      4C656E67 
 3573      746800
 3574              	.LASF87:
 3575 0146 5F69646C 		.ascii	"_idle_thread_wa\000"
 3575      655F7468 
 3575      72656164 
 3575      5F776100 
 3576              	.LASF158:
 3577 0156 7365745F 		.ascii	"set_gpio_in\000"
 3577      6770696F 
 3577      5F696E00 
 3578              	.LASF89:
ARM GAS  /var/folders/l5/0x54b2c10074c8bt31ycjvl80000gp/T//ccPV8Vrh.s 			page 65


 3579 0162 636F6E74 		.ascii	"control\000"
 3579      726F6C00 
 3580              	.LASF10:
 3581 016a 5F5F7569 		.ascii	"__uint32_t\000"
 3581      6E743332 
 3581      5F7400
 3582              	.LASF155:
 3583 0175 6D61736B 		.ascii	"mask\000"
 3583      00
 3584              	.LASF41:
 3585 017a 72656761 		.ascii	"regarm_t\000"
 3585      726D5F74 
 3585      00
 3586              	.LASF47:
 3587 0183 76745F70 		.ascii	"vt_prev\000"
 3587      72657600 
 3588              	.LASF92:
 3589 018b 736C6176 		.ascii	"slaveAddress\000"
 3589      65416464 
 3589      72657373 
 3589      00
 3590              	.LASF163:
 3591 0198 474E5520 		.ascii	"GNU C17 8.3.1 20190703 (release) [gcc-8-branch revi"
 3591      43313720 
 3591      382E332E 
 3591      31203230 
 3591      31393037 
 3592 01cb 73696F6E 		.ascii	"sion 273027] -mcpu=arm1176jz-s -mabi=apcs-gnu -mno-"
 3592      20323733 
 3592      3032375D 
 3592      202D6D63 
 3592      70753D61 
 3593 01fe 7468756D 		.ascii	"thumb-interwork -mfloat-abi=soft -marm -march=armv6"
 3593      622D696E 
 3593      74657277 
 3593      6F726B20 
 3593      2D6D666C 
 3594 0231 6B7A202D 		.ascii	"kz -ggdb -O2 -fomit-frame-pointer -ffunction-sectio"
 3594      67676462 
 3594      202D4F32 
 3594      202D666F 
 3594      6D69742D 
 3595 0264 6E73202D 		.ascii	"ns -fdata-sections\000"
 3595      66646174 
 3595      612D7365 
 3595      6374696F 
 3595      6E7300
 3596              	.LASF135:
 3597 0277 49324330 		.ascii	"I2C0\000"
 3597      00
 3598              	.LASF151:
 3599 027c 706F7274 		.ascii	"port\000"
 3599      00
 3600              	.LASF69:
 3601 0281 4576656E 		.ascii	"EventSource\000"
 3601      74536F75 
 3601      72636500 
ARM GAS  /var/folders/l5/0x54b2c10074c8bt31ycjvl80000gp/T//ccPV8Vrh.s 			page 66


 3602              	.LASF17:
 3603 028d 756E7369 		.ascii	"unsigned int\000"
 3603      676E6564 
 3603      20696E74 
 3603      00
 3604              	.LASF46:
 3605 029a 76745F6E 		.ascii	"vt_next\000"
 3605      65787400 
 3606              	.LASF125:
 3607 02a2 74786275 		.ascii	"txbuf\000"
 3607      6600
 3608              	.LASF144:
 3609 02a8 53657269 		.ascii	"SerialDriverVMT\000"
 3609      616C4472 
 3609      69766572 
 3609      564D5400 
 3610              	.LASF120:
 3611 02b8 6572726F 		.ascii	"errors\000"
 3611      727300
 3612              	.LASF142:
 3613 02bf 69717565 		.ascii	"iqueue\000"
 3613      756500
 3614              	.LASF1:
 3615 02c6 6C6F6E67 		.ascii	"long unsigned int\000"
 3615      20756E73 
 3615      69676E65 
 3615      6420696E 
 3615      7400
 3616              	.LASF148:
 3617 02d8 67657474 		.ascii	"gett\000"
 3617      00
 3618              	.LASF44:
 3619 02dd 76746675 		.ascii	"vtfunc_t\000"
 3619      6E635F74 
 3619      00
 3620              	.LASF141:
 3621 02e6 6576656E 		.ascii	"event\000"
 3621      7400
 3622              	.LASF8:
 3623 02ec 73686F72 		.ascii	"short unsigned int\000"
 3623      7420756E 
 3623      7369676E 
 3623      65642069 
 3623      6E7400
 3624              	.LASF103:
 3625 02ff 6770696F 		.ascii	"gpio_port_t\000"
 3625      5F706F72 
 3625      745F7400 
 3626              	.LASF99:
 3627 030b 6770636C 		.ascii	"gpclr\000"
 3627      7200
 3628              	.LASF22:
 3629 0311 6D73675F 		.ascii	"msg_t\000"
 3629      7400
 3630              	.LASF143:
 3631 0317 6F717565 		.ascii	"oqueue\000"
 3631      756500
ARM GAS  /var/folders/l5/0x54b2c10074c8bt31ycjvl80000gp/T//ccPV8Vrh.s 			page 67


 3632              	.LASF165:
 3633 031e 2F557365 		.ascii	"/Users/fernandoguirado/eclipse-workspace/ChibiOS-RP"
 3633      72732F66 
 3633      65726E61 
 3633      6E646F67 
 3633      75697261 
 3634 0351 692D6D69 		.ascii	"i-minimo/testhal/BCM2835/I2C\000"
 3634      6E696D6F 
 3634      2F746573 
 3634      7468616C 
 3634      2F42434D 
 3635              	.LASF65:
 3636 036e 656C5F6E 		.ascii	"el_next\000"
 3636      65787400 
 3637              	.LASF162:
 3638 0376 62636D32 		.ascii	"bcm2835_delay\000"
 3638      3833355F 
 3638      64656C61 
 3638      7900
 3639              	.LASF149:
 3640 0384 77726974 		.ascii	"writet\000"
 3640      657400
 3641              	.LASF18:
 3642 038b 746D6F64 		.ascii	"tmode_t\000"
 3642      655F7400 
 3643              	.LASF153:
 3644 0393 5F70616C 		.ascii	"_pal_lld_writeport\000"
 3644      5F6C6C64 
 3644      5F777269 
 3644      7465706F 
 3644      727400
 3645              	.LASF39:
 3646 03a6 54687265 		.ascii	"ThreadsList\000"
 3646      6164734C 
 3646      69737400 
 3647              	.LASF23:
 3648 03b2 6576656E 		.ascii	"eventmask_t\000"
 3648      746D6173 
 3648      6B5F7400 
 3649              	.LASF85:
 3650 03be 496E7075 		.ascii	"InputQueue\000"
 3650      74517565 
 3650      756500
 3651              	.LASF60:
 3652 03c9 4D757465 		.ascii	"Mutex\000"
 3652      7800
 3653              	.LASF114:
 3654 03cf 4932435F 		.ascii	"I2C_ACTIVE_RX\000"
 3654      41435449 
 3654      56455F52 
 3654      5800
 3655              	.LASF75:
 3656 03dd 47656E65 		.ascii	"GenericQueue\000"
 3656      72696351 
 3656      75657565 
 3656      00
 3657              	.LASF40:
ARM GAS  /var/folders/l5/0x54b2c10074c8bt31ycjvl80000gp/T//ccPV8Vrh.s 			page 68


 3658 03ea 73746B61 		.ascii	"stkalign_t\000"
 3658      6C69676E 
 3658      5F7400
 3659              	.LASF145:
 3660 03f5 77726974 		.ascii	"write\000"
 3660      6500
 3661              	.LASF100:
 3662 03fb 67706C65 		.ascii	"gplev\000"
 3662      7600
 3663              	.LASF147:
 3664 0401 70757474 		.ascii	"putt\000"
 3664      00
 3665              	.LASF48:
 3666 0406 76745F74 		.ascii	"vt_time\000"
 3666      696D6500 
 3667              	.LASF111:
 3668 040e 4932435F 		.ascii	"I2C_STOP\000"
 3668      53544F50 
 3668      00
 3669              	.LASF94:
 3670 0417 636C6F63 		.ascii	"clockDivider\000"
 3670      6B446976 
 3670      69646572 
 3670      00
 3671              	.LASF77:
 3672 0424 715F636F 		.ascii	"q_counter\000"
 3672      756E7465 
 3672      7200
 3673              	.LASF49:
 3674 042e 76745F66 		.ascii	"vt_func\000"
 3674      756E6300 
 3675              	.LASF133:
 3676 0436 69635F73 		.ascii	"ic_speed\000"
 3676      70656564 
 3676      00
 3677              	.LASF52:
 3678 043f 56544C69 		.ascii	"VTList\000"
 3678      737400
 3679              	.LASF129:
 3680 0446 72786279 		.ascii	"rxbytes\000"
 3680      74657300 
 3681              	.LASF80:
 3682 044e 715F7772 		.ascii	"q_wrptr\000"
 3682      70747200 
 3683              	.LASF55:
 3684 0456 725F6374 		.ascii	"r_ctx\000"
 3684      7800
 3685              	.LASF38:
 3686 045c 54687265 		.ascii	"ThreadsQueue\000"
 3686      61647351 
 3686      75657565 
 3686      00
 3687              	.LASF107:
 3688 0469 494F504F 		.ascii	"IOPORT0\000"
 3688      52543000 
 3689              	.LASF56:
 3690 0471 725F6375 		.ascii	"r_current\000"
ARM GAS  /var/folders/l5/0x54b2c10074c8bt31ycjvl80000gp/T//ccPV8Vrh.s 			page 69


 3690      7272656E 
 3690      7400
 3691              	.LASF67:
 3692 047b 656C5F6D 		.ascii	"el_mask\000"
 3692      61736B00 
 3693              	.LASF98:
 3694 0483 67707365 		.ascii	"gpset\000"
 3694      7400
 3695              	.LASF101:
 3696 0489 67707075 		.ascii	"gppudclk\000"
 3696      64636C6B 
 3696      00
 3697              	.LASF161:
 3698 0492 62636D32 		.ascii	"bcm2835_gpio_fnsel\000"
 3698      3833355F 
 3698      6770696F 
 3698      5F666E73 
 3698      656C00
 3699              	.LASF130:
 3700 04a5 72786964 		.ascii	"rxidx\000"
 3700      7800
 3701              	.LASF116:
 3702 04ab 69326373 		.ascii	"i2cstate_t\000"
 3702      74617465 
 3702      5F7400
 3703              	.LASF84:
 3704 04b6 716E6F74 		.ascii	"qnotify_t\000"
 3704      6966795F 
 3704      7400
 3705              	.LASF28:
 3706 04c0 705F7072 		.ascii	"p_prev\000"
 3706      657600
 3707              	.LASF21:
 3708 04c7 74707269 		.ascii	"tprio_t\000"
 3708      6F5F7400 
 3709              	.LASF81:
 3710 04cf 715F7264 		.ascii	"q_rdptr\000"
 3710      70747200 
 3711              	.LASF131:
 3712 04d7 69326366 		.ascii	"i2cflags_t\000"
 3712      6C616773 
 3712      5F7400
 3713              	.LASF122:
 3714 04e2 6D757465 		.ascii	"mutex\000"
 3714      7800
 3715              	.LASF15:
 3716 04e8 696E7433 		.ascii	"int32_t\000"
 3716      325F7400 
 3717              	.LASF5:
 3718 04f0 756E7369 		.ascii	"unsigned char\000"
 3718      676E6564 
 3718      20636861 
 3718      7200
 3719              	.LASF66:
 3720 04fe 656C5F6C 		.ascii	"el_listener\000"
 3720      69737465 
 3720      6E657200 
ARM GAS  /var/folders/l5/0x54b2c10074c8bt31ycjvl80000gp/T//ccPV8Vrh.s 			page 70


 3721              	.LASF68:
 3722 050a 656C5F66 		.ascii	"el_flags\000"
 3722      6C616773 
 3722      00
 3723              	.LASF36:
 3724 0513 705F6D74 		.ascii	"p_mtxlist\000"
 3724      786C6973 
 3724      7400
 3725              	.LASF6:
 3726 051d 73686F72 		.ascii	"short int\000"
 3726      7420696E 
 3726      7400
 3727              	.LASF31:
 3728 0527 705F7374 		.ascii	"p_state\000"
 3728      61746500 
 3729              	.LASF33:
 3730 052f 705F7072 		.ascii	"p_preempt\000"
 3730      65656D70 
 3730      7400
 3731              	.LASF54:
 3732 0539 725F7072 		.ascii	"r_prio\000"
 3732      696F00
 3733              	.LASF102:
 3734 0540 70696E5F 		.ascii	"pin_base\000"
 3734      62617365 
 3734      00
 3735              	.LASF74:
 3736 0549 65776D61 		.ascii	"ewmask\000"
 3736      736B00
 3737              	.LASF27:
 3738 0550 705F6E65 		.ascii	"p_next\000"
 3738      787400
 3739              	.LASF108:
 3740 0557 494F504F 		.ascii	"IOPORT1\000"
 3740      52543100 
 3741              	.LASF32:
 3742 055f 705F666C 		.ascii	"p_flags\000"
 3742      61677300 
 3743              	.LASF26:
 3744 0567 54687265 		.ascii	"Thread\000"
 3744      616400
 3745              	.LASF115:
 3746 056e 4932435F 		.ascii	"I2C_LOCKED\000"
 3746      4C4F434B 
 3746      454400
 3747              	.LASF35:
 3748 0579 705F6570 		.ascii	"p_epending\000"
 3748      656E6469 
 3748      6E6700
 3749              	.LASF136:
 3750 0584 53445F55 		.ascii	"SD_UNINIT\000"
 3750      4E494E49 
 3750      5400
 3751              	.LASF16:
 3752 058e 75696E74 		.ascii	"uint32_t\000"
 3752      33325F74 
 3752      00
ARM GAS  /var/folders/l5/0x54b2c10074c8bt31ycjvl80000gp/T//ccPV8Vrh.s 			page 71


 3753              	.LASF53:
 3754 0597 725F7175 		.ascii	"r_queue\000"
 3754      65756500 
 3755              	.LASF45:
 3756 059f 56697274 		.ascii	"VirtualTimer\000"
 3756      75616C54 
 3756      696D6572 
 3756      00
 3757              	.LASF140:
 3758 05ac 53657269 		.ascii	"SerialDriver\000"
 3758      616C4472 
 3758      69766572 
 3758      00
 3759              	.LASF164:
 3760 05b9 2E2E2F2E 		.ascii	"../../../os/hal/platforms/BCM2835/pal_lld.c\000"
 3760      2E2F2E2E 
 3760      2F6F732F 
 3760      68616C2F 
 3760      706C6174 
 3761              	.LASF146:
 3762 05e5 72656164 		.ascii	"read\000"
 3762      00
 3763              	.LASF156:
 3764 05ea 6D6F6465 		.ascii	"mode\000"
 3764      00
 3765              	.LASF119:
 3766 05ef 636F6E66 		.ascii	"config\000"
 3766      696700
 3767              	.LASF7:
 3768 05f6 5F5F7569 		.ascii	"__uint16_t\000"
 3768      6E743136 
 3768      5F7400
 3769              	.LASF63:
 3770 0601 6D5F6E65 		.ascii	"m_next\000"
 3770      787400
 3771              	.LASF25:
 3772 0608 73797374 		.ascii	"systime_t\000"
 3772      696D655F 
 3772      7400
 3773              	.LASF37:
 3774 0612 705F7265 		.ascii	"p_realprio\000"
 3774      616C7072 
 3774      696F00
 3775              	.LASF9:
 3776 061d 5F5F696E 		.ascii	"__int32_t\000"
 3776      7433325F 
 3776      7400
 3777              	.LASF112:
 3778 0627 4932435F 		.ascii	"I2C_READY\000"
 3778      52454144 
 3778      5900
 3779              	.LASF117:
 3780 0631 49324344 		.ascii	"I2CDriver\000"
 3780      72697665 
 3780      7200
 3781              	.LASF106:
 3782 063b 696F706F 		.ascii	"ioportid_t\000"
ARM GAS  /var/folders/l5/0x54b2c10074c8bt31ycjvl80000gp/T//ccPV8Vrh.s 			page 72


 3782      72746964 
 3782      5F7400
 3783              	.LASF43:
 3784 0646 636F6E74 		.ascii	"context\000"
 3784      65787400 
 3785              	.LASF154:
 3786 064e 5F70616C 		.ascii	"_pal_lld_setgroupmode\000"
 3786      5F6C6C64 
 3786      5F736574 
 3786      67726F75 
 3786      706D6F64 
 3787              	.LASF42:
 3788 0664 696E7463 		.ascii	"intctx\000"
 3788      747800
 3789              	.LASF138:
 3790 066b 53445F52 		.ascii	"SD_READY\000"
 3790      45414459 
 3790      00
 3791              	.LASF50:
 3792 0674 76745F70 		.ascii	"vt_par\000"
 3792      617200
 3793              	.LASF24:
 3794 067b 666C6167 		.ascii	"flagsmask_t\000"
 3794      736D6173 
 3794      6B5F7400 
 3795              	.LASF134:
 3796 0687 49324343 		.ascii	"I2CConfig\000"
 3796      6F6E6669 
 3796      6700
 3797              	.LASF139:
 3798 0691 73647374 		.ascii	"sdstate_t\000"
 3798      6174655F 
 3798      7400
 3799              	.LASF127:
 3800 069b 74786964 		.ascii	"txidx\000"
 3800      7800
 3801              	.LASF79:
 3802 06a1 715F746F 		.ascii	"q_top\000"
 3802      7000
 3803              	.LASF70:
 3804 06a7 65735F6E 		.ascii	"es_next\000"
 3804      65787400 
 3805              	.LASF90:
 3806 06af 73746174 		.ascii	"status\000"
 3806      757300
 3807              	.LASF57:
 3808 06b6 52656164 		.ascii	"ReadyList\000"
 3808      794C6973 
 3808      7400
 3809              	.LASF82:
 3810 06c0 715F6E6F 		.ascii	"q_notify\000"
 3810      74696679 
 3810      00
 3811              	.LASF59:
 3812 06c9 726C6973 		.ascii	"rlist\000"
 3812      7400
 3813              	.LASF159:
ARM GAS  /var/folders/l5/0x54b2c10074c8bt31ycjvl80000gp/T//ccPV8Vrh.s 			page 73


 3814 06cf 7365745F 		.ascii	"set_gpio_pud\000"
 3814      6770696F 
 3814      5F707564 
 3814      00
 3815              	.LASF13:
 3816 06dc 75696E74 		.ascii	"uint8_t\000"
 3816      385F7400 
 3817              	.LASF97:
 3818 06e4 6C617463 		.ascii	"latch\000"
 3818      6800
 3819              	.LASF64:
 3820 06ea 4576656E 		.ascii	"EventListener\000"
 3820      744C6973 
 3820      74656E65 
 3820      7200
 3821              	.LASF73:
 3822 06f8 77746F62 		.ascii	"wtobjp\000"
 3822      6A7000
 3823              	.LASF160:
 3824 06ff 7075645F 		.ascii	"pud_mode\000"
 3824      6D6F6465 
 3824      00
 3825              	.LASF51:
 3826 0708 76745F73 		.ascii	"vt_systime\000"
 3826      79737469 
 3826      6D6500
 3827              	.LASF83:
 3828 0713 715F6C69 		.ascii	"q_link\000"
 3828      6E6B00
 3829              	.LASF104:
 3830 071a 50414C43 		.ascii	"PALConfig\000"
 3830      6F6E6669 
 3830      6700
 3831              	.LASF62:
 3832 0724 6D5F6F77 		.ascii	"m_owner\000"
 3832      6E657200 
 3833              	.LASF109:
 3834 072c 70616C5F 		.ascii	"pal_default_config\000"
 3834      64656661 
 3834      756C745F 
 3834      636F6E66 
 3834      696700
 3835              	.LASF30:
 3836 073f 705F6374 		.ascii	"p_ctx\000"
 3836      7800
 3837              	.LASF34:
 3838 0745 705F7761 		.ascii	"p_waiting\000"
 3838      6974696E 
 3838      6700
 3839              	.LASF126:
 3840 074f 74786279 		.ascii	"txbytes\000"
 3840      74657300 
 3841              	.LASF96:
 3842 0757 636C6F63 		.ascii	"clockStretchTimeout\000"
 3842      6B537472 
 3842      65746368 
 3842      54696D65 
ARM GAS  /var/folders/l5/0x54b2c10074c8bt31ycjvl80000gp/T//ccPV8Vrh.s 			page 74


 3842      6F757400 
 3843              		.ident	"GCC: (GNU Tools for Arm Embedded Processors 8-2019-q3-update) 8.3.1 20190703 (release) [gc
ARM GAS  /var/folders/l5/0x54b2c10074c8bt31ycjvl80000gp/T//ccPV8Vrh.s 			page 75


DEFINED SYMBOLS
                            *ABS*:0000000000000000 pal_lld.c
/var/folders/l5/0x54b2c10074c8bt31ycjvl80000gp/T//ccPV8Vrh.s:6      .text.set_gpio_in.isra.0:0000000000000000 $a
/var/folders/l5/0x54b2c10074c8bt31ycjvl80000gp/T//ccPV8Vrh.s:12     .text.set_gpio_in.isra.0:0000000000000000 set_gpio_in.isra.0
/var/folders/l5/0x54b2c10074c8bt31ycjvl80000gp/T//ccPV8Vrh.s:75     .text.set_gpio_pud.isra.1:0000000000000000 $a
/var/folders/l5/0x54b2c10074c8bt31ycjvl80000gp/T//ccPV8Vrh.s:80     .text.set_gpio_pud.isra.1:0000000000000000 set_gpio_pud.isra.1
/var/folders/l5/0x54b2c10074c8bt31ycjvl80000gp/T//ccPV8Vrh.s:132    .text.set_gpio_pud.isra.1:0000000000000040 $d
/var/folders/l5/0x54b2c10074c8bt31ycjvl80000gp/T//ccPV8Vrh.s:137    .text._pal_lld_init:0000000000000000 $a
/var/folders/l5/0x54b2c10074c8bt31ycjvl80000gp/T//ccPV8Vrh.s:143    .text._pal_lld_init:0000000000000000 _pal_lld_init
/var/folders/l5/0x54b2c10074c8bt31ycjvl80000gp/T//ccPV8Vrh.s:224    .text._pal_lld_init:0000000000000070 $d
                            *COM*:0000000000000018 IOPORT0
                            *COM*:0000000000000018 IOPORT1
/var/folders/l5/0x54b2c10074c8bt31ycjvl80000gp/T//ccPV8Vrh.s:238    .text._pal_lld_setgroupmode:0000000000000000 $a
/var/folders/l5/0x54b2c10074c8bt31ycjvl80000gp/T//ccPV8Vrh.s:244    .text._pal_lld_setgroupmode:0000000000000000 _pal_lld_setgroupmode
/var/folders/l5/0x54b2c10074c8bt31ycjvl80000gp/T//ccPV8Vrh.s:395    .text._pal_lld_writeport:0000000000000000 $a
/var/folders/l5/0x54b2c10074c8bt31ycjvl80000gp/T//ccPV8Vrh.s:401    .text._pal_lld_writeport:0000000000000000 _pal_lld_writeport

UNDEFINED SYMBOLS
bcm2835_gpio_fnsel
bcm2835_delay
