ARM GAS  /var/folders/l5/0x54b2c10074c8bt31ycjvl80000gp/T//ccuir36n.s 			page 1


   1              		.file	"bcm2835.c"
   2              		.text
   3              	.Ltext0:
   4              		.cfi_sections	.debug_frame
   5              		.section	.text.bcm2835_gpio_fnsel,"ax",%progbits
   6              		.align	2
   7              		.global	bcm2835_gpio_fnsel
   8              		.arch armv6kz
   9              		.syntax unified
  10              		.arm
  11              		.fpu softvfp
  12              		.type	bcm2835_gpio_fnsel, %function
  13              	bcm2835_gpio_fnsel:
  14              	.LVL0:
  15              	.LFB0:
  16              		.file 1 "../../../os/hal/platforms/BCM2835/bcm2835.c"
  17              		.loc 1 12 1 view -0
  18              		.cfi_startproc
  19              		@ args = 0, pretend = 0, frame = 0
  20              		@ frame_needed = 0, uses_anonymous_args = 0
  21              		.loc 1 13 3 view .LVU1
  22              		.loc 1 14 3 view .LVU2
  23              		.loc 1 12 1 is_stmt 0 view .LVU3
  24 0000 04E02DE5 		str	lr, [sp, #-4]!
  25              		.cfi_def_cfa_offset 4
  26              		.cfi_offset 14, -4
  27              		.loc 1 16 22 view .LVU4
  28 0004 07E0A0E3 		mov	lr, #7
  29              		.loc 1 14 12 view .LVU5
  30 0008 38209FE5 		ldr	r2, .L4
  31 000c 923082E0 		umull	r3, r2, r2, r0
  32 0010 A221A0E1 		lsr	r2, r2, #3
  33 0014 02C1A0E1 		lsl	ip, r2, #2
  34              		.loc 1 15 22 view .LVU6
  35 0018 02328CE2 		add	r3, ip, #536870912
  36 001c 023683E2 		add	r3, r3, #2097152
  37              		.loc 1 14 12 view .LVU7
  38 0020 02208CE0 		add	r2, ip, r2
  39 0024 820040E0 		sub	r0, r0, r2, lsl #1
  40              	.LVL1:
  41              		.loc 1 16 12 view .LVU8
  42 0028 002093E5 		ldr	r2, [r3]
  43              		.loc 1 14 12 view .LVU9
  44 002c 800080E0 		add	r0, r0, r0, lsl #1
  45              	.LVL2:
  46              		.loc 1 15 3 is_stmt 1 view .LVU10
  47              		.loc 1 16 3 view .LVU11
  48              		.loc 1 16 12 is_stmt 0 view .LVU12
  49 0030 1E20C2E1 		bic	r2, r2, lr, lsl r0
  50 0034 002083E5 		str	r2, [r3]
  51              		.loc 1 17 3 is_stmt 1 view .LVU13
  52              		.loc 1 17 12 is_stmt 0 view .LVU14
  53 0038 002093E5 		ldr	r2, [r3]
  54 003c 111082E1 		orr	r1, r2, r1, lsl r0
  55              	.LVL3:
  56              		.loc 1 17 12 view .LVU15
  57 0040 001083E5 		str	r1, [r3]
ARM GAS  /var/folders/l5/0x54b2c10074c8bt31ycjvl80000gp/T//ccuir36n.s 			page 2


  58              		.loc 1 18 1 view .LVU16
  59 0044 04F09DE4 		ldr	pc, [sp], #4
  60              	.L5:
  61              		.align	2
  62              	.L4:
  63 0048 CDCCCCCC 		.word	-858993459
  64              		.cfi_endproc
  65              	.LFE0:
  66              		.size	bcm2835_gpio_fnsel, .-bcm2835_gpio_fnsel
  67              		.section	.text.bcm2835_delay,"ax",%progbits
  68              		.align	2
  69              		.global	bcm2835_delay
  70              		.syntax unified
  71              		.arm
  72              		.fpu softvfp
  73              		.type	bcm2835_delay, %function
  74              	bcm2835_delay:
  75              	.LVL4:
  76              	.LFB1:
  77              		.loc 1 21 1 is_stmt 1 view -0
  78              		.cfi_startproc
  79              		@ args = 0, pretend = 0, frame = 4
  80              		@ frame_needed = 0, uses_anonymous_args = 0
  81              		@ link register save eliminated.
  82              		.loc 1 22 3 view .LVU18
  83              		.loc 1 22 21 is_stmt 0 view .LVU19
  84 0000 0030A0E3 		mov	r3, #0
  85              		.loc 1 21 1 view .LVU20
  86 0004 04D04DE2 		sub	sp, sp, #4
  87              		.cfi_def_cfa_offset 4
  88              		.loc 1 22 21 view .LVU21
  89 0008 00308DE5 		str	r3, [sp]
  90              		.loc 1 23 3 is_stmt 1 view .LVU22
  91              		.loc 1 23 9 is_stmt 0 view .LVU23
  92 000c 00308DE5 		str	r3, [sp]
  93              		.loc 1 23 16 view .LVU24
  94 0010 00309DE5 		ldr	r3, [sp]
  95              		.loc 1 23 3 view .LVU25
  96 0014 030050E1 		cmp	r0, r3
  97 0018 0500009A 		bls	.L6
  98              	.L8:
  99              		.loc 1 23 25 is_stmt 1 discriminator 3 view .LVU26
 100              		.loc 1 23 22 is_stmt 0 discriminator 3 view .LVU27
 101 001c 00309DE5 		ldr	r3, [sp]
 102 0020 013083E2 		add	r3, r3, #1
 103 0024 00308DE5 		str	r3, [sp]
 104              		.loc 1 23 16 discriminator 3 view .LVU28
 105 0028 00309DE5 		ldr	r3, [sp]
 106              		.loc 1 23 3 discriminator 3 view .LVU29
 107 002c 000053E1 		cmp	r3, r0
 108 0030 F9FFFF3A 		bcc	.L8
 109              	.L6:
 110              		.loc 1 24 1 view .LVU30
 111 0034 04D08DE2 		add	sp, sp, #4
 112              		.cfi_def_cfa_offset 0
 113              		@ sp needed
 114 0038 1EFF2FE1 		bx	lr
ARM GAS  /var/folders/l5/0x54b2c10074c8bt31ycjvl80000gp/T//ccuir36n.s 			page 3


 115              		.cfi_endproc
 116              	.LFE1:
 117              		.size	bcm2835_delay, .-bcm2835_delay
 118              		.text
 119              	.Letext0:
 120              		.file 2 "/usr/local/Cellar/arm-gcc-bin/8-2019-q3-update/arm-none-eabi/include/machine/_default_typ
 121              		.file 3 "/usr/local/Cellar/arm-gcc-bin/8-2019-q3-update/arm-none-eabi/include/sys/_stdint.h"
 122              		.section	.debug_info,"",%progbits
 123              	.Ldebug_info0:
 124 0000 36010000 		.4byte	0x136
 125 0004 0400     		.2byte	0x4
 126 0006 00000000 		.4byte	.Ldebug_abbrev0
 127 000a 04       		.byte	0x4
 128 000b 01       		.uleb128 0x1
 129 000c 0C010000 		.4byte	.LASF18
 130 0010 0C       		.byte	0xc
 131 0011 78000000 		.4byte	.LASF19
 132 0015 A4000000 		.4byte	.LASF20
 133 0019 00000000 		.4byte	.Ldebug_ranges0+0
 134 001d 00000000 		.4byte	0
 135 0021 00000000 		.4byte	.Ldebug_line0
 136 0025 02       		.uleb128 0x2
 137 0026 04       		.byte	0x4
 138 0027 07       		.byte	0x7
 139 0028 13000000 		.4byte	.LASF0
 140 002c 02       		.uleb128 0x2
 141 002d 04       		.byte	0x4
 142 002e 05       		.byte	0x5
 143 002f 29020000 		.4byte	.LASF1
 144 0033 02       		.uleb128 0x2
 145 0034 04       		.byte	0x4
 146 0035 07       		.byte	0x7
 147 0036 37000000 		.4byte	.LASF2
 148 003a 02       		.uleb128 0x2
 149 003b 01       		.byte	0x1
 150 003c 06       		.byte	0x6
 151 003d 32020000 		.4byte	.LASF3
 152 0041 02       		.uleb128 0x2
 153 0042 01       		.byte	0x1
 154 0043 08       		.byte	0x8
 155 0044 29000000 		.4byte	.LASF4
 156 0048 02       		.uleb128 0x2
 157 0049 02       		.byte	0x2
 158 004a 05       		.byte	0x5
 159 004b 0E020000 		.4byte	.LASF5
 160 004f 02       		.uleb128 0x2
 161 0050 02       		.byte	0x2
 162 0051 07       		.byte	0x7
 163 0052 49000000 		.4byte	.LASF6
 164 0056 03       		.uleb128 0x3
 165 0057 6D000000 		.4byte	.LASF9
 166 005b 02       		.byte	0x2
 167 005c 4F       		.byte	0x4f
 168 005d 19       		.byte	0x19
 169 005e 33000000 		.4byte	0x33
 170 0062 02       		.uleb128 0x2
 171 0063 08       		.byte	0x8
ARM GAS  /var/folders/l5/0x54b2c10074c8bt31ycjvl80000gp/T//ccuir36n.s 			page 4


 172 0064 05       		.byte	0x5
 173 0065 F9010000 		.4byte	.LASF7
 174 0069 02       		.uleb128 0x2
 175 006a 08       		.byte	0x8
 176 006b 07       		.byte	0x7
 177 006c F5000000 		.4byte	.LASF8
 178 0070 03       		.uleb128 0x3
 179 0071 20020000 		.4byte	.LASF10
 180 0075 03       		.byte	0x3
 181 0076 30       		.byte	0x30
 182 0077 14       		.byte	0x14
 183 0078 56000000 		.4byte	0x56
 184 007c 04       		.uleb128 0x4
 185 007d 70000000 		.4byte	0x70
 186 0081 05       		.uleb128 0x5
 187 0082 04       		.byte	0x4
 188 0083 05       		.byte	0x5
 189 0084 696E7400 		.ascii	"int\000"
 190 0088 06       		.uleb128 0x6
 191 0089 EB010000 		.4byte	.LASF11
 192 008d 01       		.byte	0x1
 193 008e 14       		.byte	0x14
 194 008f 06       		.byte	0x6
 195 0090 00000000 		.4byte	.LFB1
 196 0094 3C000000 		.4byte	.LFE1-.LFB1
 197 0098 01       		.uleb128 0x1
 198 0099 9C       		.byte	0x9c
 199 009a B8000000 		.4byte	0xb8
 200 009e 07       		.uleb128 0x7
 201 009f 6E00     		.ascii	"n\000"
 202 00a1 01       		.byte	0x1
 203 00a2 14       		.byte	0x14
 204 00a3 1D       		.byte	0x1d
 205 00a4 70000000 		.4byte	0x70
 206 00a8 01       		.uleb128 0x1
 207 00a9 50       		.byte	0x50
 208 00aa 08       		.uleb128 0x8
 209 00ab 6900     		.ascii	"i\000"
 210 00ad 01       		.byte	0x1
 211 00ae 16       		.byte	0x16
 212 00af 15       		.byte	0x15
 213 00b0 7C000000 		.4byte	0x7c
 214 00b4 02       		.uleb128 0x2
 215 00b5 91       		.byte	0x91
 216 00b6 7C       		.sleb128 -4
 217 00b7 00       		.byte	0
 218 00b8 06       		.uleb128 0x6
 219 00b9 00000000 		.4byte	.LASF12
 220 00bd 01       		.byte	0x1
 221 00be 0B       		.byte	0xb
 222 00bf 06       		.byte	0x6
 223 00c0 00000000 		.4byte	.LFB0
 224 00c4 4C000000 		.4byte	.LFE0-.LFB0
 225 00c8 01       		.uleb128 0x1
 226 00c9 9C       		.byte	0x9c
 227 00ca 33010000 		.4byte	0x133
 228 00ce 09       		.uleb128 0x9
ARM GAS  /var/folders/l5/0x54b2c10074c8bt31ycjvl80000gp/T//ccuir36n.s 			page 5


 229 00cf 64000000 		.4byte	.LASF13
 230 00d3 01       		.byte	0x1
 231 00d4 0B       		.byte	0xb
 232 00d5 22       		.byte	0x22
 233 00d6 70000000 		.4byte	0x70
 234 00da 04000000 		.4byte	.LLST0
 235 00de 00000000 		.4byte	.LVUS0
 236 00e2 09       		.uleb128 0x9
 237 00e3 5C000000 		.4byte	.LASF14
 238 00e7 01       		.byte	0x1
 239 00e8 0B       		.byte	0xb
 240 00e9 35       		.byte	0x35
 241 00ea 70000000 		.4byte	0x70
 242 00ee 29000000 		.4byte	.LLST1
 243 00f2 25000000 		.4byte	.LVUS1
 244 00f6 0A       		.uleb128 0xa
 245 00f7 20000000 		.4byte	.LASF15
 246 00fb 01       		.byte	0x1
 247 00fc 0D       		.byte	0xd
 248 00fd 0C       		.byte	0xc
 249 00fe 70000000 		.4byte	0x70
 250 0102 4E000000 		.4byte	.LLST2
 251 0106 4A000000 		.4byte	.LVUS2
 252 010a 0A       		.uleb128 0xa
 253 010b 07020000 		.4byte	.LASF16
 254 010f 01       		.byte	0x1
 255 0110 0E       		.byte	0xe
 256 0111 0C       		.byte	0xc
 257 0112 70000000 		.4byte	0x70
 258 0116 83000000 		.4byte	.LLST3
 259 011a 81000000 		.4byte	.LVUS3
 260 011e 0A       		.uleb128 0xa
 261 011f 18020000 		.4byte	.LASF17
 262 0123 01       		.byte	0x1
 263 0124 0F       		.byte	0xf
 264 0125 16       		.byte	0x16
 265 0126 33010000 		.4byte	0x133
 266 012a 98000000 		.4byte	.LLST4
 267 012e 96000000 		.4byte	.LVUS4
 268 0132 00       		.byte	0
 269 0133 0B       		.uleb128 0xb
 270 0134 04       		.byte	0x4
 271 0135 7C000000 		.4byte	0x7c
 272 0139 00       		.byte	0
 273              		.section	.debug_abbrev,"",%progbits
 274              	.Ldebug_abbrev0:
 275 0000 01       		.uleb128 0x1
 276 0001 11       		.uleb128 0x11
 277 0002 01       		.byte	0x1
 278 0003 25       		.uleb128 0x25
 279 0004 0E       		.uleb128 0xe
 280 0005 13       		.uleb128 0x13
 281 0006 0B       		.uleb128 0xb
 282 0007 03       		.uleb128 0x3
 283 0008 0E       		.uleb128 0xe
 284 0009 1B       		.uleb128 0x1b
 285 000a 0E       		.uleb128 0xe
ARM GAS  /var/folders/l5/0x54b2c10074c8bt31ycjvl80000gp/T//ccuir36n.s 			page 6


 286 000b 55       		.uleb128 0x55
 287 000c 17       		.uleb128 0x17
 288 000d 11       		.uleb128 0x11
 289 000e 01       		.uleb128 0x1
 290 000f 10       		.uleb128 0x10
 291 0010 17       		.uleb128 0x17
 292 0011 00       		.byte	0
 293 0012 00       		.byte	0
 294 0013 02       		.uleb128 0x2
 295 0014 24       		.uleb128 0x24
 296 0015 00       		.byte	0
 297 0016 0B       		.uleb128 0xb
 298 0017 0B       		.uleb128 0xb
 299 0018 3E       		.uleb128 0x3e
 300 0019 0B       		.uleb128 0xb
 301 001a 03       		.uleb128 0x3
 302 001b 0E       		.uleb128 0xe
 303 001c 00       		.byte	0
 304 001d 00       		.byte	0
 305 001e 03       		.uleb128 0x3
 306 001f 16       		.uleb128 0x16
 307 0020 00       		.byte	0
 308 0021 03       		.uleb128 0x3
 309 0022 0E       		.uleb128 0xe
 310 0023 3A       		.uleb128 0x3a
 311 0024 0B       		.uleb128 0xb
 312 0025 3B       		.uleb128 0x3b
 313 0026 0B       		.uleb128 0xb
 314 0027 39       		.uleb128 0x39
 315 0028 0B       		.uleb128 0xb
 316 0029 49       		.uleb128 0x49
 317 002a 13       		.uleb128 0x13
 318 002b 00       		.byte	0
 319 002c 00       		.byte	0
 320 002d 04       		.uleb128 0x4
 321 002e 35       		.uleb128 0x35
 322 002f 00       		.byte	0
 323 0030 49       		.uleb128 0x49
 324 0031 13       		.uleb128 0x13
 325 0032 00       		.byte	0
 326 0033 00       		.byte	0
 327 0034 05       		.uleb128 0x5
 328 0035 24       		.uleb128 0x24
 329 0036 00       		.byte	0
 330 0037 0B       		.uleb128 0xb
 331 0038 0B       		.uleb128 0xb
 332 0039 3E       		.uleb128 0x3e
 333 003a 0B       		.uleb128 0xb
 334 003b 03       		.uleb128 0x3
 335 003c 08       		.uleb128 0x8
 336 003d 00       		.byte	0
 337 003e 00       		.byte	0
 338 003f 06       		.uleb128 0x6
 339 0040 2E       		.uleb128 0x2e
 340 0041 01       		.byte	0x1
 341 0042 3F       		.uleb128 0x3f
 342 0043 19       		.uleb128 0x19
ARM GAS  /var/folders/l5/0x54b2c10074c8bt31ycjvl80000gp/T//ccuir36n.s 			page 7


 343 0044 03       		.uleb128 0x3
 344 0045 0E       		.uleb128 0xe
 345 0046 3A       		.uleb128 0x3a
 346 0047 0B       		.uleb128 0xb
 347 0048 3B       		.uleb128 0x3b
 348 0049 0B       		.uleb128 0xb
 349 004a 39       		.uleb128 0x39
 350 004b 0B       		.uleb128 0xb
 351 004c 27       		.uleb128 0x27
 352 004d 19       		.uleb128 0x19
 353 004e 11       		.uleb128 0x11
 354 004f 01       		.uleb128 0x1
 355 0050 12       		.uleb128 0x12
 356 0051 06       		.uleb128 0x6
 357 0052 40       		.uleb128 0x40
 358 0053 18       		.uleb128 0x18
 359 0054 9742     		.uleb128 0x2117
 360 0056 19       		.uleb128 0x19
 361 0057 01       		.uleb128 0x1
 362 0058 13       		.uleb128 0x13
 363 0059 00       		.byte	0
 364 005a 00       		.byte	0
 365 005b 07       		.uleb128 0x7
 366 005c 05       		.uleb128 0x5
 367 005d 00       		.byte	0
 368 005e 03       		.uleb128 0x3
 369 005f 08       		.uleb128 0x8
 370 0060 3A       		.uleb128 0x3a
 371 0061 0B       		.uleb128 0xb
 372 0062 3B       		.uleb128 0x3b
 373 0063 0B       		.uleb128 0xb
 374 0064 39       		.uleb128 0x39
 375 0065 0B       		.uleb128 0xb
 376 0066 49       		.uleb128 0x49
 377 0067 13       		.uleb128 0x13
 378 0068 02       		.uleb128 0x2
 379 0069 18       		.uleb128 0x18
 380 006a 00       		.byte	0
 381 006b 00       		.byte	0
 382 006c 08       		.uleb128 0x8
 383 006d 34       		.uleb128 0x34
 384 006e 00       		.byte	0
 385 006f 03       		.uleb128 0x3
 386 0070 08       		.uleb128 0x8
 387 0071 3A       		.uleb128 0x3a
 388 0072 0B       		.uleb128 0xb
 389 0073 3B       		.uleb128 0x3b
 390 0074 0B       		.uleb128 0xb
 391 0075 39       		.uleb128 0x39
 392 0076 0B       		.uleb128 0xb
 393 0077 49       		.uleb128 0x49
 394 0078 13       		.uleb128 0x13
 395 0079 02       		.uleb128 0x2
 396 007a 18       		.uleb128 0x18
 397 007b 00       		.byte	0
 398 007c 00       		.byte	0
 399 007d 09       		.uleb128 0x9
ARM GAS  /var/folders/l5/0x54b2c10074c8bt31ycjvl80000gp/T//ccuir36n.s 			page 8


 400 007e 05       		.uleb128 0x5
 401 007f 00       		.byte	0
 402 0080 03       		.uleb128 0x3
 403 0081 0E       		.uleb128 0xe
 404 0082 3A       		.uleb128 0x3a
 405 0083 0B       		.uleb128 0xb
 406 0084 3B       		.uleb128 0x3b
 407 0085 0B       		.uleb128 0xb
 408 0086 39       		.uleb128 0x39
 409 0087 0B       		.uleb128 0xb
 410 0088 49       		.uleb128 0x49
 411 0089 13       		.uleb128 0x13
 412 008a 02       		.uleb128 0x2
 413 008b 17       		.uleb128 0x17
 414 008c B742     		.uleb128 0x2137
 415 008e 17       		.uleb128 0x17
 416 008f 00       		.byte	0
 417 0090 00       		.byte	0
 418 0091 0A       		.uleb128 0xa
 419 0092 34       		.uleb128 0x34
 420 0093 00       		.byte	0
 421 0094 03       		.uleb128 0x3
 422 0095 0E       		.uleb128 0xe
 423 0096 3A       		.uleb128 0x3a
 424 0097 0B       		.uleb128 0xb
 425 0098 3B       		.uleb128 0x3b
 426 0099 0B       		.uleb128 0xb
 427 009a 39       		.uleb128 0x39
 428 009b 0B       		.uleb128 0xb
 429 009c 49       		.uleb128 0x49
 430 009d 13       		.uleb128 0x13
 431 009e 02       		.uleb128 0x2
 432 009f 17       		.uleb128 0x17
 433 00a0 B742     		.uleb128 0x2137
 434 00a2 17       		.uleb128 0x17
 435 00a3 00       		.byte	0
 436 00a4 00       		.byte	0
 437 00a5 0B       		.uleb128 0xb
 438 00a6 0F       		.uleb128 0xf
 439 00a7 00       		.byte	0
 440 00a8 0B       		.uleb128 0xb
 441 00a9 0B       		.uleb128 0xb
 442 00aa 49       		.uleb128 0x49
 443 00ab 13       		.uleb128 0x13
 444 00ac 00       		.byte	0
 445 00ad 00       		.byte	0
 446 00ae 00       		.byte	0
 447              		.section	.debug_loc,"",%progbits
 448              	.Ldebug_loc0:
 449              	.LVUS0:
 450 0000 00       		.uleb128 0
 451 0001 00       		.uleb128 .LVU8
 452 0002 00       		.uleb128 .LVU8
 453 0003 00       		.uleb128 0
 454              	.LLST0:
 455 0004 00000000 		.4byte	.LVL0
 456 0008 28000000 		.4byte	.LVL1
ARM GAS  /var/folders/l5/0x54b2c10074c8bt31ycjvl80000gp/T//ccuir36n.s 			page 9


 457 000c 0100     		.2byte	0x1
 458 000e 50       		.byte	0x50
 459 000f 28000000 		.4byte	.LVL1
 460 0013 4C000000 		.4byte	.LFE0
 461 0017 0400     		.2byte	0x4
 462 0019 F3       		.byte	0xf3
 463 001a 01       		.uleb128 0x1
 464 001b 50       		.byte	0x50
 465 001c 9F       		.byte	0x9f
 466 001d 00000000 		.4byte	0
 467 0021 00000000 		.4byte	0
 468              	.LVUS1:
 469 0025 00       		.uleb128 0
 470 0026 00       		.uleb128 .LVU15
 471 0027 00       		.uleb128 .LVU15
 472 0028 00       		.uleb128 0
 473              	.LLST1:
 474 0029 00000000 		.4byte	.LVL0
 475 002d 40000000 		.4byte	.LVL3
 476 0031 0100     		.2byte	0x1
 477 0033 51       		.byte	0x51
 478 0034 40000000 		.4byte	.LVL3
 479 0038 4C000000 		.4byte	.LFE0
 480 003c 0400     		.2byte	0x4
 481 003e F3       		.byte	0xf3
 482 003f 01       		.uleb128 0x1
 483 0040 51       		.byte	0x51
 484 0041 9F       		.byte	0x9f
 485 0042 00000000 		.4byte	0
 486 0046 00000000 		.4byte	0
 487              	.LVUS2:
 488 004a 02       		.uleb128 .LVU2
 489 004b 00       		.uleb128 .LVU8
 490 004c 00       		.uleb128 .LVU8
 491 004d 00       		.uleb128 0
 492              	.LLST2:
 493 004e 00000000 		.4byte	.LVL0
 494 0052 28000000 		.4byte	.LVL1
 495 0056 0B00     		.2byte	0xb
 496 0058 70       		.byte	0x70
 497 0059 00       		.sleb128 0
 498 005a F7       		.byte	0xf7
 499 005b 25       		.uleb128 0x25
 500 005c 3A       		.byte	0x3a
 501 005d F7       		.byte	0xf7
 502 005e 25       		.uleb128 0x25
 503 005f 1B       		.byte	0x1b
 504 0060 F7       		.byte	0xf7
 505 0061 00       		.uleb128 0
 506 0062 9F       		.byte	0x9f
 507 0063 28000000 		.4byte	.LVL1
 508 0067 4C000000 		.4byte	.LFE0
 509 006b 0C00     		.2byte	0xc
 510 006d F3       		.byte	0xf3
 511 006e 01       		.uleb128 0x1
 512 006f 50       		.byte	0x50
 513 0070 F7       		.byte	0xf7
ARM GAS  /var/folders/l5/0x54b2c10074c8bt31ycjvl80000gp/T//ccuir36n.s 			page 10


 514 0071 25       		.uleb128 0x25
 515 0072 3A       		.byte	0x3a
 516 0073 F7       		.byte	0xf7
 517 0074 25       		.uleb128 0x25
 518 0075 1B       		.byte	0x1b
 519 0076 F7       		.byte	0xf7
 520 0077 00       		.uleb128 0
 521 0078 9F       		.byte	0x9f
 522 0079 00000000 		.4byte	0
 523 007d 00000000 		.4byte	0
 524              	.LVUS3:
 525 0081 00       		.uleb128 .LVU10
 526 0082 00       		.uleb128 0
 527              	.LLST3:
 528 0083 30000000 		.4byte	.LVL2
 529 0087 4C000000 		.4byte	.LFE0
 530 008b 0100     		.2byte	0x1
 531 008d 50       		.byte	0x50
 532 008e 00000000 		.4byte	0
 533 0092 00000000 		.4byte	0
 534              	.LVUS4:
 535 0096 01       		.uleb128 .LVU11
 536 0097 00       		.uleb128 0
 537              	.LLST4:
 538 0098 30000000 		.4byte	.LVL2
 539 009c 4C000000 		.4byte	.LFE0
 540 00a0 0100     		.2byte	0x1
 541 00a2 53       		.byte	0x53
 542 00a3 00000000 		.4byte	0
 543 00a7 00000000 		.4byte	0
 544              		.section	.debug_aranges,"",%progbits
 545 0000 24000000 		.4byte	0x24
 546 0004 0200     		.2byte	0x2
 547 0006 00000000 		.4byte	.Ldebug_info0
 548 000a 04       		.byte	0x4
 549 000b 00       		.byte	0
 550 000c 0000     		.2byte	0
 551 000e 0000     		.2byte	0
 552 0010 00000000 		.4byte	.LFB0
 553 0014 4C000000 		.4byte	.LFE0-.LFB0
 554 0018 00000000 		.4byte	.LFB1
 555 001c 3C000000 		.4byte	.LFE1-.LFB1
 556 0020 00000000 		.4byte	0
 557 0024 00000000 		.4byte	0
 558              		.section	.debug_ranges,"",%progbits
 559              	.Ldebug_ranges0:
 560 0000 00000000 		.4byte	.LFB0
 561 0004 4C000000 		.4byte	.LFE0
 562 0008 00000000 		.4byte	.LFB1
 563 000c 3C000000 		.4byte	.LFE1
 564 0010 00000000 		.4byte	0
 565 0014 00000000 		.4byte	0
 566              		.section	.debug_line,"",%progbits
 567              	.Ldebug_line0:
 568 0000 88010000 		.section	.debug_str,"MS",%progbits,1
 568      0300F900 
 568      00000201 
ARM GAS  /var/folders/l5/0x54b2c10074c8bt31ycjvl80000gp/T//ccuir36n.s 			page 11


 568      FB0E0D00 
 568      01010101 
 569              	.LASF12:
 570 0000 62636D32 		.ascii	"bcm2835_gpio_fnsel\000"
 570      3833355F 
 570      6770696F 
 570      5F666E73 
 570      656C00
 571              	.LASF0:
 572 0013 756E7369 		.ascii	"unsigned int\000"
 572      676E6564 
 572      20696E74 
 572      00
 573              	.LASF15:
 574 0020 6770666E 		.ascii	"gpfnbank\000"
 574      62616E6B 
 574      00
 575              	.LASF4:
 576 0029 756E7369 		.ascii	"unsigned char\000"
 576      676E6564 
 576      20636861 
 576      7200
 577              	.LASF2:
 578 0037 6C6F6E67 		.ascii	"long unsigned int\000"
 578      20756E73 
 578      69676E65 
 578      6420696E 
 578      7400
 579              	.LASF6:
 580 0049 73686F72 		.ascii	"short unsigned int\000"
 580      7420756E 
 580      7369676E 
 580      65642069 
 580      6E7400
 581              	.LASF14:
 582 005c 6770696F 		.ascii	"gpio_fn\000"
 582      5F666E00 
 583              	.LASF13:
 584 0064 6770696F 		.ascii	"gpio_pin\000"
 584      5F70696E 
 584      00
 585              	.LASF9:
 586 006d 5F5F7569 		.ascii	"__uint32_t\000"
 586      6E743332 
 586      5F7400
 587              	.LASF19:
 588 0078 2E2E2F2E 		.ascii	"../../../os/hal/platforms/BCM2835/bcm2835.c\000"
 588      2E2F2E2E 
 588      2F6F732F 
 588      68616C2F 
 588      706C6174 
 589              	.LASF20:
 590 00a4 2F557365 		.ascii	"/Users/fernandoguirado/eclipse-workspace/ChibiOS-RP"
 590      72732F66 
 590      65726E61 
 590      6E646F67 
 590      75697261 
ARM GAS  /var/folders/l5/0x54b2c10074c8bt31ycjvl80000gp/T//ccuir36n.s 			page 12


 591 00d7 692D6D61 		.ascii	"i-master/testhal/BCM2835/GPIO\000"
 591      73746572 
 591      2F746573 
 591      7468616C 
 591      2F42434D 
 592              	.LASF8:
 593 00f5 6C6F6E67 		.ascii	"long long unsigned int\000"
 593      206C6F6E 
 593      6720756E 
 593      7369676E 
 593      65642069 
 594              	.LASF18:
 595 010c 474E5520 		.ascii	"GNU C17 8.3.1 20190703 (release) [gcc-8-branch revi"
 595      43313720 
 595      382E332E 
 595      31203230 
 595      31393037 
 596 013f 73696F6E 		.ascii	"sion 273027] -mcpu=arm1176jz-s -mabi=apcs-gnu -mno-"
 596      20323733 
 596      3032375D 
 596      202D6D63 
 596      70753D61 
 597 0172 7468756D 		.ascii	"thumb-interwork -mfloat-abi=soft -marm -march=armv6"
 597      622D696E 
 597      74657277 
 597      6F726B20 
 597      2D6D666C 
 598 01a5 6B7A202D 		.ascii	"kz -ggdb -O2 -fomit-frame-pointer -ffunction-sectio"
 598      67676462 
 598      202D4F32 
 598      202D666F 
 598      6D69742D 
 599 01d8 6E73202D 		.ascii	"ns -fdata-sections\000"
 599      66646174 
 599      612D7365 
 599      6374696F 
 599      6E7300
 600              	.LASF11:
 601 01eb 62636D32 		.ascii	"bcm2835_delay\000"
 601      3833355F 
 601      64656C61 
 601      7900
 602              	.LASF7:
 603 01f9 6C6F6E67 		.ascii	"long long int\000"
 603      206C6F6E 
 603      6720696E 
 603      7400
 604              	.LASF16:
 605 0207 6F666673 		.ascii	"offset\000"
 605      657400
 606              	.LASF5:
 607 020e 73686F72 		.ascii	"short int\000"
 607      7420696E 
 607      7400
 608              	.LASF17:
 609 0218 6770666E 		.ascii	"gpfnsel\000"
 609      73656C00 
ARM GAS  /var/folders/l5/0x54b2c10074c8bt31ycjvl80000gp/T//ccuir36n.s 			page 13


 610              	.LASF10:
 611 0220 75696E74 		.ascii	"uint32_t\000"
 611      33325F74 
 611      00
 612              	.LASF1:
 613 0229 6C6F6E67 		.ascii	"long int\000"
 613      20696E74 
 613      00
 614              	.LASF3:
 615 0232 7369676E 		.ascii	"signed char\000"
 615      65642063 
 615      68617200 
 616              		.ident	"GCC: (GNU Tools for Arm Embedded Processors 8-2019-q3-update) 8.3.1 20190703 (release) [gc
ARM GAS  /var/folders/l5/0x54b2c10074c8bt31ycjvl80000gp/T//ccuir36n.s 			page 14


DEFINED SYMBOLS
                            *ABS*:0000000000000000 bcm2835.c
/var/folders/l5/0x54b2c10074c8bt31ycjvl80000gp/T//ccuir36n.s:6      .text.bcm2835_gpio_fnsel:0000000000000000 $a
/var/folders/l5/0x54b2c10074c8bt31ycjvl80000gp/T//ccuir36n.s:13     .text.bcm2835_gpio_fnsel:0000000000000000 bcm2835_gpio_fnsel
/var/folders/l5/0x54b2c10074c8bt31ycjvl80000gp/T//ccuir36n.s:63     .text.bcm2835_gpio_fnsel:0000000000000048 $d
/var/folders/l5/0x54b2c10074c8bt31ycjvl80000gp/T//ccuir36n.s:68     .text.bcm2835_delay:0000000000000000 $a
/var/folders/l5/0x54b2c10074c8bt31ycjvl80000gp/T//ccuir36n.s:74     .text.bcm2835_delay:0000000000000000 bcm2835_delay

NO UNDEFINED SYMBOLS
