ARM GAS  /var/folders/l5/0x54b2c10074c8bt31ycjvl80000gp/T//ccViqEfd.s 			page 1


   1              		.file	"chevents.c"
   2              		.text
   3              	.Ltext0:
   4              		.cfi_sections	.debug_frame
   5              		.section	.text.chEvtRegisterMask,"ax",%progbits
   6              		.align	2
   7              		.global	chEvtRegisterMask
   8              		.arch armv6kz
   9              		.syntax unified
  10              		.arm
  11              		.fpu softvfp
  12              		.type	chEvtRegisterMask, %function
  13              	chEvtRegisterMask:
  14              	.LVL0:
  15              	.LFB7:
  16              		.file 1 "../../../os/kernel/src/chevents.c"
  17              		.loc 1 78 80 view -0
  18              		.cfi_startproc
  19              		@ args = 0, pretend = 0, frame = 0
  20              		@ frame_needed = 0, uses_anonymous_args = 0
  21              		.loc 1 80 3 view .LVU1
  22              		.loc 1 80 66 view .LVU2
  23              		.loc 1 82 3 view .LVU3
  24              		.loc 1 78 80 is_stmt 0 view .LVU4
  25 0000 04E02DE5 		str	lr, [sp, #-4]!
  26              		.cfi_def_cfa_offset 4
  27              		.cfi_offset 14, -4
  28              		.loc 1 82 3 view .LVU5
  29              		.syntax divided
  30              	@ 82 "../../../os/kernel/src/chevents.c" 1
  31 0004 9FF021E3 		msr     CPSR_c, #0x9F
  32              	@ 0 "" 2
  33              		.loc 1 82 3 is_stmt 1 view .LVU6
  34              		.loc 1 82 14 view .LVU7
  35              		.loc 1 83 3 view .LVU8
  36              		.loc 1 87 20 is_stmt 0 view .LVU9
  37              		.arm
  38              		.syntax unified
  39 0008 0030A0E3 		mov	r3, #0
  40              		.loc 1 85 22 view .LVU10
  41 000c 20C09FE5 		ldr	ip, .L4
  42              		.loc 1 83 20 view .LVU11
  43 0010 00E090E5 		ldr	lr, [r0]
  44              		.loc 1 85 20 view .LVU12
  45 0014 10C09CE5 		ldr	ip, [ip, #16]
  46              		.loc 1 83 20 view .LVU13
  47 0018 00E081E5 		str	lr, [r1]
  48              		.loc 1 84 3 is_stmt 1 view .LVU14
  49              		.loc 1 84 20 is_stmt 0 view .LVU15
  50 001c 001080E5 		str	r1, [r0]
  51              		.loc 1 85 3 is_stmt 1 view .LVU16
  52              		.loc 1 85 20 is_stmt 0 view .LVU17
  53 0020 04C081E5 		str	ip, [r1, #4]
  54              		.loc 1 86 3 is_stmt 1 view .LVU18
  55              		.loc 1 86 20 is_stmt 0 view .LVU19
  56 0024 082081E5 		str	r2, [r1, #8]
  57              		.loc 1 87 3 is_stmt 1 view .LVU20
ARM GAS  /var/folders/l5/0x54b2c10074c8bt31ycjvl80000gp/T//ccViqEfd.s 			page 2


  58              		.loc 1 87 20 is_stmt 0 view .LVU21
  59 0028 0C3081E5 		str	r3, [r1, #12]
  60              		.loc 1 88 3 is_stmt 1 view .LVU22
  61              		.loc 1 88 3 view .LVU23
  62              		.syntax divided
  63              	@ 88 "../../../os/kernel/src/chevents.c" 1
  64 002c 1FF021E3 		msr     CPSR_c, #0x1F
  65              	@ 0 "" 2
  66              		.loc 1 88 16 view .LVU24
  67              		.loc 1 89 1 is_stmt 0 view .LVU25
  68              		.arm
  69              		.syntax unified
  70 0030 04F09DE4 		ldr	pc, [sp], #4
  71              	.L5:
  72              		.align	2
  73              	.L4:
  74 0034 00000000 		.word	rlist
  75              		.cfi_endproc
  76              	.LFE7:
  77              		.size	chEvtRegisterMask, .-chEvtRegisterMask
  78              		.section	.text.chEvtUnregister,"ax",%progbits
  79              		.align	2
  80              		.global	chEvtUnregister
  81              		.syntax unified
  82              		.arm
  83              		.fpu softvfp
  84              		.type	chEvtUnregister, %function
  85              	chEvtUnregister:
  86              	.LVL1:
  87              	.LFB8:
  88              		.loc 1 104 60 is_stmt 1 view -0
  89              		.cfi_startproc
  90              		@ args = 0, pretend = 0, frame = 0
  91              		@ frame_needed = 0, uses_anonymous_args = 0
  92              		@ link register save eliminated.
  93              		.loc 1 105 3 view .LVU27
  94              		.loc 1 107 3 view .LVU28
  95              		.loc 1 107 64 view .LVU29
  96              		.loc 1 109 3 view .LVU30
  97              		.loc 1 110 3 view .LVU31
  98              		.syntax divided
  99              	@ 110 "../../../os/kernel/src/chevents.c" 1
 100 0000 9FF021E3 		msr     CPSR_c, #0x9F
 101              	@ 0 "" 2
 102              		.loc 1 110 3 view .LVU32
 103              		.loc 1 110 14 view .LVU33
 104              		.loc 1 111 3 view .LVU34
 105              		.loc 1 109 5 is_stmt 0 view .LVU35
 106              		.arm
 107              		.syntax unified
 108 0004 0020A0E1 		mov	r2, r0
 109              		.loc 1 111 9 view .LVU36
 110 0008 020000EA 		b	.L7
 111              	.LVL2:
 112              	.L9:
 113              		.loc 1 112 8 view .LVU37
 114 000c 010053E1 		cmp	r3, r1
ARM GAS  /var/folders/l5/0x54b2c10074c8bt31ycjvl80000gp/T//ccViqEfd.s 			page 3


 115 0010 0500000A 		beq	.L11
 116 0014 0320A0E1 		mov	r2, r3
 117              	.LVL3:
 118              	.L7:
 119              		.loc 1 112 5 is_stmt 1 view .LVU38
 120              		.loc 1 111 11 is_stmt 0 view .LVU39
 121 0018 003092E5 		ldr	r3, [r2]
 122              		.loc 1 111 9 view .LVU40
 123 001c 000053E1 		cmp	r3, r0
 124 0020 F9FFFF1A 		bne	.L9
 125              		.loc 1 118 3 is_stmt 1 view .LVU41
 126              		.loc 1 118 3 view .LVU42
 127              		.syntax divided
 128              	@ 118 "../../../os/kernel/src/chevents.c" 1
 129 0024 1FF021E3 		msr     CPSR_c, #0x1F
 130              	@ 0 "" 2
 131              		.loc 1 118 16 view .LVU43
 132              		.loc 1 119 1 is_stmt 0 view .LVU44
 133              		.arm
 134              		.syntax unified
 135 0028 1EFF2FE1 		bx	lr
 136              	.L11:
 137              		.loc 1 113 7 is_stmt 1 view .LVU45
 138              		.loc 1 113 23 is_stmt 0 view .LVU46
 139 002c 003091E5 		ldr	r3, [r1]
 140              		.loc 1 113 18 view .LVU47
 141 0030 003082E5 		str	r3, [r2]
 142              		.loc 1 114 7 is_stmt 1 view .LVU48
 143              		.loc 1 118 3 view .LVU49
 144              		.loc 1 118 3 view .LVU50
 145              		.syntax divided
 146              	@ 118 "../../../os/kernel/src/chevents.c" 1
 147 0034 1FF021E3 		msr     CPSR_c, #0x1F
 148              	@ 0 "" 2
 149              		.loc 1 118 16 view .LVU51
 150              		.loc 1 119 1 is_stmt 0 view .LVU52
 151              		.arm
 152              		.syntax unified
 153 0038 1EFF2FE1 		bx	lr
 154              		.cfi_endproc
 155              	.LFE8:
 156              		.size	chEvtUnregister, .-chEvtUnregister
 157              		.section	.text.chEvtGetAndClearEvents,"ax",%progbits
 158              		.align	2
 159              		.global	chEvtGetAndClearEvents
 160              		.syntax unified
 161              		.arm
 162              		.fpu softvfp
 163              		.type	chEvtGetAndClearEvents, %function
 164              	chEvtGetAndClearEvents:
 165              	.LVL4:
 166              	.LFB9:
 167              		.loc 1 129 54 is_stmt 1 view -0
 168              		.cfi_startproc
 169              		@ args = 0, pretend = 0, frame = 0
 170              		@ frame_needed = 0, uses_anonymous_args = 0
 171              		@ link register save eliminated.
ARM GAS  /var/folders/l5/0x54b2c10074c8bt31ycjvl80000gp/T//ccViqEfd.s 			page 4


 172              		.loc 1 130 3 view .LVU54
 173              		.loc 1 132 3 view .LVU55
 174              		.syntax divided
 175              	@ 132 "../../../os/kernel/src/chevents.c" 1
 176 0000 9FF021E3 		msr     CPSR_c, #0x9F
 177              	@ 0 "" 2
 178              		.loc 1 132 3 view .LVU56
 179              		.loc 1 132 14 view .LVU57
 180              		.loc 1 134 3 view .LVU58
 181              		.loc 1 134 7 is_stmt 0 view .LVU59
 182              		.arm
 183              		.syntax unified
 184 0004 18309FE5 		ldr	r3, .L13
 185 0008 102093E5 		ldr	r2, [r3, #16]
 186              		.loc 1 134 12 view .LVU60
 187 000c 1C3092E5 		ldr	r3, [r2, #28]
 188              	.LVL5:
 189              		.loc 1 135 3 is_stmt 1 view .LVU61
 190              		.loc 1 135 21 is_stmt 0 view .LVU62
 191 0010 0010C3E1 		bic	r1, r3, r0
 192 0014 1C1082E5 		str	r1, [r2, #28]
 193              		.loc 1 137 3 is_stmt 1 view .LVU63
 194              		.loc 1 137 3 view .LVU64
 195              		.syntax divided
 196              	@ 137 "../../../os/kernel/src/chevents.c" 1
 197 0018 1FF021E3 		msr     CPSR_c, #0x1F
 198              	@ 0 "" 2
 199              		.loc 1 137 16 view .LVU65
 200              		.loc 1 138 3 view .LVU66
 201              		.loc 1 139 1 is_stmt 0 view .LVU67
 202              		.arm
 203              		.syntax unified
 204 001c 030000E0 		and	r0, r0, r3
 205              	.LVL6:
 206              		.loc 1 139 1 view .LVU68
 207 0020 1EFF2FE1 		bx	lr
 208              	.L14:
 209              		.align	2
 210              	.L13:
 211 0024 00000000 		.word	rlist
 212              		.cfi_endproc
 213              	.LFE9:
 214              		.size	chEvtGetAndClearEvents, .-chEvtGetAndClearEvents
 215              		.section	.text.chEvtAddEvents,"ax",%progbits
 216              		.align	2
 217              		.global	chEvtAddEvents
 218              		.syntax unified
 219              		.arm
 220              		.fpu softvfp
 221              		.type	chEvtAddEvents, %function
 222              	chEvtAddEvents:
 223              	.LVL7:
 224              	.LFB10:
 225              		.loc 1 150 46 is_stmt 1 view -0
 226              		.cfi_startproc
 227              		@ args = 0, pretend = 0, frame = 0
 228              		@ frame_needed = 0, uses_anonymous_args = 0
ARM GAS  /var/folders/l5/0x54b2c10074c8bt31ycjvl80000gp/T//ccViqEfd.s 			page 5


 229              		@ link register save eliminated.
 230              		.loc 1 152 3 view .LVU70
 231              		.syntax divided
 232              	@ 152 "../../../os/kernel/src/chevents.c" 1
 233 0000 9FF021E3 		msr     CPSR_c, #0x9F
 234              	@ 0 "" 2
 235              		.loc 1 152 3 view .LVU71
 236              		.loc 1 152 14 view .LVU72
 237              		.loc 1 154 3 view .LVU73
 238              		.loc 1 154 11 is_stmt 0 view .LVU74
 239              		.arm
 240              		.syntax unified
 241 0004 14309FE5 		ldr	r3, .L16
 242 0008 103093E5 		ldr	r3, [r3, #16]
 243              		.loc 1 154 29 view .LVU75
 244 000c 1C2093E5 		ldr	r2, [r3, #28]
 245 0010 020080E1 		orr	r0, r0, r2
 246              	.LVL8:
 247              		.loc 1 154 29 view .LVU76
 248 0014 1C0083E5 		str	r0, [r3, #28]
 249              	.LVL9:
 250              		.loc 1 156 3 is_stmt 1 view .LVU77
 251              		.loc 1 156 3 view .LVU78
 252              		.syntax divided
 253              	@ 156 "../../../os/kernel/src/chevents.c" 1
 254 0018 1FF021E3 		msr     CPSR_c, #0x1F
 255              	@ 0 "" 2
 256              		.loc 1 156 16 view .LVU79
 257              		.loc 1 157 3 view .LVU80
 258              		.loc 1 158 1 is_stmt 0 view .LVU81
 259              		.arm
 260              		.syntax unified
 261 001c 1EFF2FE1 		bx	lr
 262              	.L17:
 263              		.align	2
 264              	.L16:
 265 0020 00000000 		.word	rlist
 266              		.cfi_endproc
 267              	.LFE10:
 268              		.size	chEvtAddEvents, .-chEvtAddEvents
 269              		.section	.text.chEvtGetAndClearFlags,"ax",%progbits
 270              		.align	2
 271              		.global	chEvtGetAndClearFlags
 272              		.syntax unified
 273              		.arm
 274              		.fpu softvfp
 275              		.type	chEvtGetAndClearFlags, %function
 276              	chEvtGetAndClearFlags:
 277              	.LVL10:
 278              	.LFB12:
 279              		.loc 1 202 55 is_stmt 1 view -0
 280              		.cfi_startproc
 281              		@ args = 0, pretend = 0, frame = 0
 282              		@ frame_needed = 0, uses_anonymous_args = 0
 283              		@ link register save eliminated.
 284              		.loc 1 203 3 view .LVU83
 285              		.loc 1 205 3 view .LVU84
ARM GAS  /var/folders/l5/0x54b2c10074c8bt31ycjvl80000gp/T//ccViqEfd.s 			page 6


 286              		.loc 1 202 55 is_stmt 0 view .LVU85
 287 0000 0030A0E1 		mov	r3, r0
 288              		.loc 1 205 3 view .LVU86
 289              		.syntax divided
 290              	@ 205 "../../../os/kernel/src/chevents.c" 1
 291 0004 9FF021E3 		msr     CPSR_c, #0x9F
 292              	@ 0 "" 2
 293              		.loc 1 205 3 is_stmt 1 view .LVU87
 294              		.loc 1 205 14 view .LVU88
 295              		.loc 1 207 3 view .LVU89
 296              		.loc 1 208 17 is_stmt 0 view .LVU90
 297              		.arm
 298              		.syntax unified
 299 0008 0020A0E3 		mov	r2, #0
 300              		.loc 1 207 9 view .LVU91
 301 000c 0C0090E5 		ldr	r0, [r0, #12]
 302              	.LVL11:
 303              		.loc 1 208 3 is_stmt 1 view .LVU92
 304              		.loc 1 208 17 is_stmt 0 view .LVU93
 305 0010 0C2083E5 		str	r2, [r3, #12]
 306              		.loc 1 210 3 is_stmt 1 view .LVU94
 307              		.loc 1 210 3 view .LVU95
 308              		.syntax divided
 309              	@ 210 "../../../os/kernel/src/chevents.c" 1
 310 0014 1FF021E3 		msr     CPSR_c, #0x1F
 311              	@ 0 "" 2
 312              		.loc 1 210 16 view .LVU96
 313              		.loc 1 211 3 view .LVU97
 314              		.loc 1 212 1 is_stmt 0 view .LVU98
 315              		.arm
 316              		.syntax unified
 317 0018 1EFF2FE1 		bx	lr
 318              		.cfi_endproc
 319              	.LFE12:
 320              		.size	chEvtGetAndClearFlags, .-chEvtGetAndClearFlags
 321              		.section	.text.chEvtSignalI,"ax",%progbits
 322              		.align	2
 323              		.global	chEvtSignalI
 324              		.syntax unified
 325              		.arm
 326              		.fpu softvfp
 327              		.type	chEvtSignalI, %function
 328              	chEvtSignalI:
 329              	.LVL12:
 330              	.LFB14:
 331              		.loc 1 244 49 is_stmt 1 view -0
 332              		.cfi_startproc
 333              		@ args = 0, pretend = 0, frame = 0
 334              		@ frame_needed = 0, uses_anonymous_args = 0
 335              		.loc 1 246 3 view .LVU100
 336              		.loc 1 246 21 view .LVU101
 337              		.loc 1 247 3 view .LVU102
 338              		.loc 1 247 41 view .LVU103
 339              		.loc 1 249 3 view .LVU104
 340              		.loc 1 249 18 is_stmt 0 view .LVU105
 341 0000 1C3090E5 		ldr	r3, [r0, #28]
 342              		.loc 1 251 11 view .LVU106
ARM GAS  /var/folders/l5/0x54b2c10074c8bt31ycjvl80000gp/T//ccViqEfd.s 			page 7


 343 0004 1020D0E5 		ldrb	r2, [r0, #16]	@ zero_extendqisi2
 344              		.loc 1 249 18 view .LVU107
 345 0008 031081E1 		orr	r1, r1, r3
 346              	.LVL13:
 347              		.loc 1 251 6 view .LVU108
 348 000c 080052E3 		cmp	r2, #8
 349              		.loc 1 249 18 view .LVU109
 350 0010 1C1080E5 		str	r1, [r0, #28]
 351              		.loc 1 251 3 is_stmt 1 view .LVU110
 352              		.loc 1 251 6 is_stmt 0 view .LVU111
 353 0014 0900000A 		beq	.L27
 354              		.loc 1 252 50 view .LVU112
 355 0018 090052E3 		cmp	r2, #9
 356 001c 1EFF2F11 		bxne	lr
 357              		.loc 1 254 34 view .LVU113
 358 0020 143090E5 		ldr	r3, [r0, #20]
 359              		.loc 1 253 44 view .LVU114
 360 0024 0130D3E1 		bics	r3, r3, r1
 361 0028 1EFF2F11 		bxne	lr
 362              	.L21:
 363              	.LVL14:
 364              	.LBB4:
 365              	.LBI4:
 366              		.loc 1 244 6 is_stmt 1 view .LVU115
 367              	.LBB5:
 368              		.loc 1 255 5 view .LVU116
 369              	.LBE5:
 370              	.LBE4:
 371              		.loc 1 244 49 is_stmt 0 view .LVU117
 372 002c 04E02DE5 		str	lr, [sp, #-4]!
 373              		.cfi_def_cfa_offset 4
 374              		.cfi_offset 14, -4
 375              	.LBB7:
 376              	.LBB6:
 377              		.loc 1 255 5 view .LVU118
 378 0030 FEFFFFEB 		bl	chSchReadyI
 379              	.LVL15:
 380              		.loc 1 255 33 view .LVU119
 381 0034 0030A0E3 		mov	r3, #0
 382 0038 143080E5 		str	r3, [r0, #20]
 383              	.LBE6:
 384              	.LBE7:
 385              		.loc 1 256 1 view .LVU120
 386 003c 04F09DE4 		ldr	pc, [sp], #4
 387              	.LVL16:
 388              	.L27:
 389              		.cfi_def_cfa_offset 0
 390              		.cfi_restore 14
 391              		.loc 1 252 25 discriminator 1 view .LVU121
 392 0040 143090E5 		ldr	r3, [r0, #20]
 393              		.loc 1 251 43 discriminator 1 view .LVU122
 394 0044 030011E1 		tst	r1, r3
 395 0048 1EFF2F01 		bxeq	lr
 396 004c F6FFFFEA 		b	.L21
 397              		.cfi_endproc
 398              	.LFE14:
 399              		.size	chEvtSignalI, .-chEvtSignalI
ARM GAS  /var/folders/l5/0x54b2c10074c8bt31ycjvl80000gp/T//ccViqEfd.s 			page 8


 400              		.section	.text.chEvtBroadcastFlagsI,"ax",%progbits
 401              		.align	2
 402              		.global	chEvtBroadcastFlagsI
 403              		.syntax unified
 404              		.arm
 405              		.fpu softvfp
 406              		.type	chEvtBroadcastFlagsI, %function
 407              	chEvtBroadcastFlagsI:
 408              	.LVL17:
 409              	.LFB11:
 410              		.loc 1 177 64 is_stmt 1 view -0
 411              		.cfi_startproc
 412              		@ args = 0, pretend = 0, frame = 0
 413              		@ frame_needed = 0, uses_anonymous_args = 0
 414              		.loc 1 178 3 view .LVU124
 415              		.loc 1 180 3 view .LVU125
 416              		.loc 1 180 21 view .LVU126
 417              		.loc 1 181 3 view .LVU127
 418              		.loc 1 181 49 view .LVU128
 419              		.loc 1 183 3 view .LVU129
 420              		.loc 1 177 64 is_stmt 0 view .LVU130
 421 0000 70402DE9 		push	{r4, r5, r6, lr}
 422              		.cfi_def_cfa_offset 16
 423              		.cfi_offset 4, -16
 424              		.cfi_offset 5, -12
 425              		.cfi_offset 6, -8
 426              		.cfi_offset 14, -4
 427              		.loc 1 183 7 view .LVU131
 428 0004 004090E5 		ldr	r4, [r0]
 429              	.LVL18:
 430              		.loc 1 184 3 is_stmt 1 view .LVU132
 431              		.loc 1 184 9 is_stmt 0 view .LVU133
 432 0008 040050E1 		cmp	r0, r4
 433 000c 7080BD08 		popeq	{r4, r5, r6, pc}
 434 0010 0050A0E1 		mov	r5, r0
 435 0014 0160A0E1 		mov	r6, r1
 436              	.LVL19:
 437              	.L30:
 438              		.loc 1 185 5 is_stmt 1 view .LVU134
 439              		.loc 1 185 19 is_stmt 0 view .LVU135
 440 0018 0C3094E5 		ldr	r3, [r4, #12]
 441              		.loc 1 186 5 view .LVU136
 442 001c 081094E5 		ldr	r1, [r4, #8]
 443              		.loc 1 185 19 view .LVU137
 444 0020 063083E1 		orr	r3, r3, r6
 445 0024 0C3084E5 		str	r3, [r4, #12]
 446              		.loc 1 186 5 is_stmt 1 view .LVU138
 447 0028 040094E5 		ldr	r0, [r4, #4]
 448 002c FEFFFFEB 		bl	chEvtSignalI
 449              	.LVL20:
 450              		.loc 1 187 5 view .LVU139
 451              		.loc 1 187 9 is_stmt 0 view .LVU140
 452 0030 004094E5 		ldr	r4, [r4]
 453              	.LVL21:
 454              		.loc 1 184 9 view .LVU141
 455 0034 040055E1 		cmp	r5, r4
 456 0038 F6FFFF1A 		bne	.L30
ARM GAS  /var/folders/l5/0x54b2c10074c8bt31ycjvl80000gp/T//ccViqEfd.s 			page 9


 457 003c 7080BDE8 		pop	{r4, r5, r6, pc}
 458              		.cfi_endproc
 459              	.LFE11:
 460              		.size	chEvtBroadcastFlagsI, .-chEvtBroadcastFlagsI
 461              		.section	.text.chEvtSignal,"ax",%progbits
 462              		.align	2
 463              		.global	chEvtSignal
 464              		.syntax unified
 465              		.arm
 466              		.fpu softvfp
 467              		.type	chEvtSignal, %function
 468              	chEvtSignal:
 469              	.LVL22:
 470              	.LFB13:
 471              		.loc 1 222 48 is_stmt 1 view -0
 472              		.cfi_startproc
 473              		@ args = 0, pretend = 0, frame = 0
 474              		@ frame_needed = 0, uses_anonymous_args = 0
 475              		.loc 1 224 3 view .LVU143
 476              		.loc 1 224 40 view .LVU144
 477              		.loc 1 226 3 view .LVU145
 478              		.loc 1 222 48 is_stmt 0 view .LVU146
 479 0000 04E02DE5 		str	lr, [sp, #-4]!
 480              		.cfi_def_cfa_offset 4
 481              		.cfi_offset 14, -4
 482              		.loc 1 226 3 view .LVU147
 483              		.syntax divided
 484              	@ 226 "../../../os/kernel/src/chevents.c" 1
 485 0004 9FF021E3 		msr     CPSR_c, #0x9F
 486              	@ 0 "" 2
 487              		.loc 1 226 3 is_stmt 1 view .LVU148
 488              		.loc 1 226 14 view .LVU149
 489              		.loc 1 227 3 view .LVU150
 490              		.arm
 491              		.syntax unified
 492 0008 FEFFFFEB 		bl	chEvtSignalI
 493              	.LVL23:
 494              		.loc 1 228 3 view .LVU151
 495 000c FEFFFFEB 		bl	chSchRescheduleS
 496              	.LVL24:
 497              		.loc 1 229 3 view .LVU152
 498              		.loc 1 229 3 view .LVU153
 499              		.syntax divided
 500              	@ 229 "../../../os/kernel/src/chevents.c" 1
 501 0010 1FF021E3 		msr     CPSR_c, #0x1F
 502              	@ 0 "" 2
 503              		.loc 1 229 16 view .LVU154
 504              		.loc 1 230 1 is_stmt 0 view .LVU155
 505              		.arm
 506              		.syntax unified
 507 0014 04F09DE4 		ldr	pc, [sp], #4
 508              		.cfi_endproc
 509              	.LFE13:
 510              		.size	chEvtSignal, .-chEvtSignal
 511              		.section	.text.chEvtBroadcastFlags,"ax",%progbits
 512              		.align	2
 513              		.global	chEvtBroadcastFlags
ARM GAS  /var/folders/l5/0x54b2c10074c8bt31ycjvl80000gp/T//ccViqEfd.s 			page 10


 514              		.syntax unified
 515              		.arm
 516              		.fpu softvfp
 517              		.type	chEvtBroadcastFlags, %function
 518              	chEvtBroadcastFlags:
 519              	.LVL25:
 520              	.LFB15:
 521              		.loc 1 271 63 is_stmt 1 view -0
 522              		.cfi_startproc
 523              		@ args = 0, pretend = 0, frame = 0
 524              		@ frame_needed = 0, uses_anonymous_args = 0
 525              		.loc 1 273 3 view .LVU157
 526              		.loc 1 271 63 is_stmt 0 view .LVU158
 527 0000 04E02DE5 		str	lr, [sp, #-4]!
 528              		.cfi_def_cfa_offset 4
 529              		.cfi_offset 14, -4
 530              		.loc 1 273 3 view .LVU159
 531              		.syntax divided
 532              	@ 273 "../../../os/kernel/src/chevents.c" 1
 533 0004 9FF021E3 		msr     CPSR_c, #0x9F
 534              	@ 0 "" 2
 535              		.loc 1 273 3 is_stmt 1 view .LVU160
 536              		.loc 1 273 14 view .LVU161
 537              		.loc 1 274 3 view .LVU162
 538              		.arm
 539              		.syntax unified
 540 0008 FEFFFFEB 		bl	chEvtBroadcastFlagsI
 541              	.LVL26:
 542              		.loc 1 275 3 view .LVU163
 543 000c FEFFFFEB 		bl	chSchRescheduleS
 544              	.LVL27:
 545              		.loc 1 276 3 view .LVU164
 546              		.loc 1 276 3 view .LVU165
 547              		.syntax divided
 548              	@ 276 "../../../os/kernel/src/chevents.c" 1
 549 0010 1FF021E3 		msr     CPSR_c, #0x1F
 550              	@ 0 "" 2
 551              		.loc 1 276 16 view .LVU166
 552              		.loc 1 277 1 is_stmt 0 view .LVU167
 553              		.arm
 554              		.syntax unified
 555 0014 04F09DE4 		ldr	pc, [sp], #4
 556              		.cfi_endproc
 557              	.LFE15:
 558              		.size	chEvtBroadcastFlags, .-chEvtBroadcastFlags
 559              		.section	.text.chEvtGetAndClearFlagsI,"ax",%progbits
 560              		.align	2
 561              		.global	chEvtGetAndClearFlagsI
 562              		.syntax unified
 563              		.arm
 564              		.fpu softvfp
 565              		.type	chEvtGetAndClearFlagsI, %function
 566              	chEvtGetAndClearFlagsI:
 567              	.LVL28:
 568              	.LFB16:
 569              		.loc 1 290 56 is_stmt 1 view -0
 570              		.cfi_startproc
ARM GAS  /var/folders/l5/0x54b2c10074c8bt31ycjvl80000gp/T//ccViqEfd.s 			page 11


 571              		@ args = 0, pretend = 0, frame = 0
 572              		@ frame_needed = 0, uses_anonymous_args = 0
 573              		@ link register save eliminated.
 574              		.loc 1 291 3 view .LVU169
 575              		.loc 1 293 3 view .LVU170
 576              		.loc 1 290 56 is_stmt 0 view .LVU171
 577 0000 0030A0E1 		mov	r3, r0
 578              		.loc 1 294 17 view .LVU172
 579 0004 0020A0E3 		mov	r2, #0
 580              		.loc 1 293 9 view .LVU173
 581 0008 0C0090E5 		ldr	r0, [r0, #12]
 582              	.LVL29:
 583              		.loc 1 294 3 is_stmt 1 view .LVU174
 584              		.loc 1 294 17 is_stmt 0 view .LVU175
 585 000c 0C2083E5 		str	r2, [r3, #12]
 586              		.loc 1 296 3 is_stmt 1 view .LVU176
 587              		.loc 1 297 1 is_stmt 0 view .LVU177
 588 0010 1EFF2FE1 		bx	lr
 589              		.cfi_endproc
 590              	.LFE16:
 591              		.size	chEvtGetAndClearFlagsI, .-chEvtGetAndClearFlagsI
 592              		.section	.text.chEvtDispatch,"ax",%progbits
 593              		.align	2
 594              		.global	chEvtDispatch
 595              		.syntax unified
 596              		.arm
 597              		.fpu softvfp
 598              		.type	chEvtDispatch, %function
 599              	chEvtDispatch:
 600              	.LVL30:
 601              	.LFB17:
 602              		.loc 1 308 67 is_stmt 1 view -0
 603              		.cfi_startproc
 604              		@ args = 0, pretend = 0, frame = 0
 605              		@ frame_needed = 0, uses_anonymous_args = 0
 606              		.loc 1 309 3 view .LVU179
 607              		.loc 1 311 3 view .LVU180
 608              		.loc 1 311 48 view .LVU181
 609              		.loc 1 313 3 view .LVU182
 610              		.loc 1 314 3 view .LVU183
 611              		.loc 1 308 67 is_stmt 0 view .LVU184
 612 0000 F0402DE9 		push	{r4, r5, r6, r7, lr}
 613              		.cfi_def_cfa_offset 20
 614              		.cfi_offset 4, -20
 615              		.cfi_offset 5, -16
 616              		.cfi_offset 6, -12
 617              		.cfi_offset 7, -8
 618              		.cfi_offset 14, -4
 619              		.loc 1 314 9 view .LVU185
 620 0004 005051E2 		subs	r5, r1, #0
 621 0008 F080BD08 		popeq	{r4, r5, r6, r7, pc}
 622 000c 0070A0E1 		mov	r7, r0
 623              		.loc 1 313 7 view .LVU186
 624 0010 0040A0E3 		mov	r4, #0
 625              		.loc 1 315 16 view .LVU187
 626 0014 0160A0E3 		mov	r6, #1
 627              	.LVL31:
ARM GAS  /var/folders/l5/0x54b2c10074c8bt31ycjvl80000gp/T//ccViqEfd.s 			page 12


 628              	.L41:
 629              		.loc 1 315 5 is_stmt 1 view .LVU188
 630              		.loc 1 316 7 view .LVU189
 631              		.loc 1 318 34 view .LVU190
 632              		.loc 1 319 7 view .LVU191
 633              		.loc 1 322 5 view .LVU192
 634              		.loc 1 315 16 is_stmt 0 view .LVU193
 635 0018 1634A0E1 		lsl	r3, r6, r4
 636              		.loc 1 315 8 view .LVU194
 637 001c 050013E1 		tst	r3, r5
 638 0020 0900000A 		beq	.L40
 639              	.L51:
 640              		.loc 1 319 12 view .LVU195
 641 0024 0350C5E1 		bic	r5, r5, r3
 642              	.LVL32:
 643              		.loc 1 320 7 is_stmt 1 view .LVU196
 644 0028 0400A0E1 		mov	r0, r4
 645 002c 043197E7 		ldr	r3, [r7, r4, lsl #2]
 646 0030 33FF2FE1 		blx	r3
 647              	.LVL33:
 648              		.loc 1 322 5 view .LVU197
 649              		.loc 1 314 9 is_stmt 0 view .LVU198
 650 0034 000055E3 		cmp	r5, #0
 651              		.loc 1 322 8 view .LVU199
 652 0038 014084E2 		add	r4, r4, #1
 653              	.LVL34:
 654              		.loc 1 314 9 view .LVU200
 655 003c F080BD08 		popeq	{r4, r5, r6, r7, pc}
 656              		.loc 1 315 5 is_stmt 1 view .LVU201
 657              		.loc 1 316 7 view .LVU202
 658              		.loc 1 318 34 view .LVU203
 659              		.loc 1 319 7 view .LVU204
 660              		.loc 1 322 5 view .LVU205
 661              		.loc 1 315 16 is_stmt 0 view .LVU206
 662 0040 1634A0E1 		lsl	r3, r6, r4
 663              		.loc 1 315 8 view .LVU207
 664 0044 050013E1 		tst	r3, r5
 665 0048 F5FFFF1A 		bne	.L51
 666              	.L40:
 667              		.loc 1 322 8 view .LVU208
 668 004c 014084E2 		add	r4, r4, #1
 669              	.LVL35:
 670              		.loc 1 322 8 view .LVU209
 671 0050 F0FFFFEA 		b	.L41
 672              		.cfi_endproc
 673              	.LFE17:
 674              		.size	chEvtDispatch, .-chEvtDispatch
 675              		.section	.text.chEvtWaitOne,"ax",%progbits
 676              		.align	2
 677              		.global	chEvtWaitOne
 678              		.syntax unified
 679              		.arm
 680              		.fpu softvfp
 681              		.type	chEvtWaitOne, %function
 682              	chEvtWaitOne:
 683              	.LVL36:
 684              	.LFB18:
ARM GAS  /var/folders/l5/0x54b2c10074c8bt31ycjvl80000gp/T//ccViqEfd.s 			page 13


 685              		.loc 1 343 44 is_stmt 1 view -0
 686              		.cfi_startproc
 687              		@ args = 0, pretend = 0, frame = 0
 688              		@ frame_needed = 0, uses_anonymous_args = 0
 689              		.loc 1 344 3 view .LVU211
 690              		.loc 1 344 11 is_stmt 0 view .LVU212
 691 0000 48309FE5 		ldr	r3, .L56
 692              		.loc 1 343 44 view .LVU213
 693 0004 30402DE9 		push	{r4, r5, lr}
 694              		.cfi_def_cfa_offset 12
 695              		.cfi_offset 4, -12
 696              		.cfi_offset 5, -8
 697              		.cfi_offset 14, -4
 698              		.loc 1 344 11 view .LVU214
 699 0008 105093E5 		ldr	r5, [r3, #16]
 700              	.LVL37:
 701              		.loc 1 345 3 is_stmt 1 view .LVU215
 702              		.loc 1 347 3 view .LVU216
 703              		.syntax divided
 704              	@ 347 "../../../os/kernel/src/chevents.c" 1
 705 000c 9FF021E3 		msr     CPSR_c, #0x9F
 706              	@ 0 "" 2
 707              		.loc 1 347 3 view .LVU217
 708              		.loc 1 347 14 view .LVU218
 709              		.loc 1 349 3 view .LVU219
 710              		.loc 1 349 16 is_stmt 0 view .LVU220
 711              		.arm
 712              		.syntax unified
 713 0010 1C3095E5 		ldr	r3, [r5, #28]
 714              	.LVL38:
 715              		.loc 1 349 6 view .LVU221
 716 0014 004013E0 		ands	r4, r3, r0
 717              	.LVL39:
 718              		.loc 1 349 6 view .LVU222
 719 0018 0500000A 		beq	.L55
 720              	.LVL40:
 721              	.L53:
 722              		.loc 1 354 3 is_stmt 1 view .LVU223
 723              		.loc 1 354 8 is_stmt 0 view .LVU224
 724 001c 000064E2 		rsb	r0, r4, #0
 725              		.loc 1 354 5 view .LVU225
 726 0020 040000E0 		and	r0, r0, r4
 727              	.LVL41:
 728              		.loc 1 355 3 is_stmt 1 view .LVU226
 729              		.loc 1 355 19 is_stmt 0 view .LVU227
 730 0024 0030C3E1 		bic	r3, r3, r0
 731 0028 1C3085E5 		str	r3, [r5, #28]
 732              		.loc 1 357 3 is_stmt 1 view .LVU228
 733              		.loc 1 357 3 view .LVU229
 734              		.syntax divided
 735              	@ 357 "../../../os/kernel/src/chevents.c" 1
 736 002c 1FF021E3 		msr     CPSR_c, #0x1F
 737              	@ 0 "" 2
 738              		.loc 1 357 16 view .LVU230
 739              		.loc 1 358 3 view .LVU231
 740              		.loc 1 359 1 is_stmt 0 view .LVU232
 741              		.arm
ARM GAS  /var/folders/l5/0x54b2c10074c8bt31ycjvl80000gp/T//ccViqEfd.s 			page 14


 742              		.syntax unified
 743 0030 3080BDE8 		pop	{r4, r5, pc}
 744              	.LVL42:
 745              	.L55:
 746              		.loc 1 359 1 view .LVU233
 747 0034 0040A0E1 		mov	r4, r0
 748              	.LVL43:
 749              		.loc 1 350 5 is_stmt 1 view .LVU234
 750              		.loc 1 350 21 is_stmt 0 view .LVU235
 751 0038 140085E5 		str	r0, [r5, #20]
 752              		.loc 1 351 5 is_stmt 1 view .LVU236
 753 003c 0800A0E3 		mov	r0, #8
 754              	.LVL44:
 755              		.loc 1 351 5 is_stmt 0 view .LVU237
 756 0040 FEFFFFEB 		bl	chSchGoSleepS
 757              	.LVL45:
 758              		.loc 1 352 5 is_stmt 1 view .LVU238
 759              		.loc 1 352 12 is_stmt 0 view .LVU239
 760 0044 1C3095E5 		ldr	r3, [r5, #28]
 761              		.loc 1 352 7 view .LVU240
 762 0048 034004E0 		and	r4, r4, r3
 763              	.LVL46:
 764              		.loc 1 352 7 view .LVU241
 765 004c F2FFFFEA 		b	.L53
 766              	.L57:
 767              		.align	2
 768              	.L56:
 769 0050 00000000 		.word	rlist
 770              		.cfi_endproc
 771              	.LFE18:
 772              		.size	chEvtWaitOne, .-chEvtWaitOne
 773              		.section	.text.chEvtWaitAny,"ax",%progbits
 774              		.align	2
 775              		.global	chEvtWaitAny
 776              		.syntax unified
 777              		.arm
 778              		.fpu softvfp
 779              		.type	chEvtWaitAny, %function
 780              	chEvtWaitAny:
 781              	.LVL47:
 782              	.LFB19:
 783              		.loc 1 372 44 is_stmt 1 view -0
 784              		.cfi_startproc
 785              		@ args = 0, pretend = 0, frame = 0
 786              		@ frame_needed = 0, uses_anonymous_args = 0
 787              		.loc 1 373 3 view .LVU243
 788              		.loc 1 373 11 is_stmt 0 view .LVU244
 789 0000 44309FE5 		ldr	r3, .L62
 790              		.loc 1 372 44 view .LVU245
 791 0004 30402DE9 		push	{r4, r5, lr}
 792              		.cfi_def_cfa_offset 12
 793              		.cfi_offset 4, -12
 794              		.cfi_offset 5, -8
 795              		.cfi_offset 14, -4
 796              		.loc 1 373 11 view .LVU246
 797 0008 105093E5 		ldr	r5, [r3, #16]
 798              	.LVL48:
ARM GAS  /var/folders/l5/0x54b2c10074c8bt31ycjvl80000gp/T//ccViqEfd.s 			page 15


 799              		.loc 1 374 3 is_stmt 1 view .LVU247
 800              		.loc 1 376 3 view .LVU248
 801              		.syntax divided
 802              	@ 376 "../../../os/kernel/src/chevents.c" 1
 803 000c 9FF021E3 		msr     CPSR_c, #0x9F
 804              	@ 0 "" 2
 805              		.loc 1 376 3 view .LVU249
 806              		.loc 1 376 14 view .LVU250
 807              		.loc 1 378 3 view .LVU251
 808              		.loc 1 378 16 is_stmt 0 view .LVU252
 809              		.arm
 810              		.syntax unified
 811 0010 1C3095E5 		ldr	r3, [r5, #28]
 812              	.LVL49:
 813              		.loc 1 378 6 view .LVU253
 814 0014 004013E0 		ands	r4, r3, r0
 815              	.LVL50:
 816              		.loc 1 378 6 view .LVU254
 817 0018 0400000A 		beq	.L61
 818              	.LVL51:
 819              	.L59:
 820              		.loc 1 383 3 is_stmt 1 view .LVU255
 821              		.loc 1 383 19 is_stmt 0 view .LVU256
 822 001c 0430C3E1 		bic	r3, r3, r4
 823 0020 1C3085E5 		str	r3, [r5, #28]
 824              		.loc 1 385 3 is_stmt 1 view .LVU257
 825              		.loc 1 385 3 view .LVU258
 826              		.syntax divided
 827              	@ 385 "../../../os/kernel/src/chevents.c" 1
 828 0024 1FF021E3 		msr     CPSR_c, #0x1F
 829              	@ 0 "" 2
 830              		.loc 1 385 16 view .LVU259
 831              		.loc 1 386 3 view .LVU260
 832              		.loc 1 387 1 is_stmt 0 view .LVU261
 833              		.arm
 834              		.syntax unified
 835 0028 0400A0E1 		mov	r0, r4
 836 002c 3080BDE8 		pop	{r4, r5, pc}
 837              	.LVL52:
 838              	.L61:
 839              		.loc 1 387 1 view .LVU262
 840 0030 0040A0E1 		mov	r4, r0
 841              	.LVL53:
 842              		.loc 1 379 5 is_stmt 1 view .LVU263
 843              		.loc 1 379 21 is_stmt 0 view .LVU264
 844 0034 140085E5 		str	r0, [r5, #20]
 845              		.loc 1 380 5 is_stmt 1 view .LVU265
 846 0038 0800A0E3 		mov	r0, #8
 847              	.LVL54:
 848              		.loc 1 380 5 is_stmt 0 view .LVU266
 849 003c FEFFFFEB 		bl	chSchGoSleepS
 850              	.LVL55:
 851              		.loc 1 381 5 is_stmt 1 view .LVU267
 852              		.loc 1 381 12 is_stmt 0 view .LVU268
 853 0040 1C3095E5 		ldr	r3, [r5, #28]
 854              		.loc 1 381 7 view .LVU269
 855 0044 034004E0 		and	r4, r4, r3
ARM GAS  /var/folders/l5/0x54b2c10074c8bt31ycjvl80000gp/T//ccViqEfd.s 			page 16


 856              	.LVL56:
 857              		.loc 1 381 7 view .LVU270
 858 0048 F3FFFFEA 		b	.L59
 859              	.L63:
 860              		.align	2
 861              	.L62:
 862 004c 00000000 		.word	rlist
 863              		.cfi_endproc
 864              	.LFE19:
 865              		.size	chEvtWaitAny, .-chEvtWaitAny
 866              		.section	.text.chEvtWaitAll,"ax",%progbits
 867              		.align	2
 868              		.global	chEvtWaitAll
 869              		.syntax unified
 870              		.arm
 871              		.fpu softvfp
 872              		.type	chEvtWaitAll, %function
 873              	chEvtWaitAll:
 874              	.LVL57:
 875              	.LFB20:
 876              		.loc 1 400 44 is_stmt 1 view -0
 877              		.cfi_startproc
 878              		@ args = 0, pretend = 0, frame = 0
 879              		@ frame_needed = 0, uses_anonymous_args = 0
 880              		.loc 1 401 3 view .LVU272
 881              		.loc 1 401 11 is_stmt 0 view .LVU273
 882 0000 3C309FE5 		ldr	r3, .L67
 883              		.loc 1 400 44 view .LVU274
 884 0004 30402DE9 		push	{r4, r5, lr}
 885              		.cfi_def_cfa_offset 12
 886              		.cfi_offset 4, -12
 887              		.cfi_offset 5, -8
 888              		.cfi_offset 14, -4
 889              		.loc 1 400 44 view .LVU275
 890 0008 0040A0E1 		mov	r4, r0
 891              		.loc 1 401 11 view .LVU276
 892 000c 105093E5 		ldr	r5, [r3, #16]
 893              	.LVL58:
 894              		.loc 1 403 3 is_stmt 1 view .LVU277
 895              		.syntax divided
 896              	@ 403 "../../../os/kernel/src/chevents.c" 1
 897 0010 9FF021E3 		msr     CPSR_c, #0x9F
 898              	@ 0 "" 2
 899              		.loc 1 403 3 view .LVU278
 900              		.loc 1 403 14 view .LVU279
 901              		.loc 1 405 3 view .LVU280
 902              		.loc 1 405 11 is_stmt 0 view .LVU281
 903              		.arm
 904              		.syntax unified
 905 0014 1C3095E5 		ldr	r3, [r5, #28]
 906              		.loc 1 405 6 view .LVU282
 907 0018 0320D0E1 		bics	r2, r0, r3
 908 001c 0300000A 		beq	.L65
 909              		.loc 1 406 5 is_stmt 1 view .LVU283
 910              		.loc 1 406 21 is_stmt 0 view .LVU284
 911 0020 140085E5 		str	r0, [r5, #20]
 912              		.loc 1 407 5 is_stmt 1 view .LVU285
ARM GAS  /var/folders/l5/0x54b2c10074c8bt31ycjvl80000gp/T//ccViqEfd.s 			page 17


 913 0024 0900A0E3 		mov	r0, #9
 914              	.LVL59:
 915              		.loc 1 407 5 is_stmt 0 view .LVU286
 916 0028 FEFFFFEB 		bl	chSchGoSleepS
 917              	.LVL60:
 918 002c 1C3095E5 		ldr	r3, [r5, #28]
 919              	.L65:
 920              		.loc 1 409 3 is_stmt 1 view .LVU287
 921              		.loc 1 409 19 is_stmt 0 view .LVU288
 922 0030 0430C3E1 		bic	r3, r3, r4
 923 0034 1C3085E5 		str	r3, [r5, #28]
 924              		.loc 1 411 3 is_stmt 1 view .LVU289
 925              		.loc 1 411 3 view .LVU290
 926              		.syntax divided
 927              	@ 411 "../../../os/kernel/src/chevents.c" 1
 928 0038 1FF021E3 		msr     CPSR_c, #0x1F
 929              	@ 0 "" 2
 930              		.loc 1 411 16 view .LVU291
 931              		.loc 1 412 3 view .LVU292
 932              		.loc 1 413 1 is_stmt 0 view .LVU293
 933              		.arm
 934              		.syntax unified
 935 003c 0400A0E1 		mov	r0, r4
 936 0040 3080BDE8 		pop	{r4, r5, pc}
 937              	.L68:
 938              		.align	2
 939              	.L67:
 940 0044 00000000 		.word	rlist
 941              		.cfi_endproc
 942              	.LFE20:
 943              		.size	chEvtWaitAll, .-chEvtWaitAll
 944              		.text
 945              	.Letext0:
 946              		.file 2 "/usr/local/Cellar/arm-gcc-bin/8-2019-q3-update/arm-none-eabi/include/machine/_default_typ
 947              		.file 3 "/usr/local/Cellar/arm-gcc-bin/8-2019-q3-update/arm-none-eabi/include/sys/_stdint.h"
 948              		.file 4 "../../../os/ports/GCC/ARM/chtypes.h"
 949              		.file 5 "../../../os/kernel/include/chlists.h"
 950              		.file 6 "../../../os/kernel/include/chthreads.h"
 951              		.file 7 "../../../os/ports/GCC/ARM/chcore.h"
 952              		.file 8 "../../../os/kernel/include/chvt.h"
 953              		.file 9 "../../../os/kernel/include/chschd.h"
 954              		.file 10 "../../../os/kernel/include/chmtx.h"
 955              		.file 11 "../../../os/kernel/include/chevents.h"
 956              		.file 12 "../../../os/kernel/include/ch.h"
 957              		.section	.debug_info,"",%progbits
 958              	.Ldebug_info0:
 959 0000 3E0A0000 		.4byte	0xa3e
 960 0004 0400     		.2byte	0x4
 961 0006 00000000 		.4byte	.Ldebug_abbrev0
 962 000a 04       		.byte	0x4
 963 000b 01       		.uleb128 0x1
 964 000c 61010000 		.4byte	.LASF94
 965 0010 0C       		.byte	0xc
 966 0011 A0020000 		.4byte	.LASF95
 967 0015 98000000 		.4byte	.LASF96
 968 0019 18000000 		.4byte	.Ldebug_ranges0+0x18
 969 001d 00000000 		.4byte	0
ARM GAS  /var/folders/l5/0x54b2c10074c8bt31ycjvl80000gp/T//ccViqEfd.s 			page 18


 970 0021 00000000 		.4byte	.Ldebug_line0
 971 0025 02       		.uleb128 0x2
 972 0026 04       		.byte	0x4
 973 0027 05       		.byte	0x5
 974 0028 86000000 		.4byte	.LASF0
 975 002c 02       		.uleb128 0x2
 976 002d 04       		.byte	0x4
 977 002e 07       		.byte	0x7
 978 002f 77020000 		.4byte	.LASF1
 979 0033 02       		.uleb128 0x2
 980 0034 01       		.byte	0x1
 981 0035 06       		.byte	0x6
 982 0036 68000000 		.4byte	.LASF2
 983 003a 03       		.uleb128 0x3
 984 003b 07000000 		.4byte	.LASF6
 985 003f 02       		.byte	0x2
 986 0040 2B       		.byte	0x2b
 987 0041 18       		.byte	0x18
 988 0042 46000000 		.4byte	0x46
 989 0046 02       		.uleb128 0x2
 990 0047 01       		.byte	0x1
 991 0048 08       		.byte	0x8
 992 0049 B6030000 		.4byte	.LASF3
 993 004d 02       		.uleb128 0x2
 994 004e 02       		.byte	0x2
 995 004f 05       		.byte	0x5
 996 0050 F0030000 		.4byte	.LASF4
 997 0054 02       		.uleb128 0x2
 998 0055 02       		.byte	0x2
 999 0056 07       		.byte	0x7
 1000 0057 CB020000 		.4byte	.LASF5
 1001 005b 03       		.uleb128 0x3
 1002 005c A6040000 		.4byte	.LASF7
 1003 0060 02       		.byte	0x2
 1004 0061 4D       		.byte	0x4d
 1005 0062 18       		.byte	0x18
 1006 0063 25000000 		.4byte	0x25
 1007 0067 03       		.uleb128 0x3
 1008 0068 2C010000 		.4byte	.LASF8
 1009 006c 02       		.byte	0x2
 1010 006d 4F       		.byte	0x4f
 1011 006e 19       		.byte	0x19
 1012 006f 2C000000 		.4byte	0x2c
 1013 0073 02       		.uleb128 0x2
 1014 0074 08       		.byte	0x8
 1015 0075 05       		.byte	0x5
 1016 0076 5A000000 		.4byte	.LASF9
 1017 007a 02       		.uleb128 0x2
 1018 007b 08       		.byte	0x8
 1019 007c 07       		.byte	0x7
 1020 007d 24000000 		.4byte	.LASF10
 1021 0081 03       		.uleb128 0x3
 1022 0082 EA040000 		.4byte	.LASF11
 1023 0086 03       		.byte	0x3
 1024 0087 18       		.byte	0x18
 1025 0088 13       		.byte	0x13
 1026 0089 3A000000 		.4byte	0x3a
ARM GAS  /var/folders/l5/0x54b2c10074c8bt31ycjvl80000gp/T//ccViqEfd.s 			page 19


 1027 008d 03       		.uleb128 0x3
 1028 008e AE030000 		.4byte	.LASF12
 1029 0092 03       		.byte	0x3
 1030 0093 2C       		.byte	0x2c
 1031 0094 13       		.byte	0x13
 1032 0095 5B000000 		.4byte	0x5b
 1033 0099 03       		.uleb128 0x3
 1034 009a 60040000 		.4byte	.LASF13
 1035 009e 03       		.byte	0x3
 1036 009f 30       		.byte	0x30
 1037 00a0 14       		.byte	0x14
 1038 00a1 67000000 		.4byte	0x67
 1039 00a5 04       		.uleb128 0x4
 1040 00a6 04       		.byte	0x4
 1041 00a7 05       		.byte	0x5
 1042 00a8 696E7400 		.ascii	"int\000"
 1043 00ac 02       		.uleb128 0x2
 1044 00ad 04       		.byte	0x4
 1045 00ae 07       		.byte	0x7
 1046 00af 62020000 		.4byte	.LASF14
 1047 00b3 03       		.uleb128 0x3
 1048 00b4 0E030000 		.4byte	.LASF15
 1049 00b8 04       		.byte	0x4
 1050 00b9 2A       		.byte	0x2a
 1051 00ba 19       		.byte	0x19
 1052 00bb 81000000 		.4byte	0x81
 1053 00bf 03       		.uleb128 0x3
 1054 00c0 8F000000 		.4byte	.LASF16
 1055 00c4 04       		.byte	0x4
 1056 00c5 2B       		.byte	0x2b
 1057 00c6 19       		.byte	0x19
 1058 00c7 81000000 		.4byte	0x81
 1059 00cb 03       		.uleb128 0x3
 1060 00cc 7C000000 		.4byte	.LASF17
 1061 00d0 04       		.byte	0x4
 1062 00d1 2D       		.byte	0x2d
 1063 00d2 19       		.byte	0x19
 1064 00d3 81000000 		.4byte	0x81
 1065 00d7 03       		.uleb128 0x3
 1066 00d8 A6030000 		.4byte	.LASF18
 1067 00dc 04       		.byte	0x4
 1068 00dd 2E       		.byte	0x2e
 1069 00de 19       		.byte	0x19
 1070 00df 99000000 		.4byte	0x99
 1071 00e3 03       		.uleb128 0x3
 1072 00e4 F0020000 		.4byte	.LASF19
 1073 00e8 04       		.byte	0x4
 1074 00e9 2F       		.byte	0x2f
 1075 00ea 19       		.byte	0x19
 1076 00eb 8D000000 		.4byte	0x8d
 1077 00ef 03       		.uleb128 0x3
 1078 00f0 40020000 		.4byte	.LASF20
 1079 00f4 04       		.byte	0x4
 1080 00f5 30       		.byte	0x30
 1081 00f6 19       		.byte	0x19
 1082 00f7 8D000000 		.4byte	0x8d
 1083 00fb 03       		.uleb128 0x3
ARM GAS  /var/folders/l5/0x54b2c10074c8bt31ycjvl80000gp/T//ccViqEfd.s 			page 20


 1084 00fc 22030000 		.4byte	.LASF21
 1085 0100 04       		.byte	0x4
 1086 0101 31       		.byte	0x31
 1087 0102 19       		.byte	0x19
 1088 0103 99000000 		.4byte	0x99
 1089 0107 03       		.uleb128 0x3
 1090 0108 C6040000 		.4byte	.LASF22
 1091 010c 04       		.byte	0x4
 1092 010d 32       		.byte	0x32
 1093 010e 19       		.byte	0x19
 1094 010f 99000000 		.4byte	0x99
 1095 0113 03       		.uleb128 0x3
 1096 0114 91040000 		.4byte	.LASF23
 1097 0118 04       		.byte	0x4
 1098 0119 33       		.byte	0x33
 1099 011a 19       		.byte	0x19
 1100 011b 99000000 		.4byte	0x99
 1101 011f 05       		.uleb128 0x5
 1102 0120 13010000 		.4byte	0x113
 1103 0124 03       		.uleb128 0x3
 1104 0125 40040000 		.4byte	.LASF24
 1105 0129 05       		.byte	0x5
 1106 012a 23       		.byte	0x23
 1107 012b 17       		.byte	0x17
 1108 012c 30010000 		.4byte	0x130
 1109 0130 06       		.uleb128 0x6
 1110 0131 40040000 		.4byte	.LASF24
 1111 0135 28       		.byte	0x28
 1112 0136 06       		.byte	0x6
 1113 0137 57       		.byte	0x57
 1114 0138 08       		.byte	0x8
 1115 0139 DA010000 		.4byte	0x1da
 1116 013d 07       		.uleb128 0x7
 1117 013e 31040000 		.4byte	.LASF25
 1118 0142 06       		.byte	0x6
 1119 0143 58       		.byte	0x58
 1120 0144 1A       		.byte	0x1a
 1121 0145 FE010000 		.4byte	0x1fe
 1122 0149 00       		.byte	0
 1123 014a 07       		.uleb128 0x7
 1124 014b 9F030000 		.4byte	.LASF26
 1125 014f 06       		.byte	0x6
 1126 0150 5A       		.byte	0x5a
 1127 0151 1A       		.byte	0x1a
 1128 0152 FE010000 		.4byte	0x1fe
 1129 0156 04       		.byte	0x4
 1130 0157 07       		.uleb128 0x7
 1131 0158 53000000 		.4byte	.LASF27
 1132 015c 06       		.byte	0x6
 1133 015d 5C       		.byte	0x5c
 1134 015e 19       		.byte	0x19
 1135 015f D7000000 		.4byte	0xd7
 1136 0163 08       		.byte	0x8
 1137 0164 07       		.uleb128 0x7
 1138 0165 36050000 		.4byte	.LASF28
 1139 0169 06       		.byte	0x6
 1140 016a 5D       		.byte	0x5d
ARM GAS  /var/folders/l5/0x54b2c10074c8bt31ycjvl80000gp/T//ccViqEfd.s 			page 21


 1141 016b 19       		.byte	0x19
 1142 016c C9020000 		.4byte	0x2c9
 1143 0170 0C       		.byte	0xc
 1144 0171 07       		.uleb128 0x7
 1145 0172 FA030000 		.4byte	.LASF29
 1146 0176 06       		.byte	0x6
 1147 0177 72       		.byte	0x72
 1148 0178 19       		.byte	0x19
 1149 0179 BF000000 		.4byte	0xbf
 1150 017d 10       		.byte	0x10
 1151 017e 07       		.uleb128 0x7
 1152 017f 38040000 		.4byte	.LASF30
 1153 0183 06       		.byte	0x6
 1154 0184 76       		.byte	0x76
 1155 0185 19       		.byte	0x19
 1156 0186 B3000000 		.4byte	0xb3
 1157 018a 11       		.byte	0x11
 1158 018b 07       		.uleb128 0x7
 1159 018c 02040000 		.4byte	.LASF31
 1160 0190 06       		.byte	0x6
 1161 0191 81       		.byte	0x81
 1162 0192 19       		.byte	0x19
 1163 0193 CB000000 		.4byte	0xcb
 1164 0197 12       		.byte	0x12
 1165 0198 08       		.uleb128 0x8
 1166 0199 705F7500 		.ascii	"p_u\000"
 1167 019d 06       		.byte	0x6
 1168 019e AD       		.byte	0xad
 1169 019f 19       		.byte	0x19
 1170 01a0 F8040000 		.4byte	0x4f8
 1171 01a4 14       		.byte	0x14
 1172 01a5 07       		.uleb128 0x7
 1173 01a6 3C050000 		.4byte	.LASF32
 1174 01aa 06       		.byte	0x6
 1175 01ab B2       		.byte	0xb2
 1176 01ac 19       		.byte	0x19
 1177 01ad 27020000 		.4byte	0x227
 1178 01b1 18       		.byte	0x18
 1179 01b2 07       		.uleb128 0x7
 1180 01b3 55040000 		.4byte	.LASF33
 1181 01b7 06       		.byte	0x6
 1182 01b8 C2       		.byte	0xc2
 1183 01b9 19       		.byte	0x19
 1184 01ba FB000000 		.4byte	0xfb
 1185 01be 1C       		.byte	0x1c
 1186 01bf 07       		.uleb128 0x7
 1187 01c0 E6030000 		.4byte	.LASF34
 1188 01c4 06       		.byte	0x6
 1189 01c5 C9       		.byte	0xc9
 1190 01c6 1A       		.byte	0x1a
 1191 01c7 32050000 		.4byte	0x532
 1192 01cb 20       		.byte	0x20
 1193 01cc 07       		.uleb128 0x7
 1194 01cd 9B040000 		.4byte	.LASF35
 1195 01d1 06       		.byte	0x6
 1196 01d2 CD       		.byte	0xcd
 1197 01d3 19       		.byte	0x19
ARM GAS  /var/folders/l5/0x54b2c10074c8bt31ycjvl80000gp/T//ccViqEfd.s 			page 22


 1198 01d4 D7000000 		.4byte	0xd7
 1199 01d8 24       		.byte	0x24
 1200 01d9 00       		.byte	0
 1201 01da 09       		.uleb128 0x9
 1202 01db 08       		.byte	0x8
 1203 01dc 05       		.byte	0x5
 1204 01dd 5A       		.byte	0x5a
 1205 01de 09       		.byte	0x9
 1206 01df FE010000 		.4byte	0x1fe
 1207 01e3 07       		.uleb128 0x7
 1208 01e4 31040000 		.4byte	.LASF25
 1209 01e8 05       		.byte	0x5
 1210 01e9 5B       		.byte	0x5b
 1211 01ea 1A       		.byte	0x1a
 1212 01eb FE010000 		.4byte	0x1fe
 1213 01ef 00       		.byte	0
 1214 01f0 07       		.uleb128 0x7
 1215 01f1 9F030000 		.4byte	.LASF26
 1216 01f5 05       		.byte	0x5
 1217 01f6 5D       		.byte	0x5d
 1218 01f7 1A       		.byte	0x1a
 1219 01f8 FE010000 		.4byte	0x1fe
 1220 01fc 04       		.byte	0x4
 1221 01fd 00       		.byte	0
 1222 01fe 0A       		.uleb128 0xa
 1223 01ff 04       		.byte	0x4
 1224 0200 24010000 		.4byte	0x124
 1225 0204 03       		.uleb128 0x3
 1226 0205 6A030000 		.4byte	.LASF36
 1227 0209 05       		.byte	0x5
 1228 020a 5F       		.byte	0x5f
 1229 020b 03       		.byte	0x3
 1230 020c DA010000 		.4byte	0x1da
 1231 0210 09       		.uleb128 0x9
 1232 0211 04       		.byte	0x4
 1233 0212 05       		.byte	0x5
 1234 0213 64       		.byte	0x64
 1235 0214 09       		.byte	0x9
 1236 0215 27020000 		.4byte	0x227
 1237 0219 07       		.uleb128 0x7
 1238 021a 31040000 		.4byte	.LASF25
 1239 021e 05       		.byte	0x5
 1240 021f 66       		.byte	0x66
 1241 0220 16       		.byte	0x16
 1242 0221 FE010000 		.4byte	0x1fe
 1243 0225 00       		.byte	0
 1244 0226 00       		.byte	0
 1245 0227 03       		.uleb128 0x3
 1246 0228 16030000 		.4byte	.LASF37
 1247 022c 05       		.byte	0x5
 1248 022d 69       		.byte	0x69
 1249 022e 03       		.byte	0x3
 1250 022f 10020000 		.4byte	0x210
 1251 0233 03       		.uleb128 0x3
 1252 0234 34030000 		.4byte	.LASF38
 1253 0238 07       		.byte	0x7
 1254 0239 9D       		.byte	0x9d
ARM GAS  /var/folders/l5/0x54b2c10074c8bt31ycjvl80000gp/T//ccViqEfd.s 			page 23


 1255 023a 12       		.byte	0x12
 1256 023b 99000000 		.4byte	0x99
 1257 023f 03       		.uleb128 0x3
 1258 0240 3C010000 		.4byte	.LASF39
 1259 0244 07       		.byte	0x7
 1260 0245 A2       		.byte	0xa2
 1261 0246 0F       		.byte	0xf
 1262 0247 4B020000 		.4byte	0x24b
 1263 024b 0B       		.uleb128 0xb
 1264 024c 04       		.byte	0x4
 1265 024d 06       		.uleb128 0x6
 1266 024e B8040000 		.4byte	.LASF40
 1267 0252 24       		.byte	0x24
 1268 0253 07       		.byte	0x7
 1269 0254 B9       		.byte	0xb9
 1270 0255 08       		.byte	0x8
 1271 0256 C9020000 		.4byte	0x2c9
 1272 025a 08       		.uleb128 0x8
 1273 025b 723400   		.ascii	"r4\000"
 1274 025e 07       		.byte	0x7
 1275 025f BA       		.byte	0xba
 1276 0260 11       		.byte	0x11
 1277 0261 3F020000 		.4byte	0x23f
 1278 0265 00       		.byte	0
 1279 0266 08       		.uleb128 0x8
 1280 0267 723500   		.ascii	"r5\000"
 1281 026a 07       		.byte	0x7
 1282 026b BB       		.byte	0xbb
 1283 026c 11       		.byte	0x11
 1284 026d 3F020000 		.4byte	0x23f
 1285 0271 04       		.byte	0x4
 1286 0272 08       		.uleb128 0x8
 1287 0273 723600   		.ascii	"r6\000"
 1288 0276 07       		.byte	0x7
 1289 0277 BC       		.byte	0xbc
 1290 0278 11       		.byte	0x11
 1291 0279 3F020000 		.4byte	0x23f
 1292 027d 08       		.byte	0x8
 1293 027e 08       		.uleb128 0x8
 1294 027f 723700   		.ascii	"r7\000"
 1295 0282 07       		.byte	0x7
 1296 0283 BD       		.byte	0xbd
 1297 0284 11       		.byte	0x11
 1298 0285 3F020000 		.4byte	0x23f
 1299 0289 0C       		.byte	0xc
 1300 028a 08       		.uleb128 0x8
 1301 028b 723800   		.ascii	"r8\000"
 1302 028e 07       		.byte	0x7
 1303 028f BE       		.byte	0xbe
 1304 0290 11       		.byte	0x11
 1305 0291 3F020000 		.4byte	0x23f
 1306 0295 10       		.byte	0x10
 1307 0296 08       		.uleb128 0x8
 1308 0297 723900   		.ascii	"r9\000"
 1309 029a 07       		.byte	0x7
 1310 029b BF       		.byte	0xbf
 1311 029c 11       		.byte	0x11
ARM GAS  /var/folders/l5/0x54b2c10074c8bt31ycjvl80000gp/T//ccViqEfd.s 			page 24


 1312 029d 3F020000 		.4byte	0x23f
 1313 02a1 14       		.byte	0x14
 1314 02a2 08       		.uleb128 0x8
 1315 02a3 72313000 		.ascii	"r10\000"
 1316 02a7 07       		.byte	0x7
 1317 02a8 C0       		.byte	0xc0
 1318 02a9 11       		.byte	0x11
 1319 02aa 3F020000 		.4byte	0x23f
 1320 02ae 18       		.byte	0x18
 1321 02af 08       		.uleb128 0x8
 1322 02b0 72313100 		.ascii	"r11\000"
 1323 02b4 07       		.byte	0x7
 1324 02b5 C1       		.byte	0xc1
 1325 02b6 11       		.byte	0x11
 1326 02b7 3F020000 		.4byte	0x23f
 1327 02bb 1C       		.byte	0x1c
 1328 02bc 08       		.uleb128 0x8
 1329 02bd 6C7200   		.ascii	"lr\000"
 1330 02c0 07       		.byte	0x7
 1331 02c1 C2       		.byte	0xc2
 1332 02c2 11       		.byte	0x11
 1333 02c3 3F020000 		.4byte	0x23f
 1334 02c7 20       		.byte	0x20
 1335 02c8 00       		.byte	0
 1336 02c9 06       		.uleb128 0x6
 1337 02ca B0040000 		.4byte	.LASF41
 1338 02ce 04       		.byte	0x4
 1339 02cf 07       		.byte	0x7
 1340 02d0 CA       		.byte	0xca
 1341 02d1 08       		.byte	0x8
 1342 02d2 E4020000 		.4byte	0x2e4
 1343 02d6 08       		.uleb128 0x8
 1344 02d7 72313300 		.ascii	"r13\000"
 1345 02db 07       		.byte	0x7
 1346 02dc CB       		.byte	0xcb
 1347 02dd 12       		.byte	0x12
 1348 02de E4020000 		.4byte	0x2e4
 1349 02e2 00       		.byte	0
 1350 02e3 00       		.byte	0
 1351 02e4 0A       		.uleb128 0xa
 1352 02e5 04       		.byte	0x4
 1353 02e6 4D020000 		.4byte	0x24d
 1354 02ea 03       		.uleb128 0x3
 1355 02eb C2020000 		.4byte	.LASF42
 1356 02ef 08       		.byte	0x8
 1357 02f0 4E       		.byte	0x4e
 1358 02f1 10       		.byte	0x10
 1359 02f2 F6020000 		.4byte	0x2f6
 1360 02f6 0A       		.uleb128 0xa
 1361 02f7 04       		.byte	0x4
 1362 02f8 FC020000 		.4byte	0x2fc
 1363 02fc 0C       		.uleb128 0xc
 1364 02fd 07030000 		.4byte	0x307
 1365 0301 0D       		.uleb128 0xd
 1366 0302 4B020000 		.4byte	0x24b
 1367 0306 00       		.byte	0
 1368 0307 03       		.uleb128 0x3
ARM GAS  /var/folders/l5/0x54b2c10074c8bt31ycjvl80000gp/T//ccViqEfd.s 			page 25


 1369 0308 71040000 		.4byte	.LASF43
 1370 030c 08       		.byte	0x8
 1371 030d 53       		.byte	0x53
 1372 030e 1D       		.byte	0x1d
 1373 030f 13030000 		.4byte	0x313
 1374 0313 06       		.uleb128 0x6
 1375 0314 71040000 		.4byte	.LASF43
 1376 0318 14       		.byte	0x14
 1377 0319 08       		.byte	0x8
 1378 031a 5A       		.byte	0x5a
 1379 031b 08       		.byte	0x8
 1380 031c 62030000 		.4byte	0x362
 1381 0320 07       		.uleb128 0x7
 1382 0321 6F020000 		.4byte	.LASF44
 1383 0325 08       		.byte	0x8
 1384 0326 5B       		.byte	0x5b
 1385 0327 1A       		.byte	0x1a
 1386 0328 62030000 		.4byte	0x362
 1387 032c 00       		.byte	0
 1388 032d 07       		.uleb128 0x7
 1389 032e 45010000 		.4byte	.LASF45
 1390 0332 08       		.byte	0x8
 1391 0333 5D       		.byte	0x5d
 1392 0334 1A       		.byte	0x1a
 1393 0335 62030000 		.4byte	0x362
 1394 0339 04       		.byte	0x4
 1395 033a 07       		.uleb128 0x7
 1396 033b 3F030000 		.4byte	.LASF46
 1397 033f 08       		.byte	0x8
 1398 0340 5F       		.byte	0x5f
 1399 0341 19       		.byte	0x19
 1400 0342 13010000 		.4byte	0x113
 1401 0346 08       		.byte	0x8
 1402 0347 07       		.uleb128 0x7
 1403 0348 47030000 		.4byte	.LASF47
 1404 034c 08       		.byte	0x8
 1405 034d 60       		.byte	0x60
 1406 034e 19       		.byte	0x19
 1407 034f EA020000 		.4byte	0x2ea
 1408 0353 0C       		.byte	0xc
 1409 0354 07       		.uleb128 0x7
 1410 0355 BF040000 		.4byte	.LASF48
 1411 0359 08       		.byte	0x8
 1412 035a 62       		.byte	0x62
 1413 035b 1A       		.byte	0x1a
 1414 035c 4B020000 		.4byte	0x24b
 1415 0360 10       		.byte	0x10
 1416 0361 00       		.byte	0
 1417 0362 0A       		.uleb128 0xa
 1418 0363 04       		.byte	0x4
 1419 0364 07030000 		.4byte	0x307
 1420 0368 09       		.uleb128 0x9
 1421 0369 10       		.byte	0x10
 1422 036a 08       		.byte	0x8
 1423 036b 6C       		.byte	0x6c
 1424 036c 09       		.byte	0x9
 1425 036d A6030000 		.4byte	0x3a6
ARM GAS  /var/folders/l5/0x54b2c10074c8bt31ycjvl80000gp/T//ccViqEfd.s 			page 26


 1426 0371 07       		.uleb128 0x7
 1427 0372 6F020000 		.4byte	.LASF44
 1428 0376 08       		.byte	0x8
 1429 0377 6D       		.byte	0x6d
 1430 0378 1A       		.byte	0x1a
 1431 0379 62030000 		.4byte	0x362
 1432 037d 00       		.byte	0
 1433 037e 07       		.uleb128 0x7
 1434 037f 45010000 		.4byte	.LASF45
 1435 0383 08       		.byte	0x8
 1436 0384 6F       		.byte	0x6f
 1437 0385 1A       		.byte	0x1a
 1438 0386 62030000 		.4byte	0x362
 1439 038a 04       		.byte	0x4
 1440 038b 07       		.uleb128 0x7
 1441 038c 3F030000 		.4byte	.LASF46
 1442 0390 08       		.byte	0x8
 1443 0391 71       		.byte	0x71
 1444 0392 19       		.byte	0x19
 1445 0393 13010000 		.4byte	0x113
 1446 0397 08       		.byte	0x8
 1447 0398 07       		.uleb128 0x7
 1448 0399 0D050000 		.4byte	.LASF49
 1449 039d 08       		.byte	0x8
 1450 039e 72       		.byte	0x72
 1451 039f 19       		.byte	0x19
 1452 03a0 1F010000 		.4byte	0x11f
 1453 03a4 0C       		.byte	0xc
 1454 03a5 00       		.byte	0
 1455 03a6 03       		.uleb128 0x3
 1456 03a7 5D030000 		.4byte	.LASF50
 1457 03ab 08       		.byte	0x8
 1458 03ac 73       		.byte	0x73
 1459 03ad 03       		.byte	0x3
 1460 03ae 68030000 		.4byte	0x368
 1461 03b2 0E       		.uleb128 0xe
 1462 03b3 11000000 		.4byte	.LASF56
 1463 03b7 08       		.byte	0x8
 1464 03b8 D1       		.byte	0xd1
 1465 03b9 0F       		.byte	0xf
 1466 03ba A6030000 		.4byte	0x3a6
 1467 03be 09       		.uleb128 0x9
 1468 03bf 14       		.byte	0x14
 1469 03c0 09       		.byte	0x9
 1470 03c1 57       		.byte	0x57
 1471 03c2 09       		.byte	0x9
 1472 03c3 FC030000 		.4byte	0x3fc
 1473 03c7 07       		.uleb128 0x7
 1474 03c8 69040000 		.4byte	.LASF51
 1475 03cc 09       		.byte	0x9
 1476 03cd 58       		.byte	0x58
 1477 03ce 19       		.byte	0x19
 1478 03cf 04020000 		.4byte	0x204
 1479 03d3 00       		.byte	0
 1480 03d4 07       		.uleb128 0x7
 1481 03d5 0C040000 		.4byte	.LASF52
 1482 03d9 09       		.byte	0x9
ARM GAS  /var/folders/l5/0x54b2c10074c8bt31ycjvl80000gp/T//ccViqEfd.s 			page 27


 1483 03da 59       		.byte	0x59
 1484 03db 19       		.byte	0x19
 1485 03dc D7000000 		.4byte	0xd7
 1486 03e0 08       		.byte	0x8
 1487 03e1 07       		.uleb128 0x7
 1488 03e2 64030000 		.4byte	.LASF53
 1489 03e6 09       		.byte	0x9
 1490 03e7 5B       		.byte	0x5b
 1491 03e8 19       		.byte	0x19
 1492 03e9 C9020000 		.4byte	0x2c9
 1493 03ed 0C       		.byte	0xc
 1494 03ee 07       		.uleb128 0x7
 1495 03ef 84030000 		.4byte	.LASF54
 1496 03f3 09       		.byte	0x9
 1497 03f4 62       		.byte	0x62
 1498 03f5 1A       		.byte	0x1a
 1499 03f6 FE010000 		.4byte	0x1fe
 1500 03fa 10       		.byte	0x10
 1501 03fb 00       		.byte	0
 1502 03fc 03       		.uleb128 0x3
 1503 03fd DA040000 		.4byte	.LASF55
 1504 0401 09       		.byte	0x9
 1505 0402 64       		.byte	0x64
 1506 0403 03       		.byte	0x3
 1507 0404 BE030000 		.4byte	0x3be
 1508 0408 0E       		.uleb128 0xe
 1509 0409 E4040000 		.4byte	.LASF57
 1510 040d 09       		.byte	0x9
 1511 040e 68       		.byte	0x68
 1512 040f 12       		.byte	0x12
 1513 0410 FC030000 		.4byte	0x3fc
 1514 0414 06       		.uleb128 0x6
 1515 0415 2E030000 		.4byte	.LASF58
 1516 0419 10       		.byte	0x10
 1517 041a 0A       		.byte	0xa
 1518 041b 25       		.byte	0x25
 1519 041c 10       		.byte	0x10
 1520 041d 49040000 		.4byte	0x449
 1521 0421 07       		.uleb128 0x7
 1522 0422 74000000 		.4byte	.LASF59
 1523 0426 0A       		.byte	0xa
 1524 0427 26       		.byte	0x26
 1525 0428 19       		.byte	0x19
 1526 0429 04020000 		.4byte	0x204
 1527 042d 00       		.byte	0
 1528 042e 07       		.uleb128 0x7
 1529 042f 2E050000 		.4byte	.LASF60
 1530 0433 0A       		.byte	0xa
 1531 0434 28       		.byte	0x28
 1532 0435 1A       		.byte	0x1a
 1533 0436 FE010000 		.4byte	0x1fe
 1534 043a 08       		.byte	0x8
 1535 043b 07       		.uleb128 0x7
 1536 043c 8A040000 		.4byte	.LASF61
 1537 0440 0A       		.byte	0xa
 1538 0441 2A       		.byte	0x2a
 1539 0442 1A       		.byte	0x1a
ARM GAS  /var/folders/l5/0x54b2c10074c8bt31ycjvl80000gp/T//ccViqEfd.s 			page 28


 1540 0443 49040000 		.4byte	0x449
 1541 0447 0C       		.byte	0xc
 1542 0448 00       		.byte	0
 1543 0449 0A       		.uleb128 0xa
 1544 044a 04       		.byte	0x4
 1545 044b 14040000 		.4byte	0x414
 1546 044f 03       		.uleb128 0x3
 1547 0450 2E030000 		.4byte	.LASF58
 1548 0454 0A       		.byte	0xa
 1549 0455 2C       		.byte	0x2c
 1550 0456 03       		.byte	0x3
 1551 0457 14040000 		.4byte	0x414
 1552 045b 03       		.uleb128 0x3
 1553 045c F8040000 		.4byte	.LASF62
 1554 0460 0B       		.byte	0xb
 1555 0461 25       		.byte	0x25
 1556 0462 1E       		.byte	0x1e
 1557 0463 67040000 		.4byte	0x467
 1558 0467 06       		.uleb128 0x6
 1559 0468 F8040000 		.4byte	.LASF62
 1560 046c 10       		.byte	0x10
 1561 046d 0B       		.byte	0xb
 1562 046e 2A       		.byte	0x2a
 1563 046f 08       		.byte	0x8
 1564 0470 A9040000 		.4byte	0x4a9
 1565 0474 07       		.uleb128 0x7
 1566 0475 F6020000 		.4byte	.LASF63
 1567 0479 0B       		.byte	0xb
 1568 047a 2B       		.byte	0x2b
 1569 047b 1A       		.byte	0x1a
 1570 047c A9040000 		.4byte	0x4a9
 1571 0480 00       		.byte	0
 1572 0481 07       		.uleb128 0x7
 1573 0482 D1030000 		.4byte	.LASF64
 1574 0486 0B       		.byte	0xb
 1575 0487 2E       		.byte	0x2e
 1576 0488 1A       		.byte	0x1a
 1577 0489 FE010000 		.4byte	0x1fe
 1578 048d 04       		.byte	0x4
 1579 048e 07       		.uleb128 0x7
 1580 048f 8E030000 		.4byte	.LASF65
 1581 0493 0B       		.byte	0xb
 1582 0494 30       		.byte	0x30
 1583 0495 19       		.byte	0x19
 1584 0496 FB000000 		.4byte	0xfb
 1585 049a 08       		.byte	0x8
 1586 049b 07       		.uleb128 0x7
 1587 049c DD030000 		.4byte	.LASF66
 1588 04a0 0B       		.byte	0xb
 1589 04a1 33       		.byte	0x33
 1590 04a2 19       		.byte	0x19
 1591 04a3 07010000 		.4byte	0x107
 1592 04a7 0C       		.byte	0xc
 1593 04a8 00       		.byte	0
 1594 04a9 0A       		.uleb128 0xa
 1595 04aa 04       		.byte	0x4
 1596 04ab 5B040000 		.4byte	0x45b
ARM GAS  /var/folders/l5/0x54b2c10074c8bt31ycjvl80000gp/T//ccViqEfd.s 			page 29


 1597 04af 06       		.uleb128 0x6
 1598 04b0 4A020000 		.4byte	.LASF67
 1599 04b4 04       		.byte	0x4
 1600 04b5 0B       		.byte	0xb
 1601 04b6 3A       		.byte	0x3a
 1602 04b7 10       		.byte	0x10
 1603 04b8 CA040000 		.4byte	0x4ca
 1604 04bc 07       		.uleb128 0x7
 1605 04bd D2040000 		.4byte	.LASF68
 1606 04c1 0B       		.byte	0xb
 1607 04c2 3B       		.byte	0x3b
 1608 04c3 1A       		.byte	0x1a
 1609 04c4 A9040000 		.4byte	0x4a9
 1610 04c8 00       		.byte	0
 1611 04c9 00       		.byte	0
 1612 04ca 03       		.uleb128 0x3
 1613 04cb 4A020000 		.4byte	.LASF67
 1614 04cf 0B       		.byte	0xb
 1615 04d0 3E       		.byte	0x3e
 1616 04d1 03       		.byte	0x3
 1617 04d2 AF040000 		.4byte	0x4af
 1618 04d6 03       		.uleb128 0x3
 1619 04d7 56020000 		.4byte	.LASF69
 1620 04db 0B       		.byte	0xb
 1621 04dc 43       		.byte	0x43
 1622 04dd 10       		.byte	0x10
 1623 04de E7040000 		.4byte	0x4e7
 1624 04e2 0F       		.uleb128 0xf
 1625 04e3 D6040000 		.4byte	0x4d6
 1626 04e7 0A       		.uleb128 0xa
 1627 04e8 04       		.byte	0x4
 1628 04e9 ED040000 		.4byte	0x4ed
 1629 04ed 0C       		.uleb128 0xc
 1630 04ee F8040000 		.4byte	0x4f8
 1631 04f2 0D       		.uleb128 0xd
 1632 04f3 EF000000 		.4byte	0xef
 1633 04f7 00       		.byte	0
 1634 04f8 10       		.uleb128 0x10
 1635 04f9 04       		.byte	0x4
 1636 04fa 06       		.byte	0x6
 1637 04fb 8F       		.byte	0x8f
 1638 04fc 03       		.byte	0x3
 1639 04fd 32050000 		.4byte	0x532
 1640 0501 11       		.uleb128 0x11
 1641 0502 00000000 		.4byte	.LASF70
 1642 0506 06       		.byte	0x6
 1643 0507 96       		.byte	0x96
 1644 0508 19       		.byte	0x19
 1645 0509 E3000000 		.4byte	0xe3
 1646 050d 11       		.uleb128 0x11
 1647 050e 4A000000 		.4byte	.LASF71
 1648 0512 06       		.byte	0x6
 1649 0513 9D       		.byte	0x9d
 1650 0514 19       		.byte	0x19
 1651 0515 E3000000 		.4byte	0xe3
 1652 0519 11       		.uleb128 0x11
 1653 051a 06050000 		.4byte	.LASF72
ARM GAS  /var/folders/l5/0x54b2c10074c8bt31ycjvl80000gp/T//ccViqEfd.s 			page 30


 1654 051e 06       		.byte	0x6
 1655 051f A4       		.byte	0xa4
 1656 0520 1A       		.byte	0x1a
 1657 0521 4B020000 		.4byte	0x24b
 1658 0525 11       		.uleb128 0x11
 1659 0526 2A040000 		.4byte	.LASF73
 1660 052a 06       		.byte	0x6
 1661 052b AB       		.byte	0xab
 1662 052c 19       		.byte	0x19
 1663 052d FB000000 		.4byte	0xfb
 1664 0531 00       		.byte	0
 1665 0532 0A       		.uleb128 0xa
 1666 0533 04       		.byte	0x4
 1667 0534 4F040000 		.4byte	0x44f
 1668 0538 12       		.uleb128 0x12
 1669 0539 33020000 		.4byte	0x233
 1670 053d 48050000 		.4byte	0x548
 1671 0541 13       		.uleb128 0x13
 1672 0542 2C000000 		.4byte	0x2c
 1673 0546 1F       		.byte	0x1f
 1674 0547 00       		.byte	0
 1675 0548 0E       		.uleb128 0xe
 1676 0549 0B010000 		.4byte	.LASF74
 1677 054d 0C       		.byte	0xc
 1678 054e 82       		.byte	0x82
 1679 054f 08       		.byte	0x8
 1680 0550 38050000 		.4byte	0x538
 1681 0554 14       		.uleb128 0x14
 1682 0555 77030000 		.4byte	.LASF75
 1683 0559 01       		.byte	0x1
 1684 055a 9001     		.2byte	0x190
 1685 055c 0D       		.byte	0xd
 1686 055d FB000000 		.4byte	0xfb
 1687 0561 00000000 		.4byte	.LFB20
 1688 0565 48000000 		.4byte	.LFE20-.LFB20
 1689 0569 01       		.uleb128 0x1
 1690 056a 9C       		.byte	0x9c
 1691 056b A9050000 		.4byte	0x5a9
 1692 056f 15       		.uleb128 0x15
 1693 0570 37010000 		.4byte	.LASF77
 1694 0574 01       		.byte	0x1
 1695 0575 9001     		.2byte	0x190
 1696 0577 26       		.byte	0x26
 1697 0578 FB000000 		.4byte	0xfb
 1698 057c 04000000 		.4byte	.LLST28
 1699 0580 00000000 		.4byte	.LVUS28
 1700 0584 16       		.uleb128 0x16
 1701 0585 63747000 		.ascii	"ctp\000"
 1702 0589 01       		.byte	0x1
 1703 058a 9101     		.2byte	0x191
 1704 058c 0B       		.byte	0xb
 1705 058d FE010000 		.4byte	0x1fe
 1706 0591 24000000 		.4byte	.LLST29
 1707 0595 22000000 		.4byte	.LVUS29
 1708 0599 17       		.uleb128 0x17
 1709 059a 2C000000 		.4byte	.LVL60
 1710 059e 1D0A0000 		.4byte	0xa1d
ARM GAS  /var/folders/l5/0x54b2c10074c8bt31ycjvl80000gp/T//ccViqEfd.s 			page 31


 1711 05a2 18       		.uleb128 0x18
 1712 05a3 01       		.uleb128 0x1
 1713 05a4 50       		.byte	0x50
 1714 05a5 01       		.uleb128 0x1
 1715 05a6 39       		.byte	0x39
 1716 05a7 00       		.byte	0
 1717 05a8 00       		.byte	0
 1718 05a9 14       		.uleb128 0x14
 1719 05aa E9000000 		.4byte	.LASF76
 1720 05ae 01       		.byte	0x1
 1721 05af 7401     		.2byte	0x174
 1722 05b1 0D       		.byte	0xd
 1723 05b2 FB000000 		.4byte	0xfb
 1724 05b6 00000000 		.4byte	.LFB19
 1725 05ba 50000000 		.4byte	.LFE19-.LFB19
 1726 05be 01       		.uleb128 0x1
 1727 05bf 9C       		.byte	0x9c
 1728 05c0 11060000 		.4byte	0x611
 1729 05c4 15       		.uleb128 0x15
 1730 05c5 37010000 		.4byte	.LASF77
 1731 05c9 01       		.byte	0x1
 1732 05ca 7401     		.2byte	0x174
 1733 05cc 26       		.byte	0x26
 1734 05cd FB000000 		.4byte	0xfb
 1735 05d1 41000000 		.4byte	.LLST25
 1736 05d5 37000000 		.4byte	.LVUS25
 1737 05d9 16       		.uleb128 0x16
 1738 05da 63747000 		.ascii	"ctp\000"
 1739 05de 01       		.byte	0x1
 1740 05df 7501     		.2byte	0x175
 1741 05e1 0B       		.byte	0xb
 1742 05e2 FE010000 		.4byte	0x1fe
 1743 05e6 88000000 		.4byte	.LLST26
 1744 05ea 86000000 		.4byte	.LVUS26
 1745 05ee 16       		.uleb128 0x16
 1746 05ef 6D00     		.ascii	"m\000"
 1747 05f1 01       		.byte	0x1
 1748 05f2 7601     		.2byte	0x176
 1749 05f4 0F       		.byte	0xf
 1750 05f5 FB000000 		.4byte	0xfb
 1751 05f9 A5000000 		.4byte	.LLST27
 1752 05fd 9B000000 		.4byte	.LVUS27
 1753 0601 17       		.uleb128 0x17
 1754 0602 40000000 		.4byte	.LVL55
 1755 0606 1D0A0000 		.4byte	0xa1d
 1756 060a 18       		.uleb128 0x18
 1757 060b 01       		.uleb128 0x1
 1758 060c 50       		.byte	0x50
 1759 060d 01       		.uleb128 0x1
 1760 060e 38       		.byte	0x38
 1761 060f 00       		.byte	0
 1762 0610 00       		.byte	0
 1763 0611 14       		.uleb128 0x14
 1764 0612 C4030000 		.4byte	.LASF78
 1765 0616 01       		.byte	0x1
 1766 0617 5701     		.2byte	0x157
 1767 0619 0D       		.byte	0xd
ARM GAS  /var/folders/l5/0x54b2c10074c8bt31ycjvl80000gp/T//ccViqEfd.s 			page 32


 1768 061a FB000000 		.4byte	0xfb
 1769 061e 00000000 		.4byte	.LFB18
 1770 0622 54000000 		.4byte	.LFE18-.LFB18
 1771 0626 01       		.uleb128 0x1
 1772 0627 9C       		.byte	0x9c
 1773 0628 79060000 		.4byte	0x679
 1774 062c 15       		.uleb128 0x15
 1775 062d 37010000 		.4byte	.LASF77
 1776 0631 01       		.byte	0x1
 1777 0632 5701     		.2byte	0x157
 1778 0634 26       		.byte	0x26
 1779 0635 FB000000 		.4byte	0xfb
 1780 0639 FD000000 		.4byte	.LLST22
 1781 063d F3000000 		.4byte	.LVUS22
 1782 0641 16       		.uleb128 0x16
 1783 0642 63747000 		.ascii	"ctp\000"
 1784 0646 01       		.byte	0x1
 1785 0647 5801     		.2byte	0x158
 1786 0649 0B       		.byte	0xb
 1787 064a FE010000 		.4byte	0x1fe
 1788 064e 44010000 		.4byte	.LLST23
 1789 0652 42010000 		.4byte	.LVUS23
 1790 0656 16       		.uleb128 0x16
 1791 0657 6D00     		.ascii	"m\000"
 1792 0659 01       		.byte	0x1
 1793 065a 5901     		.2byte	0x159
 1794 065c 0F       		.byte	0xf
 1795 065d FB000000 		.4byte	0xfb
 1796 0661 65010000 		.4byte	.LLST24
 1797 0665 57010000 		.4byte	.LVUS24
 1798 0669 17       		.uleb128 0x17
 1799 066a 44000000 		.4byte	.LVL45
 1800 066e 1D0A0000 		.4byte	0xa1d
 1801 0672 18       		.uleb128 0x18
 1802 0673 01       		.uleb128 0x1
 1803 0674 50       		.byte	0x50
 1804 0675 01       		.uleb128 0x1
 1805 0676 38       		.byte	0x38
 1806 0677 00       		.byte	0
 1807 0678 00       		.byte	0
 1808 0679 19       		.uleb128 0x19
 1809 067a 4F030000 		.4byte	.LASF82
 1810 067e 01       		.byte	0x1
 1811 067f 3401     		.2byte	0x134
 1812 0681 06       		.byte	0x6
 1813 0682 00000000 		.4byte	.LFB17
 1814 0686 54000000 		.4byte	.LFE17-.LFB17
 1815 068a 01       		.uleb128 0x1
 1816 068b 9C       		.byte	0x9c
 1817 068c DC060000 		.4byte	0x6dc
 1818 0690 15       		.uleb128 0x15
 1819 0691 96030000 		.4byte	.LASF79
 1820 0695 01       		.byte	0x1
 1821 0696 3401     		.2byte	0x134
 1822 0698 27       		.byte	0x27
 1823 0699 DC060000 		.4byte	0x6dc
 1824 069d CD010000 		.4byte	.LLST19
ARM GAS  /var/folders/l5/0x54b2c10074c8bt31ycjvl80000gp/T//ccViqEfd.s 			page 33


 1825 06a1 C9010000 		.4byte	.LVUS19
 1826 06a5 15       		.uleb128 0x15
 1827 06a6 37010000 		.4byte	.LASF77
 1828 06aa 01       		.byte	0x1
 1829 06ab 3401     		.2byte	0x134
 1830 06ad 3D       		.byte	0x3d
 1831 06ae FB000000 		.4byte	0xfb
 1832 06b2 EF010000 		.4byte	.LLST20
 1833 06b6 EB010000 		.4byte	.LVUS20
 1834 06ba 16       		.uleb128 0x16
 1835 06bb 65696400 		.ascii	"eid\000"
 1836 06bf 01       		.byte	0x1
 1837 06c0 3501     		.2byte	0x135
 1838 06c2 0D       		.byte	0xd
 1839 06c3 EF000000 		.4byte	0xef
 1840 06c7 11020000 		.4byte	.LLST21
 1841 06cb 0D020000 		.4byte	.LVUS21
 1842 06cf 1A       		.uleb128 0x1a
 1843 06d0 34000000 		.4byte	.LVL33
 1844 06d4 18       		.uleb128 0x18
 1845 06d5 01       		.uleb128 0x1
 1846 06d6 50       		.byte	0x50
 1847 06d7 02       		.uleb128 0x2
 1848 06d8 74       		.byte	0x74
 1849 06d9 00       		.sleb128 0
 1850 06da 00       		.byte	0
 1851 06db 00       		.byte	0
 1852 06dc 0A       		.uleb128 0xa
 1853 06dd 04       		.byte	0x4
 1854 06de E2040000 		.4byte	0x4e2
 1855 06e2 14       		.uleb128 0x14
 1856 06e3 13040000 		.4byte	.LASF80
 1857 06e7 01       		.byte	0x1
 1858 06e8 2201     		.2byte	0x122
 1859 06ea 0D       		.byte	0xd
 1860 06eb 07010000 		.4byte	0x107
 1861 06ef 00000000 		.4byte	.LFB16
 1862 06f3 14000000 		.4byte	.LFE16-.LFB16
 1863 06f7 01       		.uleb128 0x1
 1864 06f8 9C       		.byte	0x9c
 1865 06f9 28070000 		.4byte	0x728
 1866 06fd 1B       		.uleb128 0x1b
 1867 06fe 656C7000 		.ascii	"elp\000"
 1868 0702 01       		.byte	0x1
 1869 0703 2201     		.2byte	0x122
 1870 0705 33       		.byte	0x33
 1871 0706 A9040000 		.4byte	0x4a9
 1872 070a 34020000 		.4byte	.LLST17
 1873 070e 30020000 		.4byte	.LVUS17
 1874 0712 1C       		.uleb128 0x1c
 1875 0713 F2040000 		.4byte	.LASF81
 1876 0717 01       		.byte	0x1
 1877 0718 2301     		.2byte	0x123
 1878 071a 0F       		.byte	0xf
 1879 071b 07010000 		.4byte	0x107
 1880 071f 54020000 		.4byte	.LLST18
 1881 0723 52020000 		.4byte	.LVUS18
ARM GAS  /var/folders/l5/0x54b2c10074c8bt31ycjvl80000gp/T//ccViqEfd.s 			page 34


 1882 0727 00       		.byte	0
 1883 0728 19       		.uleb128 0x19
 1884 0729 4D010000 		.4byte	.LASF83
 1885 072d 01       		.byte	0x1
 1886 072e 0F01     		.2byte	0x10f
 1887 0730 06       		.byte	0x6
 1888 0731 00000000 		.4byte	.LFB15
 1889 0735 18000000 		.4byte	.LFE15-.LFB15
 1890 0739 01       		.uleb128 0x1
 1891 073a 9C       		.byte	0x9c
 1892 073b 8F070000 		.4byte	0x78f
 1893 073f 1B       		.uleb128 0x1b
 1894 0740 65737000 		.ascii	"esp\000"
 1895 0744 01       		.byte	0x1
 1896 0745 0F01     		.2byte	0x10f
 1897 0747 27       		.byte	0x27
 1898 0748 8F070000 		.4byte	0x78f
 1899 074c 6B020000 		.4byte	.LLST15
 1900 0750 67020000 		.4byte	.LVUS15
 1901 0754 15       		.uleb128 0x15
 1902 0755 F2040000 		.4byte	.LASF81
 1903 0759 01       		.byte	0x1
 1904 075a 0F01     		.2byte	0x10f
 1905 075c 38       		.byte	0x38
 1906 075d 07010000 		.4byte	0x107
 1907 0761 90020000 		.4byte	.LLST16
 1908 0765 8C020000 		.4byte	.LVUS16
 1909 0769 1D       		.uleb128 0x1d
 1910 076a 0C000000 		.4byte	.LVL26
 1911 076e 60080000 		.4byte	0x860
 1912 0772 85070000 		.4byte	0x785
 1913 0776 18       		.uleb128 0x18
 1914 0777 01       		.uleb128 0x1
 1915 0778 50       		.byte	0x50
 1916 0779 03       		.uleb128 0x3
 1917 077a F3       		.byte	0xf3
 1918 077b 01       		.uleb128 0x1
 1919 077c 50       		.byte	0x50
 1920 077d 18       		.uleb128 0x18
 1921 077e 01       		.uleb128 0x1
 1922 077f 51       		.byte	0x51
 1923 0780 03       		.uleb128 0x3
 1924 0781 F3       		.byte	0xf3
 1925 0782 01       		.uleb128 0x1
 1926 0783 51       		.byte	0x51
 1927 0784 00       		.byte	0
 1928 0785 1E       		.uleb128 0x1e
 1929 0786 10000000 		.4byte	.LVL27
 1930 078a 290A0000 		.4byte	0xa29
 1931 078e 00       		.byte	0
 1932 078f 0A       		.uleb128 0xa
 1933 0790 04       		.byte	0x4
 1934 0791 CA040000 		.4byte	0x4ca
 1935 0795 1F       		.uleb128 0x1f
 1936 0796 46050000 		.4byte	.LASF97
 1937 079a 01       		.byte	0x1
 1938 079b F4       		.byte	0xf4
ARM GAS  /var/folders/l5/0x54b2c10074c8bt31ycjvl80000gp/T//ccViqEfd.s 			page 35


 1939 079c 06       		.byte	0x6
 1940 079d 01       		.byte	0x1
 1941 079e BA070000 		.4byte	0x7ba
 1942 07a2 20       		.uleb128 0x20
 1943 07a3 747000   		.ascii	"tp\000"
 1944 07a6 01       		.byte	0x1
 1945 07a7 F4       		.byte	0xf4
 1946 07a8 1B       		.byte	0x1b
 1947 07a9 FE010000 		.4byte	0x1fe
 1948 07ad 21       		.uleb128 0x21
 1949 07ae 37010000 		.4byte	.LASF77
 1950 07b2 01       		.byte	0x1
 1951 07b3 F4       		.byte	0xf4
 1952 07b4 2B       		.byte	0x2b
 1953 07b5 FB000000 		.4byte	0xfb
 1954 07b9 00       		.byte	0
 1955 07ba 22       		.uleb128 0x22
 1956 07bb 18000000 		.4byte	.LASF84
 1957 07bf 01       		.byte	0x1
 1958 07c0 DE       		.byte	0xde
 1959 07c1 06       		.byte	0x6
 1960 07c2 00000000 		.4byte	.LFB13
 1961 07c6 18000000 		.4byte	.LFE13-.LFB13
 1962 07ca 01       		.uleb128 0x1
 1963 07cb 9C       		.byte	0x9c
 1964 07cc 1D080000 		.4byte	0x81d
 1965 07d0 23       		.uleb128 0x23
 1966 07d1 747000   		.ascii	"tp\000"
 1967 07d4 01       		.byte	0x1
 1968 07d5 DE       		.byte	0xde
 1969 07d6 1A       		.byte	0x1a
 1970 07d7 FE010000 		.4byte	0x1fe
 1971 07db B5020000 		.4byte	.LLST13
 1972 07df B1020000 		.4byte	.LVUS13
 1973 07e3 24       		.uleb128 0x24
 1974 07e4 37010000 		.4byte	.LASF77
 1975 07e8 01       		.byte	0x1
 1976 07e9 DE       		.byte	0xde
 1977 07ea 2A       		.byte	0x2a
 1978 07eb FB000000 		.4byte	0xfb
 1979 07ef DA020000 		.4byte	.LLST14
 1980 07f3 D6020000 		.4byte	.LVUS14
 1981 07f7 1D       		.uleb128 0x1d
 1982 07f8 0C000000 		.4byte	.LVL23
 1983 07fc 95070000 		.4byte	0x795
 1984 0800 13080000 		.4byte	0x813
 1985 0804 18       		.uleb128 0x18
 1986 0805 01       		.uleb128 0x1
 1987 0806 50       		.byte	0x50
 1988 0807 03       		.uleb128 0x3
 1989 0808 F3       		.byte	0xf3
 1990 0809 01       		.uleb128 0x1
 1991 080a 50       		.byte	0x50
 1992 080b 18       		.uleb128 0x18
 1993 080c 01       		.uleb128 0x1
 1994 080d 51       		.byte	0x51
 1995 080e 03       		.uleb128 0x3
ARM GAS  /var/folders/l5/0x54b2c10074c8bt31ycjvl80000gp/T//ccViqEfd.s 			page 36


 1996 080f F3       		.byte	0xf3
 1997 0810 01       		.uleb128 0x1
 1998 0811 51       		.byte	0x51
 1999 0812 00       		.byte	0
 2000 0813 1E       		.uleb128 0x1e
 2001 0814 10000000 		.4byte	.LVL24
 2002 0818 290A0000 		.4byte	0xa29
 2003 081c 00       		.byte	0
 2004 081d 25       		.uleb128 0x25
 2005 081e 18050000 		.4byte	.LASF85
 2006 0822 01       		.byte	0x1
 2007 0823 CA       		.byte	0xca
 2008 0824 0D       		.byte	0xd
 2009 0825 07010000 		.4byte	0x107
 2010 0829 00000000 		.4byte	.LFB12
 2011 082d 1C000000 		.4byte	.LFE12-.LFB12
 2012 0831 01       		.uleb128 0x1
 2013 0832 9C       		.byte	0x9c
 2014 0833 60080000 		.4byte	0x860
 2015 0837 23       		.uleb128 0x23
 2016 0838 656C7000 		.ascii	"elp\000"
 2017 083c 01       		.byte	0x1
 2018 083d CA       		.byte	0xca
 2019 083e 32       		.byte	0x32
 2020 083f A9040000 		.4byte	0x4a9
 2021 0843 FF020000 		.4byte	.LLST4
 2022 0847 FB020000 		.4byte	.LVUS4
 2023 084b 26       		.uleb128 0x26
 2024 084c F2040000 		.4byte	.LASF81
 2025 0850 01       		.byte	0x1
 2026 0851 CB       		.byte	0xcb
 2027 0852 0F       		.byte	0xf
 2028 0853 07010000 		.4byte	0x107
 2029 0857 1F030000 		.4byte	.LLST5
 2030 085b 1D030000 		.4byte	.LVUS5
 2031 085f 00       		.byte	0
 2032 0860 22       		.uleb128 0x22
 2033 0861 F6000000 		.4byte	.LASF86
 2034 0865 01       		.byte	0x1
 2035 0866 B1       		.byte	0xb1
 2036 0867 06       		.byte	0x6
 2037 0868 00000000 		.4byte	.LFB11
 2038 086c 40000000 		.4byte	.LFE11-.LFB11
 2039 0870 01       		.uleb128 0x1
 2040 0871 9C       		.byte	0x9c
 2041 0872 BC080000 		.4byte	0x8bc
 2042 0876 23       		.uleb128 0x23
 2043 0877 65737000 		.ascii	"esp\000"
 2044 087b 01       		.byte	0x1
 2045 087c B1       		.byte	0xb1
 2046 087d 28       		.byte	0x28
 2047 087e 8F070000 		.4byte	0x78f
 2048 0882 36030000 		.4byte	.LLST10
 2049 0886 32030000 		.4byte	.LVUS10
 2050 088a 24       		.uleb128 0x24
 2051 088b F2040000 		.4byte	.LASF81
 2052 088f 01       		.byte	0x1
ARM GAS  /var/folders/l5/0x54b2c10074c8bt31ycjvl80000gp/T//ccViqEfd.s 			page 37


 2053 0890 B1       		.byte	0xb1
 2054 0891 39       		.byte	0x39
 2055 0892 07010000 		.4byte	0x107
 2056 0896 58030000 		.4byte	.LLST11
 2057 089a 54030000 		.4byte	.LVUS11
 2058 089e 27       		.uleb128 0x27
 2059 089f 656C7000 		.ascii	"elp\000"
 2060 08a3 01       		.byte	0x1
 2061 08a4 B2       		.byte	0xb2
 2062 08a5 12       		.byte	0x12
 2063 08a6 A9040000 		.4byte	0x4a9
 2064 08aa 78030000 		.4byte	.LLST12
 2065 08ae 76030000 		.4byte	.LVUS12
 2066 08b2 1E       		.uleb128 0x1e
 2067 08b3 30000000 		.4byte	.LVL20
 2068 08b7 95070000 		.4byte	0x795
 2069 08bb 00       		.byte	0
 2070 08bc 25       		.uleb128 0x25
 2071 08bd 3B000000 		.4byte	.LASF87
 2072 08c1 01       		.byte	0x1
 2073 08c2 96       		.byte	0x96
 2074 08c3 0D       		.byte	0xd
 2075 08c4 FB000000 		.4byte	0xfb
 2076 08c8 00000000 		.4byte	.LFB10
 2077 08cc 24000000 		.4byte	.LFE10-.LFB10
 2078 08d0 01       		.uleb128 0x1
 2079 08d1 9C       		.byte	0x9c
 2080 08d2 EB080000 		.4byte	0x8eb
 2081 08d6 24       		.uleb128 0x24
 2082 08d7 37010000 		.4byte	.LASF77
 2083 08db 01       		.byte	0x1
 2084 08dc 96       		.byte	0x96
 2085 08dd 28       		.byte	0x28
 2086 08de FB000000 		.4byte	0xfb
 2087 08e2 91030000 		.4byte	.LLST3
 2088 08e6 8B030000 		.4byte	.LVUS3
 2089 08ea 00       		.byte	0
 2090 08eb 25       		.uleb128 0x25
 2091 08ec 89020000 		.4byte	.LASF88
 2092 08f0 01       		.byte	0x1
 2093 08f1 81       		.byte	0x81
 2094 08f2 0D       		.byte	0xd
 2095 08f3 FB000000 		.4byte	0xfb
 2096 08f7 00000000 		.4byte	.LFB9
 2097 08fb 28000000 		.4byte	.LFE9-.LFB9
 2098 08ff 01       		.uleb128 0x1
 2099 0900 9C       		.byte	0x9c
 2100 0901 2C090000 		.4byte	0x92c
 2101 0905 24       		.uleb128 0x24
 2102 0906 37010000 		.4byte	.LASF77
 2103 090a 01       		.byte	0x1
 2104 090b 81       		.byte	0x81
 2105 090c 30       		.byte	0x30
 2106 090d FB000000 		.4byte	0xfb
 2107 0911 C1030000 		.4byte	.LLST1
 2108 0915 BD030000 		.4byte	.LVUS1
 2109 0919 27       		.uleb128 0x27
ARM GAS  /var/folders/l5/0x54b2c10074c8bt31ycjvl80000gp/T//ccViqEfd.s 			page 38


 2110 091a 6D00     		.ascii	"m\000"
 2111 091c 01       		.byte	0x1
 2112 091d 82       		.byte	0x82
 2113 091e 0F       		.byte	0xf
 2114 091f FB000000 		.4byte	0xfb
 2115 0923 E6030000 		.4byte	.LLST2
 2116 0927 E2030000 		.4byte	.LVUS2
 2117 092b 00       		.byte	0
 2118 092c 22       		.uleb128 0x22
 2119 092d FE020000 		.4byte	.LASF89
 2120 0931 01       		.byte	0x1
 2121 0932 68       		.byte	0x68
 2122 0933 06       		.byte	0x6
 2123 0934 00000000 		.4byte	.LFB8
 2124 0938 3C000000 		.4byte	.LFE8-.LFB8
 2125 093c 01       		.uleb128 0x1
 2126 093d 9C       		.byte	0x9c
 2127 093e 71090000 		.4byte	0x971
 2128 0942 28       		.uleb128 0x28
 2129 0943 65737000 		.ascii	"esp\000"
 2130 0947 01       		.byte	0x1
 2131 0948 68       		.byte	0x68
 2132 0949 23       		.byte	0x23
 2133 094a 8F070000 		.4byte	0x78f
 2134 094e 01       		.uleb128 0x1
 2135 094f 50       		.byte	0x50
 2136 0950 28       		.uleb128 0x28
 2137 0951 656C7000 		.ascii	"elp\000"
 2138 0955 01       		.byte	0x1
 2139 0956 68       		.byte	0x68
 2140 0957 37       		.byte	0x37
 2141 0958 A9040000 		.4byte	0x4a9
 2142 095c 01       		.uleb128 0x1
 2143 095d 51       		.byte	0x51
 2144 095e 27       		.uleb128 0x27
 2145 095f 7000     		.ascii	"p\000"
 2146 0961 01       		.byte	0x1
 2147 0962 69       		.byte	0x69
 2148 0963 12       		.byte	0x12
 2149 0964 A9040000 		.4byte	0x4a9
 2150 0968 0F040000 		.4byte	.LLST0
 2151 096c 09040000 		.4byte	.LVUS0
 2152 0970 00       		.byte	0
 2153 0971 22       		.uleb128 0x22
 2154 0972 DE020000 		.4byte	.LASF90
 2155 0976 01       		.byte	0x1
 2156 0977 4E       		.byte	0x4e
 2157 0978 06       		.byte	0x6
 2158 0979 00000000 		.4byte	.LFB7
 2159 097d 38000000 		.4byte	.LFE7-.LFB7
 2160 0981 01       		.uleb128 0x1
 2161 0982 9C       		.byte	0x9c
 2162 0983 B2090000 		.4byte	0x9b2
 2163 0987 28       		.uleb128 0x28
 2164 0988 65737000 		.ascii	"esp\000"
 2165 098c 01       		.byte	0x1
 2166 098d 4E       		.byte	0x4e
ARM GAS  /var/folders/l5/0x54b2c10074c8bt31ycjvl80000gp/T//ccViqEfd.s 			page 39


 2167 098e 25       		.byte	0x25
 2168 098f 8F070000 		.4byte	0x78f
 2169 0993 01       		.uleb128 0x1
 2170 0994 50       		.byte	0x50
 2171 0995 28       		.uleb128 0x28
 2172 0996 656C7000 		.ascii	"elp\000"
 2173 099a 01       		.byte	0x1
 2174 099b 4E       		.byte	0x4e
 2175 099c 39       		.byte	0x39
 2176 099d A9040000 		.4byte	0x4a9
 2177 09a1 01       		.uleb128 0x1
 2178 09a2 51       		.byte	0x51
 2179 09a3 29       		.uleb128 0x29
 2180 09a4 37010000 		.4byte	.LASF77
 2181 09a8 01       		.byte	0x1
 2182 09a9 4E       		.byte	0x4e
 2183 09aa 4A       		.byte	0x4a
 2184 09ab FB000000 		.4byte	0xfb
 2185 09af 01       		.uleb128 0x1
 2186 09b0 52       		.byte	0x52
 2187 09b1 00       		.byte	0
 2188 09b2 2A       		.uleb128 0x2a
 2189 09b3 95070000 		.4byte	0x795
 2190 09b7 00000000 		.4byte	.LFB14
 2191 09bb 50000000 		.4byte	.LFE14-.LFB14
 2192 09bf 01       		.uleb128 0x1
 2193 09c0 9C       		.byte	0x9c
 2194 09c1 1D0A0000 		.4byte	0xa1d
 2195 09c5 2B       		.uleb128 0x2b
 2196 09c6 A2070000 		.4byte	0x7a2
 2197 09ca 3E040000 		.4byte	.LLST6
 2198 09ce 38040000 		.4byte	.LVUS6
 2199 09d2 2B       		.uleb128 0x2b
 2200 09d3 AD070000 		.4byte	0x7ad
 2201 09d7 6E040000 		.4byte	.LLST7
 2202 09db 6A040000 		.4byte	.LVUS7
 2203 09df 2C       		.uleb128 0x2c
 2204 09e0 95070000 		.4byte	0x795
 2205 09e4 2C000000 		.4byte	.LBI4
 2206 09e8 00       		.byte	.LVU115
 2207 09e9 00000000 		.4byte	.Ldebug_ranges0+0
 2208 09ed 01       		.byte	0x1
 2209 09ee F4       		.byte	0xf4
 2210 09ef 06       		.byte	0x6
 2211 09f0 2B       		.uleb128 0x2b
 2212 09f1 AD070000 		.4byte	0x7ad
 2213 09f5 91040000 		.4byte	.LLST8
 2214 09f9 8F040000 		.4byte	.LVUS8
 2215 09fd 2B       		.uleb128 0x2b
 2216 09fe A2070000 		.4byte	0x7a2
 2217 0a02 AB040000 		.4byte	.LLST9
 2218 0a06 A7040000 		.4byte	.LVUS9
 2219 0a0a 17       		.uleb128 0x17
 2220 0a0b 34000000 		.4byte	.LVL15
 2221 0a0f 350A0000 		.4byte	0xa35
 2222 0a13 18       		.uleb128 0x18
 2223 0a14 01       		.uleb128 0x1
ARM GAS  /var/folders/l5/0x54b2c10074c8bt31ycjvl80000gp/T//ccViqEfd.s 			page 40


 2224 0a15 50       		.byte	0x50
 2225 0a16 03       		.uleb128 0x3
 2226 0a17 F3       		.byte	0xf3
 2227 0a18 01       		.uleb128 0x1
 2228 0a19 50       		.byte	0x50
 2229 0a1a 00       		.byte	0
 2230 0a1b 00       		.byte	0
 2231 0a1c 00       		.byte	0
 2232 0a1d 2D       		.uleb128 0x2d
 2233 0a1e 47040000 		.4byte	.LASF91
 2234 0a22 47040000 		.4byte	.LASF91
 2235 0a26 09       		.byte	0x9
 2236 0a27 8C       		.byte	0x8c
 2237 0a28 08       		.byte	0x8
 2238 0a29 2D       		.uleb128 0x2d
 2239 0a2a 1B010000 		.4byte	.LASF92
 2240 0a2e 1B010000 		.4byte	.LASF92
 2241 0a32 09       		.byte	0x9
 2242 0a33 95       		.byte	0x95
 2243 0a34 08       		.byte	0x8
 2244 0a35 2D       		.uleb128 0x2d
 2245 0a36 7E040000 		.4byte	.LASF93
 2246 0a3a 7E040000 		.4byte	.LASF93
 2247 0a3e 09       		.byte	0x9
 2248 0a3f 89       		.byte	0x89
 2249 0a40 0B       		.byte	0xb
 2250 0a41 00       		.byte	0
 2251              		.section	.debug_abbrev,"",%progbits
 2252              	.Ldebug_abbrev0:
 2253 0000 01       		.uleb128 0x1
 2254 0001 11       		.uleb128 0x11
 2255 0002 01       		.byte	0x1
 2256 0003 25       		.uleb128 0x25
 2257 0004 0E       		.uleb128 0xe
 2258 0005 13       		.uleb128 0x13
 2259 0006 0B       		.uleb128 0xb
 2260 0007 03       		.uleb128 0x3
 2261 0008 0E       		.uleb128 0xe
 2262 0009 1B       		.uleb128 0x1b
 2263 000a 0E       		.uleb128 0xe
 2264 000b 55       		.uleb128 0x55
 2265 000c 17       		.uleb128 0x17
 2266 000d 11       		.uleb128 0x11
 2267 000e 01       		.uleb128 0x1
 2268 000f 10       		.uleb128 0x10
 2269 0010 17       		.uleb128 0x17
 2270 0011 00       		.byte	0
 2271 0012 00       		.byte	0
 2272 0013 02       		.uleb128 0x2
 2273 0014 24       		.uleb128 0x24
 2274 0015 00       		.byte	0
 2275 0016 0B       		.uleb128 0xb
 2276 0017 0B       		.uleb128 0xb
 2277 0018 3E       		.uleb128 0x3e
 2278 0019 0B       		.uleb128 0xb
 2279 001a 03       		.uleb128 0x3
 2280 001b 0E       		.uleb128 0xe
ARM GAS  /var/folders/l5/0x54b2c10074c8bt31ycjvl80000gp/T//ccViqEfd.s 			page 41


 2281 001c 00       		.byte	0
 2282 001d 00       		.byte	0
 2283 001e 03       		.uleb128 0x3
 2284 001f 16       		.uleb128 0x16
 2285 0020 00       		.byte	0
 2286 0021 03       		.uleb128 0x3
 2287 0022 0E       		.uleb128 0xe
 2288 0023 3A       		.uleb128 0x3a
 2289 0024 0B       		.uleb128 0xb
 2290 0025 3B       		.uleb128 0x3b
 2291 0026 0B       		.uleb128 0xb
 2292 0027 39       		.uleb128 0x39
 2293 0028 0B       		.uleb128 0xb
 2294 0029 49       		.uleb128 0x49
 2295 002a 13       		.uleb128 0x13
 2296 002b 00       		.byte	0
 2297 002c 00       		.byte	0
 2298 002d 04       		.uleb128 0x4
 2299 002e 24       		.uleb128 0x24
 2300 002f 00       		.byte	0
 2301 0030 0B       		.uleb128 0xb
 2302 0031 0B       		.uleb128 0xb
 2303 0032 3E       		.uleb128 0x3e
 2304 0033 0B       		.uleb128 0xb
 2305 0034 03       		.uleb128 0x3
 2306 0035 08       		.uleb128 0x8
 2307 0036 00       		.byte	0
 2308 0037 00       		.byte	0
 2309 0038 05       		.uleb128 0x5
 2310 0039 35       		.uleb128 0x35
 2311 003a 00       		.byte	0
 2312 003b 49       		.uleb128 0x49
 2313 003c 13       		.uleb128 0x13
 2314 003d 00       		.byte	0
 2315 003e 00       		.byte	0
 2316 003f 06       		.uleb128 0x6
 2317 0040 13       		.uleb128 0x13
 2318 0041 01       		.byte	0x1
 2319 0042 03       		.uleb128 0x3
 2320 0043 0E       		.uleb128 0xe
 2321 0044 0B       		.uleb128 0xb
 2322 0045 0B       		.uleb128 0xb
 2323 0046 3A       		.uleb128 0x3a
 2324 0047 0B       		.uleb128 0xb
 2325 0048 3B       		.uleb128 0x3b
 2326 0049 0B       		.uleb128 0xb
 2327 004a 39       		.uleb128 0x39
 2328 004b 0B       		.uleb128 0xb
 2329 004c 01       		.uleb128 0x1
 2330 004d 13       		.uleb128 0x13
 2331 004e 00       		.byte	0
 2332 004f 00       		.byte	0
 2333 0050 07       		.uleb128 0x7
 2334 0051 0D       		.uleb128 0xd
 2335 0052 00       		.byte	0
 2336 0053 03       		.uleb128 0x3
 2337 0054 0E       		.uleb128 0xe
ARM GAS  /var/folders/l5/0x54b2c10074c8bt31ycjvl80000gp/T//ccViqEfd.s 			page 42


 2338 0055 3A       		.uleb128 0x3a
 2339 0056 0B       		.uleb128 0xb
 2340 0057 3B       		.uleb128 0x3b
 2341 0058 0B       		.uleb128 0xb
 2342 0059 39       		.uleb128 0x39
 2343 005a 0B       		.uleb128 0xb
 2344 005b 49       		.uleb128 0x49
 2345 005c 13       		.uleb128 0x13
 2346 005d 38       		.uleb128 0x38
 2347 005e 0B       		.uleb128 0xb
 2348 005f 00       		.byte	0
 2349 0060 00       		.byte	0
 2350 0061 08       		.uleb128 0x8
 2351 0062 0D       		.uleb128 0xd
 2352 0063 00       		.byte	0
 2353 0064 03       		.uleb128 0x3
 2354 0065 08       		.uleb128 0x8
 2355 0066 3A       		.uleb128 0x3a
 2356 0067 0B       		.uleb128 0xb
 2357 0068 3B       		.uleb128 0x3b
 2358 0069 0B       		.uleb128 0xb
 2359 006a 39       		.uleb128 0x39
 2360 006b 0B       		.uleb128 0xb
 2361 006c 49       		.uleb128 0x49
 2362 006d 13       		.uleb128 0x13
 2363 006e 38       		.uleb128 0x38
 2364 006f 0B       		.uleb128 0xb
 2365 0070 00       		.byte	0
 2366 0071 00       		.byte	0
 2367 0072 09       		.uleb128 0x9
 2368 0073 13       		.uleb128 0x13
 2369 0074 01       		.byte	0x1
 2370 0075 0B       		.uleb128 0xb
 2371 0076 0B       		.uleb128 0xb
 2372 0077 3A       		.uleb128 0x3a
 2373 0078 0B       		.uleb128 0xb
 2374 0079 3B       		.uleb128 0x3b
 2375 007a 0B       		.uleb128 0xb
 2376 007b 39       		.uleb128 0x39
 2377 007c 0B       		.uleb128 0xb
 2378 007d 01       		.uleb128 0x1
 2379 007e 13       		.uleb128 0x13
 2380 007f 00       		.byte	0
 2381 0080 00       		.byte	0
 2382 0081 0A       		.uleb128 0xa
 2383 0082 0F       		.uleb128 0xf
 2384 0083 00       		.byte	0
 2385 0084 0B       		.uleb128 0xb
 2386 0085 0B       		.uleb128 0xb
 2387 0086 49       		.uleb128 0x49
 2388 0087 13       		.uleb128 0x13
 2389 0088 00       		.byte	0
 2390 0089 00       		.byte	0
 2391 008a 0B       		.uleb128 0xb
 2392 008b 0F       		.uleb128 0xf
 2393 008c 00       		.byte	0
 2394 008d 0B       		.uleb128 0xb
ARM GAS  /var/folders/l5/0x54b2c10074c8bt31ycjvl80000gp/T//ccViqEfd.s 			page 43


 2395 008e 0B       		.uleb128 0xb
 2396 008f 00       		.byte	0
 2397 0090 00       		.byte	0
 2398 0091 0C       		.uleb128 0xc
 2399 0092 15       		.uleb128 0x15
 2400 0093 01       		.byte	0x1
 2401 0094 27       		.uleb128 0x27
 2402 0095 19       		.uleb128 0x19
 2403 0096 01       		.uleb128 0x1
 2404 0097 13       		.uleb128 0x13
 2405 0098 00       		.byte	0
 2406 0099 00       		.byte	0
 2407 009a 0D       		.uleb128 0xd
 2408 009b 05       		.uleb128 0x5
 2409 009c 00       		.byte	0
 2410 009d 49       		.uleb128 0x49
 2411 009e 13       		.uleb128 0x13
 2412 009f 00       		.byte	0
 2413 00a0 00       		.byte	0
 2414 00a1 0E       		.uleb128 0xe
 2415 00a2 34       		.uleb128 0x34
 2416 00a3 00       		.byte	0
 2417 00a4 03       		.uleb128 0x3
 2418 00a5 0E       		.uleb128 0xe
 2419 00a6 3A       		.uleb128 0x3a
 2420 00a7 0B       		.uleb128 0xb
 2421 00a8 3B       		.uleb128 0x3b
 2422 00a9 0B       		.uleb128 0xb
 2423 00aa 39       		.uleb128 0x39
 2424 00ab 0B       		.uleb128 0xb
 2425 00ac 49       		.uleb128 0x49
 2426 00ad 13       		.uleb128 0x13
 2427 00ae 3F       		.uleb128 0x3f
 2428 00af 19       		.uleb128 0x19
 2429 00b0 3C       		.uleb128 0x3c
 2430 00b1 19       		.uleb128 0x19
 2431 00b2 00       		.byte	0
 2432 00b3 00       		.byte	0
 2433 00b4 0F       		.uleb128 0xf
 2434 00b5 26       		.uleb128 0x26
 2435 00b6 00       		.byte	0
 2436 00b7 49       		.uleb128 0x49
 2437 00b8 13       		.uleb128 0x13
 2438 00b9 00       		.byte	0
 2439 00ba 00       		.byte	0
 2440 00bb 10       		.uleb128 0x10
 2441 00bc 17       		.uleb128 0x17
 2442 00bd 01       		.byte	0x1
 2443 00be 0B       		.uleb128 0xb
 2444 00bf 0B       		.uleb128 0xb
 2445 00c0 3A       		.uleb128 0x3a
 2446 00c1 0B       		.uleb128 0xb
 2447 00c2 3B       		.uleb128 0x3b
 2448 00c3 0B       		.uleb128 0xb
 2449 00c4 39       		.uleb128 0x39
 2450 00c5 0B       		.uleb128 0xb
 2451 00c6 01       		.uleb128 0x1
ARM GAS  /var/folders/l5/0x54b2c10074c8bt31ycjvl80000gp/T//ccViqEfd.s 			page 44


 2452 00c7 13       		.uleb128 0x13
 2453 00c8 00       		.byte	0
 2454 00c9 00       		.byte	0
 2455 00ca 11       		.uleb128 0x11
 2456 00cb 0D       		.uleb128 0xd
 2457 00cc 00       		.byte	0
 2458 00cd 03       		.uleb128 0x3
 2459 00ce 0E       		.uleb128 0xe
 2460 00cf 3A       		.uleb128 0x3a
 2461 00d0 0B       		.uleb128 0xb
 2462 00d1 3B       		.uleb128 0x3b
 2463 00d2 0B       		.uleb128 0xb
 2464 00d3 39       		.uleb128 0x39
 2465 00d4 0B       		.uleb128 0xb
 2466 00d5 49       		.uleb128 0x49
 2467 00d6 13       		.uleb128 0x13
 2468 00d7 00       		.byte	0
 2469 00d8 00       		.byte	0
 2470 00d9 12       		.uleb128 0x12
 2471 00da 01       		.uleb128 0x1
 2472 00db 01       		.byte	0x1
 2473 00dc 49       		.uleb128 0x49
 2474 00dd 13       		.uleb128 0x13
 2475 00de 01       		.uleb128 0x1
 2476 00df 13       		.uleb128 0x13
 2477 00e0 00       		.byte	0
 2478 00e1 00       		.byte	0
 2479 00e2 13       		.uleb128 0x13
 2480 00e3 21       		.uleb128 0x21
 2481 00e4 00       		.byte	0
 2482 00e5 49       		.uleb128 0x49
 2483 00e6 13       		.uleb128 0x13
 2484 00e7 2F       		.uleb128 0x2f
 2485 00e8 0B       		.uleb128 0xb
 2486 00e9 00       		.byte	0
 2487 00ea 00       		.byte	0
 2488 00eb 14       		.uleb128 0x14
 2489 00ec 2E       		.uleb128 0x2e
 2490 00ed 01       		.byte	0x1
 2491 00ee 3F       		.uleb128 0x3f
 2492 00ef 19       		.uleb128 0x19
 2493 00f0 03       		.uleb128 0x3
 2494 00f1 0E       		.uleb128 0xe
 2495 00f2 3A       		.uleb128 0x3a
 2496 00f3 0B       		.uleb128 0xb
 2497 00f4 3B       		.uleb128 0x3b
 2498 00f5 05       		.uleb128 0x5
 2499 00f6 39       		.uleb128 0x39
 2500 00f7 0B       		.uleb128 0xb
 2501 00f8 27       		.uleb128 0x27
 2502 00f9 19       		.uleb128 0x19
 2503 00fa 49       		.uleb128 0x49
 2504 00fb 13       		.uleb128 0x13
 2505 00fc 11       		.uleb128 0x11
 2506 00fd 01       		.uleb128 0x1
 2507 00fe 12       		.uleb128 0x12
 2508 00ff 06       		.uleb128 0x6
ARM GAS  /var/folders/l5/0x54b2c10074c8bt31ycjvl80000gp/T//ccViqEfd.s 			page 45


 2509 0100 40       		.uleb128 0x40
 2510 0101 18       		.uleb128 0x18
 2511 0102 9742     		.uleb128 0x2117
 2512 0104 19       		.uleb128 0x19
 2513 0105 01       		.uleb128 0x1
 2514 0106 13       		.uleb128 0x13
 2515 0107 00       		.byte	0
 2516 0108 00       		.byte	0
 2517 0109 15       		.uleb128 0x15
 2518 010a 05       		.uleb128 0x5
 2519 010b 00       		.byte	0
 2520 010c 03       		.uleb128 0x3
 2521 010d 0E       		.uleb128 0xe
 2522 010e 3A       		.uleb128 0x3a
 2523 010f 0B       		.uleb128 0xb
 2524 0110 3B       		.uleb128 0x3b
 2525 0111 05       		.uleb128 0x5
 2526 0112 39       		.uleb128 0x39
 2527 0113 0B       		.uleb128 0xb
 2528 0114 49       		.uleb128 0x49
 2529 0115 13       		.uleb128 0x13
 2530 0116 02       		.uleb128 0x2
 2531 0117 17       		.uleb128 0x17
 2532 0118 B742     		.uleb128 0x2137
 2533 011a 17       		.uleb128 0x17
 2534 011b 00       		.byte	0
 2535 011c 00       		.byte	0
 2536 011d 16       		.uleb128 0x16
 2537 011e 34       		.uleb128 0x34
 2538 011f 00       		.byte	0
 2539 0120 03       		.uleb128 0x3
 2540 0121 08       		.uleb128 0x8
 2541 0122 3A       		.uleb128 0x3a
 2542 0123 0B       		.uleb128 0xb
 2543 0124 3B       		.uleb128 0x3b
 2544 0125 05       		.uleb128 0x5
 2545 0126 39       		.uleb128 0x39
 2546 0127 0B       		.uleb128 0xb
 2547 0128 49       		.uleb128 0x49
 2548 0129 13       		.uleb128 0x13
 2549 012a 02       		.uleb128 0x2
 2550 012b 17       		.uleb128 0x17
 2551 012c B742     		.uleb128 0x2137
 2552 012e 17       		.uleb128 0x17
 2553 012f 00       		.byte	0
 2554 0130 00       		.byte	0
 2555 0131 17       		.uleb128 0x17
 2556 0132 898201   		.uleb128 0x4109
 2557 0135 01       		.byte	0x1
 2558 0136 11       		.uleb128 0x11
 2559 0137 01       		.uleb128 0x1
 2560 0138 31       		.uleb128 0x31
 2561 0139 13       		.uleb128 0x13
 2562 013a 00       		.byte	0
 2563 013b 00       		.byte	0
 2564 013c 18       		.uleb128 0x18
 2565 013d 8A8201   		.uleb128 0x410a
ARM GAS  /var/folders/l5/0x54b2c10074c8bt31ycjvl80000gp/T//ccViqEfd.s 			page 46


 2566 0140 00       		.byte	0
 2567 0141 02       		.uleb128 0x2
 2568 0142 18       		.uleb128 0x18
 2569 0143 9142     		.uleb128 0x2111
 2570 0145 18       		.uleb128 0x18
 2571 0146 00       		.byte	0
 2572 0147 00       		.byte	0
 2573 0148 19       		.uleb128 0x19
 2574 0149 2E       		.uleb128 0x2e
 2575 014a 01       		.byte	0x1
 2576 014b 3F       		.uleb128 0x3f
 2577 014c 19       		.uleb128 0x19
 2578 014d 03       		.uleb128 0x3
 2579 014e 0E       		.uleb128 0xe
 2580 014f 3A       		.uleb128 0x3a
 2581 0150 0B       		.uleb128 0xb
 2582 0151 3B       		.uleb128 0x3b
 2583 0152 05       		.uleb128 0x5
 2584 0153 39       		.uleb128 0x39
 2585 0154 0B       		.uleb128 0xb
 2586 0155 27       		.uleb128 0x27
 2587 0156 19       		.uleb128 0x19
 2588 0157 11       		.uleb128 0x11
 2589 0158 01       		.uleb128 0x1
 2590 0159 12       		.uleb128 0x12
 2591 015a 06       		.uleb128 0x6
 2592 015b 40       		.uleb128 0x40
 2593 015c 18       		.uleb128 0x18
 2594 015d 9742     		.uleb128 0x2117
 2595 015f 19       		.uleb128 0x19
 2596 0160 01       		.uleb128 0x1
 2597 0161 13       		.uleb128 0x13
 2598 0162 00       		.byte	0
 2599 0163 00       		.byte	0
 2600 0164 1A       		.uleb128 0x1a
 2601 0165 898201   		.uleb128 0x4109
 2602 0168 01       		.byte	0x1
 2603 0169 11       		.uleb128 0x11
 2604 016a 01       		.uleb128 0x1
 2605 016b 00       		.byte	0
 2606 016c 00       		.byte	0
 2607 016d 1B       		.uleb128 0x1b
 2608 016e 05       		.uleb128 0x5
 2609 016f 00       		.byte	0
 2610 0170 03       		.uleb128 0x3
 2611 0171 08       		.uleb128 0x8
 2612 0172 3A       		.uleb128 0x3a
 2613 0173 0B       		.uleb128 0xb
 2614 0174 3B       		.uleb128 0x3b
 2615 0175 05       		.uleb128 0x5
 2616 0176 39       		.uleb128 0x39
 2617 0177 0B       		.uleb128 0xb
 2618 0178 49       		.uleb128 0x49
 2619 0179 13       		.uleb128 0x13
 2620 017a 02       		.uleb128 0x2
 2621 017b 17       		.uleb128 0x17
 2622 017c B742     		.uleb128 0x2137
ARM GAS  /var/folders/l5/0x54b2c10074c8bt31ycjvl80000gp/T//ccViqEfd.s 			page 47


 2623 017e 17       		.uleb128 0x17
 2624 017f 00       		.byte	0
 2625 0180 00       		.byte	0
 2626 0181 1C       		.uleb128 0x1c
 2627 0182 34       		.uleb128 0x34
 2628 0183 00       		.byte	0
 2629 0184 03       		.uleb128 0x3
 2630 0185 0E       		.uleb128 0xe
 2631 0186 3A       		.uleb128 0x3a
 2632 0187 0B       		.uleb128 0xb
 2633 0188 3B       		.uleb128 0x3b
 2634 0189 05       		.uleb128 0x5
 2635 018a 39       		.uleb128 0x39
 2636 018b 0B       		.uleb128 0xb
 2637 018c 49       		.uleb128 0x49
 2638 018d 13       		.uleb128 0x13
 2639 018e 02       		.uleb128 0x2
 2640 018f 17       		.uleb128 0x17
 2641 0190 B742     		.uleb128 0x2137
 2642 0192 17       		.uleb128 0x17
 2643 0193 00       		.byte	0
 2644 0194 00       		.byte	0
 2645 0195 1D       		.uleb128 0x1d
 2646 0196 898201   		.uleb128 0x4109
 2647 0199 01       		.byte	0x1
 2648 019a 11       		.uleb128 0x11
 2649 019b 01       		.uleb128 0x1
 2650 019c 31       		.uleb128 0x31
 2651 019d 13       		.uleb128 0x13
 2652 019e 01       		.uleb128 0x1
 2653 019f 13       		.uleb128 0x13
 2654 01a0 00       		.byte	0
 2655 01a1 00       		.byte	0
 2656 01a2 1E       		.uleb128 0x1e
 2657 01a3 898201   		.uleb128 0x4109
 2658 01a6 00       		.byte	0
 2659 01a7 11       		.uleb128 0x11
 2660 01a8 01       		.uleb128 0x1
 2661 01a9 31       		.uleb128 0x31
 2662 01aa 13       		.uleb128 0x13
 2663 01ab 00       		.byte	0
 2664 01ac 00       		.byte	0
 2665 01ad 1F       		.uleb128 0x1f
 2666 01ae 2E       		.uleb128 0x2e
 2667 01af 01       		.byte	0x1
 2668 01b0 3F       		.uleb128 0x3f
 2669 01b1 19       		.uleb128 0x19
 2670 01b2 03       		.uleb128 0x3
 2671 01b3 0E       		.uleb128 0xe
 2672 01b4 3A       		.uleb128 0x3a
 2673 01b5 0B       		.uleb128 0xb
 2674 01b6 3B       		.uleb128 0x3b
 2675 01b7 0B       		.uleb128 0xb
 2676 01b8 39       		.uleb128 0x39
 2677 01b9 0B       		.uleb128 0xb
 2678 01ba 27       		.uleb128 0x27
 2679 01bb 19       		.uleb128 0x19
ARM GAS  /var/folders/l5/0x54b2c10074c8bt31ycjvl80000gp/T//ccViqEfd.s 			page 48


 2680 01bc 20       		.uleb128 0x20
 2681 01bd 0B       		.uleb128 0xb
 2682 01be 01       		.uleb128 0x1
 2683 01bf 13       		.uleb128 0x13
 2684 01c0 00       		.byte	0
 2685 01c1 00       		.byte	0
 2686 01c2 20       		.uleb128 0x20
 2687 01c3 05       		.uleb128 0x5
 2688 01c4 00       		.byte	0
 2689 01c5 03       		.uleb128 0x3
 2690 01c6 08       		.uleb128 0x8
 2691 01c7 3A       		.uleb128 0x3a
 2692 01c8 0B       		.uleb128 0xb
 2693 01c9 3B       		.uleb128 0x3b
 2694 01ca 0B       		.uleb128 0xb
 2695 01cb 39       		.uleb128 0x39
 2696 01cc 0B       		.uleb128 0xb
 2697 01cd 49       		.uleb128 0x49
 2698 01ce 13       		.uleb128 0x13
 2699 01cf 00       		.byte	0
 2700 01d0 00       		.byte	0
 2701 01d1 21       		.uleb128 0x21
 2702 01d2 05       		.uleb128 0x5
 2703 01d3 00       		.byte	0
 2704 01d4 03       		.uleb128 0x3
 2705 01d5 0E       		.uleb128 0xe
 2706 01d6 3A       		.uleb128 0x3a
 2707 01d7 0B       		.uleb128 0xb
 2708 01d8 3B       		.uleb128 0x3b
 2709 01d9 0B       		.uleb128 0xb
 2710 01da 39       		.uleb128 0x39
 2711 01db 0B       		.uleb128 0xb
 2712 01dc 49       		.uleb128 0x49
 2713 01dd 13       		.uleb128 0x13
 2714 01de 00       		.byte	0
 2715 01df 00       		.byte	0
 2716 01e0 22       		.uleb128 0x22
 2717 01e1 2E       		.uleb128 0x2e
 2718 01e2 01       		.byte	0x1
 2719 01e3 3F       		.uleb128 0x3f
 2720 01e4 19       		.uleb128 0x19
 2721 01e5 03       		.uleb128 0x3
 2722 01e6 0E       		.uleb128 0xe
 2723 01e7 3A       		.uleb128 0x3a
 2724 01e8 0B       		.uleb128 0xb
 2725 01e9 3B       		.uleb128 0x3b
 2726 01ea 0B       		.uleb128 0xb
 2727 01eb 39       		.uleb128 0x39
 2728 01ec 0B       		.uleb128 0xb
 2729 01ed 27       		.uleb128 0x27
 2730 01ee 19       		.uleb128 0x19
 2731 01ef 11       		.uleb128 0x11
 2732 01f0 01       		.uleb128 0x1
 2733 01f1 12       		.uleb128 0x12
 2734 01f2 06       		.uleb128 0x6
 2735 01f3 40       		.uleb128 0x40
 2736 01f4 18       		.uleb128 0x18
ARM GAS  /var/folders/l5/0x54b2c10074c8bt31ycjvl80000gp/T//ccViqEfd.s 			page 49


 2737 01f5 9742     		.uleb128 0x2117
 2738 01f7 19       		.uleb128 0x19
 2739 01f8 01       		.uleb128 0x1
 2740 01f9 13       		.uleb128 0x13
 2741 01fa 00       		.byte	0
 2742 01fb 00       		.byte	0
 2743 01fc 23       		.uleb128 0x23
 2744 01fd 05       		.uleb128 0x5
 2745 01fe 00       		.byte	0
 2746 01ff 03       		.uleb128 0x3
 2747 0200 08       		.uleb128 0x8
 2748 0201 3A       		.uleb128 0x3a
 2749 0202 0B       		.uleb128 0xb
 2750 0203 3B       		.uleb128 0x3b
 2751 0204 0B       		.uleb128 0xb
 2752 0205 39       		.uleb128 0x39
 2753 0206 0B       		.uleb128 0xb
 2754 0207 49       		.uleb128 0x49
 2755 0208 13       		.uleb128 0x13
 2756 0209 02       		.uleb128 0x2
 2757 020a 17       		.uleb128 0x17
 2758 020b B742     		.uleb128 0x2137
 2759 020d 17       		.uleb128 0x17
 2760 020e 00       		.byte	0
 2761 020f 00       		.byte	0
 2762 0210 24       		.uleb128 0x24
 2763 0211 05       		.uleb128 0x5
 2764 0212 00       		.byte	0
 2765 0213 03       		.uleb128 0x3
 2766 0214 0E       		.uleb128 0xe
 2767 0215 3A       		.uleb128 0x3a
 2768 0216 0B       		.uleb128 0xb
 2769 0217 3B       		.uleb128 0x3b
 2770 0218 0B       		.uleb128 0xb
 2771 0219 39       		.uleb128 0x39
 2772 021a 0B       		.uleb128 0xb
 2773 021b 49       		.uleb128 0x49
 2774 021c 13       		.uleb128 0x13
 2775 021d 02       		.uleb128 0x2
 2776 021e 17       		.uleb128 0x17
 2777 021f B742     		.uleb128 0x2137
 2778 0221 17       		.uleb128 0x17
 2779 0222 00       		.byte	0
 2780 0223 00       		.byte	0
 2781 0224 25       		.uleb128 0x25
 2782 0225 2E       		.uleb128 0x2e
 2783 0226 01       		.byte	0x1
 2784 0227 3F       		.uleb128 0x3f
 2785 0228 19       		.uleb128 0x19
 2786 0229 03       		.uleb128 0x3
 2787 022a 0E       		.uleb128 0xe
 2788 022b 3A       		.uleb128 0x3a
 2789 022c 0B       		.uleb128 0xb
 2790 022d 3B       		.uleb128 0x3b
 2791 022e 0B       		.uleb128 0xb
 2792 022f 39       		.uleb128 0x39
 2793 0230 0B       		.uleb128 0xb
ARM GAS  /var/folders/l5/0x54b2c10074c8bt31ycjvl80000gp/T//ccViqEfd.s 			page 50


 2794 0231 27       		.uleb128 0x27
 2795 0232 19       		.uleb128 0x19
 2796 0233 49       		.uleb128 0x49
 2797 0234 13       		.uleb128 0x13
 2798 0235 11       		.uleb128 0x11
 2799 0236 01       		.uleb128 0x1
 2800 0237 12       		.uleb128 0x12
 2801 0238 06       		.uleb128 0x6
 2802 0239 40       		.uleb128 0x40
 2803 023a 18       		.uleb128 0x18
 2804 023b 9742     		.uleb128 0x2117
 2805 023d 19       		.uleb128 0x19
 2806 023e 01       		.uleb128 0x1
 2807 023f 13       		.uleb128 0x13
 2808 0240 00       		.byte	0
 2809 0241 00       		.byte	0
 2810 0242 26       		.uleb128 0x26
 2811 0243 34       		.uleb128 0x34
 2812 0244 00       		.byte	0
 2813 0245 03       		.uleb128 0x3
 2814 0246 0E       		.uleb128 0xe
 2815 0247 3A       		.uleb128 0x3a
 2816 0248 0B       		.uleb128 0xb
 2817 0249 3B       		.uleb128 0x3b
 2818 024a 0B       		.uleb128 0xb
 2819 024b 39       		.uleb128 0x39
 2820 024c 0B       		.uleb128 0xb
 2821 024d 49       		.uleb128 0x49
 2822 024e 13       		.uleb128 0x13
 2823 024f 02       		.uleb128 0x2
 2824 0250 17       		.uleb128 0x17
 2825 0251 B742     		.uleb128 0x2137
 2826 0253 17       		.uleb128 0x17
 2827 0254 00       		.byte	0
 2828 0255 00       		.byte	0
 2829 0256 27       		.uleb128 0x27
 2830 0257 34       		.uleb128 0x34
 2831 0258 00       		.byte	0
 2832 0259 03       		.uleb128 0x3
 2833 025a 08       		.uleb128 0x8
 2834 025b 3A       		.uleb128 0x3a
 2835 025c 0B       		.uleb128 0xb
 2836 025d 3B       		.uleb128 0x3b
 2837 025e 0B       		.uleb128 0xb
 2838 025f 39       		.uleb128 0x39
 2839 0260 0B       		.uleb128 0xb
 2840 0261 49       		.uleb128 0x49
 2841 0262 13       		.uleb128 0x13
 2842 0263 02       		.uleb128 0x2
 2843 0264 17       		.uleb128 0x17
 2844 0265 B742     		.uleb128 0x2137
 2845 0267 17       		.uleb128 0x17
 2846 0268 00       		.byte	0
 2847 0269 00       		.byte	0
 2848 026a 28       		.uleb128 0x28
 2849 026b 05       		.uleb128 0x5
 2850 026c 00       		.byte	0
ARM GAS  /var/folders/l5/0x54b2c10074c8bt31ycjvl80000gp/T//ccViqEfd.s 			page 51


 2851 026d 03       		.uleb128 0x3
 2852 026e 08       		.uleb128 0x8
 2853 026f 3A       		.uleb128 0x3a
 2854 0270 0B       		.uleb128 0xb
 2855 0271 3B       		.uleb128 0x3b
 2856 0272 0B       		.uleb128 0xb
 2857 0273 39       		.uleb128 0x39
 2858 0274 0B       		.uleb128 0xb
 2859 0275 49       		.uleb128 0x49
 2860 0276 13       		.uleb128 0x13
 2861 0277 02       		.uleb128 0x2
 2862 0278 18       		.uleb128 0x18
 2863 0279 00       		.byte	0
 2864 027a 00       		.byte	0
 2865 027b 29       		.uleb128 0x29
 2866 027c 05       		.uleb128 0x5
 2867 027d 00       		.byte	0
 2868 027e 03       		.uleb128 0x3
 2869 027f 0E       		.uleb128 0xe
 2870 0280 3A       		.uleb128 0x3a
 2871 0281 0B       		.uleb128 0xb
 2872 0282 3B       		.uleb128 0x3b
 2873 0283 0B       		.uleb128 0xb
 2874 0284 39       		.uleb128 0x39
 2875 0285 0B       		.uleb128 0xb
 2876 0286 49       		.uleb128 0x49
 2877 0287 13       		.uleb128 0x13
 2878 0288 02       		.uleb128 0x2
 2879 0289 18       		.uleb128 0x18
 2880 028a 00       		.byte	0
 2881 028b 00       		.byte	0
 2882 028c 2A       		.uleb128 0x2a
 2883 028d 2E       		.uleb128 0x2e
 2884 028e 01       		.byte	0x1
 2885 028f 31       		.uleb128 0x31
 2886 0290 13       		.uleb128 0x13
 2887 0291 11       		.uleb128 0x11
 2888 0292 01       		.uleb128 0x1
 2889 0293 12       		.uleb128 0x12
 2890 0294 06       		.uleb128 0x6
 2891 0295 40       		.uleb128 0x40
 2892 0296 18       		.uleb128 0x18
 2893 0297 9742     		.uleb128 0x2117
 2894 0299 19       		.uleb128 0x19
 2895 029a 01       		.uleb128 0x1
 2896 029b 13       		.uleb128 0x13
 2897 029c 00       		.byte	0
 2898 029d 00       		.byte	0
 2899 029e 2B       		.uleb128 0x2b
 2900 029f 05       		.uleb128 0x5
 2901 02a0 00       		.byte	0
 2902 02a1 31       		.uleb128 0x31
 2903 02a2 13       		.uleb128 0x13
 2904 02a3 02       		.uleb128 0x2
 2905 02a4 17       		.uleb128 0x17
 2906 02a5 B742     		.uleb128 0x2137
 2907 02a7 17       		.uleb128 0x17
ARM GAS  /var/folders/l5/0x54b2c10074c8bt31ycjvl80000gp/T//ccViqEfd.s 			page 52


 2908 02a8 00       		.byte	0
 2909 02a9 00       		.byte	0
 2910 02aa 2C       		.uleb128 0x2c
 2911 02ab 1D       		.uleb128 0x1d
 2912 02ac 01       		.byte	0x1
 2913 02ad 31       		.uleb128 0x31
 2914 02ae 13       		.uleb128 0x13
 2915 02af 52       		.uleb128 0x52
 2916 02b0 01       		.uleb128 0x1
 2917 02b1 B842     		.uleb128 0x2138
 2918 02b3 0B       		.uleb128 0xb
 2919 02b4 55       		.uleb128 0x55
 2920 02b5 17       		.uleb128 0x17
 2921 02b6 58       		.uleb128 0x58
 2922 02b7 0B       		.uleb128 0xb
 2923 02b8 59       		.uleb128 0x59
 2924 02b9 0B       		.uleb128 0xb
 2925 02ba 57       		.uleb128 0x57
 2926 02bb 0B       		.uleb128 0xb
 2927 02bc 00       		.byte	0
 2928 02bd 00       		.byte	0
 2929 02be 2D       		.uleb128 0x2d
 2930 02bf 2E       		.uleb128 0x2e
 2931 02c0 00       		.byte	0
 2932 02c1 3F       		.uleb128 0x3f
 2933 02c2 19       		.uleb128 0x19
 2934 02c3 3C       		.uleb128 0x3c
 2935 02c4 19       		.uleb128 0x19
 2936 02c5 6E       		.uleb128 0x6e
 2937 02c6 0E       		.uleb128 0xe
 2938 02c7 03       		.uleb128 0x3
 2939 02c8 0E       		.uleb128 0xe
 2940 02c9 3A       		.uleb128 0x3a
 2941 02ca 0B       		.uleb128 0xb
 2942 02cb 3B       		.uleb128 0x3b
 2943 02cc 0B       		.uleb128 0xb
 2944 02cd 39       		.uleb128 0x39
 2945 02ce 0B       		.uleb128 0xb
 2946 02cf 00       		.byte	0
 2947 02d0 00       		.byte	0
 2948 02d1 00       		.byte	0
 2949              		.section	.debug_loc,"",%progbits
 2950              	.Ldebug_loc0:
 2951              	.LVUS28:
 2952 0000 00       		.uleb128 0
 2953 0001 00       		.uleb128 .LVU286
 2954 0002 00       		.uleb128 .LVU286
 2955 0003 00       		.uleb128 0
 2956              	.LLST28:
 2957 0004 00000000 		.4byte	.LVL57
 2958 0008 28000000 		.4byte	.LVL59
 2959 000c 0100     		.2byte	0x1
 2960 000e 50       		.byte	0x50
 2961 000f 28000000 		.4byte	.LVL59
 2962 0013 48000000 		.4byte	.LFE20
 2963 0017 0100     		.2byte	0x1
 2964 0019 54       		.byte	0x54
ARM GAS  /var/folders/l5/0x54b2c10074c8bt31ycjvl80000gp/T//ccViqEfd.s 			page 53


 2965 001a 00000000 		.4byte	0
 2966 001e 00000000 		.4byte	0
 2967              	.LVUS29:
 2968 0022 00       		.uleb128 .LVU277
 2969 0023 00       		.uleb128 0
 2970              	.LLST29:
 2971 0024 10000000 		.4byte	.LVL58
 2972 0028 48000000 		.4byte	.LFE20
 2973 002c 0100     		.2byte	0x1
 2974 002e 55       		.byte	0x55
 2975 002f 00000000 		.4byte	0
 2976 0033 00000000 		.4byte	0
 2977              	.LVUS25:
 2978 0037 00       		.uleb128 0
 2979 0038 00       		.uleb128 .LVU255
 2980 0039 00       		.uleb128 .LVU255
 2981 003a 00       		.uleb128 .LVU262
 2982 003b 00       		.uleb128 .LVU262
 2983 003c 00       		.uleb128 .LVU266
 2984 003d 00       		.uleb128 .LVU266
 2985 003e 00       		.uleb128 .LVU270
 2986 003f 00       		.uleb128 .LVU270
 2987 0040 00       		.uleb128 0
 2988              	.LLST25:
 2989 0041 00000000 		.4byte	.LVL47
 2990 0045 1C000000 		.4byte	.LVL51
 2991 0049 0100     		.2byte	0x1
 2992 004b 50       		.byte	0x50
 2993 004c 1C000000 		.4byte	.LVL51
 2994 0050 30000000 		.4byte	.LVL52
 2995 0054 0400     		.2byte	0x4
 2996 0056 F3       		.byte	0xf3
 2997 0057 01       		.uleb128 0x1
 2998 0058 50       		.byte	0x50
 2999 0059 9F       		.byte	0x9f
 3000 005a 30000000 		.4byte	.LVL52
 3001 005e 3C000000 		.4byte	.LVL54
 3002 0062 0100     		.2byte	0x1
 3003 0064 50       		.byte	0x50
 3004 0065 3C000000 		.4byte	.LVL54
 3005 0069 48000000 		.4byte	.LVL56
 3006 006d 0100     		.2byte	0x1
 3007 006f 54       		.byte	0x54
 3008 0070 48000000 		.4byte	.LVL56
 3009 0074 50000000 		.4byte	.LFE19
 3010 0078 0400     		.2byte	0x4
 3011 007a F3       		.byte	0xf3
 3012 007b 01       		.uleb128 0x1
 3013 007c 50       		.byte	0x50
 3014 007d 9F       		.byte	0x9f
 3015 007e 00000000 		.4byte	0
 3016 0082 00000000 		.4byte	0
 3017              	.LVUS26:
 3018 0086 00       		.uleb128 .LVU247
 3019 0087 00       		.uleb128 0
 3020              	.LLST26:
 3021 0088 0C000000 		.4byte	.LVL48
ARM GAS  /var/folders/l5/0x54b2c10074c8bt31ycjvl80000gp/T//ccViqEfd.s 			page 54


 3022 008c 50000000 		.4byte	.LFE19
 3023 0090 0100     		.2byte	0x1
 3024 0092 55       		.byte	0x55
 3025 0093 00000000 		.4byte	0
 3026 0097 00000000 		.4byte	0
 3027              	.LVUS27:
 3028 009b 00       		.uleb128 .LVU253
 3029 009c 00       		.uleb128 .LVU254
 3030 009d 00       		.uleb128 .LVU254
 3031 009e 00       		.uleb128 .LVU263
 3032 009f 00       		.uleb128 .LVU263
 3033 00a0 00       		.uleb128 .LVU266
 3034 00a1 00       		.uleb128 .LVU266
 3035 00a2 00       		.uleb128 .LVU267
 3036 00a3 00       		.uleb128 .LVU270
 3037 00a4 00       		.uleb128 0
 3038              	.LLST27:
 3039 00a5 14000000 		.4byte	.LVL49
 3040 00a9 18000000 		.4byte	.LVL50
 3041 00ad 0600     		.2byte	0x6
 3042 00af 73       		.byte	0x73
 3043 00b0 00       		.sleb128 0
 3044 00b1 70       		.byte	0x70
 3045 00b2 00       		.sleb128 0
 3046 00b3 1A       		.byte	0x1a
 3047 00b4 9F       		.byte	0x9f
 3048 00b5 18000000 		.4byte	.LVL50
 3049 00b9 34000000 		.4byte	.LVL53
 3050 00bd 0100     		.2byte	0x1
 3051 00bf 54       		.byte	0x54
 3052 00c0 34000000 		.4byte	.LVL53
 3053 00c4 3C000000 		.4byte	.LVL54
 3054 00c8 0600     		.2byte	0x6
 3055 00ca 73       		.byte	0x73
 3056 00cb 00       		.sleb128 0
 3057 00cc 70       		.byte	0x70
 3058 00cd 00       		.sleb128 0
 3059 00ce 1A       		.byte	0x1a
 3060 00cf 9F       		.byte	0x9f
 3061 00d0 3C000000 		.4byte	.LVL54
 3062 00d4 3F000000 		.4byte	.LVL55-1
 3063 00d8 0600     		.2byte	0x6
 3064 00da 73       		.byte	0x73
 3065 00db 00       		.sleb128 0
 3066 00dc 74       		.byte	0x74
 3067 00dd 00       		.sleb128 0
 3068 00de 1A       		.byte	0x1a
 3069 00df 9F       		.byte	0x9f
 3070 00e0 48000000 		.4byte	.LVL56
 3071 00e4 50000000 		.4byte	.LFE19
 3072 00e8 0100     		.2byte	0x1
 3073 00ea 54       		.byte	0x54
 3074 00eb 00000000 		.4byte	0
 3075 00ef 00000000 		.4byte	0
 3076              	.LVUS22:
 3077 00f3 00       		.uleb128 0
 3078 00f4 00       		.uleb128 .LVU223
ARM GAS  /var/folders/l5/0x54b2c10074c8bt31ycjvl80000gp/T//ccViqEfd.s 			page 55


 3079 00f5 00       		.uleb128 .LVU223
 3080 00f6 00       		.uleb128 .LVU233
 3081 00f7 00       		.uleb128 .LVU233
 3082 00f8 00       		.uleb128 .LVU237
 3083 00f9 00       		.uleb128 .LVU237
 3084 00fa 00       		.uleb128 .LVU241
 3085 00fb 00       		.uleb128 .LVU241
 3086 00fc 00       		.uleb128 0
 3087              	.LLST22:
 3088 00fd 00000000 		.4byte	.LVL36
 3089 0101 1C000000 		.4byte	.LVL40
 3090 0105 0100     		.2byte	0x1
 3091 0107 50       		.byte	0x50
 3092 0108 1C000000 		.4byte	.LVL40
 3093 010c 34000000 		.4byte	.LVL42
 3094 0110 0400     		.2byte	0x4
 3095 0112 F3       		.byte	0xf3
 3096 0113 01       		.uleb128 0x1
 3097 0114 50       		.byte	0x50
 3098 0115 9F       		.byte	0x9f
 3099 0116 34000000 		.4byte	.LVL42
 3100 011a 40000000 		.4byte	.LVL44
 3101 011e 0100     		.2byte	0x1
 3102 0120 50       		.byte	0x50
 3103 0121 40000000 		.4byte	.LVL44
 3104 0125 4C000000 		.4byte	.LVL46
 3105 0129 0100     		.2byte	0x1
 3106 012b 54       		.byte	0x54
 3107 012c 4C000000 		.4byte	.LVL46
 3108 0130 54000000 		.4byte	.LFE18
 3109 0134 0400     		.2byte	0x4
 3110 0136 F3       		.byte	0xf3
 3111 0137 01       		.uleb128 0x1
 3112 0138 50       		.byte	0x50
 3113 0139 9F       		.byte	0x9f
 3114 013a 00000000 		.4byte	0
 3115 013e 00000000 		.4byte	0
 3116              	.LVUS23:
 3117 0142 00       		.uleb128 .LVU215
 3118 0143 00       		.uleb128 0
 3119              	.LLST23:
 3120 0144 0C000000 		.4byte	.LVL37
 3121 0148 54000000 		.4byte	.LFE18
 3122 014c 0100     		.2byte	0x1
 3123 014e 55       		.byte	0x55
 3124 014f 00000000 		.4byte	0
 3125 0153 00000000 		.4byte	0
 3126              	.LVUS24:
 3127 0157 00       		.uleb128 .LVU221
 3128 0158 00       		.uleb128 .LVU222
 3129 0159 00       		.uleb128 .LVU222
 3130 015a 00       		.uleb128 .LVU226
 3131 015b 00       		.uleb128 .LVU226
 3132 015c 00       		.uleb128 .LVU233
 3133 015d 00       		.uleb128 .LVU233
 3134 015e 00       		.uleb128 .LVU234
 3135 015f 00       		.uleb128 .LVU234
ARM GAS  /var/folders/l5/0x54b2c10074c8bt31ycjvl80000gp/T//ccViqEfd.s 			page 56


 3136 0160 00       		.uleb128 .LVU237
 3137 0161 00       		.uleb128 .LVU237
 3138 0162 00       		.uleb128 .LVU238
 3139 0163 00       		.uleb128 .LVU241
 3140 0164 00       		.uleb128 0
 3141              	.LLST24:
 3142 0165 14000000 		.4byte	.LVL38
 3143 0169 18000000 		.4byte	.LVL39
 3144 016d 0600     		.2byte	0x6
 3145 016f 73       		.byte	0x73
 3146 0170 00       		.sleb128 0
 3147 0171 70       		.byte	0x70
 3148 0172 00       		.sleb128 0
 3149 0173 1A       		.byte	0x1a
 3150 0174 9F       		.byte	0x9f
 3151 0175 18000000 		.4byte	.LVL39
 3152 0179 24000000 		.4byte	.LVL41
 3153 017d 0100     		.2byte	0x1
 3154 017f 54       		.byte	0x54
 3155 0180 24000000 		.4byte	.LVL41
 3156 0184 34000000 		.4byte	.LVL42
 3157 0188 0100     		.2byte	0x1
 3158 018a 50       		.byte	0x50
 3159 018b 34000000 		.4byte	.LVL42
 3160 018f 38000000 		.4byte	.LVL43
 3161 0193 0100     		.2byte	0x1
 3162 0195 54       		.byte	0x54
 3163 0196 38000000 		.4byte	.LVL43
 3164 019a 40000000 		.4byte	.LVL44
 3165 019e 0600     		.2byte	0x6
 3166 01a0 73       		.byte	0x73
 3167 01a1 00       		.sleb128 0
 3168 01a2 70       		.byte	0x70
 3169 01a3 00       		.sleb128 0
 3170 01a4 1A       		.byte	0x1a
 3171 01a5 9F       		.byte	0x9f
 3172 01a6 40000000 		.4byte	.LVL44
 3173 01aa 43000000 		.4byte	.LVL45-1
 3174 01ae 0600     		.2byte	0x6
 3175 01b0 73       		.byte	0x73
 3176 01b1 00       		.sleb128 0
 3177 01b2 74       		.byte	0x74
 3178 01b3 00       		.sleb128 0
 3179 01b4 1A       		.byte	0x1a
 3180 01b5 9F       		.byte	0x9f
 3181 01b6 4C000000 		.4byte	.LVL46
 3182 01ba 54000000 		.4byte	.LFE18
 3183 01be 0100     		.2byte	0x1
 3184 01c0 54       		.byte	0x54
 3185 01c1 00000000 		.4byte	0
 3186 01c5 00000000 		.4byte	0
 3187              	.LVUS19:
 3188 01c9 00       		.uleb128 0
 3189 01ca 00       		.uleb128 .LVU188
 3190 01cb 00       		.uleb128 .LVU188
 3191 01cc 00       		.uleb128 0
 3192              	.LLST19:
ARM GAS  /var/folders/l5/0x54b2c10074c8bt31ycjvl80000gp/T//ccViqEfd.s 			page 57


 3193 01cd 00000000 		.4byte	.LVL30
 3194 01d1 18000000 		.4byte	.LVL31
 3195 01d5 0100     		.2byte	0x1
 3196 01d7 50       		.byte	0x50
 3197 01d8 18000000 		.4byte	.LVL31
 3198 01dc 54000000 		.4byte	.LFE17
 3199 01e0 0100     		.2byte	0x1
 3200 01e2 57       		.byte	0x57
 3201 01e3 00000000 		.4byte	0
 3202 01e7 00000000 		.4byte	0
 3203              	.LVUS20:
 3204 01eb 00       		.uleb128 0
 3205 01ec 00       		.uleb128 .LVU188
 3206 01ed 00       		.uleb128 .LVU188
 3207 01ee 00       		.uleb128 0
 3208              	.LLST20:
 3209 01ef 00000000 		.4byte	.LVL30
 3210 01f3 18000000 		.4byte	.LVL31
 3211 01f7 0100     		.2byte	0x1
 3212 01f9 51       		.byte	0x51
 3213 01fa 18000000 		.4byte	.LVL31
 3214 01fe 54000000 		.4byte	.LFE17
 3215 0202 0100     		.2byte	0x1
 3216 0204 55       		.byte	0x55
 3217 0205 00000000 		.4byte	0
 3218 0209 00000000 		.4byte	0
 3219              	.LVUS21:
 3220 020d 05       		.uleb128 .LVU183
 3221 020e 00       		.uleb128 .LVU188
 3222 020f 00       		.uleb128 .LVU188
 3223 0210 00       		.uleb128 0
 3224              	.LLST21:
 3225 0211 00000000 		.4byte	.LVL30
 3226 0215 18000000 		.4byte	.LVL31
 3227 0219 0200     		.2byte	0x2
 3228 021b 30       		.byte	0x30
 3229 021c 9F       		.byte	0x9f
 3230 021d 18000000 		.4byte	.LVL31
 3231 0221 54000000 		.4byte	.LFE17
 3232 0225 0100     		.2byte	0x1
 3233 0227 54       		.byte	0x54
 3234 0228 00000000 		.4byte	0
 3235 022c 00000000 		.4byte	0
 3236              	.LVUS17:
 3237 0230 00       		.uleb128 0
 3238 0231 00       		.uleb128 .LVU174
 3239 0232 00       		.uleb128 .LVU174
 3240 0233 00       		.uleb128 0
 3241              	.LLST17:
 3242 0234 00000000 		.4byte	.LVL28
 3243 0238 0C000000 		.4byte	.LVL29
 3244 023c 0100     		.2byte	0x1
 3245 023e 50       		.byte	0x50
 3246 023f 0C000000 		.4byte	.LVL29
 3247 0243 14000000 		.4byte	.LFE16
 3248 0247 0100     		.2byte	0x1
 3249 0249 53       		.byte	0x53
ARM GAS  /var/folders/l5/0x54b2c10074c8bt31ycjvl80000gp/T//ccViqEfd.s 			page 58


 3250 024a 00000000 		.4byte	0
 3251 024e 00000000 		.4byte	0
 3252              	.LVUS18:
 3253 0252 00       		.uleb128 .LVU174
 3254 0253 00       		.uleb128 0
 3255              	.LLST18:
 3256 0254 0C000000 		.4byte	.LVL29
 3257 0258 14000000 		.4byte	.LFE16
 3258 025c 0100     		.2byte	0x1
 3259 025e 50       		.byte	0x50
 3260 025f 00000000 		.4byte	0
 3261 0263 00000000 		.4byte	0
 3262              	.LVUS15:
 3263 0267 00       		.uleb128 0
 3264 0268 00       		.uleb128 .LVU163
 3265 0269 00       		.uleb128 .LVU163
 3266 026a 00       		.uleb128 0
 3267              	.LLST15:
 3268 026b 00000000 		.4byte	.LVL25
 3269 026f 0B000000 		.4byte	.LVL26-1
 3270 0273 0100     		.2byte	0x1
 3271 0275 50       		.byte	0x50
 3272 0276 0B000000 		.4byte	.LVL26-1
 3273 027a 18000000 		.4byte	.LFE15
 3274 027e 0400     		.2byte	0x4
 3275 0280 F3       		.byte	0xf3
 3276 0281 01       		.uleb128 0x1
 3277 0282 50       		.byte	0x50
 3278 0283 9F       		.byte	0x9f
 3279 0284 00000000 		.4byte	0
 3280 0288 00000000 		.4byte	0
 3281              	.LVUS16:
 3282 028c 00       		.uleb128 0
 3283 028d 00       		.uleb128 .LVU163
 3284 028e 00       		.uleb128 .LVU163
 3285 028f 00       		.uleb128 0
 3286              	.LLST16:
 3287 0290 00000000 		.4byte	.LVL25
 3288 0294 0B000000 		.4byte	.LVL26-1
 3289 0298 0100     		.2byte	0x1
 3290 029a 51       		.byte	0x51
 3291 029b 0B000000 		.4byte	.LVL26-1
 3292 029f 18000000 		.4byte	.LFE15
 3293 02a3 0400     		.2byte	0x4
 3294 02a5 F3       		.byte	0xf3
 3295 02a6 01       		.uleb128 0x1
 3296 02a7 51       		.byte	0x51
 3297 02a8 9F       		.byte	0x9f
 3298 02a9 00000000 		.4byte	0
 3299 02ad 00000000 		.4byte	0
 3300              	.LVUS13:
 3301 02b1 00       		.uleb128 0
 3302 02b2 00       		.uleb128 .LVU151
 3303 02b3 00       		.uleb128 .LVU151
 3304 02b4 00       		.uleb128 0
 3305              	.LLST13:
 3306 02b5 00000000 		.4byte	.LVL22
ARM GAS  /var/folders/l5/0x54b2c10074c8bt31ycjvl80000gp/T//ccViqEfd.s 			page 59


 3307 02b9 0B000000 		.4byte	.LVL23-1
 3308 02bd 0100     		.2byte	0x1
 3309 02bf 50       		.byte	0x50
 3310 02c0 0B000000 		.4byte	.LVL23-1
 3311 02c4 18000000 		.4byte	.LFE13
 3312 02c8 0400     		.2byte	0x4
 3313 02ca F3       		.byte	0xf3
 3314 02cb 01       		.uleb128 0x1
 3315 02cc 50       		.byte	0x50
 3316 02cd 9F       		.byte	0x9f
 3317 02ce 00000000 		.4byte	0
 3318 02d2 00000000 		.4byte	0
 3319              	.LVUS14:
 3320 02d6 00       		.uleb128 0
 3321 02d7 00       		.uleb128 .LVU151
 3322 02d8 00       		.uleb128 .LVU151
 3323 02d9 00       		.uleb128 0
 3324              	.LLST14:
 3325 02da 00000000 		.4byte	.LVL22
 3326 02de 0B000000 		.4byte	.LVL23-1
 3327 02e2 0100     		.2byte	0x1
 3328 02e4 51       		.byte	0x51
 3329 02e5 0B000000 		.4byte	.LVL23-1
 3330 02e9 18000000 		.4byte	.LFE13
 3331 02ed 0400     		.2byte	0x4
 3332 02ef F3       		.byte	0xf3
 3333 02f0 01       		.uleb128 0x1
 3334 02f1 51       		.byte	0x51
 3335 02f2 9F       		.byte	0x9f
 3336 02f3 00000000 		.4byte	0
 3337 02f7 00000000 		.4byte	0
 3338              	.LVUS4:
 3339 02fb 00       		.uleb128 0
 3340 02fc 00       		.uleb128 .LVU92
 3341 02fd 00       		.uleb128 .LVU92
 3342 02fe 00       		.uleb128 0
 3343              	.LLST4:
 3344 02ff 00000000 		.4byte	.LVL10
 3345 0303 10000000 		.4byte	.LVL11
 3346 0307 0100     		.2byte	0x1
 3347 0309 50       		.byte	0x50
 3348 030a 10000000 		.4byte	.LVL11
 3349 030e 1C000000 		.4byte	.LFE12
 3350 0312 0100     		.2byte	0x1
 3351 0314 53       		.byte	0x53
 3352 0315 00000000 		.4byte	0
 3353 0319 00000000 		.4byte	0
 3354              	.LVUS5:
 3355 031d 00       		.uleb128 .LVU92
 3356 031e 00       		.uleb128 0
 3357              	.LLST5:
 3358 031f 10000000 		.4byte	.LVL11
 3359 0323 1C000000 		.4byte	.LFE12
 3360 0327 0100     		.2byte	0x1
 3361 0329 50       		.byte	0x50
 3362 032a 00000000 		.4byte	0
 3363 032e 00000000 		.4byte	0
ARM GAS  /var/folders/l5/0x54b2c10074c8bt31ycjvl80000gp/T//ccViqEfd.s 			page 60


 3364              	.LVUS10:
 3365 0332 00       		.uleb128 0
 3366 0333 00       		.uleb128 .LVU134
 3367 0334 00       		.uleb128 .LVU134
 3368 0335 00       		.uleb128 0
 3369              	.LLST10:
 3370 0336 00000000 		.4byte	.LVL17
 3371 033a 18000000 		.4byte	.LVL19
 3372 033e 0100     		.2byte	0x1
 3373 0340 50       		.byte	0x50
 3374 0341 18000000 		.4byte	.LVL19
 3375 0345 40000000 		.4byte	.LFE11
 3376 0349 0100     		.2byte	0x1
 3377 034b 55       		.byte	0x55
 3378 034c 00000000 		.4byte	0
 3379 0350 00000000 		.4byte	0
 3380              	.LVUS11:
 3381 0354 00       		.uleb128 0
 3382 0355 00       		.uleb128 .LVU134
 3383 0356 00       		.uleb128 .LVU134
 3384 0357 00       		.uleb128 0
 3385              	.LLST11:
 3386 0358 00000000 		.4byte	.LVL17
 3387 035c 18000000 		.4byte	.LVL19
 3388 0360 0100     		.2byte	0x1
 3389 0362 51       		.byte	0x51
 3390 0363 18000000 		.4byte	.LVL19
 3391 0367 40000000 		.4byte	.LFE11
 3392 036b 0100     		.2byte	0x1
 3393 036d 56       		.byte	0x56
 3394 036e 00000000 		.4byte	0
 3395 0372 00000000 		.4byte	0
 3396              	.LVUS12:
 3397 0376 00       		.uleb128 .LVU132
 3398 0377 00       		.uleb128 0
 3399              	.LLST12:
 3400 0378 08000000 		.4byte	.LVL18
 3401 037c 40000000 		.4byte	.LFE11
 3402 0380 0100     		.2byte	0x1
 3403 0382 54       		.byte	0x54
 3404 0383 00000000 		.4byte	0
 3405 0387 00000000 		.4byte	0
 3406              	.LVUS3:
 3407 038b 00       		.uleb128 0
 3408 038c 00       		.uleb128 .LVU76
 3409 038d 00       		.uleb128 .LVU76
 3410 038e 00       		.uleb128 .LVU77
 3411 038f 00       		.uleb128 .LVU77
 3412 0390 00       		.uleb128 0
 3413              	.LLST3:
 3414 0391 00000000 		.4byte	.LVL7
 3415 0395 14000000 		.4byte	.LVL8
 3416 0399 0100     		.2byte	0x1
 3417 039b 50       		.byte	0x50
 3418 039c 14000000 		.4byte	.LVL8
 3419 03a0 18000000 		.4byte	.LVL9
 3420 03a4 0400     		.2byte	0x4
ARM GAS  /var/folders/l5/0x54b2c10074c8bt31ycjvl80000gp/T//ccViqEfd.s 			page 61


 3421 03a6 F3       		.byte	0xf3
 3422 03a7 01       		.uleb128 0x1
 3423 03a8 50       		.byte	0x50
 3424 03a9 9F       		.byte	0x9f
 3425 03aa 18000000 		.4byte	.LVL9
 3426 03ae 24000000 		.4byte	.LFE10
 3427 03b2 0100     		.2byte	0x1
 3428 03b4 50       		.byte	0x50
 3429 03b5 00000000 		.4byte	0
 3430 03b9 00000000 		.4byte	0
 3431              	.LVUS1:
 3432 03bd 00       		.uleb128 0
 3433 03be 00       		.uleb128 .LVU68
 3434 03bf 00       		.uleb128 .LVU68
 3435 03c0 00       		.uleb128 0
 3436              	.LLST1:
 3437 03c1 00000000 		.4byte	.LVL4
 3438 03c5 20000000 		.4byte	.LVL6
 3439 03c9 0100     		.2byte	0x1
 3440 03cb 50       		.byte	0x50
 3441 03cc 20000000 		.4byte	.LVL6
 3442 03d0 28000000 		.4byte	.LFE9
 3443 03d4 0400     		.2byte	0x4
 3444 03d6 F3       		.byte	0xf3
 3445 03d7 01       		.uleb128 0x1
 3446 03d8 50       		.byte	0x50
 3447 03d9 9F       		.byte	0x9f
 3448 03da 00000000 		.4byte	0
 3449 03de 00000000 		.4byte	0
 3450              	.LVUS2:
 3451 03e2 00       		.uleb128 .LVU61
 3452 03e3 00       		.uleb128 .LVU68
 3453 03e4 00       		.uleb128 .LVU68
 3454 03e5 00       		.uleb128 0
 3455              	.LLST2:
 3456 03e6 10000000 		.4byte	.LVL5
 3457 03ea 20000000 		.4byte	.LVL6
 3458 03ee 0600     		.2byte	0x6
 3459 03f0 73       		.byte	0x73
 3460 03f1 00       		.sleb128 0
 3461 03f2 70       		.byte	0x70
 3462 03f3 00       		.sleb128 0
 3463 03f4 1A       		.byte	0x1a
 3464 03f5 9F       		.byte	0x9f
 3465 03f6 20000000 		.4byte	.LVL6
 3466 03fa 28000000 		.4byte	.LFE9
 3467 03fe 0100     		.2byte	0x1
 3468 0400 50       		.byte	0x50
 3469 0401 00000000 		.4byte	0
 3470 0405 00000000 		.4byte	0
 3471              	.LVUS0:
 3472 0409 05       		.uleb128 .LVU31
 3473 040a 00       		.uleb128 .LVU37
 3474 040b 00       		.uleb128 .LVU37
 3475 040c 00       		.uleb128 .LVU38
 3476 040d 01       		.uleb128 .LVU39
 3477 040e 00       		.uleb128 0
ARM GAS  /var/folders/l5/0x54b2c10074c8bt31ycjvl80000gp/T//ccViqEfd.s 			page 62


 3478              	.LLST0:
 3479 040f 00000000 		.4byte	.LVL1
 3480 0413 0C000000 		.4byte	.LVL2
 3481 0417 0100     		.2byte	0x1
 3482 0419 50       		.byte	0x50
 3483 041a 0C000000 		.4byte	.LVL2
 3484 041e 18000000 		.4byte	.LVL3
 3485 0422 0100     		.2byte	0x1
 3486 0424 52       		.byte	0x52
 3487 0425 18000000 		.4byte	.LVL3
 3488 0429 3C000000 		.4byte	.LFE8
 3489 042d 0100     		.2byte	0x1
 3490 042f 52       		.byte	0x52
 3491 0430 00000000 		.4byte	0
 3492 0434 00000000 		.4byte	0
 3493              	.LVUS6:
 3494 0438 00       		.uleb128 0
 3495 0439 00       		.uleb128 .LVU119
 3496 043a 00       		.uleb128 .LVU119
 3497 043b 00       		.uleb128 .LVU121
 3498 043c 00       		.uleb128 .LVU121
 3499 043d 00       		.uleb128 0
 3500              	.LLST6:
 3501 043e 00000000 		.4byte	.LVL12
 3502 0442 33000000 		.4byte	.LVL15-1
 3503 0446 0100     		.2byte	0x1
 3504 0448 50       		.byte	0x50
 3505 0449 33000000 		.4byte	.LVL15-1
 3506 044d 40000000 		.4byte	.LVL16
 3507 0451 0400     		.2byte	0x4
 3508 0453 F3       		.byte	0xf3
 3509 0454 01       		.uleb128 0x1
 3510 0455 50       		.byte	0x50
 3511 0456 9F       		.byte	0x9f
 3512 0457 40000000 		.4byte	.LVL16
 3513 045b 50000000 		.4byte	.LFE14
 3514 045f 0100     		.2byte	0x1
 3515 0461 50       		.byte	0x50
 3516 0462 00000000 		.4byte	0
 3517 0466 00000000 		.4byte	0
 3518              	.LVUS7:
 3519 046a 00       		.uleb128 0
 3520 046b 00       		.uleb128 .LVU108
 3521 046c 00       		.uleb128 .LVU108
 3522 046d 00       		.uleb128 0
 3523              	.LLST7:
 3524 046e 00000000 		.4byte	.LVL12
 3525 0472 0C000000 		.4byte	.LVL13
 3526 0476 0100     		.2byte	0x1
 3527 0478 51       		.byte	0x51
 3528 0479 0C000000 		.4byte	.LVL13
 3529 047d 50000000 		.4byte	.LFE14
 3530 0481 0400     		.2byte	0x4
 3531 0483 F3       		.byte	0xf3
 3532 0484 01       		.uleb128 0x1
 3533 0485 51       		.byte	0x51
 3534 0486 9F       		.byte	0x9f
ARM GAS  /var/folders/l5/0x54b2c10074c8bt31ycjvl80000gp/T//ccViqEfd.s 			page 63


 3535 0487 00000000 		.4byte	0
 3536 048b 00000000 		.4byte	0
 3537              	.LVUS8:
 3538 048f 01       		.uleb128 .LVU116
 3539 0490 00       		.uleb128 .LVU121
 3540              	.LLST8:
 3541 0491 2C000000 		.4byte	.LVL14
 3542 0495 40000000 		.4byte	.LVL16
 3543 0499 0400     		.2byte	0x4
 3544 049b F3       		.byte	0xf3
 3545 049c 01       		.uleb128 0x1
 3546 049d 51       		.byte	0x51
 3547 049e 9F       		.byte	0x9f
 3548 049f 00000000 		.4byte	0
 3549 04a3 00000000 		.4byte	0
 3550              	.LVUS9:
 3551 04a7 00       		.uleb128 .LVU115
 3552 04a8 00       		.uleb128 .LVU119
 3553 04a9 00       		.uleb128 .LVU119
 3554 04aa 00       		.uleb128 .LVU121
 3555              	.LLST9:
 3556 04ab 2C000000 		.4byte	.LVL14
 3557 04af 33000000 		.4byte	.LVL15-1
 3558 04b3 0100     		.2byte	0x1
 3559 04b5 50       		.byte	0x50
 3560 04b6 33000000 		.4byte	.LVL15-1
 3561 04ba 40000000 		.4byte	.LVL16
 3562 04be 0400     		.2byte	0x4
 3563 04c0 F3       		.byte	0xf3
 3564 04c1 01       		.uleb128 0x1
 3565 04c2 50       		.byte	0x50
 3566 04c3 9F       		.byte	0x9f
 3567 04c4 00000000 		.4byte	0
 3568 04c8 00000000 		.4byte	0
 3569              		.section	.debug_aranges,"",%progbits
 3570 0000 84000000 		.4byte	0x84
 3571 0004 0200     		.2byte	0x2
 3572 0006 00000000 		.4byte	.Ldebug_info0
 3573 000a 04       		.byte	0x4
 3574 000b 00       		.byte	0
 3575 000c 0000     		.2byte	0
 3576 000e 0000     		.2byte	0
 3577 0010 00000000 		.4byte	.LFB7
 3578 0014 38000000 		.4byte	.LFE7-.LFB7
 3579 0018 00000000 		.4byte	.LFB8
 3580 001c 3C000000 		.4byte	.LFE8-.LFB8
 3581 0020 00000000 		.4byte	.LFB9
 3582 0024 28000000 		.4byte	.LFE9-.LFB9
 3583 0028 00000000 		.4byte	.LFB10
 3584 002c 24000000 		.4byte	.LFE10-.LFB10
 3585 0030 00000000 		.4byte	.LFB12
 3586 0034 1C000000 		.4byte	.LFE12-.LFB12
 3587 0038 00000000 		.4byte	.LFB14
 3588 003c 50000000 		.4byte	.LFE14-.LFB14
 3589 0040 00000000 		.4byte	.LFB11
 3590 0044 40000000 		.4byte	.LFE11-.LFB11
 3591 0048 00000000 		.4byte	.LFB13
ARM GAS  /var/folders/l5/0x54b2c10074c8bt31ycjvl80000gp/T//ccViqEfd.s 			page 64


 3592 004c 18000000 		.4byte	.LFE13-.LFB13
 3593 0050 00000000 		.4byte	.LFB15
 3594 0054 18000000 		.4byte	.LFE15-.LFB15
 3595 0058 00000000 		.4byte	.LFB16
 3596 005c 14000000 		.4byte	.LFE16-.LFB16
 3597 0060 00000000 		.4byte	.LFB17
 3598 0064 54000000 		.4byte	.LFE17-.LFB17
 3599 0068 00000000 		.4byte	.LFB18
 3600 006c 54000000 		.4byte	.LFE18-.LFB18
 3601 0070 00000000 		.4byte	.LFB19
 3602 0074 50000000 		.4byte	.LFE19-.LFB19
 3603 0078 00000000 		.4byte	.LFB20
 3604 007c 48000000 		.4byte	.LFE20-.LFB20
 3605 0080 00000000 		.4byte	0
 3606 0084 00000000 		.4byte	0
 3607              		.section	.debug_ranges,"",%progbits
 3608              	.Ldebug_ranges0:
 3609 0000 2C000000 		.4byte	.LBB4
 3610 0004 2C000000 		.4byte	.LBE4
 3611 0008 30000000 		.4byte	.LBB7
 3612 000c 3C000000 		.4byte	.LBE7
 3613 0010 00000000 		.4byte	0
 3614 0014 00000000 		.4byte	0
 3615 0018 00000000 		.4byte	.LFB7
 3616 001c 38000000 		.4byte	.LFE7
 3617 0020 00000000 		.4byte	.LFB8
 3618 0024 3C000000 		.4byte	.LFE8
 3619 0028 00000000 		.4byte	.LFB9
 3620 002c 28000000 		.4byte	.LFE9
 3621 0030 00000000 		.4byte	.LFB10
 3622 0034 24000000 		.4byte	.LFE10
 3623 0038 00000000 		.4byte	.LFB12
 3624 003c 1C000000 		.4byte	.LFE12
 3625 0040 00000000 		.4byte	.LFB14
 3626 0044 50000000 		.4byte	.LFE14
 3627 0048 00000000 		.4byte	.LFB11
 3628 004c 40000000 		.4byte	.LFE11
 3629 0050 00000000 		.4byte	.LFB13
 3630 0054 18000000 		.4byte	.LFE13
 3631 0058 00000000 		.4byte	.LFB15
 3632 005c 18000000 		.4byte	.LFE15
 3633 0060 00000000 		.4byte	.LFB16
 3634 0064 14000000 		.4byte	.LFE16
 3635 0068 00000000 		.4byte	.LFB17
 3636 006c 54000000 		.4byte	.LFE17
 3637 0070 00000000 		.4byte	.LFB18
 3638 0074 54000000 		.4byte	.LFE18
 3639 0078 00000000 		.4byte	.LFB19
 3640 007c 50000000 		.4byte	.LFE19
 3641 0080 00000000 		.4byte	.LFB20
 3642 0084 48000000 		.4byte	.LFE20
 3643 0088 00000000 		.4byte	0
 3644 008c 00000000 		.4byte	0
 3645              		.section	.debug_line,"",%progbits
 3646              	.Ldebug_line0:
 3647 0000 F8050000 		.section	.debug_str,"MS",%progbits,1
 3647      03009001 
ARM GAS  /var/folders/l5/0x54b2c10074c8bt31ycjvl80000gp/T//ccViqEfd.s 			page 65


 3647      00000201 
 3647      FB0E0D00 
 3647      01010101 
 3648              	.LASF70:
 3649 0000 7264796D 		.ascii	"rdymsg\000"
 3649      736700
 3650              	.LASF6:
 3651 0007 5F5F7569 		.ascii	"__uint8_t\000"
 3651      6E74385F 
 3651      7400
 3652              	.LASF56:
 3653 0011 76746C69 		.ascii	"vtlist\000"
 3653      737400
 3654              	.LASF84:
 3655 0018 63684576 		.ascii	"chEvtSignal\000"
 3655      74536967 
 3655      6E616C00 
 3656              	.LASF10:
 3657 0024 6C6F6E67 		.ascii	"long long unsigned int\000"
 3657      206C6F6E 
 3657      6720756E 
 3657      7369676E 
 3657      65642069 
 3658              	.LASF87:
 3659 003b 63684576 		.ascii	"chEvtAddEvents\000"
 3659      74416464 
 3659      4576656E 
 3659      747300
 3660              	.LASF71:
 3661 004a 65786974 		.ascii	"exitcode\000"
 3661      636F6465 
 3661      00
 3662              	.LASF27:
 3663 0053 705F7072 		.ascii	"p_prio\000"
 3663      696F00
 3664              	.LASF9:
 3665 005a 6C6F6E67 		.ascii	"long long int\000"
 3665      206C6F6E 
 3665      6720696E 
 3665      7400
 3666              	.LASF2:
 3667 0068 7369676E 		.ascii	"signed char\000"
 3667      65642063 
 3667      68617200 
 3668              	.LASF59:
 3669 0074 6D5F7175 		.ascii	"m_queue\000"
 3669      65756500 
 3670              	.LASF17:
 3671 007c 74736C69 		.ascii	"tslices_t\000"
 3671      6365735F 
 3671      7400
 3672              	.LASF0:
 3673 0086 6C6F6E67 		.ascii	"long int\000"
 3673      20696E74 
 3673      00
 3674              	.LASF16:
 3675 008f 74737461 		.ascii	"tstate_t\000"
ARM GAS  /var/folders/l5/0x54b2c10074c8bt31ycjvl80000gp/T//ccViqEfd.s 			page 66


 3675      74655F74 
 3675      00
 3676              	.LASF96:
 3677 0098 2F557365 		.ascii	"/Users/fernandoguirado/eclipse-workspace/ChibiOS-RP"
 3677      72732F66 
 3677      65726E61 
 3677      6E646F67 
 3677      75697261 
 3678 00cb 692D6D61 		.ascii	"i-master/testhal/BCM2835/GPIO\000"
 3678      73746572 
 3678      2F746573 
 3678      7468616C 
 3678      2F42434D 
 3679              	.LASF76:
 3680 00e9 63684576 		.ascii	"chEvtWaitAny\000"
 3680      74576169 
 3680      74416E79 
 3680      00
 3681              	.LASF86:
 3682 00f6 63684576 		.ascii	"chEvtBroadcastFlagsI\000"
 3682      7442726F 
 3682      61646361 
 3682      7374466C 
 3682      61677349 
 3683              	.LASF74:
 3684 010b 5F69646C 		.ascii	"_idle_thread_wa\000"
 3684      655F7468 
 3684      72656164 
 3684      5F776100 
 3685              	.LASF92:
 3686 011b 63685363 		.ascii	"chSchRescheduleS\000"
 3686      68526573 
 3686      63686564 
 3686      756C6553 
 3686      00
 3687              	.LASF8:
 3688 012c 5F5F7569 		.ascii	"__uint32_t\000"
 3688      6E743332 
 3688      5F7400
 3689              	.LASF77:
 3690 0137 6D61736B 		.ascii	"mask\000"
 3690      00
 3691              	.LASF39:
 3692 013c 72656761 		.ascii	"regarm_t\000"
 3692      726D5F74 
 3692      00
 3693              	.LASF45:
 3694 0145 76745F70 		.ascii	"vt_prev\000"
 3694      72657600 
 3695              	.LASF83:
 3696 014d 63684576 		.ascii	"chEvtBroadcastFlags\000"
 3696      7442726F 
 3696      61646361 
 3696      7374466C 
 3696      61677300 
 3697              	.LASF94:
 3698 0161 474E5520 		.ascii	"GNU C17 8.3.1 20190703 (release) [gcc-8-branch revi"
ARM GAS  /var/folders/l5/0x54b2c10074c8bt31ycjvl80000gp/T//ccViqEfd.s 			page 67


 3698      43313720 
 3698      382E332E 
 3698      31203230 
 3698      31393037 
 3699 0194 73696F6E 		.ascii	"sion 273027] -mcpu=arm1176jz-s -mabi=apcs-gnu -mno-"
 3699      20323733 
 3699      3032375D 
 3699      202D6D63 
 3699      70753D61 
 3700 01c7 7468756D 		.ascii	"thumb-interwork -mfloat-abi=soft -marm -march=armv6"
 3700      622D696E 
 3700      74657277 
 3700      6F726B20 
 3700      2D6D666C 
 3701 01fa 6B7A202D 		.ascii	"kz -ggdb -O2 -fomit-frame-pointer -ffunction-sectio"
 3701      67676462 
 3701      202D4F32 
 3701      202D666F 
 3701      6D69742D 
 3702 022d 6E73202D 		.ascii	"ns -fdata-sections\000"
 3702      66646174 
 3702      612D7365 
 3702      6374696F 
 3702      6E7300
 3703              	.LASF20:
 3704 0240 6576656E 		.ascii	"eventid_t\000"
 3704      7469645F 
 3704      7400
 3705              	.LASF67:
 3706 024a 4576656E 		.ascii	"EventSource\000"
 3706      74536F75 
 3706      72636500 
 3707              	.LASF69:
 3708 0256 65766861 		.ascii	"evhandler_t\000"
 3708      6E646C65 
 3708      725F7400 
 3709              	.LASF14:
 3710 0262 756E7369 		.ascii	"unsigned int\000"
 3710      676E6564 
 3710      20696E74 
 3710      00
 3711              	.LASF44:
 3712 026f 76745F6E 		.ascii	"vt_next\000"
 3712      65787400 
 3713              	.LASF1:
 3714 0277 6C6F6E67 		.ascii	"long unsigned int\000"
 3714      20756E73 
 3714      69676E65 
 3714      6420696E 
 3714      7400
 3715              	.LASF88:
 3716 0289 63684576 		.ascii	"chEvtGetAndClearEvents\000"
 3716      74476574 
 3716      416E6443 
 3716      6C656172 
 3716      4576656E 
 3717              	.LASF95:
ARM GAS  /var/folders/l5/0x54b2c10074c8bt31ycjvl80000gp/T//ccViqEfd.s 			page 68


 3718 02a0 2E2E2F2E 		.ascii	"../../../os/kernel/src/chevents.c\000"
 3718      2E2F2E2E 
 3718      2F6F732F 
 3718      6B65726E 
 3718      656C2F73 
 3719              	.LASF42:
 3720 02c2 76746675 		.ascii	"vtfunc_t\000"
 3720      6E635F74 
 3720      00
 3721              	.LASF5:
 3722 02cb 73686F72 		.ascii	"short unsigned int\000"
 3722      7420756E 
 3722      7369676E 
 3722      65642069 
 3722      6E7400
 3723              	.LASF90:
 3724 02de 63684576 		.ascii	"chEvtRegisterMask\000"
 3724      74526567 
 3724      69737465 
 3724      724D6173 
 3724      6B00
 3725              	.LASF19:
 3726 02f0 6D73675F 		.ascii	"msg_t\000"
 3726      7400
 3727              	.LASF63:
 3728 02f6 656C5F6E 		.ascii	"el_next\000"
 3728      65787400 
 3729              	.LASF89:
 3730 02fe 63684576 		.ascii	"chEvtUnregister\000"
 3730      74556E72 
 3730      65676973 
 3730      74657200 
 3731              	.LASF15:
 3732 030e 746D6F64 		.ascii	"tmode_t\000"
 3732      655F7400 
 3733              	.LASF37:
 3734 0316 54687265 		.ascii	"ThreadsList\000"
 3734      6164734C 
 3734      69737400 
 3735              	.LASF21:
 3736 0322 6576656E 		.ascii	"eventmask_t\000"
 3736      746D6173 
 3736      6B5F7400 
 3737              	.LASF58:
 3738 032e 4D757465 		.ascii	"Mutex\000"
 3738      7800
 3739              	.LASF38:
 3740 0334 73746B61 		.ascii	"stkalign_t\000"
 3740      6C69676E 
 3740      5F7400
 3741              	.LASF46:
 3742 033f 76745F74 		.ascii	"vt_time\000"
 3742      696D6500 
 3743              	.LASF47:
 3744 0347 76745F66 		.ascii	"vt_func\000"
 3744      756E6300 
 3745              	.LASF82:
ARM GAS  /var/folders/l5/0x54b2c10074c8bt31ycjvl80000gp/T//ccViqEfd.s 			page 69


 3746 034f 63684576 		.ascii	"chEvtDispatch\000"
 3746      74446973 
 3746      70617463 
 3746      6800
 3747              	.LASF50:
 3748 035d 56544C69 		.ascii	"VTList\000"
 3748      737400
 3749              	.LASF53:
 3750 0364 725F6374 		.ascii	"r_ctx\000"
 3750      7800
 3751              	.LASF36:
 3752 036a 54687265 		.ascii	"ThreadsQueue\000"
 3752      61647351 
 3752      75657565 
 3752      00
 3753              	.LASF75:
 3754 0377 63684576 		.ascii	"chEvtWaitAll\000"
 3754      74576169 
 3754      74416C6C 
 3754      00
 3755              	.LASF54:
 3756 0384 725F6375 		.ascii	"r_current\000"
 3756      7272656E 
 3756      7400
 3757              	.LASF65:
 3758 038e 656C5F6D 		.ascii	"el_mask\000"
 3758      61736B00 
 3759              	.LASF79:
 3760 0396 68616E64 		.ascii	"handlers\000"
 3760      6C657273 
 3760      00
 3761              	.LASF26:
 3762 039f 705F7072 		.ascii	"p_prev\000"
 3762      657600
 3763              	.LASF18:
 3764 03a6 74707269 		.ascii	"tprio_t\000"
 3764      6F5F7400 
 3765              	.LASF12:
 3766 03ae 696E7433 		.ascii	"int32_t\000"
 3766      325F7400 
 3767              	.LASF3:
 3768 03b6 756E7369 		.ascii	"unsigned char\000"
 3768      676E6564 
 3768      20636861 
 3768      7200
 3769              	.LASF78:
 3770 03c4 63684576 		.ascii	"chEvtWaitOne\000"
 3770      74576169 
 3770      744F6E65 
 3770      00
 3771              	.LASF64:
 3772 03d1 656C5F6C 		.ascii	"el_listener\000"
 3772      69737465 
 3772      6E657200 
 3773              	.LASF66:
 3774 03dd 656C5F66 		.ascii	"el_flags\000"
 3774      6C616773 
ARM GAS  /var/folders/l5/0x54b2c10074c8bt31ycjvl80000gp/T//ccViqEfd.s 			page 70


 3774      00
 3775              	.LASF34:
 3776 03e6 705F6D74 		.ascii	"p_mtxlist\000"
 3776      786C6973 
 3776      7400
 3777              	.LASF4:
 3778 03f0 73686F72 		.ascii	"short int\000"
 3778      7420696E 
 3778      7400
 3779              	.LASF29:
 3780 03fa 705F7374 		.ascii	"p_state\000"
 3780      61746500 
 3781              	.LASF31:
 3782 0402 705F7072 		.ascii	"p_preempt\000"
 3782      65656D70 
 3782      7400
 3783              	.LASF52:
 3784 040c 725F7072 		.ascii	"r_prio\000"
 3784      696F00
 3785              	.LASF80:
 3786 0413 63684576 		.ascii	"chEvtGetAndClearFlagsI\000"
 3786      74476574 
 3786      416E6443 
 3786      6C656172 
 3786      466C6167 
 3787              	.LASF73:
 3788 042a 65776D61 		.ascii	"ewmask\000"
 3788      736B00
 3789              	.LASF25:
 3790 0431 705F6E65 		.ascii	"p_next\000"
 3790      787400
 3791              	.LASF30:
 3792 0438 705F666C 		.ascii	"p_flags\000"
 3792      61677300 
 3793              	.LASF24:
 3794 0440 54687265 		.ascii	"Thread\000"
 3794      616400
 3795              	.LASF91:
 3796 0447 63685363 		.ascii	"chSchGoSleepS\000"
 3796      68476F53 
 3796      6C656570 
 3796      5300
 3797              	.LASF33:
 3798 0455 705F6570 		.ascii	"p_epending\000"
 3798      656E6469 
 3798      6E6700
 3799              	.LASF13:
 3800 0460 75696E74 		.ascii	"uint32_t\000"
 3800      33325F74 
 3800      00
 3801              	.LASF51:
 3802 0469 725F7175 		.ascii	"r_queue\000"
 3802      65756500 
 3803              	.LASF43:
 3804 0471 56697274 		.ascii	"VirtualTimer\000"
 3804      75616C54 
 3804      696D6572 
ARM GAS  /var/folders/l5/0x54b2c10074c8bt31ycjvl80000gp/T//ccViqEfd.s 			page 71


 3804      00
 3805              	.LASF93:
 3806 047e 63685363 		.ascii	"chSchReadyI\000"
 3806      68526561 
 3806      64794900 
 3807              	.LASF61:
 3808 048a 6D5F6E65 		.ascii	"m_next\000"
 3808      787400
 3809              	.LASF23:
 3810 0491 73797374 		.ascii	"systime_t\000"
 3810      696D655F 
 3810      7400
 3811              	.LASF35:
 3812 049b 705F7265 		.ascii	"p_realprio\000"
 3812      616C7072 
 3812      696F00
 3813              	.LASF7:
 3814 04a6 5F5F696E 		.ascii	"__int32_t\000"
 3814      7433325F 
 3814      7400
 3815              	.LASF41:
 3816 04b0 636F6E74 		.ascii	"context\000"
 3816      65787400 
 3817              	.LASF40:
 3818 04b8 696E7463 		.ascii	"intctx\000"
 3818      747800
 3819              	.LASF48:
 3820 04bf 76745F70 		.ascii	"vt_par\000"
 3820      617200
 3821              	.LASF22:
 3822 04c6 666C6167 		.ascii	"flagsmask_t\000"
 3822      736D6173 
 3822      6B5F7400 
 3823              	.LASF68:
 3824 04d2 65735F6E 		.ascii	"es_next\000"
 3824      65787400 
 3825              	.LASF55:
 3826 04da 52656164 		.ascii	"ReadyList\000"
 3826      794C6973 
 3826      7400
 3827              	.LASF57:
 3828 04e4 726C6973 		.ascii	"rlist\000"
 3828      7400
 3829              	.LASF11:
 3830 04ea 75696E74 		.ascii	"uint8_t\000"
 3830      385F7400 
 3831              	.LASF81:
 3832 04f2 666C6167 		.ascii	"flags\000"
 3832      7300
 3833              	.LASF62:
 3834 04f8 4576656E 		.ascii	"EventListener\000"
 3834      744C6973 
 3834      74656E65 
 3834      7200
 3835              	.LASF72:
 3836 0506 77746F62 		.ascii	"wtobjp\000"
 3836      6A7000
ARM GAS  /var/folders/l5/0x54b2c10074c8bt31ycjvl80000gp/T//ccViqEfd.s 			page 72


 3837              	.LASF49:
 3838 050d 76745F73 		.ascii	"vt_systime\000"
 3838      79737469 
 3838      6D6500
 3839              	.LASF85:
 3840 0518 63684576 		.ascii	"chEvtGetAndClearFlags\000"
 3840      74476574 
 3840      416E6443 
 3840      6C656172 
 3840      466C6167 
 3841              	.LASF60:
 3842 052e 6D5F6F77 		.ascii	"m_owner\000"
 3842      6E657200 
 3843              	.LASF28:
 3844 0536 705F6374 		.ascii	"p_ctx\000"
 3844      7800
 3845              	.LASF32:
 3846 053c 705F7761 		.ascii	"p_waiting\000"
 3846      6974696E 
 3846      6700
 3847              	.LASF97:
 3848 0546 63684576 		.ascii	"chEvtSignalI\000"
 3848      74536967 
 3848      6E616C49 
 3848      00
 3849              		.ident	"GCC: (GNU Tools for Arm Embedded Processors 8-2019-q3-update) 8.3.1 20190703 (release) [gc
ARM GAS  /var/folders/l5/0x54b2c10074c8bt31ycjvl80000gp/T//ccViqEfd.s 			page 73


DEFINED SYMBOLS
                            *ABS*:0000000000000000 chevents.c
/var/folders/l5/0x54b2c10074c8bt31ycjvl80000gp/T//ccViqEfd.s:6      .text.chEvtRegisterMask:0000000000000000 $a
/var/folders/l5/0x54b2c10074c8bt31ycjvl80000gp/T//ccViqEfd.s:13     .text.chEvtRegisterMask:0000000000000000 chEvtRegisterMask
/var/folders/l5/0x54b2c10074c8bt31ycjvl80000gp/T//ccViqEfd.s:74     .text.chEvtRegisterMask:0000000000000034 $d
/var/folders/l5/0x54b2c10074c8bt31ycjvl80000gp/T//ccViqEfd.s:79     .text.chEvtUnregister:0000000000000000 $a
/var/folders/l5/0x54b2c10074c8bt31ycjvl80000gp/T//ccViqEfd.s:85     .text.chEvtUnregister:0000000000000000 chEvtUnregister
/var/folders/l5/0x54b2c10074c8bt31ycjvl80000gp/T//ccViqEfd.s:158    .text.chEvtGetAndClearEvents:0000000000000000 $a
/var/folders/l5/0x54b2c10074c8bt31ycjvl80000gp/T//ccViqEfd.s:164    .text.chEvtGetAndClearEvents:0000000000000000 chEvtGetAndClearEvents
/var/folders/l5/0x54b2c10074c8bt31ycjvl80000gp/T//ccViqEfd.s:211    .text.chEvtGetAndClearEvents:0000000000000024 $d
/var/folders/l5/0x54b2c10074c8bt31ycjvl80000gp/T//ccViqEfd.s:216    .text.chEvtAddEvents:0000000000000000 $a
/var/folders/l5/0x54b2c10074c8bt31ycjvl80000gp/T//ccViqEfd.s:222    .text.chEvtAddEvents:0000000000000000 chEvtAddEvents
/var/folders/l5/0x54b2c10074c8bt31ycjvl80000gp/T//ccViqEfd.s:265    .text.chEvtAddEvents:0000000000000020 $d
/var/folders/l5/0x54b2c10074c8bt31ycjvl80000gp/T//ccViqEfd.s:270    .text.chEvtGetAndClearFlags:0000000000000000 $a
/var/folders/l5/0x54b2c10074c8bt31ycjvl80000gp/T//ccViqEfd.s:276    .text.chEvtGetAndClearFlags:0000000000000000 chEvtGetAndClearFlags
/var/folders/l5/0x54b2c10074c8bt31ycjvl80000gp/T//ccViqEfd.s:322    .text.chEvtSignalI:0000000000000000 $a
/var/folders/l5/0x54b2c10074c8bt31ycjvl80000gp/T//ccViqEfd.s:328    .text.chEvtSignalI:0000000000000000 chEvtSignalI
/var/folders/l5/0x54b2c10074c8bt31ycjvl80000gp/T//ccViqEfd.s:401    .text.chEvtBroadcastFlagsI:0000000000000000 $a
/var/folders/l5/0x54b2c10074c8bt31ycjvl80000gp/T//ccViqEfd.s:407    .text.chEvtBroadcastFlagsI:0000000000000000 chEvtBroadcastFlagsI
/var/folders/l5/0x54b2c10074c8bt31ycjvl80000gp/T//ccViqEfd.s:462    .text.chEvtSignal:0000000000000000 $a
/var/folders/l5/0x54b2c10074c8bt31ycjvl80000gp/T//ccViqEfd.s:468    .text.chEvtSignal:0000000000000000 chEvtSignal
/var/folders/l5/0x54b2c10074c8bt31ycjvl80000gp/T//ccViqEfd.s:512    .text.chEvtBroadcastFlags:0000000000000000 $a
/var/folders/l5/0x54b2c10074c8bt31ycjvl80000gp/T//ccViqEfd.s:518    .text.chEvtBroadcastFlags:0000000000000000 chEvtBroadcastFlags
/var/folders/l5/0x54b2c10074c8bt31ycjvl80000gp/T//ccViqEfd.s:560    .text.chEvtGetAndClearFlagsI:0000000000000000 $a
/var/folders/l5/0x54b2c10074c8bt31ycjvl80000gp/T//ccViqEfd.s:566    .text.chEvtGetAndClearFlagsI:0000000000000000 chEvtGetAndClearFlagsI
/var/folders/l5/0x54b2c10074c8bt31ycjvl80000gp/T//ccViqEfd.s:593    .text.chEvtDispatch:0000000000000000 $a
/var/folders/l5/0x54b2c10074c8bt31ycjvl80000gp/T//ccViqEfd.s:599    .text.chEvtDispatch:0000000000000000 chEvtDispatch
/var/folders/l5/0x54b2c10074c8bt31ycjvl80000gp/T//ccViqEfd.s:676    .text.chEvtWaitOne:0000000000000000 $a
/var/folders/l5/0x54b2c10074c8bt31ycjvl80000gp/T//ccViqEfd.s:682    .text.chEvtWaitOne:0000000000000000 chEvtWaitOne
/var/folders/l5/0x54b2c10074c8bt31ycjvl80000gp/T//ccViqEfd.s:769    .text.chEvtWaitOne:0000000000000050 $d
/var/folders/l5/0x54b2c10074c8bt31ycjvl80000gp/T//ccViqEfd.s:774    .text.chEvtWaitAny:0000000000000000 $a
/var/folders/l5/0x54b2c10074c8bt31ycjvl80000gp/T//ccViqEfd.s:780    .text.chEvtWaitAny:0000000000000000 chEvtWaitAny
/var/folders/l5/0x54b2c10074c8bt31ycjvl80000gp/T//ccViqEfd.s:862    .text.chEvtWaitAny:000000000000004c $d
/var/folders/l5/0x54b2c10074c8bt31ycjvl80000gp/T//ccViqEfd.s:867    .text.chEvtWaitAll:0000000000000000 $a
/var/folders/l5/0x54b2c10074c8bt31ycjvl80000gp/T//ccViqEfd.s:873    .text.chEvtWaitAll:0000000000000000 chEvtWaitAll
/var/folders/l5/0x54b2c10074c8bt31ycjvl80000gp/T//ccViqEfd.s:940    .text.chEvtWaitAll:0000000000000044 $d

UNDEFINED SYMBOLS
rlist
chSchReadyI
chSchRescheduleS
chSchGoSleepS
