ARM GAS  /var/folders/l5/0x54b2c10074c8bt31ycjvl80000gp/T//ccViqEfd.s 			page 1


   1              		.file	"chevents.c"
   2              		.text
   3              	.Ltext0:
   4              		.cfi_sections	.debug_frame
   5              		.section	.text.chEvtRegisterMask,"ax",%progbits
   6              		.align	2
   7              		.global	chEvtRegisterMask
   8              		.arch armv6kz
   9              		.syntax unified
  10              		.arm
  11              		.fpu softvfp
  12              		.type	chEvtRegisterMask, %function
  13              	chEvtRegisterMask:
  14              	.LVL0:
  15              	.LFB7:
  16              		.file 1 "../../../os/kernel/src/chevents.c"
  17              		.loc 1 78 80 view -0
  18              		.cfi_startproc
  19              		@ args = 0, pretend = 0, frame = 0
  20              		@ frame_needed = 0, uses_anonymous_args = 0
  21              		.loc 1 80 3 view .LVU1
  22              		.loc 1 80 66 view .LVU2
  23              		.loc 1 82 3 view .LVU3
  24              		.loc 1 78 80 is_stmt 0 view .LVU4
  25 0000 04E02DE5 		str	lr, [sp, #-4]!
  26              		.cfi_def_cfa_offset 4
  27              		.cfi_offset 14, -4
  28              		.loc 1 82 3 view .LVU5
  29              		.syntax divided
  30              	@ 82 "../../../os/kernel/src/chevents.c" 1
  31 0004 9FF021E3 		msr     CPSR_c, #0x9F
  32              	@ 0 "" 2
  33              		.loc 1 82 3 is_stmt 1 view .LVU6
  34              		.loc 1 82 14 view .LVU7
  35              		.loc 1 83 3 view .LVU8
  36              		.loc 1 87 20 is_stmt 0 view .LVU9
  37              		.arm
  38              		.syntax unified
  39 0008 0030A0E3 		mov	r3, #0
  40              		.loc 1 85 22 view .LVU10
  41 000c 20C09FE5 		ldr	ip, .L4
  42              		.loc 1 83 20 view .LVU11
  43 0010 00E090E5 		ldr	lr, [r0]
  44              		.loc 1 85 20 view .LVU12
  45 0014 10C09CE5 		ldr	ip, [ip, #16]
  46              		.loc 1 83 20 view .LVU13
  47 0018 00E081E5 		str	lr, [r1]
  48              		.loc 1 84 3 is_stmt 1 view .LVU14
  49              		.loc 1 84 20 is_stmt 0 view .LVU15
  50 001c 001080E5 		str	r1, [r0]
  51              		.loc 1 85 3 is_stmt 1 view .LVU16
  52              		.loc 1 85 20 is_stmt 0 view .LVU17
  53 0020 04C081E5 		str	ip, [r1, #4]
  54              		.loc 1 86 3 is_stmt 1 view .LVU18
  55              		.loc 1 86 20 is_stmt 0 view .LVU19
  56 0024 082081E5 		str	r2, [r1, #8]
  57              		.loc 1 87 3 is_stmt 1 view .LVU20
ARM GAS  /var/folders/l5/0x54b2c10074c8bt31ycjvl80000gp/T//ccViqEfd.s 			page 2


  58              		.loc 1 87 20 is_stmt 0 view .LVU21
  59 0028 0C3081E5 		str	r3, [r1, #12]
  60              		.loc 1 88 3 is_stmt 1 view .LVU22
  61              		.loc 1 88 3 view .LVU23
  62              		.syntax divided
  63              	@ 88 "../../../os/kernel/src/chevents.c" 1
  64 002c 1FF021E3 		msr     CPSR_c, #0x1F
  65              	@ 0 "" 2
  66              		.loc 1 88 16 view .LVU24
  67              		.loc 1 89 1 is_stmt 0 view .LVU25
  68              		.arm
  69              		.syntax unified
  70 0030 04F09DE4 		ldr	pc, [sp], #4
  71              	.L5:
  72              		.align	2
  73              	.L4:
  74 0034 00000000 		.word	rlist
  75              		.cfi_endproc
  76              	.LFE7:
  77              		.size	chEvtRegisterMask, .-chEvtRegisterMask
  78              		.section	.text.chEvtUnregister,"ax",%progbits
  79              		.align	2
  80              		.global	chEvtUnregister
  81              		.syntax unified
  82              		.arm
  83              		.fpu softvfp
  84              		.type	chEvtUnregister, %function
  85              	chEvtUnregister:
  86              	.LVL1:
  87              	.LFB8:
  88              		.loc 1 104 60 is_stmt 1 view -0
  89              		.cfi_startproc
  90              		@ args = 0, pretend = 0, frame = 0
  91              		@ frame_needed = 0, uses_anonymous_args = 0
  92              		@ link register save eliminated.
  93              		.loc 1 105 3 view .LVU27
  94              		.loc 1 107 3 view .LVU28
  95              		.loc 1 107 64 view .LVU29
  96              		.loc 1 109 3 view .LVU30
  97              		.loc 1 110 3 view .LVU31
  98              		.syntax divided
  99              	@ 110 "../../../os/kernel/src/chevents.c" 1
 100 0000 9FF021E3 		msr     CPSR_c, #0x9F
 101              	@ 0 "" 2
 102              		.loc 1 110 3 view .LVU32
 103              		.loc 1 110 14 view .LVU33
 104              		.loc 1 111 3 view .LVU34
 105              		.loc 1 109 5 is_stmt 0 view .LVU35
 106              		.arm
 107              		.syntax unified
 108 0004 0020A0E1 		mov	r2, r0
 109              		.loc 1 111 9 view .LVU36
 110 0008 020000EA 		b	.L7
 111              	.LVL2:
 112              	.L9:
 113              		.loc 1 112 8 view .LVU37
 114 000c 010053E1 		cmp	r3, r1
ARM GAS  /var/folders/l5/0x54b2c10074c8bt31ycjvl80000gp/T//ccViqEfd.s 			page 3


 115 0010 0500000A 		beq	.L11
 116 0014 0320A0E1 		mov	r2, r3
 117              	.LVL3:
 118              	.L7:
 119              		.loc 1 112 5 is_stmt 1 view .LVU38
 120              		.loc 1 111 11 is_stmt 0 view .LVU39
 121 0018 003092E5 		ldr	r3, [r2]
 122              		.loc 1 111 9 view .LVU40
 123 001c 000053E1 		cmp	r3, r0
 124 0020 F9FFFF1A 		bne	.L9
 125              		.loc 1 118 3 is_stmt 1 view .LVU41
 126              		.loc 1 118 3 view .LVU42
 127              		.syntax divided
 128              	@ 118 "../../../os/kernel/src/chevents.c" 1
 129 0024 1FF021E3 		msr     CPSR_c, #0x1F
 130              	@ 0 "" 2
 131              		.loc 1 118 16 view .LVU43
 132              		.loc 1 119 1 is_stmt 0 view .LVU44
 133              		.arm
 134              		.syntax unified
 135 0028 1EFF2FE1 		bx	lr
 136              	.L11:
 137              		.loc 1 113 7 is_stmt 1 view .LVU45
 138              		.loc 1 113 23 is_stmt 0 view .LVU46
 139 002c 003091E5 		ldr	r3, [r1]
 140              		.loc 1 113 18 view .LVU47
 141 0030 003082E5 		str	r3, [r2]
 142              		.loc 1 114 7 is_stmt 1 view .LVU48
 143              		.loc 1 118 3 view .LVU49
 144              		.loc 1 118 3 view .LVU50
 145              		.syntax divided
 146              	@ 118 "../../../os/kernel/src/chevents.c" 1
 147 0034 1FF021E3 		msr     CPSR_c, #0x1F
 148              	@ 0 "" 2
 149              		.loc 1 118 16 view .LVU51
 150              		.loc 1 119 1 is_stmt 0 view .LVU52
 151              		.arm
 152              		.syntax unified
 153 0038 1EFF2FE1 		bx	lr
 154              		.cfi_endproc
 155              	.LFE8:
 156              		.size	chEvtUnregister, .-chEvtUnregister
 157              		.section	.text.chEvtGetAndClearEvents,"ax",%progbits
 158              		.align	2
 159              		.global	chEvtGetAndClearEvents
 160              		.syntax unified
 161              		.arm
 162              		.fpu softvfp
 163              		.type	chEvtGetAndClearEvents, %function
 164              	chEvtGetAndClearEvents:
 165              	.LVL4:
 166              	.LFB9:
 167              		.loc 1 129 54 is_stmt 1 view -0
 168              		.cfi_startproc
 169              		@ args = 0, pretend = 0, frame = 0
 170              		@ frame_needed = 0, uses_anonymous_args = 0
 171              		@ link register save eliminated.
ARM GAS  /var/folders/l5/0x54b2c10074c8bt31ycjvl80000gp/T//ccViqEfd.s 			page 4


 172              		.loc 1 130 3 view .LVU54
 173              		.loc 1 132 3 view .LVU55
 174              		.syntax divided
 175              	@ 132 "../../../os/kernel/src/chevents.c" 1
 176 0000 9FF021E3 		msr     CPSR_c, #0x9F
 177              	@ 0 "" 2
 178              		.loc 1 132 3 view .LVU56
 179              		.loc 1 132 14 view .LVU57
 180              		.loc 1 134 3 view .LVU58
 181              		.loc 1 134 7 is_stmt 0 view .LVU59
 182              		.arm
 183              		.syntax unified
 184 0004 18309FE5 		ldr	r3, .L13
 185 0008 102093E5 		ldr	r2, [r3, #16]
 186              		.loc 1 134 12 view .LVU60
 187 000c 1C3092E5 		ldr	r3, [r2, #28]
 188              	.LVL5:
 189              		.loc 1 135 3 is_stmt 1 view .LVU61
 190              		.loc 1 135 21 is_stmt 0 view .LVU62
 191 0010 0010C3E1 		bic	r1, r3, r0
 192 0014 1C1082E5 		str	r1, [r2, #28]
 193              		.loc 1 137 3 is_stmt 1 view .LVU63
 194              		.loc 1 137 3 view .LVU64
 195              		.syntax divided
 196              	@ 137 "../../../os/kernel/src/chevents.c" 1
 197 0018 1FF021E3 		msr     CPSR_c, #0x1F
 198              	@ 0 "" 2
 199              		.loc 1 137 16 view .LVU65
 200              		.loc 1 138 3 view .LVU66
 201              		.loc 1 139 1 is_stmt 0 view .LVU67
 202              		.arm
 203              		.syntax unified
 204 001c 030000E0 		and	r0, r0, r3
 205              	.LVL6:
 206              		.loc 1 139 1 view .LVU68
 207 0020 1EFF2FE1 		bx	lr
 208              	.L14:
 209              		.align	2
 210              	.L13:
 211 0024 00000000 		.word	rlist
 212              		.cfi_endproc
 213              	.LFE9:
 214              		.size	chEvtGetAndClearEvents, .-chEvtGetAndClearEvents
 215              		.section	.text.chEvtAddEvents,"ax",%progbits
 216              		.align	2
 217              		.global	chEvtAddEvents
 218              		.syntax unified
 219              		.arm
 220              		.fpu softvfp
 221              		.type	chEvtAddEvents, %function
 222              	chEvtAddEvents:
 223              	.LVL7:
 224              	.LFB10:
 225              		.loc 1 150 46 is_stmt 1 view -0
 226              		.cfi_startproc
 227              		@ args = 0, pretend = 0, frame = 0
 228              		@ frame_needed = 0, uses_anonymous_args = 0
ARM GAS  /var/folders/l5/0x54b2c10074c8bt31ycjvl80000gp/T//ccViqEfd.s 			page 5


 229              		@ link register save eliminated.
 230              		.loc 1 152 3 view .LVU70
 231              		.syntax divided
 232              	@ 152 "../../../os/kernel/src/chevents.c" 1
 233 0000 9FF021E3 		msr     CPSR_c, #0x9F
 234              	@ 0 "" 2
 235              		.loc 1 152 3 view .LVU71
 236              		.loc 1 152 14 view .LVU72
 237              		.loc 1 154 3 view .LVU73
 238              		.loc 1 154 11 is_stmt 0 view .LVU74
 239              		.arm
 240              		.syntax unified
 241 0004 14309FE5 		ldr	r3, .L16
 242 0008 103093E5 		ldr	r3, [r3, #16]
 243              		.loc 1 154 29 view .LVU75
 244 000c 1C2093E5 		ldr	r2, [r3, #28]
 245 0010 020080E1 		orr	r0, r0, r2
 246              	.LVL8:
 247              		.loc 1 154 29 view .LVU76
 248 0014 1C0083E5 		str	r0, [r3, #28]
 249              	.LVL9:
 250              		.loc 1 156 3 is_stmt 1 view .LVU77
 251              		.loc 1 156 3 view .LVU78
 252              		.syntax divided
 253              	@ 156 "../../../os/kernel/src/chevents.c" 1
 254 0018 1FF021E3 		msr     CPSR_c, #0x1F
 255              	@ 0 "" 2
 256              		.loc 1 156 16 view .LVU79
 257              		.loc 1 157 3 view .LVU80
 258              		.loc 1 158 1 is_stmt 0 view .LVU81
 259              		.arm
 260              		.syntax unified
 261 001c 1EFF2FE1 		bx	lr
 262              	.L17:
 263              		.align	2
 264              	.L16:
 265 0020 00000000 		.word	rlist
 266              		.cfi_endproc
 267              	.LFE10:
 268              		.size	chEvtAddEvents, .-chEvtAddEvents
 269              		.section	.text.chEvtGetAndClearFlags,"ax",%progbits
 270              		.align	2
 271              		.global	chEvtGetAndClearFlags
 272              		.syntax unified
 273              		.arm
 274              		.fpu softvfp
 275              		.type	chEvtGetAndClearFlags, %function
 276              	chEvtGetAndClearFlags:
 277              	.LVL10:
 278              	.LFB12:
 279              		.loc 1 202 55 is_stmt 1 view -0
 280              		.cfi_startproc
 281              		@ args = 0, pretend = 0, frame = 0
 282              		@ frame_needed = 0, uses_anonymous_args = 0
 283              		@ link register save eliminated.
 284              		.loc 1 203 3 view .LVU83
 285              		.loc 1 205 3 view .LVU84
ARM GAS  /var/folders/l5/0x54b2c10074c8bt31ycjvl80000gp/T//ccViqEfd.s 			page 6


 286              		.loc 1 202 55 is_stmt 0 view .LVU85
 287 0000 0030A0E1 		mov	r3, r0
 288              		.loc 1 205 3 view .LVU86
 289              		.syntax divided
 290              	@ 205 "../../../os/kernel/src/chevents.c" 1
 291 0004 9FF021E3 		msr     CPSR_c, #0x9F
 292              	@ 0 "" 2
 293              		.loc 1 205 3 is_stmt 1 view .LVU87
 294              		.loc 1 205 14 view .LVU88
 295              		.loc 1 207 3 view .LVU89
 296              		.loc 1 208 17 is_stmt 0 view .LVU90
 297              		.arm
 298              		.syntax unified
 299 0008 0020A0E3 		mov	r2, #0
 300              		.loc 1 207 9 view .LVU91
 301 000c 0C0090E5 		ldr	r0, [r0, #12]
 302              	.LVL11:
 303              		.loc 1 208 3 is_stmt 1 view .LVU92
 304              		.loc 1 208 17 is_stmt 0 view .LVU93
 305 0010 0C2083E5 		str	r2, [r3, #12]
 306              		.loc 1 210 3 is_stmt 1 view .LVU94
 307              		.loc 1 210 3 view .LVU95
 308              		.syntax divided
 309              	@ 210 "../../../os/kernel/src/chevents.c" 1
 310 0014 1FF021E3 		msr     CPSR_c, #0x1F
 311              	@ 0 "" 2
 312              		.loc 1 210 16 view .LVU96
 313              		.loc 1 211 3 view .LVU97
 314              		.loc 1 212 1 is_stmt 0 view .LVU98
 315              		.arm
 316              		.syntax unified
 317 0018 1EFF2FE1 		bx	lr
 318              		.cfi_endproc
 319              	.LFE12:
 320              		.size	chEvtGetAndClearFlags, .-chEvtGetAndClearFlags
 321              		.section	.text.chEvtSignalI,"ax",%progbits
 322              		.align	2
 323              		.global	chEvtSignalI
 324              		.syntax unified
 325              		.arm
 326              		.fpu softvfp
 327              		.type	chEvtSignalI, %function
 328              	chEvtSignalI:
 329              	.LVL12:
 330              	.LFB14:
 331              		.loc 1 244 49 is_stmt 1 view -0
 332              		.cfi_startproc
 333              		@ args = 0, pretend = 0, frame = 0
 334              		@ frame_needed = 0, uses_anonymous_args = 0
 335              		.loc 1 246 3 view .LVU100
 336              		.loc 1 246 21 view .LVU101
 337              		.loc 1 247 3 view .LVU102
 338              		.loc 1 247 41 view .LVU103
 339              		.loc 1 249 3 view .LVU104
 340              		.loc 1 249 18 is_stmt 0 view .LVU105
 341 0000 1C3090E5 		ldr	r3, [r0, #28]
 342              		.loc 1 251 11 view .LVU106
ARM GAS  /var/folders/l5/0x54b2c10074c8bt31ycjvl80000gp/T//ccViqEfd.s 			page 7


 343 0004 1020D0E5 		ldrb	r2, [r0, #16]	@ zero_extendqisi2
 344              		.loc 1 249 18 view .LVU107
 345 0008 031081E1 		orr	r1, r1, r3
 346              	.LVL13:
 347              		.loc 1 251 6 view .LVU108
 348 000c 080052E3 		cmp	r2, #8
 349              		.loc 1 249 18 view .LVU109
 350 0010 1C1080E5 		str	r1, [r0, #28]
 351              		.loc 1 251 3 is_stmt 1 view .LVU110
 352              		.loc 1 251 6 is_stmt 0 view .LVU111
 353 0014 0900000A 		beq	.L27
 354              		.loc 1 252 50 view .LVU112
 355 0018 090052E3 		cmp	r2, #9
 356 001c 1EFF2F11 		bxne	lr
 357              		.loc 1 254 34 view .LVU113
 358 0020 143090E5 		ldr	r3, [r0, #20]
 359              		.loc 1 253 44 view .LVU114
 360 0024 0130D3E1 		bics	r3, r3, r1
 361 0028 1EFF2F11 		bxne	lr
 362              	.L21:
 363              	.LVL14:
 364              	.LBB4:
 365              	.LBI4:
 366              		.loc 1 244 6 is_stmt 1 view .LVU115
 367              	.LBB5:
 368              		.loc 1 255 5 view .LVU116
 369              	.LBE5:
 370              	.LBE4:
 371              		.loc 1 244 49 is_stmt 0 view .LVU117
 372 002c 04E02DE5 		str	lr, [sp, #-4]!
 373              		.cfi_def_cfa_offset 4
 374              		.cfi_offset 14, -4
 375              	.LBB7:
 376              	.LBB6:
 377              		.loc 1 255 5 view .LVU118
 378 0030 FEFFFFEB 		bl	chSchReadyI
 379              	.LVL15:
 380              		.loc 1 255 33 view .LVU119
 381 0034 0030A0E3 		mov	r3, #0
 382 0038 143080E5 		str	r3, [r0, #20]
 383              	.LBE6:
 384              	.LBE7:
 385              		.loc 1 256 1 view .LVU120
 386 003c 04F09DE4 		ldr	pc, [sp], #4
 387              	.LVL16:
 388              	.L27:
 389              		.cfi_def_cfa_offset 0
 390              		.cfi_restore 14
 391              		.loc 1 252 25 discriminator 1 view .LVU121
 392 0040 143090E5 		ldr	r3, [r0, #20]
 393              		.loc 1 251 43 discriminator 1 view .LVU122
 394 0044 030011E1 		tst	r1, r3
 395 0048 1EFF2F01 		bxeq	lr
 396 004c F6FFFFEA 		b	.L21
 397              		.cfi_endproc
 398              	.LFE14:
 399              		.size	chEvtSignalI, .-chEvtSignalI
ARM GAS  /var/folders/l5/0x54b2c10074c8bt31ycjvl80000gp/T//ccViqEfd.s 			page 8


 400              		.section	.text.chEvtBroadcastFlagsI,"ax",%progbits
 401              		.align	2
 402              		.global	chEvtBroadcastFlagsI
 403              		.syntax unified
 404              		.arm
 405              		.fpu softvfp
 406              		.type	chEvtBroadcastFlagsI, %function
 407              	chEvtBroadcastFlagsI:
 408              	.LVL17:
 409              	.LFB11:
 410              		.loc 1 177 64 is_stmt 1 view -0
 411              		.cfi_startproc
 412              		@ args = 0, pretend = 0, frame = 0
 413              		@ frame_needed = 0, uses_anonymous_args = 0
 414              		.loc 1 178 3 view .LVU124
 415              		.loc 1 180 3 view .LVU125
 416              		.loc 1 180 21 view .LVU126
 417              		.loc 1 181 3 view .LVU127
 418              		.loc 1 181 49 view .LVU128
 419              		.loc 1 183 3 view .LVU129
 420              		.loc 1 177 64 is_stmt 0 view .LVU130
 421 0000 70402DE9 		push	{r4, r5, r6, lr}
 422              		.cfi_def_cfa_offset 16
 423              		.cfi_offset 4, -16
 424              		.cfi_offset 5, -12
 425              		.cfi_offset 6, -8
 426              		.cfi_offset 14, -4
 427              		.loc 1 183 7 view .LVU131
 428 0004 004090E5 		ldr	r4, [r0]
 429              	.LVL18:
 430              		.loc 1 184 3 is_stmt 1 view .LVU132
 431              		.loc 1 184 9 is_stmt 0 view .LVU133
 432 0008 040050E1 		cmp	r0, r4
 433 000c 7080BD08 		popeq	{r4, r5, r6, pc}
 434 0010 0050A0E1 		mov	r5, r0
 435 0014 0160A0E1 		mov	r6, r1
 436              	.LVL19:
 437              	.L30:
 438              		.loc 1 185 5 is_stmt 1 view .LVU134
 439              		.loc 1 185 19 is_stmt 0 view .LVU135
 440 0018 0C3094E5 		ldr	r3, [r4, #12]
 441              		.loc 1 186 5 view .LVU136
 442 001c 081094E5 		ldr	r1, [r4, #8]
 443              		.loc 1 185 19 view .LVU137
 444 0020 063083E1 		orr	r3, r3, r6
 445 0024 0C3084E5 		str	r3, [r4, #12]
 446              		.loc 1 186 5 is_stmt 1 view .LVU138
 447 0028 040094E5 		ldr	r0, [r4, #4]
 448 002c FEFFFFEB 		bl	chEvtSignalI
 449              	.LVL20:
 450              		.loc 1 187 5 view .LVU139
 451              		.loc 1 187 9 is_stmt 0 view .LVU140
 452 0030 004094E5 		ldr	r4, [r4]
 453              	.LVL21:
 454              		.loc 1 184 9 view .LVU141
 455 0034 040055E1 		cmp	r5, r4
 456 0038 F6FFFF1A 		bne	.L30
ARM GAS  /var/folders/l5/0x54b2c10074c8bt31ycjvl80000gp/T//ccViqEfd.s 			page 9


 457 003c 7080BDE8 		pop	{r4, r5, r6, pc}
 458              		.cfi_endproc
 459              	.LFE11:
 460              		.size	chEvtBroadcastFlagsI, .-chEvtBroadcastFlagsI
 461              		.section	.text.chEvtSignal,"ax",%progbits
 462              		.align	2
 463              		.global	chEvtSignal
 464              		.syntax unified
 465              		.arm
 466              		.fpu softvfp
 467              		.type	chEvtSignal, %function
 468              	chEvtSignal:
 469              	.LVL22:
 470              	.LFB13:
 471              		.loc 1 222 48 is_stmt 1 view -0
 472              		.cfi_startproc
 473              		@ args = 0, pretend = 0, frame = 0
 474              		@ frame_needed = 0, uses_anonymous_args = 0
 475              		.loc 1 224 3 view .LVU143
 476              		.loc 1 224 40 view .LVU144
 477              		.loc 1 226 3 view .LVU145
 478              		.loc 1 222 48 is_stmt 0 view .LVU146
 479 0000 04E02DE5 		str	lr, [sp, #-4]!
 480              		.cfi_def_cfa_offset 4
 481              		.cfi_offset 14, -4
 482              		.loc 1 226 3 view .LVU147
 483              		.syntax divided
 484              	@ 226 "../../../os/kernel/src/chevents.c" 1
 485 0004 9FF021E3 		msr     CPSR_c, #0x9F
 486              	@ 0 "" 2
 487              		.loc 1 226 3 is_stmt 1 view .LVU148
 488              		.loc 1 226 14 view .LVU149
 489              		.loc 1 227 3 view .LVU150
 490              		.arm
 491              		.syntax unified
 492 0008 FEFFFFEB 		bl	chEvtSignalI
 493              	.LVL23:
 494              		.loc 1 228 3 view .LVU151
 495 000c FEFFFFEB 		bl	chSchRescheduleS
 496              	.LVL24:
 497              		.loc 1 229 3 view .LVU152
 498              		.loc 1 229 3 view .LVU153
 499              		.syntax divided
 500              	@ 229 "../../../os/kernel/src/chevents.c" 1
 501 0010 1FF021E3 		msr     CPSR_c, #0x1F
 502              	@ 0 "" 2
 503              		.loc 1 229 16 view .LVU154
 504              		.loc 1 230 1 is_stmt 0 view .LVU155
 505              		.arm
 506              		.syntax unified
 507 0014 04F09DE4 		ldr	pc, [sp], #4
 508              		.cfi_endproc
 509              	.LFE13:
 510              		.size	chEvtSignal, .-chEvtSignal
 511              		.section	.text.chEvtBroadcastFlags,"ax",%progbits
 512              		.align	2
 513              		.global	chEvtBroadcastFlags
ARM GAS  /var/folders/l5/0x54b2c10074c8bt31ycjvl80000gp/T//ccViqEfd.s 			page 10


 514              		.syntax unified
 515              		.arm
 516              		.fpu softvfp
 517              		.type	chEvtBroadcastFlags, %function
 518              	chEvtBroadcastFlags:
 519              	.LVL25:
 520              	.LFB15:
 521              		.loc 1 271 63 is_stmt 1 view -0
 522              		.cfi_startproc
 523              		@ args = 0, pretend = 0, frame = 0
 524              		@ frame_needed = 0, uses_anonymous_args = 0
 525              		.loc 1 273 3 view .LVU157
 526              		.loc 1 271 63 is_stmt 0 view .LVU158
 527 0000 04E02DE5 		str	lr, [sp, #-4]!
 528              		.cfi_def_cfa_offset 4
 529              		.cfi_offset 14, -4
 530              		.loc 1 273 3 view .LVU159
 531              		.syntax divided
 532              	@ 273 "../../../os/kernel/src/chevents.c" 1
 533 0004 9FF021E3 		msr     CPSR_c, #0x9F
 534              	@ 0 "" 2
 535              		.loc 1 273 3 is_stmt 1 view .LVU160
 536              		.loc 1 273 14 view .LVU161
 537              		.loc 1 274 3 view .LVU162
 538              		.arm
 539              		.syntax unified
 540 0008 FEFFFFEB 		bl	chEvtBroadcastFlagsI
 541              	.LVL26:
 542              		.loc 1 275 3 view .LVU163
 543 000c FEFFFFEB 		bl	chSchRescheduleS
 544              	.LVL27:
 545              		.loc 1 276 3 view .LVU164
 546              		.loc 1 276 3 view .LVU165
 547              		.syntax divided
 548              	@ 276 "../../../os/kernel/src/chevents.c" 1
 549 0010 1FF021E3 		msr     CPSR_c, #0x1F
 550              	@ 0 "" 2
 551              		.loc 1 276 16 view .LVU166
 552              		.loc 1 277 1 is_stmt 0 view .LVU167
 553              		.arm
 554              		.syntax unified
 555 0014 04F09DE4 		ldr	pc, [sp], #4
 556              		.cfi_endproc
 557              	.LFE15:
 558              		.size	chEvtBroadcastFlags, .-chEvtBroadcastFlags
 559              		.section	.text.chEvtGetAndClearFlagsI,"ax",%progbits
 560              		.align	2
 561              		.global	chEvtGetAndClearFlagsI
 562              		.syntax unified
 563              		.arm
 564              		.fpu softvfp
 565              		.type	chEvtGetAndClearFlagsI, %function
 566              	chEvtGetAndClearFlagsI:
 567              	.LVL28:
 568              	.LFB16:
 569              		.loc 1 290 56 is_stmt 1 view -0
 570              		.cfi_startproc
ARM GAS  /var/folders/l5/0x54b2c10074c8bt31ycjvl80000gp/T//ccViqEfd.s 			page 11


 571              		@ args = 0, pretend = 0, frame = 0
 572              		@ frame_needed = 0, uses_anonymous_args = 0
 573              		@ link register save eliminated.
 574              		.loc 1 291 3 view .LVU169
 575              		.loc 1 293 3 view .LVU170
 576              		.loc 1 290 56 is_stmt 0 view .LVU171
 577 0000 0030A0E1 		mov	r3, r0
 578              		.loc 1 294 17 view .LVU172
 579 0004 0020A0E3 		mov	r2, #0
 580              		.loc 1 293 9 view .LVU173
 581 0008 0C0090E5 		ldr	r0, [r0, #12]
 582              	.LVL29:
 583              		.loc 1 294 3 is_stmt 1 view .LVU174
 584              		.loc 1 294 17 is_stmt 0 view .LVU175
 585 000c 0C2083E5 		str	r2, [r3, #12]
 586              		.loc 1 296 3 is_stmt 1 view .LVU176
 587              		.loc 1 297 1 is_stmt 0 view .LVU177
 588 0010 1EFF2FE1 		bx	lr
 589              		.cfi_endproc
 590              	.LFE16:
 591              		.size	chEvtGetAndClearFlagsI, .-chEvtGetAndClearFlagsI
 592              		.section	.text.chEvtDispatch,"ax",%progbits
 593              		.align	2
 594              		.global	chEvtDispatch
 595              		.syntax unified
 596              		.arm
 597              		.fpu softvfp
 598              		.type	chEvtDispatch, %function
 599              	chEvtDispatch:
 600              	.LVL30:
 601              	.LFB17:
 602              		.loc 1 308 67 is_stmt 1 view -0
 603              		.cfi_startproc
 604              		@ args = 0, pretend = 0, frame = 0
 605              		@ frame_needed = 0, uses_anonymous_args = 0
 606              		.loc 1 309 3 view .LVU179
 607              		.loc 1 311 3 view .LVU180
 608              		.loc 1 311 48 view .LVU181
 609              		.loc 1 313 3 view .LVU182
 610              		.loc 1 314 3 view .LVU183
 611              		.loc 1 308 67 is_stmt 0 view .LVU184
 612 0000 F0402DE9 		push	{r4, r5, r6, r7, lr}
 613              		.cfi_def_cfa_offset 20
 614              		.cfi_offset 4, -20
 615              		.cfi_offset 5, -16
 616              		.cfi_offset 6, -12
 617              		.cfi_offset 7, -8
 618              		.cfi_offset 14, -4
 619              		.loc 1 314 9 view .LVU185
 620 0004 005051E2 		subs	r5, r1, #0
 621 0008 F080BD08 		popeq	{r4, r5, r6, r7, pc}
 622 000c 0070A0E1 		mov	r7, r0
 623              		.loc 1 313 7 view .LVU186
 624 0010 0040A0E3 		mov	r4, #0
 625              		.loc 1 315 16 view .LVU187
 626 0014 0160A0E3 		mov	r6, #1
 627              	.LVL31:
ARM GAS  /var/folders/l5/0x54b2c10074c8bt31ycjvl80000gp/T//ccViqEfd.s 			page 12


 628              	.L41:
 629              		.loc 1 315 5 is_stmt 1 view .LVU188
 630              		.loc 1 316 7 view .LVU189
 631              		.loc 1 318 34 view .LVU190
 632              		.loc 1 319 7 view .LVU191
 633              		.loc 1 322 5 view .LVU192
 634              		.loc 1 315 16 is_stmt 0 view .LVU193
 635 0018 1634A0E1 		lsl	r3, r6, r4
 636              		.loc 1 315 8 view .LVU194
 637 001c 050013E1 		tst	r3, r5
 638 0020 0900000A 		beq	.L40
 639              	.L51:
 640              		.loc 1 319 12 view .LVU195
 641 0024 0350C5E1 		bic	r5, r5, r3
 642              	.LVL32:
 643              		.loc 1 320 7 is_stmt 1 view .LVU196
 644 0028 0400A0E1 		mov	r0, r4
 645 002c 043197E7 		ldr	r3, [r7, r4, lsl #2]
 646 0030 33FF2FE1 		blx	r3
 647              	.LVL33:
 648              		.loc 1 322 5 view .LVU197
 649              		.loc 1 314 9 is_stmt 0 view .LVU198
 650 0034 000055E3 		cmp	r5, #0
 651              		.loc 1 322 8 view .LVU199
 652 0038 014084E2 		add	r4, r4, #1
 653              	.LVL34:
 654              		.loc 1 314 9 view .LVU200
 655 003c F080BD08 		popeq	{r4, r5, r6, r7, pc}
 656              		.loc 1 315 5 is_stmt 1 view .LVU201
 657              		.loc 1 316 7 view .LVU202
 658              		.loc 1 318 34 view .LVU203
 659              		.loc 1 319 7 view .LVU204
 660              		.loc 1 322 5 view .LVU205
 661              		.loc 1 315 16 is_stmt 0 view .LVU206
 662 0040 1634A0E1 		lsl	r3, r6, r4
 663              		.loc 1 315 8 view .LVU207
 664 0044 050013E1 		tst	r3, r5
 665 0048 F5FFFF1A 		bne	.L51
 666              	.L40:
 667              		.loc 1 322 8 view .LVU208
 668 004c 014084E2 		add	r4, r4, #1
 669              	.LVL35:
 670              		.loc 1 322 8 view .LVU209
 671 0050 F0FFFFEA 		b	.L41
 672              		.cfi_endproc
 673              	.LFE17:
 674              		.size	chEvtDispatch, .-chEvtDispatch
 675              		.section	.text.chEvtWaitOne,"ax",%progbits
 676              		.align	2
 677              		.global	chEvtWaitOne
 678              		.syntax unified
 679              		.arm
 680              		.fpu softvfp
 681              		.type	chEvtWaitOne, %function
 682              	chEvtWaitOne:
 683              	.LVL36:
 684              	.LFB18:
ARM GAS  /var/folders/l5/0x54b2c10074c8bt31ycjvl80000gp/T//ccViqEfd.s 			page 13


 685              		.loc 1 343 44 is_stmt 1 view -0
 686              		.cfi_startproc
 687              		@ args = 0, pretend = 0, frame = 0
 688              		@ frame_needed = 0, uses_anonymous_args = 0
 689              		.loc 1 344 3 view .LVU211
 690              		.loc 1 344 11 is_stmt 0 view .LVU212
 691 0000 48309FE5 		ldr	r3, .L56
 692              		.loc 1 343 44 view .LVU213
 693 0004 30402DE9 		push	{r4, r5, lr}
 694              		.cfi_def_cfa_offset 12
 695              		.cfi_offset 4, -12
 696              		.cfi_offset 5, -8
 697              		.cfi_offset 14, -4
 698              		.loc 1 344 11 view .LVU214
 699 0008 105093E5 		ldr	r5, [r3, #16]
 700              	.LVL37:
 701              		.loc 1 345 3 is_stmt 1 view .LVU215
 702              		.loc 1 347 3 view .LVU216
 703              		.syntax divided
 704              	@ 347 "../../../os/kernel/src/chevents.c" 1
 705 000c 9FF021E3 		msr     CPSR_c, #0x9F
 706              	@ 0 "" 2
 707              		.loc 1 347 3 view .LVU217
 708              		.loc 1 347 14 view .LVU218
 709              		.loc 1 349 3 view .LVU219
 710              		.loc 1 349 16 is_stmt 0 view .LVU220
 711              		.arm
 712              		.syntax unified
 713 0010 1C3095E5 		ldr	r3, [r5, #28]
 714              	.LVL38:
 715              		.loc 1 349 6 view .LVU221
 716 0014 004013E0 		ands	r4, r3, r0
 717              	.LVL39:
 718              		.loc 1 349 6 view .LVU222
 719 0018 0500000A 		beq	.L55
 720              	.LVL40:
 721              	.L53:
 722              		.loc 1 354 3 is_stmt 1 view .LVU223
 723              		.loc 1 354 8 is_stmt 0 view .LVU224
 724 001c 000064E2 		rsb	r0, r4, #0
 725              		.loc 1 354 5 view .LVU225
 726 0020 040000E0 		and	r0, r0, r4
 727              	.LVL41:
 728              		.loc 1 355 3 is_stmt 1 view .LVU226
 729              		.loc 1 355 19 is_stmt 0 view .LVU227
 730 0024 0030C3E1 		bic	r3, r3, r0
 731 0028 1C3085E5 		str	r3, [r5, #28]
 732              		.loc 1 357 3 is_stmt 1 view .LVU228
 733              		.loc 1 357 3 view .LVU229
 734              		.syntax divided
 735              	@ 357 "../../../os/kernel/src/chevents.c" 1
 736 002c 1FF021E3 		msr     CPSR_c, #0x1F
 737              	@ 0 "" 2
 738              		.loc 1 357 16 view .LVU230
 739              		.loc 1 358 3 view .LVU231
 740              		.loc 1 359 1 is_stmt 0 view .LVU232
 741              		.arm
ARM GAS  /var/folders/l5/0x54b2c10074c8bt31ycjvl80000gp/T//ccViqEfd.s 			page 14


 742              		.syntax unified
 743 0030 3080BDE8 		pop	{r4, r5, pc}
 744              	.LVL42:
 745              	.L55:
 746              		.loc 1 359 1 view .LVU233
 747 0034 0040A0E1 		mov	r4, r0
 748              	.LVL43:
 749              		.loc 1 350 5 is_stmt 1 view .LVU234
 750              		.loc 1 350 21 is_stmt 0 view .LVU235
 751 0038 140085E5 		str	r0, [r5, #20]
 752              		.loc 1 351 5 is_stmt 1 view .LVU236
 753 003c 0800A0E3 		mov	r0, #8
 754              	.LVL44:
 755              		.loc 1 351 5 is_stmt 0 view .LVU237
 756 0040 FEFFFFEB 		bl	chSchGoSleepS
 757              	.LVL45:
 758              		.loc 1 352 5 is_stmt 1 view .LVU238
 759              		.loc 1 352 12 is_stmt 0 view .LVU239
 760 0044 1C3095E5 		ldr	r3, [r5, #28]
 761              		.loc 1 352 7 view .LVU240
 762 0048 034004E0 		and	r4, r4, r3
 763              	.LVL46:
 764              		.loc 1 352 7 view .LVU241
 765 004c F2FFFFEA 		b	.L53
 766              	.L57:
 767              		.align	2
 768              	.L56:
 769 0050 00000000 		.word	rlist
 770              		.cfi_endproc
 771              	.LFE18:
 772              		.size	chEvtWaitOne, .-chEvtWaitOne
 773              		.section	.text.chEvtWaitAny,"ax",%progbits
 774              		.align	2
 775              		.global	chEvtWaitAny
 776              		.syntax unified
 777              		.arm
 778              		.fpu softvfp
 779              		.type	chEvtWaitAny, %function
 780              	chEvtWaitAny:
 781              	.LVL47:
 782              	.LFB19:
 783              		.loc 1 372 44 is_stmt 1 view -0
 784              		.cfi_startproc
 785              		@ args = 0, pretend = 0, frame = 0
 786              		@ frame_needed = 0, uses_anonymous_args = 0
 787              		.loc 1 373 3 view .LVU243
 788              		.loc 1 373 11 is_stmt 0 view .LVU244
 789 0000 44309FE5 		ldr	r3, .L62
 790              		.loc 1 372 44 view .LVU245
 791 0004 30402DE9 		push	{r4, r5, lr}
 792              		.cfi_def_cfa_offset 12
 793              		.cfi_offset 4, -12
 794              		.cfi_offset 5, -8
 795              		.cfi_offset 14, -4
 796              		.loc 1 373 11 view .LVU246
 797 0008 105093E5 		ldr	r5, [r3, #16]
 798              	.LVL48:
ARM GAS  /var/folders/l5/0x54b2c10074c8bt31ycjvl80000gp/T//ccViqEfd.s 			page 15


 799              		.loc 1 374 3 is_stmt 1 view .LVU247
 800              		.loc 1 376 3 view .LVU248
 801              		.syntax divided
 802              	@ 376 "../../../os/kernel/src/chevents.c" 1
 803 000c 9FF021E3 		msr     CPSR_c, #0x9F
 804              	@ 0 "" 2
 805              		.loc 1 376 3 view .LVU249
 806              		.loc 1 376 14 view .LVU250
 807              		.loc 1 378 3 view .LVU251
 808              		.loc 1 378 16 is_stmt 0 view .LVU252
 809              		.arm
 810              		.syntax unified
 811 0010 1C3095E5 		ldr	r3, [r5, #28]
 812              	.LVL49:
 813              		.loc 1 378 6 view .LVU253
 814 0014 004013E0 		ands	r4, r3, r0
 815              	.LVL50:
 816              		.loc 1 378 6 view .LVU254
 817 0018 0400000A 		beq	.L61
 818              	.LVL51:
 819              	.L59:
 820              		.loc 1 383 3 is_stmt 1 view .LVU255
 821              		.loc 1 383 19 is_stmt 0 view .LVU256
 822 001c 0430C3E1 		bic	r3, r3, r4
 823 0020 1C3085E5 		str	r3, [r5, #28]
 824              		.loc 1 385 3 is_stmt 1 view .LVU257
 825              		.loc 1 385 3 view .LVU258
 826              		.syntax divided
 827              	@ 385 "../../../os/kernel/src/chevents.c" 1
 828 0024 1FF021E3 		msr     CPSR_c, #0x1F
 829              	@ 0 "" 2
 830              		.loc 1 385 16 view .LVU259
 831              		.loc 1 386 3 view .LVU260
 832              		.loc 1 387 1 is_stmt 0 view .LVU261
 833              		.arm
 834              		.syntax unified
 835 0028 0400A0E1 		mov	r0, r4
 836 002c 3080BDE8 		pop	{r4, r5, pc}
 837              	.LVL52:
 838              	.L61:
 839              		.loc 1 387 1 view .LVU262
 840 0030 0040A0E1 		mov	r4, r0
 841              	.LVL53:
 842              		.loc 1 379 5 is_stmt 1 view .LVU263
 843              		.loc 1 379 21 is_stmt 0 view .LVU264
 844 0034 140085E5 		str	r0, [r5, #20]
 845              		.loc 1 380 5 is_stmt 1 view .LVU265
 846 0038 0800A0E3 		mov	r0, #8
 847              	.LVL54:
 848              		.loc 1 380 5 is_stmt 0 view .LVU266
 849 003c FEFFFFEB 		bl	chSchGoSleepS
 850              	.LVL55:
 851              		.loc 1 381 5 is_stmt 1 view .LVU267
 852              		.loc 1 381 12 is_stmt 0 view .LVU268
 853 0040 1C3095E5 		ldr	r3, [r5, #28]
 854              		.loc 1 381 7 view .LVU269
 855 0044 034004E0 		and	r4, r4, r3
ARM GAS  /var/folders/l5/0x54b2c10074c8bt31ycjvl80000gp/T//ccViqEfd.s 			page 16


 856              	.LVL56:
 857              		.loc 1 381 7 view .LVU270
 858 0048 F3FFFFEA 		b	.L59
 859              	.L63:
 860              		.align	2
 861              	.L62:
 862 004c 00000000 		.word	rlist
 863              		.cfi_endproc
 864              	.LFE19:
 865              		.size	chEvtWaitAny, .-chEvtWaitAny
 866              		.section	.text.chEvtWaitAll,"ax",%progbits
 867              		.align	2
 868              		.global	chEvtWaitAll
 869              		.syntax unified
 870              		.arm
 871              		.fpu softvfp
 872              		.type	chEvtWaitAll, %function
 873              	chEvtWaitAll:
 874              	.LVL57:
 875              	.LFB20:
 876              		.loc 1 400 44 is_stmt 1 view -0
 877              		.cfi_startproc
 878              		@ args = 0, pretend = 0, frame = 0
 879              		@ frame_needed = 0, uses_anonymous_args = 0
 880              		.loc 1 401 3 view .LVU272
 881              		.loc 1 401 11 is_stmt 0 view .LVU273
 882 0000 3C309FE5 		ldr	r3, .L67
 883              		.loc 1 400 44 view .LVU274
 884 0004 30402DE9 		push	{r4, r5, lr}
 885              		.cfi_def_cfa_offset 12
 886              		.cfi_offset 4, -12
 887              		.cfi_offset 5, -8
 888              		.cfi_offset 14, -4
 889              		.loc 1 400 44 view .LVU275
 890 0008 0040A0E1 		mov	r4, r0
 891              		.loc 1 401 11 view .LVU276
 892 000c 105093E5 		ldr	r5, [r3, #16]
 893              	.LVL58:
 894              		.loc 1 403 3 is_stmt 1 view .LVU277
 895              		.syntax divided
 896              	@ 403 "../../../os/kernel/src/chevents.c" 1
 897 0010 9FF021E3 		msr     CPSR_c, #0x9F
 898              	@ 0 "" 2
 899              		.loc 1 403 3 view .LVU278
 900              		.loc 1 403 14 view .LVU279
 901              		.loc 1 405 3 view .LVU280
 902              		.loc 1 405 11 is_stmt 0 view .LVU281
 903              		.arm
 904              		.syntax unified
 905 0014 1C3095E5 		ldr	r3, [r5, #28]
 906              		.loc 1 405 6 view .LVU282
 907 0018 0320D0E1 		bics	r2, r0, r3
 908 001c 0300000A 		beq	.L65
 909              		.loc 1 406 5 is_stmt 1 view .LVU283
 910              		.loc 1 406 21 is_stmt 0 view .LVU284
 911 0020 140085E5 		str	r0, [r5, #20]
 912              		.loc 1 407 5 is_stmt 1 view .LVU285
ARM GAS  /var/folders/l5/0x54b2c10074c8bt31ycjvl80000gp/T//ccViqEfd.s 			page 17


 913 0024 0900A0E3 		mov	r0, #9
 914              	.LVL59:
 915              		.loc 1 407 5 is_stmt 0 view .LVU286
 916 0028 FEFFFFEB 		bl	chSchGoSleepS
 917              	.LVL60:
 918 002c 1C3095E5 		ldr	r3, [r5, #28]
 919              	.L65:
 920              		.loc 1 409 3 is_stmt 1 view .LVU287
 921              		.loc 1 409 19 is_stmt 0 view .LVU288
 922 0030 0430C3E1 		bic	r3, r3, r4
 923 0034 1C3085E5 		str	r3, [r5, #28]
 924              		.loc 1 411 3 is_stmt 1 view .LVU289
 925              		.loc 1 411 3 view .LVU290
 926              		.syntax divided
 927              	@ 411 "../../../os/kernel/src/chevents.c" 1
 928 0038 1FF021E3 		msr     CPSR_c, #0x1F
 929              	@ 0 "" 2
 930              		.loc 1 411 16 view .LVU291
 931              		.loc 1 412 3 view .LVU292
 932              		.loc 1 413 1 is_stmt 0 view .LVU293
 933              		.arm
 934              		.syntax unified
 935 003c 0400A0E1 		mov	r0, r4
 936 0040 3080BDE8 		pop	{r4, r5, pc}
 937              	.L68:
 938              		.align	2
 939              	.L67:
 940 0044 00000000 		.word	rlist
 941              		.cfi_endproc
 942              	.LFE20:
 943              		.size	chEvtWaitAll, .-chEvtWaitAll
 944              		.text
 945              	.Letext0:
 946              		.file 2 "/usr/local/Cellar/arm-gcc-bin/8-2019-q3-update/arm-none-eabi/include/machine/_default_typ
 947              		.file 3 "/usr/local/Cellar/arm-gcc-bin/8-2019-q3-update/arm-none-eabi/include/sys/_stdint.h"
 948              		.file 4 "../../../os/ports/GCC/ARM/chtypes.h"
 949              		.file 5 "../../../os/kernel/include/chlists.h"
 950              		.file 6 "../../../os/kernel/include/chthreads.h"
 951              		.file 7 "../../../os/ports/GCC/ARM/chcore.h"
 952              		.file 8 "../../../os/kernel/include/chvt.h"
 953              		.file 9 "../../../os/kernel/include/chschd.h"
 954              		.file 10 "../../../os/kernel/include/chmtx.h"
 955              		.file 11 "../../../os/kernel/include/chevents.h"
 956              		.file 12 "../../../os/kernel/include/ch.h"