ARM GAS  /var/folders/l5/0x54b2c10074c8bt31ycjvl80000gp/T//ccfxZmfD.s 			page 1


   1              		.file	"chmtx.c"
   2              		.text
   3              	.Ltext0:
   4              		.cfi_sections	.debug_frame
   5              		.section	.text.chMtxInit,"ax",%progbits
   6              		.align	2
   7              		.global	chMtxInit
   8              		.arch armv6kz
   9              		.syntax unified
  10              		.arm
  11              		.fpu softvfp
  12              		.type	chMtxInit, %function
  13              	chMtxInit:
  14              	.LVL0:
  15              	.LFB7:
  16              		.file 1 "../../../os/kernel/src/chmtx.c"
  17              		.loc 1 79 27 view -0
  18              		.cfi_startproc
  19              		@ args = 0, pretend = 0, frame = 0
  20              		@ frame_needed = 0, uses_anonymous_args = 0
  21              		@ link register save eliminated.
  22              		.loc 1 81 3 view .LVU1
  23              		.loc 1 81 38 view .LVU2
  24              		.loc 1 83 3 view .LVU3
  25              		.loc 1 84 15 is_stmt 0 view .LVU4
  26 0000 0030A0E3 		mov	r3, #0
  27              		.loc 1 83 3 view .LVU5
  28 0004 040080E5 		str	r0, [r0, #4]
  29 0008 000080E5 		str	r0, [r0]
  30              		.loc 1 83 27 is_stmt 1 view .LVU6
  31              		.loc 1 84 3 view .LVU7
  32              		.loc 1 84 15 is_stmt 0 view .LVU8
  33 000c 083080E5 		str	r3, [r0, #8]
  34              		.loc 1 85 1 view .LVU9
  35 0010 1EFF2FE1 		bx	lr
  36              		.cfi_endproc
  37              	.LFE7:
  38              		.size	chMtxInit, .-chMtxInit
  39              		.section	.text.chMtxLockS,"ax",%progbits
  40              		.align	2
  41              		.global	chMtxLockS
  42              		.syntax unified
  43              		.arm
  44              		.fpu softvfp
  45              		.type	chMtxLockS, %function
  46              	chMtxLockS:
  47              	.LVL1:
  48              	.LFB9:
  49              		.loc 1 114 28 is_stmt 1 view -0
  50              		.cfi_startproc
  51              		@ args = 0, pretend = 0, frame = 0
  52              		@ frame_needed = 0, uses_anonymous_args = 0
  53              		.loc 1 115 3 view .LVU11
  54              		.loc 1 121 9 is_stmt 0 view .LVU12
  55 0000 082090E5 		ldr	r2, [r0, #8]
  56              		.loc 1 115 11 view .LVU13
  57 0004 24319FE5 		ldr	r3, .L26
ARM GAS  /var/folders/l5/0x54b2c10074c8bt31ycjvl80000gp/T//ccfxZmfD.s 			page 2


  58              		.loc 1 121 6 view .LVU14
  59 0008 000052E3 		cmp	r2, #0
  60              		.loc 1 114 28 view .LVU15
  61 000c 30402DE9 		push	{r4, r5, lr}
  62              		.cfi_def_cfa_offset 12
  63              		.cfi_offset 4, -12
  64              		.cfi_offset 5, -8
  65              		.cfi_offset 14, -4
  66              		.loc 1 115 11 view .LVU16
  67 0010 104093E5 		ldr	r4, [r3, #16]
  68              	.LVL2:
  69              		.loc 1 117 3 is_stmt 1 view .LVU17
  70              		.loc 1 117 21 view .LVU18
  71              		.loc 1 118 3 view .LVU19
  72              		.loc 1 118 39 view .LVU20
  73              		.loc 1 121 3 view .LVU21
  74              		.loc 1 121 6 is_stmt 0 view .LVU22
  75 0014 4000000A 		beq	.L21
  76              	.LBB23:
  77              		.loc 1 128 28 view .LVU23
  78 0018 081094E5 		ldr	r1, [r4, #8]
  79              		.loc 1 128 11 view .LVU24
  80 001c 083092E5 		ldr	r3, [r2, #8]
  81 0020 0050A0E1 		mov	r5, r0
  82              	.LVL3:
  83              		.loc 1 128 11 view .LVU25
  84 0024 010053E1 		cmp	r3, r1
  85 0028 0500002A 		bcs	.L7
  86              		.loc 1 130 7 is_stmt 1 view .LVU26
  87              		.loc 1 132 17 is_stmt 0 view .LVU27
  88 002c 1030D2E5 		ldrb	r3, [r2, #16]	@ zero_extendqisi2
  89              		.loc 1 130 18 view .LVU28
  90 0030 081082E5 		str	r1, [r2, #8]
  91              		.loc 1 132 7 is_stmt 1 view .LVU29
  92 0034 000053E3 		cmp	r3, #0
  93 0038 3000000A 		beq	.L6
  94              	.LVL4:
  95              	.L25:
  96              		.loc 1 132 7 is_stmt 0 view .LVU30
  97 003c 040053E3 		cmp	r3, #4
  98 0040 1200000A 		beq	.L22
  99              	.LVL5:
 100              	.L7:
 101              		.loc 1 166 5 is_stmt 1 view .LVU31
 102              	.LBB24:
 103              	.LBI24:
 104              		.file 2 "../../../os/kernel/include/chinline.h"
 105              		.loc 2 34 20 view .LVU32
 106              	.LBB25:
 107              		.loc 2 36 3 view .LVU33
 108              		.loc 2 36 11 is_stmt 0 view .LVU34
 109 0044 0530A0E1 		mov	r3, r5
 110 0048 030000EA 		b	.L13
 111              	.LVL6:
 112              	.L23:
 113              		.loc 2 39 34 view .LVU35
 114 004c 081093E5 		ldr	r1, [r3, #8]
ARM GAS  /var/folders/l5/0x54b2c10074c8bt31ycjvl80000gp/T//ccfxZmfD.s 			page 3


 115 0050 082094E5 		ldr	r2, [r4, #8]
 116 0054 020051E1 		cmp	r1, r2
 117 0058 0200003A 		bcc	.L12
 118              	.L13:
 119              		.loc 2 37 3 is_stmt 1 view .LVU36
 120              		.loc 2 38 5 view .LVU37
 121              		.loc 2 38 8 is_stmt 0 view .LVU38
 122 005c 003093E5 		ldr	r3, [r3]
 123              	.LVL7:
 124              		.loc 2 39 3 view .LVU39
 125 0060 030055E1 		cmp	r5, r3
 126 0064 F8FFFF1A 		bne	.L23
 127              	.L12:
 128              		.loc 2 40 3 is_stmt 1 view .LVU40
 129              		.loc 2 41 18 is_stmt 0 view .LVU41
 130 0068 042093E5 		ldr	r2, [r3, #4]
 131              		.loc 2 40 14 view .LVU42
 132 006c 003084E5 		str	r3, [r4]
 133              		.loc 2 41 3 is_stmt 1 view .LVU43
 134              		.loc 2 41 14 is_stmt 0 view .LVU44
 135 0070 042084E5 		str	r2, [r4, #4]
 136              		.loc 2 42 3 is_stmt 1 view .LVU45
 137              		.loc 2 42 35 is_stmt 0 view .LVU46
 138 0074 044083E5 		str	r4, [r3, #4]
 139              		.loc 2 42 22 view .LVU47
 140 0078 043094E5 		ldr	r3, [r4, #4]
 141              	.LVL8:
 142              		.loc 2 42 22 view .LVU48
 143              	.LBE25:
 144              	.LBE24:
 145              		.loc 1 168 5 view .LVU49
 146 007c 0400A0E3 		mov	r0, #4
 147              	.LBB27:
 148              	.LBB26:
 149              		.loc 2 42 22 view .LVU50
 150 0080 004083E5 		str	r4, [r3]
 151              	.LVL9:
 152              		.loc 2 42 22 view .LVU51
 153              	.LBE26:
 154              	.LBE27:
 155              		.loc 1 167 5 is_stmt 1 view .LVU52
 156              		.loc 1 167 21 is_stmt 0 view .LVU53
 157 0084 145084E5 		str	r5, [r4, #20]
 158              		.loc 1 168 5 is_stmt 1 view .LVU54
 159              	.LBE23:
 160              		.loc 1 180 1 is_stmt 0 view .LVU55
 161 0088 3040BDE8 		pop	{r4, r5, lr}
 162              		.cfi_remember_state
 163              		.cfi_restore 14
 164              		.cfi_restore 5
 165              		.cfi_restore 4
 166              		.cfi_def_cfa_offset 0
 167              	.LVL10:
 168              	.LBB42:
 169              		.loc 1 168 5 view .LVU56
 170 008c FEFFFFEA 		b	chSchGoSleepS
 171              	.LVL11:
ARM GAS  /var/folders/l5/0x54b2c10074c8bt31ycjvl80000gp/T//ccfxZmfD.s 			page 4


 172              	.L22:
 173              		.cfi_restore_state
 174              		.loc 1 135 9 is_stmt 1 view .LVU57
 175              	.LBB28:
 176              	.LBI28:
 177              		.loc 2 66 23 view .LVU58
 178              	.LBB29:
 179              		.loc 2 68 3 view .LVU59
 180              	.LBE29:
 181              	.LBE28:
 182              		.loc 1 135 57 is_stmt 0 view .LVU60
 183 0090 14C092E5 		ldr	ip, [r2, #20]
 184              	.LBB32:
 185              	.LBB30:
 186              		.loc 2 68 5 view .LVU61
 187 0094 04E092E5 		ldr	lr, [r2, #4]
 188              		.loc 2 68 26 view .LVU62
 189 0098 000092E5 		ldr	r0, [r2]
 190              	.LBE30:
 191              	.LBE32:
 192              		.loc 1 135 57 view .LVU63
 193 009c 0C30A0E1 		mov	r3, ip
 194              	.LBB33:
 195              	.LBB31:
 196              		.loc 2 68 22 view .LVU64
 197 00a0 00008EE5 		str	r0, [lr]
 198              		.loc 2 69 3 is_stmt 1 view .LVU65
 199              		.loc 2 69 22 is_stmt 0 view .LVU66
 200 00a4 04E080E5 		str	lr, [r0, #4]
 201              		.loc 2 70 3 is_stmt 1 view .LVU67
 202              	.LVL12:
 203              		.loc 2 70 3 is_stmt 0 view .LVU68
 204              	.LBE31:
 205              	.LBE33:
 206              	.LBB34:
 207              	.LBI34:
 208              		.loc 2 34 20 is_stmt 1 view .LVU69
 209 00a8 020000EA 		b	.L9
 210              	.LVL13:
 211              	.L24:
 212              	.LBB35:
 213              		.loc 2 39 34 is_stmt 0 view .LVU70
 214 00ac 080093E5 		ldr	r0, [r3, #8]
 215 00b0 010050E1 		cmp	r0, r1
 216 00b4 0200003A 		bcc	.L8
 217              	.LVL14:
 218              	.L9:
 219              		.loc 2 37 3 is_stmt 1 view .LVU71
 220              		.loc 2 38 5 view .LVU72
 221              		.loc 2 38 8 is_stmt 0 view .LVU73
 222 00b8 003093E5 		ldr	r3, [r3]
 223              	.LVL15:
 224              		.loc 2 39 3 view .LVU74
 225 00bc 03005CE1 		cmp	ip, r3
 226 00c0 F9FFFF1A 		bne	.L24
 227              	.L8:
 228              		.loc 2 40 3 is_stmt 1 view .LVU75
ARM GAS  /var/folders/l5/0x54b2c10074c8bt31ycjvl80000gp/T//ccfxZmfD.s 			page 5


 229              		.loc 2 41 18 is_stmt 0 view .LVU76
 230 00c4 041093E5 		ldr	r1, [r3, #4]
 231              		.loc 2 40 14 view .LVU77
 232 00c8 003082E5 		str	r3, [r2]
 233              		.loc 2 41 3 is_stmt 1 view .LVU78
 234              		.loc 2 41 14 is_stmt 0 view .LVU79
 235 00cc 041082E5 		str	r1, [r2, #4]
 236              		.loc 2 42 3 is_stmt 1 view .LVU80
 237              		.loc 2 42 35 is_stmt 0 view .LVU81
 238 00d0 042083E5 		str	r2, [r3, #4]
 239              		.loc 2 42 22 view .LVU82
 240 00d4 043092E5 		ldr	r3, [r2, #4]
 241              	.LVL16:
 242              		.loc 2 42 22 view .LVU83
 243              	.LBE35:
 244              	.LBE34:
 245              		.loc 1 128 28 view .LVU84
 246 00d8 081094E5 		ldr	r1, [r4, #8]
 247              	.LBB37:
 248              	.LBB36:
 249              		.loc 2 42 22 view .LVU85
 250 00dc 002083E5 		str	r2, [r3]
 251              	.LVL17:
 252              		.loc 2 42 22 view .LVU86
 253              	.LBE36:
 254              	.LBE37:
 255              		.loc 1 136 9 is_stmt 1 view .LVU87
 256              		.loc 1 136 12 is_stmt 0 view .LVU88
 257 00e0 08209CE5 		ldr	r2, [ip, #8]
 258              	.LVL18:
 259              		.loc 1 137 9 is_stmt 1 view .LVU89
 260              		.loc 1 128 11 is_stmt 0 view .LVU90
 261 00e4 083092E5 		ldr	r3, [r2, #8]
 262 00e8 010053E1 		cmp	r3, r1
 263 00ec D4FFFF2A 		bcs	.L7
 264              		.loc 1 130 7 is_stmt 1 view .LVU91
 265              		.loc 1 132 17 is_stmt 0 view .LVU92
 266 00f0 1030D2E5 		ldrb	r3, [r2, #16]	@ zero_extendqisi2
 267              		.loc 1 130 18 view .LVU93
 268 00f4 081082E5 		str	r1, [r2, #8]
 269              		.loc 1 132 7 is_stmt 1 view .LVU94
 270 00f8 000053E3 		cmp	r3, #0
 271 00fc CEFFFF1A 		bne	.L25
 272              	.L6:
 273              		.loc 1 160 9 view .LVU95
 274              	.LVL19:
 275              	.LBB38:
 276              	.LBI38:
 277              		.loc 2 66 23 view .LVU96
 278              	.LBB39:
 279              		.loc 2 68 3 view .LVU97
 280              		.loc 2 68 5 is_stmt 0 view .LVU98
 281 0100 041092E5 		ldr	r1, [r2, #4]
 282              		.loc 2 68 26 view .LVU99
 283 0104 003092E5 		ldr	r3, [r2]
 284              	.LBE39:
 285              	.LBE38:
ARM GAS  /var/folders/l5/0x54b2c10074c8bt31ycjvl80000gp/T//ccfxZmfD.s 			page 6


 286              		.loc 1 160 9 view .LVU100
 287 0108 0200A0E1 		mov	r0, r2
 288              	.LBB41:
 289              	.LBB40:
 290              		.loc 2 68 22 view .LVU101
 291 010c 003081E5 		str	r3, [r1]
 292              		.loc 2 69 3 is_stmt 1 view .LVU102
 293              		.loc 2 69 22 is_stmt 0 view .LVU103
 294 0110 041083E5 		str	r1, [r3, #4]
 295              		.loc 2 70 3 is_stmt 1 view .LVU104
 296              	.LVL20:
 297              		.loc 2 70 3 is_stmt 0 view .LVU105
 298              	.LBE40:
 299              	.LBE41:
 300              		.loc 1 160 9 view .LVU106
 301 0114 FEFFFFEB 		bl	chSchReadyI
 302              	.LVL21:
 303              		.loc 1 161 9 is_stmt 1 view .LVU107
 304 0118 C9FFFFEA 		b	.L7
 305              	.LVL22:
 306              	.L21:
 307              		.loc 1 161 9 is_stmt 0 view .LVU108
 308              	.LBE42:
 309              		.loc 1 176 5 is_stmt 1 view .LVU109
 310              		.loc 1 177 16 is_stmt 0 view .LVU110
 311 011c 203094E5 		ldr	r3, [r4, #32]
 312              		.loc 1 176 17 view .LVU111
 313 0120 084080E5 		str	r4, [r0, #8]
 314              		.loc 1 177 5 is_stmt 1 view .LVU112
 315              		.loc 1 177 16 is_stmt 0 view .LVU113
 316 0124 0C3080E5 		str	r3, [r0, #12]
 317              		.loc 1 178 5 is_stmt 1 view .LVU114
 318              		.loc 1 178 20 is_stmt 0 view .LVU115
 319 0128 200084E5 		str	r0, [r4, #32]
 320              		.loc 1 180 1 view .LVU116
 321 012c 3080BDE8 		pop	{r4, r5, pc}
 322              	.L27:
 323              		.align	2
 324              	.L26:
 325 0130 00000000 		.word	rlist
 326              		.cfi_endproc
 327              	.LFE9:
 328              		.size	chMtxLockS, .-chMtxLockS
 329              		.section	.text.chMtxLock,"ax",%progbits
 330              		.align	2
 331              		.global	chMtxLock
 332              		.syntax unified
 333              		.arm
 334              		.fpu softvfp
 335              		.type	chMtxLock, %function
 336              	chMtxLock:
 337              	.LVL23:
 338              	.LFB8:
 339              		.loc 1 96 27 is_stmt 1 view -0
 340              		.cfi_startproc
 341              		@ args = 0, pretend = 0, frame = 0
 342              		@ frame_needed = 0, uses_anonymous_args = 0
ARM GAS  /var/folders/l5/0x54b2c10074c8bt31ycjvl80000gp/T//ccfxZmfD.s 			page 7


 343              		.loc 1 98 3 view .LVU118
 344              		.loc 1 96 27 is_stmt 0 view .LVU119
 345 0000 04E02DE5 		str	lr, [sp, #-4]!
 346              		.cfi_def_cfa_offset 4
 347              		.cfi_offset 14, -4
 348              		.loc 1 98 3 view .LVU120
 349              		.syntax divided
 350              	@ 98 "../../../os/kernel/src/chmtx.c" 1
 351 0004 9FF021E3 		msr     CPSR_c, #0x9F
 352              	@ 0 "" 2
 353              		.loc 1 98 3 is_stmt 1 view .LVU121
 354              		.loc 1 98 14 view .LVU122
 355              		.loc 1 100 3 view .LVU123
 356              		.arm
 357              		.syntax unified
 358 0008 FEFFFFEB 		bl	chMtxLockS
 359              	.LVL24:
 360              		.loc 1 102 3 view .LVU124
 361              		.loc 1 102 3 view .LVU125
 362              		.syntax divided
 363              	@ 102 "../../../os/kernel/src/chmtx.c" 1
 364 000c 1FF021E3 		msr     CPSR_c, #0x1F
 365              	@ 0 "" 2
 366              		.loc 1 102 16 view .LVU126
 367              		.loc 1 103 1 is_stmt 0 view .LVU127
 368              		.arm
 369              		.syntax unified
 370 0010 04F09DE4 		ldr	pc, [sp], #4
 371              		.cfi_endproc
 372              	.LFE8:
 373              		.size	chMtxLock, .-chMtxLock
 374              		.section	.text.chMtxTryLock,"ax",%progbits
 375              		.align	2
 376              		.global	chMtxTryLock
 377              		.syntax unified
 378              		.arm
 379              		.fpu softvfp
 380              		.type	chMtxTryLock, %function
 381              	chMtxTryLock:
 382              	.LVL25:
 383              	.LFB10:
 384              		.loc 1 199 32 is_stmt 1 view -0
 385              		.cfi_startproc
 386              		@ args = 0, pretend = 0, frame = 0
 387              		@ frame_needed = 0, uses_anonymous_args = 0
 388              		@ link register save eliminated.
 389              		.loc 1 200 3 view .LVU129
 390              		.loc 1 202 3 view .LVU130
 391              		.loc 1 199 32 is_stmt 0 view .LVU131
 392 0000 0030A0E1 		mov	r3, r0
 393              		.loc 1 202 3 view .LVU132
 394              		.syntax divided
 395              	@ 202 "../../../os/kernel/src/chmtx.c" 1
 396 0004 9FF021E3 		msr     CPSR_c, #0x9F
 397              	@ 0 "" 2
 398              		.loc 1 202 3 is_stmt 1 view .LVU133
 399              		.loc 1 202 14 view .LVU134
ARM GAS  /var/folders/l5/0x54b2c10074c8bt31ycjvl80000gp/T//ccfxZmfD.s 			page 8


 400              		.loc 1 204 3 view .LVU135
 401              	.LVL26:
 402              		.arm
 403              		.syntax unified
 404              	.LBB47:
 405              	.LBI47:
 406              		.loc 1 227 8 view .LVU136
 407              	.LBB48:
 408              		.loc 1 229 3 view .LVU137
 409              		.loc 1 229 21 view .LVU138
 410              		.loc 1 230 3 view .LVU139
 411              		.loc 1 230 42 view .LVU140
 412              		.loc 1 232 3 view .LVU141
 413              		.loc 1 232 6 is_stmt 0 view .LVU142
 414 0008 082090E5 		ldr	r2, [r0, #8]
 415 000c 000052E3 		cmp	r2, #0
 416              	.LVL27:
 417              	.LBB49:
 418              	.LBI49:
 419              		.loc 1 227 8 is_stmt 1 view .LVU143
 420              	.LBB50:
 421              		.loc 1 234 3 view .LVU144
 422              		.loc 1 234 17 is_stmt 0 view .LVU145
 423 0010 20209F05 		ldreq	r2, .L33
 424              		.loc 1 236 20 view .LVU146
 425 0014 0100A003 		moveq	r0, #1
 426              	.LVL28:
 427              		.loc 1 234 17 view .LVU147
 428 0018 10209205 		ldreq	r2, [r2, #16]
 429              	.LBE50:
 430              	.LBE49:
 431              		.loc 1 233 12 view .LVU148
 432 001c 0000A013 		movne	r0, #0
 433              	.LBB52:
 434              	.LBB51:
 435              		.loc 1 235 14 view .LVU149
 436 0020 20109205 		ldreq	r1, [r2, #32]
 437              		.loc 1 234 15 view .LVU150
 438 0024 08208305 		streq	r2, [r3, #8]
 439              		.loc 1 235 3 is_stmt 1 view .LVU151
 440              		.loc 1 235 14 is_stmt 0 view .LVU152
 441 0028 0C108305 		streq	r1, [r3, #12]
 442              		.loc 1 236 3 is_stmt 1 view .LVU153
 443              		.loc 1 236 20 is_stmt 0 view .LVU154
 444 002c 20308205 		streq	r3, [r2, #32]
 445              		.loc 1 237 3 is_stmt 1 view .LVU155
 446              	.LVL29:
 447              		.loc 1 237 3 is_stmt 0 view .LVU156
 448              	.LBE51:
 449              	.LBE52:
 450              	.LBE48:
 451              	.LBE47:
 452              		.loc 1 206 3 is_stmt 1 view .LVU157
 453              		.loc 1 206 3 view .LVU158
 454              		.syntax divided
 455              	@ 206 "../../../os/kernel/src/chmtx.c" 1
 456 0030 1FF021E3 		msr     CPSR_c, #0x1F
ARM GAS  /var/folders/l5/0x54b2c10074c8bt31ycjvl80000gp/T//ccfxZmfD.s 			page 9


 457              	@ 0 "" 2
 458              		.loc 1 206 16 view .LVU159
 459              		.loc 1 207 3 view .LVU160
 460              		.loc 1 208 1 is_stmt 0 view .LVU161
 461              		.arm
 462              		.syntax unified
 463 0034 1EFF2FE1 		bx	lr
 464              	.L34:
 465              		.align	2
 466              	.L33:
 467 0038 00000000 		.word	rlist
 468              		.cfi_endproc
 469              	.LFE10:
 470              		.size	chMtxTryLock, .-chMtxTryLock
 471              		.section	.text.chMtxTryLockS,"ax",%progbits
 472              		.align	2
 473              		.global	chMtxTryLockS
 474              		.syntax unified
 475              		.arm
 476              		.fpu softvfp
 477              		.type	chMtxTryLockS, %function
 478              	chMtxTryLockS:
 479              	.LVL30:
 480              	.LFB11:
 481              		.loc 1 227 33 is_stmt 1 view -0
 482              		.cfi_startproc
 483              		@ args = 0, pretend = 0, frame = 0
 484              		@ frame_needed = 0, uses_anonymous_args = 0
 485              		@ link register save eliminated.
 486              		.loc 1 229 3 view .LVU163
 487              		.loc 1 229 21 view .LVU164
 488              		.loc 1 230 3 view .LVU165
 489              		.loc 1 230 42 view .LVU166
 490              		.loc 1 232 3 view .LVU167
 491              		.loc 1 227 33 is_stmt 0 view .LVU168
 492 0000 0030A0E1 		mov	r3, r0
 493              		.loc 1 232 6 view .LVU169
 494 0004 082090E5 		ldr	r2, [r0, #8]
 495 0008 000052E3 		cmp	r2, #0
 496              	.LVL31:
 497              	.LBB55:
 498              	.LBI55:
 499              		.loc 1 227 8 is_stmt 1 view .LVU170
 500              	.LBB56:
 501              		.loc 1 234 3 view .LVU171
 502              		.loc 1 234 17 is_stmt 0 view .LVU172
 503 000c 1C209F05 		ldreq	r2, .L38
 504              		.loc 1 236 20 view .LVU173
 505 0010 0100A003 		moveq	r0, #1
 506              	.LVL32:
 507              		.loc 1 234 17 view .LVU174
 508 0014 10209205 		ldreq	r2, [r2, #16]
 509              	.LBE56:
 510              	.LBE55:
 511              		.loc 1 233 12 view .LVU175
 512 0018 0000A013 		movne	r0, #0
 513              	.LBB58:
ARM GAS  /var/folders/l5/0x54b2c10074c8bt31ycjvl80000gp/T//ccfxZmfD.s 			page 10


 514              	.LBB57:
 515              		.loc 1 235 14 view .LVU176
 516 001c 20109205 		ldreq	r1, [r2, #32]
 517              		.loc 1 234 15 view .LVU177
 518 0020 08208305 		streq	r2, [r3, #8]
 519              		.loc 1 235 3 is_stmt 1 view .LVU178
 520              		.loc 1 235 14 is_stmt 0 view .LVU179
 521 0024 0C108305 		streq	r1, [r3, #12]
 522              		.loc 1 236 3 is_stmt 1 view .LVU180
 523              		.loc 1 236 20 is_stmt 0 view .LVU181
 524 0028 20308205 		streq	r3, [r2, #32]
 525              		.loc 1 237 3 is_stmt 1 view .LVU182
 526              	.LVL33:
 527              		.loc 1 237 3 is_stmt 0 view .LVU183
 528              	.LBE57:
 529              	.LBE58:
 530              		.loc 1 238 1 view .LVU184
 531 002c 1EFF2FE1 		bx	lr
 532              	.L39:
 533              		.align	2
 534              	.L38:
 535 0030 00000000 		.word	rlist
 536              		.cfi_endproc
 537              	.LFE11:
 538              		.size	chMtxTryLockS, .-chMtxTryLockS
 539              		.section	.text.chMtxUnlock,"ax",%progbits
 540              		.align	2
 541              		.global	chMtxUnlock
 542              		.syntax unified
 543              		.arm
 544              		.fpu softvfp
 545              		.type	chMtxUnlock, %function
 546              	chMtxUnlock:
 547              	.LFB12:
 548              		.loc 1 250 26 is_stmt 1 view -0
 549              		.cfi_startproc
 550              		@ args = 0, pretend = 0, frame = 0
 551              		@ frame_needed = 0, uses_anonymous_args = 0
 552              		.loc 1 251 3 view .LVU186
 553              		.loc 1 251 11 is_stmt 0 view .LVU187
 554 0000 94309FE5 		ldr	r3, .L51
 555              		.loc 1 250 26 view .LVU188
 556 0004 10402DE9 		push	{r4, lr}
 557              		.cfi_def_cfa_offset 8
 558              		.cfi_offset 4, -8
 559              		.cfi_offset 14, -4
 560              		.loc 1 251 11 view .LVU189
 561 0008 100093E5 		ldr	r0, [r3, #16]
 562              	.LVL34:
 563              		.loc 1 252 3 is_stmt 1 view .LVU190
 564              		.loc 1 254 3 view .LVU191
 565              		.syntax divided
 566              	@ 254 "../../../os/kernel/src/chmtx.c" 1
 567 000c 9FF021E3 		msr     CPSR_c, #0x9F
 568              	@ 0 "" 2
 569              		.loc 1 254 3 view .LVU192
 570              		.loc 1 254 14 view .LVU193
ARM GAS  /var/folders/l5/0x54b2c10074c8bt31ycjvl80000gp/T//ccfxZmfD.s 			page 11


 571              		.loc 1 255 3 view .LVU194
 572              		.arm
 573              		.syntax unified
 574 0010 204090E5 		ldr	r4, [r0, #32]
 575              		.loc 1 257 42 view .LVU195
 576              		.loc 1 258 3 view .LVU196
 577              		.loc 1 260 35 view .LVU197
 578              		.loc 1 263 3 view .LVU198
 579              	.LVL35:
 580              		.loc 1 264 3 view .LVU199
 581              		.loc 1 266 7 is_stmt 0 view .LVU200
 582 0014 00C094E5 		ldr	ip, [r4]
 583              		.loc 1 264 23 view .LVU201
 584 0018 0C3094E5 		ldr	r3, [r4, #12]
 585              		.loc 1 266 6 view .LVU202
 586 001c 04005CE1 		cmp	ip, r4
 587              		.loc 1 264 18 view .LVU203
 588 0020 203080E5 		str	r3, [r0, #32]
 589              		.loc 1 266 3 is_stmt 1 view .LVU204
 590              		.loc 1 266 6 is_stmt 0 view .LVU205
 591 0024 1900000A 		beq	.L41
 592              	.LBB59:
 593              		.loc 1 267 5 is_stmt 1 view .LVU206
 594              		.loc 1 271 5 view .LVU207
 595              		.loc 1 273 11 is_stmt 0 view .LVU208
 596 0028 000053E3 		cmp	r3, #0
 597              		.loc 1 271 13 view .LVU209
 598 002c 241090E5 		ldr	r1, [r0, #36]
 599              	.LVL36:
 600              		.loc 1 272 5 is_stmt 1 view .LVU210
 601              		.loc 1 273 5 view .LVU211
 602              		.loc 1 273 11 is_stmt 0 view .LVU212
 603 0030 0800000A 		beq	.L42
 604              	.L44:
 605              		.loc 1 277 7 is_stmt 1 view .LVU213
 606              		.loc 1 277 11 is_stmt 0 view .LVU214
 607 0034 002093E5 		ldr	r2, [r3]
 608              		.loc 1 277 10 view .LVU215
 609 0038 030052E1 		cmp	r2, r3
 610 003c 0200000A 		beq	.L43
 611              		.loc 1 277 10 view .LVU216
 612 0040 082092E5 		ldr	r2, [r2, #8]
 613 0044 020051E1 		cmp	r1, r2
 614 0048 0210A031 		movcc	r1, r2
 615              	.LVL37:
 616              	.L43:
 617              		.loc 1 279 7 is_stmt 1 view .LVU217
 618              		.loc 1 279 10 is_stmt 0 view .LVU218
 619 004c 0C3093E5 		ldr	r3, [r3, #12]
 620              	.LVL38:
 621              		.loc 1 273 11 view .LVU219
 622 0050 000053E3 		cmp	r3, #0
 623 0054 F6FFFF1A 		bne	.L44
 624              	.L42:
 625              		.loc 1 283 5 is_stmt 1 view .LVU220
 626              		.loc 1 288 17 is_stmt 0 view .LVU221
 627 0058 20209CE5 		ldr	r2, [ip, #32]
ARM GAS  /var/folders/l5/0x54b2c10074c8bt31ycjvl80000gp/T//ccfxZmfD.s 			page 12


 628              	.LBB60:
 629              	.LBB61:
 630              		.loc 2 55 20 view .LVU222
 631 005c 00309CE5 		ldr	r3, [ip]
 632              	.LVL39:
 633              		.loc 2 55 20 view .LVU223
 634              	.LBE61:
 635              	.LBE60:
 636              		.loc 1 283 17 view .LVU224
 637 0060 081080E5 		str	r1, [r0, #8]
 638              		.loc 1 286 5 is_stmt 1 view .LVU225
 639              	.LVL40:
 640              	.LBB64:
 641              	.LBI60:
 642              		.loc 2 52 23 view .LVU226
 643              	.LBB62:
 644              		.loc 2 53 3 view .LVU227
 645              		.loc 2 55 3 view .LVU228
 646              		.loc 2 55 16 is_stmt 0 view .LVU229
 647 0064 003084E5 		str	r3, [r4]
 648              	.LBE62:
 649              	.LBE64:
 650              		.loc 1 290 5 view .LVU230
 651 0068 0C00A0E1 		mov	r0, ip
 652              	.LVL41:
 653              	.LBB65:
 654              	.LBB63:
 655              		.loc 2 55 38 view .LVU231
 656 006c 044083E5 		str	r4, [r3, #4]
 657              		.loc 2 56 3 is_stmt 1 view .LVU232
 658              	.LVL42:
 659              		.loc 2 56 3 is_stmt 0 view .LVU233
 660              	.LBE63:
 661              	.LBE65:
 662              		.loc 1 287 5 is_stmt 1 view .LVU234
 663              		.loc 1 290 5 is_stmt 0 view .LVU235
 664 0070 0010A0E3 		mov	r1, #0
 665              	.LVL43:
 666              		.loc 1 287 18 view .LVU236
 667 0074 08C084E5 		str	ip, [r4, #8]
 668              		.loc 1 288 5 is_stmt 1 view .LVU237
 669              		.loc 1 288 17 is_stmt 0 view .LVU238
 670 0078 0C2084E5 		str	r2, [r4, #12]
 671              		.loc 1 289 5 is_stmt 1 view .LVU239
 672              		.loc 1 289 19 is_stmt 0 view .LVU240
 673 007c 20408CE5 		str	r4, [ip, #32]
 674              		.loc 1 290 5 is_stmt 1 view .LVU241
 675 0080 FEFFFFEB 		bl	chSchWakeupS
 676              	.LVL44:
 677              	.L45:
 678              		.loc 1 290 5 is_stmt 0 view .LVU242
 679              	.LBE59:
 680              		.loc 1 294 3 is_stmt 1 view .LVU243
 681              		.loc 1 294 3 view .LVU244
 682              		.syntax divided
 683              	@ 294 "../../../os/kernel/src/chmtx.c" 1
 684 0084 1FF021E3 		msr     CPSR_c, #0x1F
ARM GAS  /var/folders/l5/0x54b2c10074c8bt31ycjvl80000gp/T//ccfxZmfD.s 			page 13


 685              	@ 0 "" 2
 686              		.loc 1 294 16 view .LVU245
 687              		.loc 1 295 3 view .LVU246
 688              		.loc 1 296 1 is_stmt 0 view .LVU247
 689              		.arm
 690              		.syntax unified
 691 0088 0400A0E1 		mov	r0, r4
 692 008c 1080BDE8 		pop	{r4, pc}
 693              	.LVL45:
 694              	.L41:
 695              		.loc 1 293 5 is_stmt 1 view .LVU248
 696              		.loc 1 293 18 is_stmt 0 view .LVU249
 697 0090 0030A0E3 		mov	r3, #0
 698 0094 083084E5 		str	r3, [r4, #8]
 699 0098 F9FFFFEA 		b	.L45
 700              	.L52:
 701              		.align	2
 702              	.L51:
 703 009c 00000000 		.word	rlist
 704              		.cfi_endproc
 705              	.LFE12:
 706              		.size	chMtxUnlock, .-chMtxUnlock
 707              		.section	.text.chMtxUnlockS,"ax",%progbits
 708              		.align	2
 709              		.global	chMtxUnlockS
 710              		.syntax unified
 711              		.arm
 712              		.fpu softvfp
 713              		.type	chMtxUnlockS, %function
 714              	chMtxUnlockS:
 715              	.LFB13:
 716              		.loc 1 310 27 is_stmt 1 view -0
 717              		.cfi_startproc
 718              		@ args = 0, pretend = 0, frame = 0
 719              		@ frame_needed = 0, uses_anonymous_args = 0
 720              		.loc 1 311 3 view .LVU251
 721              		.loc 1 311 11 is_stmt 0 view .LVU252
 722 0000 8C309FE5 		ldr	r3, .L64
 723              		.loc 1 310 27 view .LVU253
 724 0004 10402DE9 		push	{r4, lr}
 725              		.cfi_def_cfa_offset 8
 726              		.cfi_offset 4, -8
 727              		.cfi_offset 14, -4
 728              		.loc 1 311 11 view .LVU254
 729 0008 100093E5 		ldr	r0, [r3, #16]
 730              	.LVL46:
 731              		.loc 1 312 3 is_stmt 1 view .LVU255
 732              		.loc 1 314 3 view .LVU256
 733              		.loc 1 314 21 view .LVU257
 734              		.loc 1 315 3 view .LVU258
 735 000c 204090E5 		ldr	r4, [r0, #32]
 736              		.loc 1 317 42 view .LVU259
 737              		.loc 1 318 3 view .LVU260
 738              		.loc 1 320 35 view .LVU261
 739              		.loc 1 324 3 view .LVU262
 740              	.LVL47:
 741              		.loc 1 325 3 view .LVU263
ARM GAS  /var/folders/l5/0x54b2c10074c8bt31ycjvl80000gp/T//ccfxZmfD.s 			page 14


 742              		.loc 1 327 7 is_stmt 0 view .LVU264
 743 0010 00C094E5 		ldr	ip, [r4]
 744              		.loc 1 325 23 view .LVU265
 745 0014 0C3094E5 		ldr	r3, [r4, #12]
 746              		.loc 1 327 6 view .LVU266
 747 0018 04005CE1 		cmp	ip, r4
 748              		.loc 1 325 18 view .LVU267
 749 001c 203080E5 		str	r3, [r0, #32]
 750              		.loc 1 327 3 is_stmt 1 view .LVU268
 751              		.loc 1 327 6 is_stmt 0 view .LVU269
 752 0020 1700000A 		beq	.L54
 753              	.LBB66:
 754              		.loc 1 328 5 is_stmt 1 view .LVU270
 755              		.loc 1 332 5 view .LVU271
 756              		.loc 1 334 11 is_stmt 0 view .LVU272
 757 0024 000053E3 		cmp	r3, #0
 758              		.loc 1 332 13 view .LVU273
 759 0028 241090E5 		ldr	r1, [r0, #36]
 760              	.LVL48:
 761              		.loc 1 333 5 is_stmt 1 view .LVU274
 762              		.loc 1 334 5 view .LVU275
 763              		.loc 1 334 11 is_stmt 0 view .LVU276
 764 002c 0800000A 		beq	.L55
 765              	.L57:
 766              		.loc 1 338 7 is_stmt 1 view .LVU277
 767              		.loc 1 338 11 is_stmt 0 view .LVU278
 768 0030 002093E5 		ldr	r2, [r3]
 769              		.loc 1 338 10 view .LVU279
 770 0034 030052E1 		cmp	r2, r3
 771 0038 0200000A 		beq	.L56
 772              		.loc 1 338 10 view .LVU280
 773 003c 082092E5 		ldr	r2, [r2, #8]
 774 0040 020051E1 		cmp	r1, r2
 775 0044 0210A031 		movcc	r1, r2
 776              	.LVL49:
 777              	.L56:
 778              		.loc 1 340 7 is_stmt 1 view .LVU281
 779              		.loc 1 340 10 is_stmt 0 view .LVU282
 780 0048 0C3093E5 		ldr	r3, [r3, #12]
 781              	.LVL50:
 782              		.loc 1 334 11 view .LVU283
 783 004c 000053E3 		cmp	r3, #0
 784 0050 F6FFFF1A 		bne	.L57
 785              	.L55:
 786              		.loc 1 342 5 is_stmt 1 view .LVU284
 787              		.loc 1 347 17 is_stmt 0 view .LVU285
 788 0054 20209CE5 		ldr	r2, [ip, #32]
 789              	.LBB67:
 790              	.LBB68:
 791              		.loc 2 55 20 view .LVU286
 792 0058 00309CE5 		ldr	r3, [ip]
 793              	.LVL51:
 794              		.loc 2 55 20 view .LVU287
 795              	.LBE68:
 796              	.LBE67:
 797              		.loc 1 342 17 view .LVU288
 798 005c 081080E5 		str	r1, [r0, #8]
ARM GAS  /var/folders/l5/0x54b2c10074c8bt31ycjvl80000gp/T//ccfxZmfD.s 			page 15


 799              		.loc 1 345 5 is_stmt 1 view .LVU289
 800              	.LVL52:
 801              	.LBB71:
 802              	.LBI67:
 803              		.loc 2 52 23 view .LVU290
 804              	.LBB69:
 805              		.loc 2 53 3 view .LVU291
 806              		.loc 2 55 3 view .LVU292
 807              		.loc 2 55 16 is_stmt 0 view .LVU293
 808 0060 003084E5 		str	r3, [r4]
 809              	.LBE69:
 810              	.LBE71:
 811              		.loc 1 349 5 view .LVU294
 812 0064 0C00A0E1 		mov	r0, ip
 813              	.LVL53:
 814              	.LBB72:
 815              	.LBB70:
 816              		.loc 2 55 38 view .LVU295
 817 0068 044083E5 		str	r4, [r3, #4]
 818              		.loc 2 56 3 is_stmt 1 view .LVU296
 819              	.LVL54:
 820              		.loc 2 56 3 is_stmt 0 view .LVU297
 821              	.LBE70:
 822              	.LBE72:
 823              		.loc 1 346 5 is_stmt 1 view .LVU298
 824              		.loc 1 346 18 is_stmt 0 view .LVU299
 825 006c 08C084E5 		str	ip, [r4, #8]
 826              		.loc 1 347 5 is_stmt 1 view .LVU300
 827              		.loc 1 347 17 is_stmt 0 view .LVU301
 828 0070 0C2084E5 		str	r2, [r4, #12]
 829              		.loc 1 348 5 is_stmt 1 view .LVU302
 830              		.loc 1 348 19 is_stmt 0 view .LVU303
 831 0074 20408CE5 		str	r4, [ip, #32]
 832              		.loc 1 349 5 is_stmt 1 view .LVU304
 833 0078 FEFFFFEB 		bl	chSchReadyI
 834              	.LVL55:
 835              		.loc 1 349 5 is_stmt 0 view .LVU305
 836              	.LBE66:
 837              		.loc 1 354 1 view .LVU306
 838 007c 0400A0E1 		mov	r0, r4
 839 0080 1080BDE8 		pop	{r4, pc}
 840              	.LVL56:
 841              	.L54:
 842              		.loc 1 352 5 is_stmt 1 view .LVU307
 843              		.loc 1 352 18 is_stmt 0 view .LVU308
 844 0084 0030A0E3 		mov	r3, #0
 845              		.loc 1 354 1 view .LVU309
 846 0088 0400A0E1 		mov	r0, r4
 847              	.LVL57:
 848              		.loc 1 352 18 view .LVU310
 849 008c 083084E5 		str	r3, [r4, #8]
 850              		.loc 1 353 3 is_stmt 1 view .LVU311
 851              		.loc 1 354 1 is_stmt 0 view .LVU312
 852 0090 1080BDE8 		pop	{r4, pc}
 853              	.L65:
 854              		.align	2
 855              	.L64:
ARM GAS  /var/folders/l5/0x54b2c10074c8bt31ycjvl80000gp/T//ccfxZmfD.s 			page 16


 856 0094 00000000 		.word	rlist
 857              		.cfi_endproc
 858              	.LFE13:
 859              		.size	chMtxUnlockS, .-chMtxUnlockS
 860              		.section	.text.chMtxUnlockAll,"ax",%progbits
 861              		.align	2
 862              		.global	chMtxUnlockAll
 863              		.syntax unified
 864              		.arm
 865              		.fpu softvfp
 866              		.type	chMtxUnlockAll, %function
 867              	chMtxUnlockAll:
 868              	.LFB14:
 869              		.loc 1 367 27 is_stmt 1 view -0
 870              		.cfi_startproc
 871              		@ args = 0, pretend = 0, frame = 0
 872              		@ frame_needed = 0, uses_anonymous_args = 0
 873              		.loc 1 368 3 view .LVU314
 874              		.loc 1 368 11 is_stmt 0 view .LVU315
 875 0000 78309FE5 		ldr	r3, .L76
 876              		.loc 1 367 27 view .LVU316
 877 0004 30402DE9 		push	{r4, r5, lr}
 878              		.cfi_def_cfa_offset 12
 879              		.cfi_offset 4, -12
 880              		.cfi_offset 5, -8
 881              		.cfi_offset 14, -4
 882              		.loc 1 368 11 view .LVU317
 883 0008 104093E5 		ldr	r4, [r3, #16]
 884              	.LVL58:
 885              		.loc 1 370 3 is_stmt 1 view .LVU318
 886              		.syntax divided
 887              	@ 370 "../../../os/kernel/src/chmtx.c" 1
 888 000c 9FF021E3 		msr     CPSR_c, #0x9F
 889              	@ 0 "" 2
 890              		.loc 1 370 3 view .LVU319
 891              		.loc 1 370 14 view .LVU320
 892              		.loc 1 371 3 view .LVU321
 893              		.loc 1 371 10 is_stmt 0 view .LVU322
 894              		.arm
 895              		.syntax unified
 896 0010 203094E5 		ldr	r3, [r4, #32]
 897              		.loc 1 371 6 view .LVU323
 898 0014 000053E3 		cmp	r3, #0
 899 0018 1600000A 		beq	.L67
 900              	.LBB73:
 901              		.loc 1 383 22 view .LVU324
 902 001c 0050A0E3 		mov	r5, #0
 903              	.L70:
 904              		.loc 1 383 22 view .LVU325
 905              	.LBE73:
 906              		.loc 1 372 5 is_stmt 1 view .LVU326
 907              	.LBB85:
 908              		.loc 1 373 7 view .LVU327
 909              	.LVL59:
 910              		.loc 1 374 7 view .LVU328
 911              	.LBB74:
 912              		.loc 1 376 9 view .LVU329
ARM GAS  /var/folders/l5/0x54b2c10074c8bt31ycjvl80000gp/T//ccfxZmfD.s 			page 17


 913              	.LBB75:
 914              	.LBI75:
 915              		.loc 2 52 23 view .LVU330
 916              	.LBB76:
 917              		.loc 2 53 3 view .LVU331
 918              	.LBE76:
 919              	.LBE75:
 920              	.LBE74:
 921              		.loc 1 383 9 view .LVU332
 922              		.loc 1 375 11 is_stmt 0 view .LVU333
 923 0020 002093E5 		ldr	r2, [r3]
 924              	.LVL60:
 925              	.LBB83:
 926              	.LBB80:
 927              	.LBB77:
 928              		.loc 2 55 3 is_stmt 1 view .LVU334
 929              	.LBE77:
 930              	.LBE80:
 931              	.LBE83:
 932              		.loc 1 374 27 is_stmt 0 view .LVU335
 933 0024 0C1093E5 		ldr	r1, [r3, #12]
 934              		.loc 1 375 10 view .LVU336
 935 0028 030052E1 		cmp	r2, r3
 936              		.loc 1 374 22 view .LVU337
 937 002c 201084E5 		str	r1, [r4, #32]
 938              	.LVL61:
 939              		.loc 1 375 7 is_stmt 1 view .LVU338
 940              		.loc 1 383 22 is_stmt 0 view .LVU339
 941 0030 08508305 		streq	r5, [r3, #8]
 942 0034 0130A001 		moveq	r3, r1
 943              	.LVL62:
 944              		.loc 1 375 10 view .LVU340
 945 0038 0900000A 		beq	.L69
 946              	.LBB84:
 947              		.loc 1 378 21 view .LVU341
 948 003c 20C092E5 		ldr	ip, [r2, #32]
 949              	.LBB81:
 950              	.LBB78:
 951              		.loc 2 55 20 view .LVU342
 952 0040 001092E5 		ldr	r1, [r2]
 953              	.LBE78:
 954              	.LBE81:
 955              		.loc 1 380 9 view .LVU343
 956 0044 0200A0E1 		mov	r0, r2
 957              	.LBB82:
 958              	.LBB79:
 959              		.loc 2 55 16 view .LVU344
 960 0048 001083E5 		str	r1, [r3]
 961              		.loc 2 55 38 view .LVU345
 962 004c 043081E5 		str	r3, [r1, #4]
 963              		.loc 2 56 3 is_stmt 1 view .LVU346
 964              	.LVL63:
 965              		.loc 2 56 3 is_stmt 0 view .LVU347
 966              	.LBE79:
 967              	.LBE82:
 968              		.loc 1 377 9 is_stmt 1 view .LVU348
 969              		.loc 1 377 22 is_stmt 0 view .LVU349
ARM GAS  /var/folders/l5/0x54b2c10074c8bt31ycjvl80000gp/T//ccfxZmfD.s 			page 18


 970 0050 082083E5 		str	r2, [r3, #8]
 971              		.loc 1 378 9 is_stmt 1 view .LVU350
 972              		.loc 1 378 21 is_stmt 0 view .LVU351
 973 0054 0CC083E5 		str	ip, [r3, #12]
 974              		.loc 1 379 9 is_stmt 1 view .LVU352
 975              		.loc 1 379 23 is_stmt 0 view .LVU353
 976 0058 203082E5 		str	r3, [r2, #32]
 977              		.loc 1 380 9 is_stmt 1 view .LVU354
 978 005c FEFFFFEB 		bl	chSchReadyI
 979              	.LVL64:
 980              		.loc 1 380 9 is_stmt 0 view .LVU355
 981 0060 203094E5 		ldr	r3, [r4, #32]
 982              	.L69:
 983              		.loc 1 380 9 view .LVU356
 984              	.LBE84:
 985              	.LBE85:
 986              		.loc 1 384 5 view .LVU357
 987 0064 000053E3 		cmp	r3, #0
 988 0068 ECFFFF1A 		bne	.L70
 989              		.loc 1 385 5 is_stmt 1 view .LVU358
 990              		.loc 1 385 17 is_stmt 0 view .LVU359
 991 006c 243094E5 		ldr	r3, [r4, #36]
 992 0070 083084E5 		str	r3, [r4, #8]
 993              		.loc 1 386 5 is_stmt 1 view .LVU360
 994 0074 FEFFFFEB 		bl	chSchRescheduleS
 995              	.LVL65:
 996              	.L67:
 997              		.loc 1 388 3 view .LVU361
 998              		.loc 1 388 3 view .LVU362
 999              		.syntax divided
 1000              	@ 388 "../../../os/kernel/src/chmtx.c" 1
 1001 0078 1FF021E3 		msr     CPSR_c, #0x1F
 1002              	@ 0 "" 2
 1003              		.loc 1 388 16 view .LVU363
 1004              		.loc 1 389 1 is_stmt 0 view .LVU364
 1005              		.arm
 1006              		.syntax unified
 1007 007c 3080BDE8 		pop	{r4, r5, pc}
 1008              	.L77:
 1009              		.align	2
 1010              	.L76:
 1011 0080 00000000 		.word	rlist
 1012              		.cfi_endproc
 1013              	.LFE14:
 1014              		.size	chMtxUnlockAll, .-chMtxUnlockAll
 1015              		.text
 1016              	.Letext0:
 1017              		.file 3 "/usr/local/Cellar/arm-gcc-bin/8-2019-q3-update/arm-none-eabi/include/machine/_default_typ
 1018              		.file 4 "/usr/local/Cellar/arm-gcc-bin/8-2019-q3-update/arm-none-eabi/include/sys/_stdint.h"
 1019              		.file 5 "../../../os/ports/GCC/ARM/chtypes.h"
 1020              		.file 6 "../../../os/kernel/include/chlists.h"
 1021              		.file 7 "../../../os/kernel/include/chthreads.h"
 1022              		.file 8 "../../../os/ports/GCC/ARM/chcore.h"
 1023              		.file 9 "../../../os/kernel/include/chvt.h"
 1024              		.file 10 "../../../os/kernel/include/chschd.h"
 1025              		.file 11 "../../../os/kernel/include/chmtx.h"
 1026              		.file 12 "../../../os/kernel/include/ch.h"
ARM GAS  /var/folders/l5/0x54b2c10074c8bt31ycjvl80000gp/T//ccfxZmfD.s 			page 19

