ARM GAS  /var/folders/l5/0x54b2c10074c8bt31ycjvl80000gp/T//ccfxZmfD.s 			page 1


   1              		.file	"chmtx.c"
   2              		.text
   3              	.Ltext0:
   4              		.cfi_sections	.debug_frame
   5              		.section	.text.chMtxInit,"ax",%progbits
   6              		.align	2
   7              		.global	chMtxInit
   8              		.arch armv6kz
   9              		.syntax unified
  10              		.arm
  11              		.fpu softvfp
  12              		.type	chMtxInit, %function
  13              	chMtxInit:
  14              	.LVL0:
  15              	.LFB7:
  16              		.file 1 "../../../os/kernel/src/chmtx.c"
  17              		.loc 1 79 27 view -0
  18              		.cfi_startproc
  19              		@ args = 0, pretend = 0, frame = 0
  20              		@ frame_needed = 0, uses_anonymous_args = 0
  21              		@ link register save eliminated.
  22              		.loc 1 81 3 view .LVU1
  23              		.loc 1 81 38 view .LVU2
  24              		.loc 1 83 3 view .LVU3
  25              		.loc 1 84 15 is_stmt 0 view .LVU4
  26 0000 0030A0E3 		mov	r3, #0
  27              		.loc 1 83 3 view .LVU5
  28 0004 040080E5 		str	r0, [r0, #4]
  29 0008 000080E5 		str	r0, [r0]
  30              		.loc 1 83 27 is_stmt 1 view .LVU6
  31              		.loc 1 84 3 view .LVU7
  32              		.loc 1 84 15 is_stmt 0 view .LVU8
  33 000c 083080E5 		str	r3, [r0, #8]
  34              		.loc 1 85 1 view .LVU9
  35 0010 1EFF2FE1 		bx	lr
  36              		.cfi_endproc
  37              	.LFE7:
  38              		.size	chMtxInit, .-chMtxInit
  39              		.section	.text.chMtxLockS,"ax",%progbits
  40              		.align	2
  41              		.global	chMtxLockS
  42              		.syntax unified
  43              		.arm
  44              		.fpu softvfp
  45              		.type	chMtxLockS, %function
  46              	chMtxLockS:
  47              	.LVL1:
  48              	.LFB9:
  49              		.loc 1 114 28 is_stmt 1 view -0
  50              		.cfi_startproc
  51              		@ args = 0, pretend = 0, frame = 0
  52              		@ frame_needed = 0, uses_anonymous_args = 0
  53              		.loc 1 115 3 view .LVU11
  54              		.loc 1 121 9 is_stmt 0 view .LVU12
  55 0000 082090E5 		ldr	r2, [r0, #8]
  56              		.loc 1 115 11 view .LVU13
  57 0004 24319FE5 		ldr	r3, .L26
ARM GAS  /var/folders/l5/0x54b2c10074c8bt31ycjvl80000gp/T//ccfxZmfD.s 			page 2


  58              		.loc 1 121 6 view .LVU14
  59 0008 000052E3 		cmp	r2, #0
  60              		.loc 1 114 28 view .LVU15
  61 000c 30402DE9 		push	{r4, r5, lr}
  62              		.cfi_def_cfa_offset 12
  63              		.cfi_offset 4, -12
  64              		.cfi_offset 5, -8
  65              		.cfi_offset 14, -4
  66              		.loc 1 115 11 view .LVU16
  67 0010 104093E5 		ldr	r4, [r3, #16]
  68              	.LVL2:
  69              		.loc 1 117 3 is_stmt 1 view .LVU17
  70              		.loc 1 117 21 view .LVU18
  71              		.loc 1 118 3 view .LVU19
  72              		.loc 1 118 39 view .LVU20
  73              		.loc 1 121 3 view .LVU21
  74              		.loc 1 121 6 is_stmt 0 view .LVU22
  75 0014 4000000A 		beq	.L21
  76              	.LBB23:
  77              		.loc 1 128 28 view .LVU23
  78 0018 081094E5 		ldr	r1, [r4, #8]
  79              		.loc 1 128 11 view .LVU24
  80 001c 083092E5 		ldr	r3, [r2, #8]
  81 0020 0050A0E1 		mov	r5, r0
  82              	.LVL3:
  83              		.loc 1 128 11 view .LVU25
  84 0024 010053E1 		cmp	r3, r1
  85 0028 0500002A 		bcs	.L7
  86              		.loc 1 130 7 is_stmt 1 view .LVU26
  87              		.loc 1 132 17 is_stmt 0 view .LVU27
  88 002c 1030D2E5 		ldrb	r3, [r2, #16]	@ zero_extendqisi2
  89              		.loc 1 130 18 view .LVU28
  90 0030 081082E5 		str	r1, [r2, #8]
  91              		.loc 1 132 7 is_stmt 1 view .LVU29
  92 0034 000053E3 		cmp	r3, #0
  93 0038 3000000A 		beq	.L6
  94              	.LVL4:
  95              	.L25:
  96              		.loc 1 132 7 is_stmt 0 view .LVU30
  97 003c 040053E3 		cmp	r3, #4
  98 0040 1200000A 		beq	.L22
  99              	.LVL5:
 100              	.L7:
 101              		.loc 1 166 5 is_stmt 1 view .LVU31
 102              	.LBB24:
 103              	.LBI24:
 104              		.file 2 "../../../os/kernel/include/chinline.h"
 105              		.loc 2 34 20 view .LVU32
 106              	.LBB25:
 107              		.loc 2 36 3 view .LVU33
 108              		.loc 2 36 11 is_stmt 0 view .LVU34
 109 0044 0530A0E1 		mov	r3, r5
 110 0048 030000EA 		b	.L13
 111              	.LVL6:
 112              	.L23:
 113              		.loc 2 39 34 view .LVU35
 114 004c 081093E5 		ldr	r1, [r3, #8]
ARM GAS  /var/folders/l5/0x54b2c10074c8bt31ycjvl80000gp/T//ccfxZmfD.s 			page 3


 115 0050 082094E5 		ldr	r2, [r4, #8]
 116 0054 020051E1 		cmp	r1, r2
 117 0058 0200003A 		bcc	.L12
 118              	.L13:
 119              		.loc 2 37 3 is_stmt 1 view .LVU36
 120              		.loc 2 38 5 view .LVU37
 121              		.loc 2 38 8 is_stmt 0 view .LVU38
 122 005c 003093E5 		ldr	r3, [r3]
 123              	.LVL7:
 124              		.loc 2 39 3 view .LVU39
 125 0060 030055E1 		cmp	r5, r3
 126 0064 F8FFFF1A 		bne	.L23
 127              	.L12:
 128              		.loc 2 40 3 is_stmt 1 view .LVU40
 129              		.loc 2 41 18 is_stmt 0 view .LVU41
 130 0068 042093E5 		ldr	r2, [r3, #4]
 131              		.loc 2 40 14 view .LVU42
 132 006c 003084E5 		str	r3, [r4]
 133              		.loc 2 41 3 is_stmt 1 view .LVU43
 134              		.loc 2 41 14 is_stmt 0 view .LVU44
 135 0070 042084E5 		str	r2, [r4, #4]
 136              		.loc 2 42 3 is_stmt 1 view .LVU45
 137              		.loc 2 42 35 is_stmt 0 view .LVU46
 138 0074 044083E5 		str	r4, [r3, #4]
 139              		.loc 2 42 22 view .LVU47
 140 0078 043094E5 		ldr	r3, [r4, #4]
 141              	.LVL8:
 142              		.loc 2 42 22 view .LVU48
 143              	.LBE25:
 144              	.LBE24:
 145              		.loc 1 168 5 view .LVU49
 146 007c 0400A0E3 		mov	r0, #4
 147              	.LBB27:
 148              	.LBB26:
 149              		.loc 2 42 22 view .LVU50
 150 0080 004083E5 		str	r4, [r3]
 151              	.LVL9:
 152              		.loc 2 42 22 view .LVU51
 153              	.LBE26:
 154              	.LBE27:
 155              		.loc 1 167 5 is_stmt 1 view .LVU52
 156              		.loc 1 167 21 is_stmt 0 view .LVU53
 157 0084 145084E5 		str	r5, [r4, #20]
 158              		.loc 1 168 5 is_stmt 1 view .LVU54
 159              	.LBE23:
 160              		.loc 1 180 1 is_stmt 0 view .LVU55
 161 0088 3040BDE8 		pop	{r4, r5, lr}
 162              		.cfi_remember_state
 163              		.cfi_restore 14
 164              		.cfi_restore 5
 165              		.cfi_restore 4
 166              		.cfi_def_cfa_offset 0
 167              	.LVL10:
 168              	.LBB42:
 169              		.loc 1 168 5 view .LVU56
 170 008c FEFFFFEA 		b	chSchGoSleepS
 171              	.LVL11:
ARM GAS  /var/folders/l5/0x54b2c10074c8bt31ycjvl80000gp/T//ccfxZmfD.s 			page 4


 172              	.L22:
 173              		.cfi_restore_state
 174              		.loc 1 135 9 is_stmt 1 view .LVU57
 175              	.LBB28:
 176              	.LBI28:
 177              		.loc 2 66 23 view .LVU58
 178              	.LBB29:
 179              		.loc 2 68 3 view .LVU59
 180              	.LBE29:
 181              	.LBE28:
 182              		.loc 1 135 57 is_stmt 0 view .LVU60
 183 0090 14C092E5 		ldr	ip, [r2, #20]
 184              	.LBB32:
 185              	.LBB30:
 186              		.loc 2 68 5 view .LVU61
 187 0094 04E092E5 		ldr	lr, [r2, #4]
 188              		.loc 2 68 26 view .LVU62
 189 0098 000092E5 		ldr	r0, [r2]
 190              	.LBE30:
 191              	.LBE32:
 192              		.loc 1 135 57 view .LVU63
 193 009c 0C30A0E1 		mov	r3, ip
 194              	.LBB33:
 195              	.LBB31:
 196              		.loc 2 68 22 view .LVU64
 197 00a0 00008EE5 		str	r0, [lr]
 198              		.loc 2 69 3 is_stmt 1 view .LVU65
 199              		.loc 2 69 22 is_stmt 0 view .LVU66
 200 00a4 04E080E5 		str	lr, [r0, #4]
 201              		.loc 2 70 3 is_stmt 1 view .LVU67
 202              	.LVL12:
 203              		.loc 2 70 3 is_stmt 0 view .LVU68
 204              	.LBE31:
 205              	.LBE33:
 206              	.LBB34:
 207              	.LBI34:
 208              		.loc 2 34 20 is_stmt 1 view .LVU69
 209 00a8 020000EA 		b	.L9
 210              	.LVL13:
 211              	.L24:
 212              	.LBB35:
 213              		.loc 2 39 34 is_stmt 0 view .LVU70
 214 00ac 080093E5 		ldr	r0, [r3, #8]
 215 00b0 010050E1 		cmp	r0, r1
 216 00b4 0200003A 		bcc	.L8
 217              	.LVL14:
 218              	.L9:
 219              		.loc 2 37 3 is_stmt 1 view .LVU71
 220              		.loc 2 38 5 view .LVU72
 221              		.loc 2 38 8 is_stmt 0 view .LVU73
 222 00b8 003093E5 		ldr	r3, [r3]
 223              	.LVL15:
 224              		.loc 2 39 3 view .LVU74
 225 00bc 03005CE1 		cmp	ip, r3
 226 00c0 F9FFFF1A 		bne	.L24
 227              	.L8:
 228              		.loc 2 40 3 is_stmt 1 view .LVU75
ARM GAS  /var/folders/l5/0x54b2c10074c8bt31ycjvl80000gp/T//ccfxZmfD.s 			page 5


 229              		.loc 2 41 18 is_stmt 0 view .LVU76
 230 00c4 041093E5 		ldr	r1, [r3, #4]
 231              		.loc 2 40 14 view .LVU77
 232 00c8 003082E5 		str	r3, [r2]
 233              		.loc 2 41 3 is_stmt 1 view .LVU78
 234              		.loc 2 41 14 is_stmt 0 view .LVU79
 235 00cc 041082E5 		str	r1, [r2, #4]
 236              		.loc 2 42 3 is_stmt 1 view .LVU80
 237              		.loc 2 42 35 is_stmt 0 view .LVU81
 238 00d0 042083E5 		str	r2, [r3, #4]
 239              		.loc 2 42 22 view .LVU82
 240 00d4 043092E5 		ldr	r3, [r2, #4]
 241              	.LVL16:
 242              		.loc 2 42 22 view .LVU83
 243              	.LBE35:
 244              	.LBE34:
 245              		.loc 1 128 28 view .LVU84
 246 00d8 081094E5 		ldr	r1, [r4, #8]
 247              	.LBB37:
 248              	.LBB36:
 249              		.loc 2 42 22 view .LVU85
 250 00dc 002083E5 		str	r2, [r3]
 251              	.LVL17:
 252              		.loc 2 42 22 view .LVU86
 253              	.LBE36:
 254              	.LBE37:
 255              		.loc 1 136 9 is_stmt 1 view .LVU87
 256              		.loc 1 136 12 is_stmt 0 view .LVU88
 257 00e0 08209CE5 		ldr	r2, [ip, #8]
 258              	.LVL18:
 259              		.loc 1 137 9 is_stmt 1 view .LVU89
 260              		.loc 1 128 11 is_stmt 0 view .LVU90
 261 00e4 083092E5 		ldr	r3, [r2, #8]
 262 00e8 010053E1 		cmp	r3, r1
 263 00ec D4FFFF2A 		bcs	.L7
 264              		.loc 1 130 7 is_stmt 1 view .LVU91
 265              		.loc 1 132 17 is_stmt 0 view .LVU92
 266 00f0 1030D2E5 		ldrb	r3, [r2, #16]	@ zero_extendqisi2
 267              		.loc 1 130 18 view .LVU93
 268 00f4 081082E5 		str	r1, [r2, #8]
 269              		.loc 1 132 7 is_stmt 1 view .LVU94
 270 00f8 000053E3 		cmp	r3, #0
 271 00fc CEFFFF1A 		bne	.L25
 272              	.L6:
 273              		.loc 1 160 9 view .LVU95
 274              	.LVL19:
 275              	.LBB38:
 276              	.LBI38:
 277              		.loc 2 66 23 view .LVU96
 278              	.LBB39:
 279              		.loc 2 68 3 view .LVU97
 280              		.loc 2 68 5 is_stmt 0 view .LVU98
 281 0100 041092E5 		ldr	r1, [r2, #4]
 282              		.loc 2 68 26 view .LVU99
 283 0104 003092E5 		ldr	r3, [r2]
 284              	.LBE39:
 285              	.LBE38:
ARM GAS  /var/folders/l5/0x54b2c10074c8bt31ycjvl80000gp/T//ccfxZmfD.s 			page 6


 286              		.loc 1 160 9 view .LVU100
 287 0108 0200A0E1 		mov	r0, r2
 288              	.LBB41:
 289              	.LBB40:
 290              		.loc 2 68 22 view .LVU101
 291 010c 003081E5 		str	r3, [r1]
 292              		.loc 2 69 3 is_stmt 1 view .LVU102
 293              		.loc 2 69 22 is_stmt 0 view .LVU103
 294 0110 041083E5 		str	r1, [r3, #4]
 295              		.loc 2 70 3 is_stmt 1 view .LVU104
 296              	.LVL20:
 297              		.loc 2 70 3 is_stmt 0 view .LVU105
 298              	.LBE40:
 299              	.LBE41:
 300              		.loc 1 160 9 view .LVU106
 301 0114 FEFFFFEB 		bl	chSchReadyI
 302              	.LVL21:
 303              		.loc 1 161 9 is_stmt 1 view .LVU107
 304 0118 C9FFFFEA 		b	.L7
 305              	.LVL22:
 306              	.L21:
 307              		.loc 1 161 9 is_stmt 0 view .LVU108
 308              	.LBE42:
 309              		.loc 1 176 5 is_stmt 1 view .LVU109
 310              		.loc 1 177 16 is_stmt 0 view .LVU110
 311 011c 203094E5 		ldr	r3, [r4, #32]
 312              		.loc 1 176 17 view .LVU111
 313 0120 084080E5 		str	r4, [r0, #8]
 314              		.loc 1 177 5 is_stmt 1 view .LVU112
 315              		.loc 1 177 16 is_stmt 0 view .LVU113
 316 0124 0C3080E5 		str	r3, [r0, #12]
 317              		.loc 1 178 5 is_stmt 1 view .LVU114
 318              		.loc 1 178 20 is_stmt 0 view .LVU115
 319 0128 200084E5 		str	r0, [r4, #32]
 320              		.loc 1 180 1 view .LVU116
 321 012c 3080BDE8 		pop	{r4, r5, pc}
 322              	.L27:
 323              		.align	2
 324              	.L26:
 325 0130 00000000 		.word	rlist
 326              		.cfi_endproc
 327              	.LFE9:
 328              		.size	chMtxLockS, .-chMtxLockS
 329              		.section	.text.chMtxLock,"ax",%progbits
 330              		.align	2
 331              		.global	chMtxLock
 332              		.syntax unified
 333              		.arm
 334              		.fpu softvfp
 335              		.type	chMtxLock, %function
 336              	chMtxLock:
 337              	.LVL23:
 338              	.LFB8:
 339              		.loc 1 96 27 is_stmt 1 view -0
 340              		.cfi_startproc
 341              		@ args = 0, pretend = 0, frame = 0
 342              		@ frame_needed = 0, uses_anonymous_args = 0
ARM GAS  /var/folders/l5/0x54b2c10074c8bt31ycjvl80000gp/T//ccfxZmfD.s 			page 7


 343              		.loc 1 98 3 view .LVU118
 344              		.loc 1 96 27 is_stmt 0 view .LVU119
 345 0000 04E02DE5 		str	lr, [sp, #-4]!
 346              		.cfi_def_cfa_offset 4
 347              		.cfi_offset 14, -4
 348              		.loc 1 98 3 view .LVU120
 349              		.syntax divided
 350              	@ 98 "../../../os/kernel/src/chmtx.c" 1
 351 0004 9FF021E3 		msr     CPSR_c, #0x9F
 352              	@ 0 "" 2
 353              		.loc 1 98 3 is_stmt 1 view .LVU121
 354              		.loc 1 98 14 view .LVU122
 355              		.loc 1 100 3 view .LVU123
 356              		.arm
 357              		.syntax unified
 358 0008 FEFFFFEB 		bl	chMtxLockS
 359              	.LVL24:
 360              		.loc 1 102 3 view .LVU124
 361              		.loc 1 102 3 view .LVU125
 362              		.syntax divided
 363              	@ 102 "../../../os/kernel/src/chmtx.c" 1
 364 000c 1FF021E3 		msr     CPSR_c, #0x1F
 365              	@ 0 "" 2
 366              		.loc 1 102 16 view .LVU126
 367              		.loc 1 103 1 is_stmt 0 view .LVU127
 368              		.arm
 369              		.syntax unified
 370 0010 04F09DE4 		ldr	pc, [sp], #4
 371              		.cfi_endproc
 372              	.LFE8:
 373              		.size	chMtxLock, .-chMtxLock
 374              		.section	.text.chMtxTryLock,"ax",%progbits
 375              		.align	2
 376              		.global	chMtxTryLock
 377              		.syntax unified
 378              		.arm
 379              		.fpu softvfp
 380              		.type	chMtxTryLock, %function
 381              	chMtxTryLock:
 382              	.LVL25:
 383              	.LFB10:
 384              		.loc 1 199 32 is_stmt 1 view -0
 385              		.cfi_startproc
 386              		@ args = 0, pretend = 0, frame = 0
 387              		@ frame_needed = 0, uses_anonymous_args = 0
 388              		@ link register save eliminated.
 389              		.loc 1 200 3 view .LVU129
 390              		.loc 1 202 3 view .LVU130
 391              		.loc 1 199 32 is_stmt 0 view .LVU131
 392 0000 0030A0E1 		mov	r3, r0
 393              		.loc 1 202 3 view .LVU132
 394              		.syntax divided
 395              	@ 202 "../../../os/kernel/src/chmtx.c" 1
 396 0004 9FF021E3 		msr     CPSR_c, #0x9F
 397              	@ 0 "" 2
 398              		.loc 1 202 3 is_stmt 1 view .LVU133
 399              		.loc 1 202 14 view .LVU134
ARM GAS  /var/folders/l5/0x54b2c10074c8bt31ycjvl80000gp/T//ccfxZmfD.s 			page 8


 400              		.loc 1 204 3 view .LVU135
 401              	.LVL26:
 402              		.arm
 403              		.syntax unified
 404              	.LBB47:
 405              	.LBI47:
 406              		.loc 1 227 8 view .LVU136
 407              	.LBB48:
 408              		.loc 1 229 3 view .LVU137
 409              		.loc 1 229 21 view .LVU138
 410              		.loc 1 230 3 view .LVU139
 411              		.loc 1 230 42 view .LVU140
 412              		.loc 1 232 3 view .LVU141
 413              		.loc 1 232 6 is_stmt 0 view .LVU142
 414 0008 082090E5 		ldr	r2, [r0, #8]
 415 000c 000052E3 		cmp	r2, #0
 416              	.LVL27:
 417              	.LBB49:
 418              	.LBI49:
 419              		.loc 1 227 8 is_stmt 1 view .LVU143
 420              	.LBB50:
 421              		.loc 1 234 3 view .LVU144
 422              		.loc 1 234 17 is_stmt 0 view .LVU145
 423 0010 20209F05 		ldreq	r2, .L33
 424              		.loc 1 236 20 view .LVU146
 425 0014 0100A003 		moveq	r0, #1
 426              	.LVL28:
 427              		.loc 1 234 17 view .LVU147
 428 0018 10209205 		ldreq	r2, [r2, #16]
 429              	.LBE50:
 430              	.LBE49:
 431              		.loc 1 233 12 view .LVU148
 432 001c 0000A013 		movne	r0, #0
 433              	.LBB52:
 434              	.LBB51:
 435              		.loc 1 235 14 view .LVU149
 436 0020 20109205 		ldreq	r1, [r2, #32]
 437              		.loc 1 234 15 view .LVU150
 438 0024 08208305 		streq	r2, [r3, #8]
 439              		.loc 1 235 3 is_stmt 1 view .LVU151
 440              		.loc 1 235 14 is_stmt 0 view .LVU152
 441 0028 0C108305 		streq	r1, [r3, #12]
 442              		.loc 1 236 3 is_stmt 1 view .LVU153
 443              		.loc 1 236 20 is_stmt 0 view .LVU154
 444 002c 20308205 		streq	r3, [r2, #32]
 445              		.loc 1 237 3 is_stmt 1 view .LVU155
 446              	.LVL29:
 447              		.loc 1 237 3 is_stmt 0 view .LVU156
 448              	.LBE51:
 449              	.LBE52:
 450              	.LBE48:
 451              	.LBE47:
 452              		.loc 1 206 3 is_stmt 1 view .LVU157
 453              		.loc 1 206 3 view .LVU158
 454              		.syntax divided
 455              	@ 206 "../../../os/kernel/src/chmtx.c" 1
 456 0030 1FF021E3 		msr     CPSR_c, #0x1F
ARM GAS  /var/folders/l5/0x54b2c10074c8bt31ycjvl80000gp/T//ccfxZmfD.s 			page 9


 457              	@ 0 "" 2
 458              		.loc 1 206 16 view .LVU159
 459              		.loc 1 207 3 view .LVU160
 460              		.loc 1 208 1 is_stmt 0 view .LVU161
 461              		.arm
 462              		.syntax unified
 463 0034 1EFF2FE1 		bx	lr
 464              	.L34:
 465              		.align	2
 466              	.L33:
 467 0038 00000000 		.word	rlist
 468              		.cfi_endproc
 469              	.LFE10:
 470              		.size	chMtxTryLock, .-chMtxTryLock
 471              		.section	.text.chMtxTryLockS,"ax",%progbits
 472              		.align	2
 473              		.global	chMtxTryLockS
 474              		.syntax unified
 475              		.arm
 476              		.fpu softvfp
 477              		.type	chMtxTryLockS, %function
 478              	chMtxTryLockS:
 479              	.LVL30:
 480              	.LFB11:
 481              		.loc 1 227 33 is_stmt 1 view -0
 482              		.cfi_startproc
 483              		@ args = 0, pretend = 0, frame = 0
 484              		@ frame_needed = 0, uses_anonymous_args = 0
 485              		@ link register save eliminated.
 486              		.loc 1 229 3 view .LVU163
 487              		.loc 1 229 21 view .LVU164
 488              		.loc 1 230 3 view .LVU165
 489              		.loc 1 230 42 view .LVU166
 490              		.loc 1 232 3 view .LVU167
 491              		.loc 1 227 33 is_stmt 0 view .LVU168
 492 0000 0030A0E1 		mov	r3, r0
 493              		.loc 1 232 6 view .LVU169
 494 0004 082090E5 		ldr	r2, [r0, #8]
 495 0008 000052E3 		cmp	r2, #0
 496              	.LVL31:
 497              	.LBB55:
 498              	.LBI55:
 499              		.loc 1 227 8 is_stmt 1 view .LVU170
 500              	.LBB56:
 501              		.loc 1 234 3 view .LVU171
 502              		.loc 1 234 17 is_stmt 0 view .LVU172
 503 000c 1C209F05 		ldreq	r2, .L38
 504              		.loc 1 236 20 view .LVU173
 505 0010 0100A003 		moveq	r0, #1
 506              	.LVL32:
 507              		.loc 1 234 17 view .LVU174
 508 0014 10209205 		ldreq	r2, [r2, #16]
 509              	.LBE56:
 510              	.LBE55:
 511              		.loc 1 233 12 view .LVU175
 512 0018 0000A013 		movne	r0, #0
 513              	.LBB58:
ARM GAS  /var/folders/l5/0x54b2c10074c8bt31ycjvl80000gp/T//ccfxZmfD.s 			page 10


 514              	.LBB57:
 515              		.loc 1 235 14 view .LVU176
 516 001c 20109205 		ldreq	r1, [r2, #32]
 517              		.loc 1 234 15 view .LVU177
 518 0020 08208305 		streq	r2, [r3, #8]
 519              		.loc 1 235 3 is_stmt 1 view .LVU178
 520              		.loc 1 235 14 is_stmt 0 view .LVU179
 521 0024 0C108305 		streq	r1, [r3, #12]
 522              		.loc 1 236 3 is_stmt 1 view .LVU180
 523              		.loc 1 236 20 is_stmt 0 view .LVU181
 524 0028 20308205 		streq	r3, [r2, #32]
 525              		.loc 1 237 3 is_stmt 1 view .LVU182
 526              	.LVL33:
 527              		.loc 1 237 3 is_stmt 0 view .LVU183
 528              	.LBE57:
 529              	.LBE58:
 530              		.loc 1 238 1 view .LVU184
 531 002c 1EFF2FE1 		bx	lr
 532              	.L39:
 533              		.align	2
 534              	.L38:
 535 0030 00000000 		.word	rlist
 536              		.cfi_endproc
 537              	.LFE11:
 538              		.size	chMtxTryLockS, .-chMtxTryLockS
 539              		.section	.text.chMtxUnlock,"ax",%progbits
 540              		.align	2
 541              		.global	chMtxUnlock
 542              		.syntax unified
 543              		.arm
 544              		.fpu softvfp
 545              		.type	chMtxUnlock, %function
 546              	chMtxUnlock:
 547              	.LFB12:
 548              		.loc 1 250 26 is_stmt 1 view -0
 549              		.cfi_startproc
 550              		@ args = 0, pretend = 0, frame = 0
 551              		@ frame_needed = 0, uses_anonymous_args = 0
 552              		.loc 1 251 3 view .LVU186
 553              		.loc 1 251 11 is_stmt 0 view .LVU187
 554 0000 94309FE5 		ldr	r3, .L51
 555              		.loc 1 250 26 view .LVU188
 556 0004 10402DE9 		push	{r4, lr}
 557              		.cfi_def_cfa_offset 8
 558              		.cfi_offset 4, -8
 559              		.cfi_offset 14, -4
 560              		.loc 1 251 11 view .LVU189
 561 0008 100093E5 		ldr	r0, [r3, #16]
 562              	.LVL34:
 563              		.loc 1 252 3 is_stmt 1 view .LVU190
 564              		.loc 1 254 3 view .LVU191
 565              		.syntax divided
 566              	@ 254 "../../../os/kernel/src/chmtx.c" 1
 567 000c 9FF021E3 		msr     CPSR_c, #0x9F
 568              	@ 0 "" 2
 569              		.loc 1 254 3 view .LVU192
 570              		.loc 1 254 14 view .LVU193
ARM GAS  /var/folders/l5/0x54b2c10074c8bt31ycjvl80000gp/T//ccfxZmfD.s 			page 11


 571              		.loc 1 255 3 view .LVU194
 572              		.arm
 573              		.syntax unified
 574 0010 204090E5 		ldr	r4, [r0, #32]
 575              		.loc 1 257 42 view .LVU195
 576              		.loc 1 258 3 view .LVU196
 577              		.loc 1 260 35 view .LVU197
 578              		.loc 1 263 3 view .LVU198
 579              	.LVL35:
 580              		.loc 1 264 3 view .LVU199
 581              		.loc 1 266 7 is_stmt 0 view .LVU200
 582 0014 00C094E5 		ldr	ip, [r4]
 583              		.loc 1 264 23 view .LVU201
 584 0018 0C3094E5 		ldr	r3, [r4, #12]
 585              		.loc 1 266 6 view .LVU202
 586 001c 04005CE1 		cmp	ip, r4
 587              		.loc 1 264 18 view .LVU203
 588 0020 203080E5 		str	r3, [r0, #32]
 589              		.loc 1 266 3 is_stmt 1 view .LVU204
 590              		.loc 1 266 6 is_stmt 0 view .LVU205
 591 0024 1900000A 		beq	.L41
 592              	.LBB59:
 593              		.loc 1 267 5 is_stmt 1 view .LVU206
 594              		.loc 1 271 5 view .LVU207
 595              		.loc 1 273 11 is_stmt 0 view .LVU208
 596 0028 000053E3 		cmp	r3, #0
 597              		.loc 1 271 13 view .LVU209
 598 002c 241090E5 		ldr	r1, [r0, #36]
 599              	.LVL36:
 600              		.loc 1 272 5 is_stmt 1 view .LVU210
 601              		.loc 1 273 5 view .LVU211
 602              		.loc 1 273 11 is_stmt 0 view .LVU212
 603 0030 0800000A 		beq	.L42
 604              	.L44:
 605              		.loc 1 277 7 is_stmt 1 view .LVU213
 606              		.loc 1 277 11 is_stmt 0 view .LVU214
 607 0034 002093E5 		ldr	r2, [r3]
 608              		.loc 1 277 10 view .LVU215
 609 0038 030052E1 		cmp	r2, r3
 610 003c 0200000A 		beq	.L43
 611              		.loc 1 277 10 view .LVU216
 612 0040 082092E5 		ldr	r2, [r2, #8]
 613 0044 020051E1 		cmp	r1, r2
 614 0048 0210A031 		movcc	r1, r2
 615              	.LVL37:
 616              	.L43:
 617              		.loc 1 279 7 is_stmt 1 view .LVU217
 618              		.loc 1 279 10 is_stmt 0 view .LVU218
 619 004c 0C3093E5 		ldr	r3, [r3, #12]
 620              	.LVL38:
 621              		.loc 1 273 11 view .LVU219
 622 0050 000053E3 		cmp	r3, #0
 623 0054 F6FFFF1A 		bne	.L44
 624              	.L42:
 625              		.loc 1 283 5 is_stmt 1 view .LVU220
 626              		.loc 1 288 17 is_stmt 0 view .LVU221
 627 0058 20209CE5 		ldr	r2, [ip, #32]
ARM GAS  /var/folders/l5/0x54b2c10074c8bt31ycjvl80000gp/T//ccfxZmfD.s 			page 12


 628              	.LBB60:
 629              	.LBB61:
 630              		.loc 2 55 20 view .LVU222
 631 005c 00309CE5 		ldr	r3, [ip]
 632              	.LVL39:
 633              		.loc 2 55 20 view .LVU223
 634              	.LBE61:
 635              	.LBE60:
 636              		.loc 1 283 17 view .LVU224
 637 0060 081080E5 		str	r1, [r0, #8]
 638              		.loc 1 286 5 is_stmt 1 view .LVU225
 639              	.LVL40:
 640              	.LBB64:
 641              	.LBI60:
 642              		.loc 2 52 23 view .LVU226
 643              	.LBB62:
 644              		.loc 2 53 3 view .LVU227
 645              		.loc 2 55 3 view .LVU228
 646              		.loc 2 55 16 is_stmt 0 view .LVU229
 647 0064 003084E5 		str	r3, [r4]
 648              	.LBE62:
 649              	.LBE64:
 650              		.loc 1 290 5 view .LVU230
 651 0068 0C00A0E1 		mov	r0, ip
 652              	.LVL41:
 653              	.LBB65:
 654              	.LBB63:
 655              		.loc 2 55 38 view .LVU231
 656 006c 044083E5 		str	r4, [r3, #4]
 657              		.loc 2 56 3 is_stmt 1 view .LVU232
 658              	.LVL42:
 659              		.loc 2 56 3 is_stmt 0 view .LVU233
 660              	.LBE63:
 661              	.LBE65:
 662              		.loc 1 287 5 is_stmt 1 view .LVU234
 663              		.loc 1 290 5 is_stmt 0 view .LVU235
 664 0070 0010A0E3 		mov	r1, #0
 665              	.LVL43:
 666              		.loc 1 287 18 view .LVU236
 667 0074 08C084E5 		str	ip, [r4, #8]
 668              		.loc 1 288 5 is_stmt 1 view .LVU237
 669              		.loc 1 288 17 is_stmt 0 view .LVU238
 670 0078 0C2084E5 		str	r2, [r4, #12]
 671              		.loc 1 289 5 is_stmt 1 view .LVU239
 672              		.loc 1 289 19 is_stmt 0 view .LVU240
 673 007c 20408CE5 		str	r4, [ip, #32]
 674              		.loc 1 290 5 is_stmt 1 view .LVU241
 675 0080 FEFFFFEB 		bl	chSchWakeupS
 676              	.LVL44:
 677              	.L45:
 678              		.loc 1 290 5 is_stmt 0 view .LVU242
 679              	.LBE59:
 680              		.loc 1 294 3 is_stmt 1 view .LVU243
 681              		.loc 1 294 3 view .LVU244
 682              		.syntax divided
 683              	@ 294 "../../../os/kernel/src/chmtx.c" 1
 684 0084 1FF021E3 		msr     CPSR_c, #0x1F
ARM GAS  /var/folders/l5/0x54b2c10074c8bt31ycjvl80000gp/T//ccfxZmfD.s 			page 13


 685              	@ 0 "" 2
 686              		.loc 1 294 16 view .LVU245
 687              		.loc 1 295 3 view .LVU246
 688              		.loc 1 296 1 is_stmt 0 view .LVU247
 689              		.arm
 690              		.syntax unified
 691 0088 0400A0E1 		mov	r0, r4
 692 008c 1080BDE8 		pop	{r4, pc}
 693              	.LVL45:
 694              	.L41:
 695              		.loc 1 293 5 is_stmt 1 view .LVU248
 696              		.loc 1 293 18 is_stmt 0 view .LVU249
 697 0090 0030A0E3 		mov	r3, #0
 698 0094 083084E5 		str	r3, [r4, #8]
 699 0098 F9FFFFEA 		b	.L45
 700              	.L52:
 701              		.align	2
 702              	.L51:
 703 009c 00000000 		.word	rlist
 704              		.cfi_endproc
 705              	.LFE12:
 706              		.size	chMtxUnlock, .-chMtxUnlock
 707              		.section	.text.chMtxUnlockS,"ax",%progbits
 708              		.align	2
 709              		.global	chMtxUnlockS
 710              		.syntax unified
 711              		.arm
 712              		.fpu softvfp
 713              		.type	chMtxUnlockS, %function
 714              	chMtxUnlockS:
 715              	.LFB13:
 716              		.loc 1 310 27 is_stmt 1 view -0
 717              		.cfi_startproc
 718              		@ args = 0, pretend = 0, frame = 0
 719              		@ frame_needed = 0, uses_anonymous_args = 0
 720              		.loc 1 311 3 view .LVU251
 721              		.loc 1 311 11 is_stmt 0 view .LVU252
 722 0000 8C309FE5 		ldr	r3, .L64
 723              		.loc 1 310 27 view .LVU253
 724 0004 10402DE9 		push	{r4, lr}
 725              		.cfi_def_cfa_offset 8
 726              		.cfi_offset 4, -8
 727              		.cfi_offset 14, -4
 728              		.loc 1 311 11 view .LVU254
 729 0008 100093E5 		ldr	r0, [r3, #16]
 730              	.LVL46:
 731              		.loc 1 312 3 is_stmt 1 view .LVU255
 732              		.loc 1 314 3 view .LVU256
 733              		.loc 1 314 21 view .LVU257
 734              		.loc 1 315 3 view .LVU258
 735 000c 204090E5 		ldr	r4, [r0, #32]
 736              		.loc 1 317 42 view .LVU259
 737              		.loc 1 318 3 view .LVU260
 738              		.loc 1 320 35 view .LVU261
 739              		.loc 1 324 3 view .LVU262
 740              	.LVL47:
 741              		.loc 1 325 3 view .LVU263
ARM GAS  /var/folders/l5/0x54b2c10074c8bt31ycjvl80000gp/T//ccfxZmfD.s 			page 14


 742              		.loc 1 327 7 is_stmt 0 view .LVU264
 743 0010 00C094E5 		ldr	ip, [r4]
 744              		.loc 1 325 23 view .LVU265
 745 0014 0C3094E5 		ldr	r3, [r4, #12]
 746              		.loc 1 327 6 view .LVU266
 747 0018 04005CE1 		cmp	ip, r4
 748              		.loc 1 325 18 view .LVU267
 749 001c 203080E5 		str	r3, [r0, #32]
 750              		.loc 1 327 3 is_stmt 1 view .LVU268
 751              		.loc 1 327 6 is_stmt 0 view .LVU269
 752 0020 1700000A 		beq	.L54
 753              	.LBB66:
 754              		.loc 1 328 5 is_stmt 1 view .LVU270
 755              		.loc 1 332 5 view .LVU271
 756              		.loc 1 334 11 is_stmt 0 view .LVU272
 757 0024 000053E3 		cmp	r3, #0
 758              		.loc 1 332 13 view .LVU273
 759 0028 241090E5 		ldr	r1, [r0, #36]
 760              	.LVL48:
 761              		.loc 1 333 5 is_stmt 1 view .LVU274
 762              		.loc 1 334 5 view .LVU275
 763              		.loc 1 334 11 is_stmt 0 view .LVU276
 764 002c 0800000A 		beq	.L55
 765              	.L57:
 766              		.loc 1 338 7 is_stmt 1 view .LVU277
 767              		.loc 1 338 11 is_stmt 0 view .LVU278
 768 0030 002093E5 		ldr	r2, [r3]
 769              		.loc 1 338 10 view .LVU279
 770 0034 030052E1 		cmp	r2, r3
 771 0038 0200000A 		beq	.L56
 772              		.loc 1 338 10 view .LVU280
 773 003c 082092E5 		ldr	r2, [r2, #8]
 774 0040 020051E1 		cmp	r1, r2
 775 0044 0210A031 		movcc	r1, r2
 776              	.LVL49:
 777              	.L56:
 778              		.loc 1 340 7 is_stmt 1 view .LVU281
 779              		.loc 1 340 10 is_stmt 0 view .LVU282
 780 0048 0C3093E5 		ldr	r3, [r3, #12]
 781              	.LVL50:
 782              		.loc 1 334 11 view .LVU283
 783 004c 000053E3 		cmp	r3, #0
 784 0050 F6FFFF1A 		bne	.L57
 785              	.L55:
 786              		.loc 1 342 5 is_stmt 1 view .LVU284
 787              		.loc 1 347 17 is_stmt 0 view .LVU285
 788 0054 20209CE5 		ldr	r2, [ip, #32]
 789              	.LBB67:
 790              	.LBB68:
 791              		.loc 2 55 20 view .LVU286
 792 0058 00309CE5 		ldr	r3, [ip]
 793              	.LVL51:
 794              		.loc 2 55 20 view .LVU287
 795              	.LBE68:
 796              	.LBE67:
 797              		.loc 1 342 17 view .LVU288
 798 005c 081080E5 		str	r1, [r0, #8]
ARM GAS  /var/folders/l5/0x54b2c10074c8bt31ycjvl80000gp/T//ccfxZmfD.s 			page 15


 799              		.loc 1 345 5 is_stmt 1 view .LVU289
 800              	.LVL52:
 801              	.LBB71:
 802              	.LBI67:
 803              		.loc 2 52 23 view .LVU290
 804              	.LBB69:
 805              		.loc 2 53 3 view .LVU291
 806              		.loc 2 55 3 view .LVU292
 807              		.loc 2 55 16 is_stmt 0 view .LVU293
 808 0060 003084E5 		str	r3, [r4]
 809              	.LBE69:
 810              	.LBE71:
 811              		.loc 1 349 5 view .LVU294
 812 0064 0C00A0E1 		mov	r0, ip
 813              	.LVL53:
 814              	.LBB72:
 815              	.LBB70:
 816              		.loc 2 55 38 view .LVU295
 817 0068 044083E5 		str	r4, [r3, #4]
 818              		.loc 2 56 3 is_stmt 1 view .LVU296
 819              	.LVL54:
 820              		.loc 2 56 3 is_stmt 0 view .LVU297
 821              	.LBE70:
 822              	.LBE72:
 823              		.loc 1 346 5 is_stmt 1 view .LVU298
 824              		.loc 1 346 18 is_stmt 0 view .LVU299
 825 006c 08C084E5 		str	ip, [r4, #8]
 826              		.loc 1 347 5 is_stmt 1 view .LVU300
 827              		.loc 1 347 17 is_stmt 0 view .LVU301
 828 0070 0C2084E5 		str	r2, [r4, #12]
 829              		.loc 1 348 5 is_stmt 1 view .LVU302
 830              		.loc 1 348 19 is_stmt 0 view .LVU303
 831 0074 20408CE5 		str	r4, [ip, #32]
 832              		.loc 1 349 5 is_stmt 1 view .LVU304
 833 0078 FEFFFFEB 		bl	chSchReadyI
 834              	.LVL55:
 835              		.loc 1 349 5 is_stmt 0 view .LVU305
 836              	.LBE66:
 837              		.loc 1 354 1 view .LVU306
 838 007c 0400A0E1 		mov	r0, r4
 839 0080 1080BDE8 		pop	{r4, pc}
 840              	.LVL56:
 841              	.L54:
 842              		.loc 1 352 5 is_stmt 1 view .LVU307
 843              		.loc 1 352 18 is_stmt 0 view .LVU308
 844 0084 0030A0E3 		mov	r3, #0
 845              		.loc 1 354 1 view .LVU309
 846 0088 0400A0E1 		mov	r0, r4
 847              	.LVL57:
 848              		.loc 1 352 18 view .LVU310
 849 008c 083084E5 		str	r3, [r4, #8]
 850              		.loc 1 353 3 is_stmt 1 view .LVU311
 851              		.loc 1 354 1 is_stmt 0 view .LVU312
 852 0090 1080BDE8 		pop	{r4, pc}
 853              	.L65:
 854              		.align	2
 855              	.L64:
ARM GAS  /var/folders/l5/0x54b2c10074c8bt31ycjvl80000gp/T//ccfxZmfD.s 			page 16


 856 0094 00000000 		.word	rlist
 857              		.cfi_endproc
 858              	.LFE13:
 859              		.size	chMtxUnlockS, .-chMtxUnlockS
 860              		.section	.text.chMtxUnlockAll,"ax",%progbits
 861              		.align	2
 862              		.global	chMtxUnlockAll
 863              		.syntax unified
 864              		.arm
 865              		.fpu softvfp
 866              		.type	chMtxUnlockAll, %function
 867              	chMtxUnlockAll:
 868              	.LFB14:
 869              		.loc 1 367 27 is_stmt 1 view -0
 870              		.cfi_startproc
 871              		@ args = 0, pretend = 0, frame = 0
 872              		@ frame_needed = 0, uses_anonymous_args = 0
 873              		.loc 1 368 3 view .LVU314
 874              		.loc 1 368 11 is_stmt 0 view .LVU315
 875 0000 78309FE5 		ldr	r3, .L76
 876              		.loc 1 367 27 view .LVU316
 877 0004 30402DE9 		push	{r4, r5, lr}
 878              		.cfi_def_cfa_offset 12
 879              		.cfi_offset 4, -12
 880              		.cfi_offset 5, -8
 881              		.cfi_offset 14, -4
 882              		.loc 1 368 11 view .LVU317
 883 0008 104093E5 		ldr	r4, [r3, #16]
 884              	.LVL58:
 885              		.loc 1 370 3 is_stmt 1 view .LVU318
 886              		.syntax divided
 887              	@ 370 "../../../os/kernel/src/chmtx.c" 1
 888 000c 9FF021E3 		msr     CPSR_c, #0x9F
 889              	@ 0 "" 2
 890              		.loc 1 370 3 view .LVU319
 891              		.loc 1 370 14 view .LVU320
 892              		.loc 1 371 3 view .LVU321
 893              		.loc 1 371 10 is_stmt 0 view .LVU322
 894              		.arm
 895              		.syntax unified
 896 0010 203094E5 		ldr	r3, [r4, #32]
 897              		.loc 1 371 6 view .LVU323
 898 0014 000053E3 		cmp	r3, #0
 899 0018 1600000A 		beq	.L67
 900              	.LBB73:
 901              		.loc 1 383 22 view .LVU324
 902 001c 0050A0E3 		mov	r5, #0
 903              	.L70:
 904              		.loc 1 383 22 view .LVU325
 905              	.LBE73:
 906              		.loc 1 372 5 is_stmt 1 view .LVU326
 907              	.LBB85:
 908              		.loc 1 373 7 view .LVU327
 909              	.LVL59:
 910              		.loc 1 374 7 view .LVU328
 911              	.LBB74:
 912              		.loc 1 376 9 view .LVU329
ARM GAS  /var/folders/l5/0x54b2c10074c8bt31ycjvl80000gp/T//ccfxZmfD.s 			page 17


 913              	.LBB75:
 914              	.LBI75:
 915              		.loc 2 52 23 view .LVU330
 916              	.LBB76:
 917              		.loc 2 53 3 view .LVU331
 918              	.LBE76:
 919              	.LBE75:
 920              	.LBE74:
 921              		.loc 1 383 9 view .LVU332
 922              		.loc 1 375 11 is_stmt 0 view .LVU333
 923 0020 002093E5 		ldr	r2, [r3]
 924              	.LVL60:
 925              	.LBB83:
 926              	.LBB80:
 927              	.LBB77:
 928              		.loc 2 55 3 is_stmt 1 view .LVU334
 929              	.LBE77:
 930              	.LBE80:
 931              	.LBE83:
 932              		.loc 1 374 27 is_stmt 0 view .LVU335
 933 0024 0C1093E5 		ldr	r1, [r3, #12]
 934              		.loc 1 375 10 view .LVU336
 935 0028 030052E1 		cmp	r2, r3
 936              		.loc 1 374 22 view .LVU337
 937 002c 201084E5 		str	r1, [r4, #32]
 938              	.LVL61:
 939              		.loc 1 375 7 is_stmt 1 view .LVU338
 940              		.loc 1 383 22 is_stmt 0 view .LVU339
 941 0030 08508305 		streq	r5, [r3, #8]
 942 0034 0130A001 		moveq	r3, r1
 943              	.LVL62:
 944              		.loc 1 375 10 view .LVU340
 945 0038 0900000A 		beq	.L69
 946              	.LBB84:
 947              		.loc 1 378 21 view .LVU341
 948 003c 20C092E5 		ldr	ip, [r2, #32]
 949              	.LBB81:
 950              	.LBB78:
 951              		.loc 2 55 20 view .LVU342
 952 0040 001092E5 		ldr	r1, [r2]
 953              	.LBE78:
 954              	.LBE81:
 955              		.loc 1 380 9 view .LVU343
 956 0044 0200A0E1 		mov	r0, r2
 957              	.LBB82:
 958              	.LBB79:
 959              		.loc 2 55 16 view .LVU344
 960 0048 001083E5 		str	r1, [r3]
 961              		.loc 2 55 38 view .LVU345
 962 004c 043081E5 		str	r3, [r1, #4]
 963              		.loc 2 56 3 is_stmt 1 view .LVU346
 964              	.LVL63:
 965              		.loc 2 56 3 is_stmt 0 view .LVU347
 966              	.LBE79:
 967              	.LBE82:
 968              		.loc 1 377 9 is_stmt 1 view .LVU348
 969              		.loc 1 377 22 is_stmt 0 view .LVU349
ARM GAS  /var/folders/l5/0x54b2c10074c8bt31ycjvl80000gp/T//ccfxZmfD.s 			page 18


 970 0050 082083E5 		str	r2, [r3, #8]
 971              		.loc 1 378 9 is_stmt 1 view .LVU350
 972              		.loc 1 378 21 is_stmt 0 view .LVU351
 973 0054 0CC083E5 		str	ip, [r3, #12]
 974              		.loc 1 379 9 is_stmt 1 view .LVU352
 975              		.loc 1 379 23 is_stmt 0 view .LVU353
 976 0058 203082E5 		str	r3, [r2, #32]
 977              		.loc 1 380 9 is_stmt 1 view .LVU354
 978 005c FEFFFFEB 		bl	chSchReadyI
 979              	.LVL64:
 980              		.loc 1 380 9 is_stmt 0 view .LVU355
 981 0060 203094E5 		ldr	r3, [r4, #32]
 982              	.L69:
 983              		.loc 1 380 9 view .LVU356
 984              	.LBE84:
 985              	.LBE85:
 986              		.loc 1 384 5 view .LVU357
 987 0064 000053E3 		cmp	r3, #0
 988 0068 ECFFFF1A 		bne	.L70
 989              		.loc 1 385 5 is_stmt 1 view .LVU358
 990              		.loc 1 385 17 is_stmt 0 view .LVU359
 991 006c 243094E5 		ldr	r3, [r4, #36]
 992 0070 083084E5 		str	r3, [r4, #8]
 993              		.loc 1 386 5 is_stmt 1 view .LVU360
 994 0074 FEFFFFEB 		bl	chSchRescheduleS
 995              	.LVL65:
 996              	.L67:
 997              		.loc 1 388 3 view .LVU361
 998              		.loc 1 388 3 view .LVU362
 999              		.syntax divided
 1000              	@ 388 "../../../os/kernel/src/chmtx.c" 1
 1001 0078 1FF021E3 		msr     CPSR_c, #0x1F
 1002              	@ 0 "" 2
 1003              		.loc 1 388 16 view .LVU363
 1004              		.loc 1 389 1 is_stmt 0 view .LVU364
 1005              		.arm
 1006              		.syntax unified
 1007 007c 3080BDE8 		pop	{r4, r5, pc}
 1008              	.L77:
 1009              		.align	2
 1010              	.L76:
 1011 0080 00000000 		.word	rlist
 1012              		.cfi_endproc
 1013              	.LFE14:
 1014              		.size	chMtxUnlockAll, .-chMtxUnlockAll
 1015              		.text
 1016              	.Letext0:
 1017              		.file 3 "/usr/local/Cellar/arm-gcc-bin/8-2019-q3-update/arm-none-eabi/include/machine/_default_typ
 1018              		.file 4 "/usr/local/Cellar/arm-gcc-bin/8-2019-q3-update/arm-none-eabi/include/sys/_stdint.h"
 1019              		.file 5 "../../../os/ports/GCC/ARM/chtypes.h"
 1020              		.file 6 "../../../os/kernel/include/chlists.h"
 1021              		.file 7 "../../../os/kernel/include/chthreads.h"
 1022              		.file 8 "../../../os/ports/GCC/ARM/chcore.h"
 1023              		.file 9 "../../../os/kernel/include/chvt.h"
 1024              		.file 10 "../../../os/kernel/include/chschd.h"
 1025              		.file 11 "../../../os/kernel/include/chmtx.h"
 1026              		.file 12 "../../../os/kernel/include/ch.h"
ARM GAS  /var/folders/l5/0x54b2c10074c8bt31ycjvl80000gp/T//ccfxZmfD.s 			page 19


 1027              		.section	.debug_info,"",%progbits
 1028              	.Ldebug_info0:
 1029 0000 1C0A0000 		.4byte	0xa1c
 1030 0004 0400     		.2byte	0x4
 1031 0006 00000000 		.4byte	.Ldebug_abbrev0
 1032 000a 04       		.byte	0x4
 1033 000b 01       		.uleb128 0x1
 1034 000c 56010000 		.4byte	.LASF80
 1035 0010 0C       		.byte	0xc
 1036 0011 00000000 		.4byte	.LASF81
 1037 0015 AF000000 		.4byte	.LASF82
 1038 0019 68010000 		.4byte	.Ldebug_ranges0+0x168
 1039 001d 00000000 		.4byte	0
 1040 0021 00000000 		.4byte	.Ldebug_line0
 1041 0025 02       		.uleb128 0x2
 1042 0026 04       		.byte	0x4
 1043 0027 05       		.byte	0x5
 1044 0028 9D000000 		.4byte	.LASF0
 1045 002c 02       		.uleb128 0x2
 1046 002d 04       		.byte	0x4
 1047 002e 07       		.byte	0x7
 1048 002f 57020000 		.4byte	.LASF1
 1049 0033 02       		.uleb128 0x2
 1050 0034 01       		.byte	0x1
 1051 0035 06       		.byte	0x6
 1052 0036 78000000 		.4byte	.LASF2
 1053 003a 03       		.uleb128 0x3
 1054 003b 26000000 		.4byte	.LASF6
 1055 003f 03       		.byte	0x3
 1056 0040 2B       		.byte	0x2b
 1057 0041 18       		.byte	0x18
 1058 0042 46000000 		.4byte	0x46
 1059 0046 02       		.uleb128 0x2
 1060 0047 01       		.byte	0x1
 1061 0048 08       		.byte	0x8
 1062 0049 56030000 		.4byte	.LASF3
 1063 004d 02       		.uleb128 0x2
 1064 004e 02       		.byte	0x2
 1065 004f 05       		.byte	0x5
 1066 0050 6E030000 		.4byte	.LASF4
 1067 0054 02       		.uleb128 0x2
 1068 0055 02       		.byte	0x2
 1069 0056 07       		.byte	0x7
 1070 0057 72020000 		.4byte	.LASF5
 1071 005b 03       		.uleb128 0x3
 1072 005c 19040000 		.4byte	.LASF7
 1073 0060 03       		.byte	0x3
 1074 0061 4D       		.byte	0x4d
 1075 0062 18       		.byte	0x18
 1076 0063 25000000 		.4byte	0x25
 1077 0067 03       		.uleb128 0x3
 1078 0068 3A010000 		.4byte	.LASF8
 1079 006c 03       		.byte	0x3
 1080 006d 4F       		.byte	0x4f
 1081 006e 19       		.byte	0x19
 1082 006f 2C000000 		.4byte	0x2c
 1083 0073 02       		.uleb128 0x2
ARM GAS  /var/folders/l5/0x54b2c10074c8bt31ycjvl80000gp/T//ccfxZmfD.s 			page 20


 1084 0074 08       		.byte	0x8
 1085 0075 05       		.byte	0x5
 1086 0076 6A000000 		.4byte	.LASF9
 1087 007a 02       		.uleb128 0x2
 1088 007b 08       		.byte	0x8
 1089 007c 07       		.byte	0x7
 1090 007d 37000000 		.4byte	.LASF10
 1091 0081 03       		.uleb128 0x3
 1092 0082 53040000 		.4byte	.LASF11
 1093 0086 04       		.byte	0x4
 1094 0087 18       		.byte	0x18
 1095 0088 13       		.byte	0x13
 1096 0089 3A000000 		.4byte	0x3a
 1097 008d 03       		.uleb128 0x3
 1098 008e 4E030000 		.4byte	.LASF12
 1099 0092 04       		.byte	0x4
 1100 0093 2C       		.byte	0x2c
 1101 0094 13       		.byte	0x13
 1102 0095 5B000000 		.4byte	0x5b
 1103 0099 03       		.uleb128 0x3
 1104 009a C7030000 		.4byte	.LASF13
 1105 009e 04       		.byte	0x4
 1106 009f 30       		.byte	0x30
 1107 00a0 14       		.byte	0x14
 1108 00a1 67000000 		.4byte	0x67
 1109 00a5 04       		.uleb128 0x4
 1110 00a6 04       		.byte	0x4
 1111 00a7 05       		.byte	0x5
 1112 00a8 696E7400 		.ascii	"int\000"
 1113 00ac 02       		.uleb128 0x2
 1114 00ad 04       		.byte	0x4
 1115 00ae 07       		.byte	0x7
 1116 00af 42020000 		.4byte	.LASF14
 1117 00b3 03       		.uleb128 0x3
 1118 00b4 84000000 		.4byte	.LASF15
 1119 00b8 05       		.byte	0x5
 1120 00b9 29       		.byte	0x29
 1121 00ba 19       		.byte	0x19
 1122 00bb 8D000000 		.4byte	0x8d
 1123 00bf 03       		.uleb128 0x3
 1124 00c0 BB020000 		.4byte	.LASF16
 1125 00c4 05       		.byte	0x5
 1126 00c5 2A       		.byte	0x2a
 1127 00c6 19       		.byte	0x19
 1128 00c7 81000000 		.4byte	0x81
 1129 00cb 03       		.uleb128 0x3
 1130 00cc A6000000 		.4byte	.LASF17
 1131 00d0 05       		.byte	0x5
 1132 00d1 2B       		.byte	0x2b
 1133 00d2 19       		.byte	0x19
 1134 00d3 81000000 		.4byte	0x81
 1135 00d7 03       		.uleb128 0x3
 1136 00d8 93000000 		.4byte	.LASF18
 1137 00dc 05       		.byte	0x5
 1138 00dd 2D       		.byte	0x2d
 1139 00de 19       		.byte	0x19
 1140 00df 81000000 		.4byte	0x81
ARM GAS  /var/folders/l5/0x54b2c10074c8bt31ycjvl80000gp/T//ccfxZmfD.s 			page 21


 1141 00e3 03       		.uleb128 0x3
 1142 00e4 46030000 		.4byte	.LASF19
 1143 00e8 05       		.byte	0x5
 1144 00e9 2E       		.byte	0x2e
 1145 00ea 19       		.byte	0x19
 1146 00eb 99000000 		.4byte	0x99
 1147 00ef 03       		.uleb128 0x3
 1148 00f0 92020000 		.4byte	.LASF20
 1149 00f4 05       		.byte	0x5
 1150 00f5 2F       		.byte	0x2f
 1151 00f6 19       		.byte	0x19
 1152 00f7 8D000000 		.4byte	0x8d
 1153 00fb 03       		.uleb128 0x3
 1154 00fc CF020000 		.4byte	.LASF21
 1155 0100 05       		.byte	0x5
 1156 0101 31       		.byte	0x31
 1157 0102 19       		.byte	0x19
 1158 0103 99000000 		.4byte	0x99
 1159 0107 03       		.uleb128 0x3
 1160 0108 04040000 		.4byte	.LASF22
 1161 010c 05       		.byte	0x5
 1162 010d 33       		.byte	0x33
 1163 010e 19       		.byte	0x19
 1164 010f 99000000 		.4byte	0x99
 1165 0113 05       		.uleb128 0x5
 1166 0114 07010000 		.4byte	0x107
 1167 0118 03       		.uleb128 0x3
 1168 0119 A7030000 		.4byte	.LASF23
 1169 011d 06       		.byte	0x6
 1170 011e 23       		.byte	0x23
 1171 011f 17       		.byte	0x17
 1172 0120 24010000 		.4byte	0x124
 1173 0124 06       		.uleb128 0x6
 1174 0125 A7030000 		.4byte	.LASF23
 1175 0129 28       		.byte	0x28
 1176 012a 07       		.byte	0x7
 1177 012b 57       		.byte	0x57
 1178 012c 08       		.byte	0x8
 1179 012d CE010000 		.4byte	0x1ce
 1180 0131 07       		.uleb128 0x7
 1181 0132 98030000 		.4byte	.LASF24
 1182 0136 07       		.byte	0x7
 1183 0137 58       		.byte	0x58
 1184 0138 1A       		.byte	0x1a
 1185 0139 F2010000 		.4byte	0x1f2
 1186 013d 00       		.byte	0
 1187 013e 07       		.uleb128 0x7
 1188 013f 3F030000 		.4byte	.LASF25
 1189 0143 07       		.byte	0x7
 1190 0144 5A       		.byte	0x5a
 1191 0145 1A       		.byte	0x1a
 1192 0146 F2010000 		.4byte	0x1f2
 1193 014a 04       		.byte	0x4
 1194 014b 07       		.uleb128 0x7
 1195 014c 63000000 		.4byte	.LASF26
 1196 0150 07       		.byte	0x7
 1197 0151 5C       		.byte	0x5c
ARM GAS  /var/folders/l5/0x54b2c10074c8bt31ycjvl80000gp/T//ccfxZmfD.s 			page 22


 1198 0152 19       		.byte	0x19
 1199 0153 E3000000 		.4byte	0xe3
 1200 0157 08       		.byte	0x8
 1201 0158 07       		.uleb128 0x7
 1202 0159 75040000 		.4byte	.LASF27
 1203 015d 07       		.byte	0x7
 1204 015e 5D       		.byte	0x5d
 1205 015f 19       		.byte	0x19
 1206 0160 BD020000 		.4byte	0x2bd
 1207 0164 0C       		.byte	0xc
 1208 0165 07       		.uleb128 0x7
 1209 0166 78030000 		.4byte	.LASF28
 1210 016a 07       		.byte	0x7
 1211 016b 72       		.byte	0x72
 1212 016c 19       		.byte	0x19
 1213 016d CB000000 		.4byte	0xcb
 1214 0171 10       		.byte	0x10
 1215 0172 07       		.uleb128 0x7
 1216 0173 9F030000 		.4byte	.LASF29
 1217 0177 07       		.byte	0x7
 1218 0178 76       		.byte	0x76
 1219 0179 19       		.byte	0x19
 1220 017a BF000000 		.4byte	0xbf
 1221 017e 11       		.byte	0x11
 1222 017f 07       		.uleb128 0x7
 1223 0180 80030000 		.4byte	.LASF30
 1224 0184 07       		.byte	0x7
 1225 0185 81       		.byte	0x81
 1226 0186 19       		.byte	0x19
 1227 0187 D7000000 		.4byte	0xd7
 1228 018b 12       		.byte	0x12
 1229 018c 08       		.uleb128 0x8
 1230 018d 705F7500 		.ascii	"p_u\000"
 1231 0191 07       		.byte	0x7
 1232 0192 AD       		.byte	0xad
 1233 0193 19       		.byte	0x19
 1234 0194 4F040000 		.4byte	0x44f
 1235 0198 14       		.byte	0x14
 1236 0199 07       		.uleb128 0x7
 1237 019a 7B040000 		.4byte	.LASF31
 1238 019e 07       		.byte	0x7
 1239 019f B2       		.byte	0xb2
 1240 01a0 19       		.byte	0x19
 1241 01a1 1B020000 		.4byte	0x21b
 1242 01a5 18       		.byte	0x18
 1243 01a6 07       		.uleb128 0x7
 1244 01a7 BC030000 		.4byte	.LASF32
 1245 01ab 07       		.byte	0x7
 1246 01ac C2       		.byte	0xc2
 1247 01ad 19       		.byte	0x19
 1248 01ae FB000000 		.4byte	0xfb
 1249 01b2 1C       		.byte	0x1c
 1250 01b3 07       		.uleb128 0x7
 1251 01b4 64030000 		.4byte	.LASF33
 1252 01b8 07       		.byte	0x7
 1253 01b9 C9       		.byte	0xc9
 1254 01ba 1A       		.byte	0x1a
ARM GAS  /var/folders/l5/0x54b2c10074c8bt31ycjvl80000gp/T//ccfxZmfD.s 			page 23


 1255 01bb 89040000 		.4byte	0x489
 1256 01bf 20       		.byte	0x20
 1257 01c0 07       		.uleb128 0x7
 1258 01c1 0E040000 		.4byte	.LASF34
 1259 01c5 07       		.byte	0x7
 1260 01c6 CD       		.byte	0xcd
 1261 01c7 19       		.byte	0x19
 1262 01c8 E3000000 		.4byte	0xe3
 1263 01cc 24       		.byte	0x24
 1264 01cd 00       		.byte	0
 1265 01ce 09       		.uleb128 0x9
 1266 01cf 08       		.byte	0x8
 1267 01d0 06       		.byte	0x6
 1268 01d1 5A       		.byte	0x5a
 1269 01d2 09       		.byte	0x9
 1270 01d3 F2010000 		.4byte	0x1f2
 1271 01d7 07       		.uleb128 0x7
 1272 01d8 98030000 		.4byte	.LASF24
 1273 01dc 06       		.byte	0x6
 1274 01dd 5B       		.byte	0x5b
 1275 01de 1A       		.byte	0x1a
 1276 01df F2010000 		.4byte	0x1f2
 1277 01e3 00       		.byte	0
 1278 01e4 07       		.uleb128 0x7
 1279 01e5 3F030000 		.4byte	.LASF25
 1280 01e9 06       		.byte	0x6
 1281 01ea 5D       		.byte	0x5d
 1282 01eb 1A       		.byte	0x1a
 1283 01ec F2010000 		.4byte	0x1f2
 1284 01f0 04       		.byte	0x4
 1285 01f1 00       		.byte	0
 1286 01f2 0A       		.uleb128 0xa
 1287 01f3 04       		.byte	0x4
 1288 01f4 18010000 		.4byte	0x118
 1289 01f8 03       		.uleb128 0x3
 1290 01f9 20030000 		.4byte	.LASF35
 1291 01fd 06       		.byte	0x6
 1292 01fe 5F       		.byte	0x5f
 1293 01ff 03       		.byte	0x3
 1294 0200 CE010000 		.4byte	0x1ce
 1295 0204 09       		.uleb128 0x9
 1296 0205 04       		.byte	0x4
 1297 0206 06       		.byte	0x6
 1298 0207 64       		.byte	0x64
 1299 0208 09       		.byte	0x9
 1300 0209 1B020000 		.4byte	0x21b
 1301 020d 07       		.uleb128 0x7
 1302 020e 98030000 		.4byte	.LASF24
 1303 0212 06       		.byte	0x6
 1304 0213 66       		.byte	0x66
 1305 0214 16       		.byte	0x16
 1306 0215 F2010000 		.4byte	0x1f2
 1307 0219 00       		.byte	0
 1308 021a 00       		.byte	0
 1309 021b 03       		.uleb128 0x3
 1310 021c C3020000 		.4byte	.LASF36
 1311 0220 06       		.byte	0x6
ARM GAS  /var/folders/l5/0x54b2c10074c8bt31ycjvl80000gp/T//ccfxZmfD.s 			page 24


 1312 0221 69       		.byte	0x69
 1313 0222 03       		.byte	0x3
 1314 0223 04020000 		.4byte	0x204
 1315 0227 03       		.uleb128 0x3
 1316 0228 EE020000 		.4byte	.LASF37
 1317 022c 08       		.byte	0x8
 1318 022d 9D       		.byte	0x9d
 1319 022e 12       		.byte	0x12
 1320 022f 99000000 		.4byte	0x99
 1321 0233 03       		.uleb128 0x3
 1322 0234 45010000 		.4byte	.LASF38
 1323 0238 08       		.byte	0x8
 1324 0239 A2       		.byte	0xa2
 1325 023a 0F       		.byte	0xf
 1326 023b 3F020000 		.4byte	0x23f
 1327 023f 0B       		.uleb128 0xb
 1328 0240 04       		.byte	0x4
 1329 0241 06       		.uleb128 0x6
 1330 0242 2B040000 		.4byte	.LASF39
 1331 0246 24       		.byte	0x24
 1332 0247 08       		.byte	0x8
 1333 0248 B9       		.byte	0xb9
 1334 0249 08       		.byte	0x8
 1335 024a BD020000 		.4byte	0x2bd
 1336 024e 08       		.uleb128 0x8
 1337 024f 723400   		.ascii	"r4\000"
 1338 0252 08       		.byte	0x8
 1339 0253 BA       		.byte	0xba
 1340 0254 11       		.byte	0x11
 1341 0255 33020000 		.4byte	0x233
 1342 0259 00       		.byte	0
 1343 025a 08       		.uleb128 0x8
 1344 025b 723500   		.ascii	"r5\000"
 1345 025e 08       		.byte	0x8
 1346 025f BB       		.byte	0xbb
 1347 0260 11       		.byte	0x11
 1348 0261 33020000 		.4byte	0x233
 1349 0265 04       		.byte	0x4
 1350 0266 08       		.uleb128 0x8
 1351 0267 723600   		.ascii	"r6\000"
 1352 026a 08       		.byte	0x8
 1353 026b BC       		.byte	0xbc
 1354 026c 11       		.byte	0x11
 1355 026d 33020000 		.4byte	0x233
 1356 0271 08       		.byte	0x8
 1357 0272 08       		.uleb128 0x8
 1358 0273 723700   		.ascii	"r7\000"
 1359 0276 08       		.byte	0x8
 1360 0277 BD       		.byte	0xbd
 1361 0278 11       		.byte	0x11
 1362 0279 33020000 		.4byte	0x233
 1363 027d 0C       		.byte	0xc
 1364 027e 08       		.uleb128 0x8
 1365 027f 723800   		.ascii	"r8\000"
 1366 0282 08       		.byte	0x8
 1367 0283 BE       		.byte	0xbe
 1368 0284 11       		.byte	0x11
ARM GAS  /var/folders/l5/0x54b2c10074c8bt31ycjvl80000gp/T//ccfxZmfD.s 			page 25


 1369 0285 33020000 		.4byte	0x233
 1370 0289 10       		.byte	0x10
 1371 028a 08       		.uleb128 0x8
 1372 028b 723900   		.ascii	"r9\000"
 1373 028e 08       		.byte	0x8
 1374 028f BF       		.byte	0xbf
 1375 0290 11       		.byte	0x11
 1376 0291 33020000 		.4byte	0x233
 1377 0295 14       		.byte	0x14
 1378 0296 08       		.uleb128 0x8
 1379 0297 72313000 		.ascii	"r10\000"
 1380 029b 08       		.byte	0x8
 1381 029c C0       		.byte	0xc0
 1382 029d 11       		.byte	0x11
 1383 029e 33020000 		.4byte	0x233
 1384 02a2 18       		.byte	0x18
 1385 02a3 08       		.uleb128 0x8
 1386 02a4 72313100 		.ascii	"r11\000"
 1387 02a8 08       		.byte	0x8
 1388 02a9 C1       		.byte	0xc1
 1389 02aa 11       		.byte	0x11
 1390 02ab 33020000 		.4byte	0x233
 1391 02af 1C       		.byte	0x1c
 1392 02b0 08       		.uleb128 0x8
 1393 02b1 6C7200   		.ascii	"lr\000"
 1394 02b4 08       		.byte	0x8
 1395 02b5 C2       		.byte	0xc2
 1396 02b6 11       		.byte	0x11
 1397 02b7 33020000 		.4byte	0x233
 1398 02bb 20       		.byte	0x20
 1399 02bc 00       		.byte	0
 1400 02bd 06       		.uleb128 0x6
 1401 02be 23040000 		.4byte	.LASF40
 1402 02c2 04       		.byte	0x4
 1403 02c3 08       		.byte	0x8
 1404 02c4 CA       		.byte	0xca
 1405 02c5 08       		.byte	0x8
 1406 02c6 D8020000 		.4byte	0x2d8
 1407 02ca 08       		.uleb128 0x8
 1408 02cb 72313300 		.ascii	"r13\000"
 1409 02cf 08       		.byte	0x8
 1410 02d0 CB       		.byte	0xcb
 1411 02d1 12       		.byte	0x12
 1412 02d2 D8020000 		.4byte	0x2d8
 1413 02d6 00       		.byte	0
 1414 02d7 00       		.byte	0
 1415 02d8 0A       		.uleb128 0xa
 1416 02d9 04       		.byte	0x4
 1417 02da 41020000 		.4byte	0x241
 1418 02de 03       		.uleb128 0x3
 1419 02df 69020000 		.4byte	.LASF41
 1420 02e3 09       		.byte	0x9
 1421 02e4 4E       		.byte	0x4e
 1422 02e5 10       		.byte	0x10
 1423 02e6 EA020000 		.4byte	0x2ea
 1424 02ea 0A       		.uleb128 0xa
 1425 02eb 04       		.byte	0x4
ARM GAS  /var/folders/l5/0x54b2c10074c8bt31ycjvl80000gp/T//ccfxZmfD.s 			page 26


 1426 02ec F0020000 		.4byte	0x2f0
 1427 02f0 0C       		.uleb128 0xc
 1428 02f1 FB020000 		.4byte	0x2fb
 1429 02f5 0D       		.uleb128 0xd
 1430 02f6 3F020000 		.4byte	0x23f
 1431 02fa 00       		.byte	0
 1432 02fb 03       		.uleb128 0x3
 1433 02fc D8030000 		.4byte	.LASF42
 1434 0300 09       		.byte	0x9
 1435 0301 53       		.byte	0x53
 1436 0302 1D       		.byte	0x1d
 1437 0303 07030000 		.4byte	0x307
 1438 0307 06       		.uleb128 0x6
 1439 0308 D8030000 		.4byte	.LASF42
 1440 030c 14       		.byte	0x14
 1441 030d 09       		.byte	0x9
 1442 030e 5A       		.byte	0x5a
 1443 030f 08       		.byte	0x8
 1444 0310 56030000 		.4byte	0x356
 1445 0314 07       		.uleb128 0x7
 1446 0315 4F020000 		.4byte	.LASF43
 1447 0319 09       		.byte	0x9
 1448 031a 5B       		.byte	0x5b
 1449 031b 1A       		.byte	0x1a
 1450 031c 56030000 		.4byte	0x356
 1451 0320 00       		.byte	0
 1452 0321 07       		.uleb128 0x7
 1453 0322 4E010000 		.4byte	.LASF44
 1454 0326 09       		.byte	0x9
 1455 0327 5D       		.byte	0x5d
 1456 0328 1A       		.byte	0x1a
 1457 0329 56030000 		.4byte	0x356
 1458 032d 04       		.byte	0x4
 1459 032e 07       		.uleb128 0x7
 1460 032f F9020000 		.4byte	.LASF45
 1461 0333 09       		.byte	0x9
 1462 0334 5F       		.byte	0x5f
 1463 0335 19       		.byte	0x19
 1464 0336 07010000 		.4byte	0x107
 1465 033a 08       		.byte	0x8
 1466 033b 07       		.uleb128 0x7
 1467 033c 01030000 		.4byte	.LASF46
 1468 0340 09       		.byte	0x9
 1469 0341 60       		.byte	0x60
 1470 0342 19       		.byte	0x19
 1471 0343 DE020000 		.4byte	0x2de
 1472 0347 0C       		.byte	0xc
 1473 0348 07       		.uleb128 0x7
 1474 0349 32040000 		.4byte	.LASF47
 1475 034d 09       		.byte	0x9
 1476 034e 62       		.byte	0x62
 1477 034f 1A       		.byte	0x1a
 1478 0350 3F020000 		.4byte	0x23f
 1479 0354 10       		.byte	0x10
 1480 0355 00       		.byte	0
 1481 0356 0A       		.uleb128 0xa
 1482 0357 04       		.byte	0x4
ARM GAS  /var/folders/l5/0x54b2c10074c8bt31ycjvl80000gp/T//ccfxZmfD.s 			page 27


 1483 0358 FB020000 		.4byte	0x2fb
 1484 035c 09       		.uleb128 0x9
 1485 035d 10       		.byte	0x10
 1486 035e 09       		.byte	0x9
 1487 035f 6C       		.byte	0x6c
 1488 0360 09       		.byte	0x9
 1489 0361 9A030000 		.4byte	0x39a
 1490 0365 07       		.uleb128 0x7
 1491 0366 4F020000 		.4byte	.LASF43
 1492 036a 09       		.byte	0x9
 1493 036b 6D       		.byte	0x6d
 1494 036c 1A       		.byte	0x1a
 1495 036d 56030000 		.4byte	0x356
 1496 0371 00       		.byte	0
 1497 0372 07       		.uleb128 0x7
 1498 0373 4E010000 		.4byte	.LASF44
 1499 0377 09       		.byte	0x9
 1500 0378 6F       		.byte	0x6f
 1501 0379 1A       		.byte	0x1a
 1502 037a 56030000 		.4byte	0x356
 1503 037e 04       		.byte	0x4
 1504 037f 07       		.uleb128 0x7
 1505 0380 F9020000 		.4byte	.LASF45
 1506 0384 09       		.byte	0x9
 1507 0385 71       		.byte	0x71
 1508 0386 19       		.byte	0x19
 1509 0387 07010000 		.4byte	0x107
 1510 038b 08       		.byte	0x8
 1511 038c 07       		.uleb128 0x7
 1512 038d 62040000 		.4byte	.LASF48
 1513 0391 09       		.byte	0x9
 1514 0392 72       		.byte	0x72
 1515 0393 19       		.byte	0x19
 1516 0394 13010000 		.4byte	0x113
 1517 0398 0C       		.byte	0xc
 1518 0399 00       		.byte	0
 1519 039a 03       		.uleb128 0x3
 1520 039b 13030000 		.4byte	.LASF49
 1521 039f 09       		.byte	0x9
 1522 03a0 73       		.byte	0x73
 1523 03a1 03       		.byte	0x3
 1524 03a2 5C030000 		.4byte	0x35c
 1525 03a6 0E       		.uleb128 0xe
 1526 03a7 30000000 		.4byte	.LASF55
 1527 03ab 09       		.byte	0x9
 1528 03ac D1       		.byte	0xd1
 1529 03ad 0F       		.byte	0xf
 1530 03ae 9A030000 		.4byte	0x39a
 1531 03b2 09       		.uleb128 0x9
 1532 03b3 14       		.byte	0x14
 1533 03b4 0A       		.byte	0xa
 1534 03b5 57       		.byte	0x57
 1535 03b6 09       		.byte	0x9
 1536 03b7 F0030000 		.4byte	0x3f0
 1537 03bb 07       		.uleb128 0x7
 1538 03bc D0030000 		.4byte	.LASF50
 1539 03c0 0A       		.byte	0xa
ARM GAS  /var/folders/l5/0x54b2c10074c8bt31ycjvl80000gp/T//ccfxZmfD.s 			page 28


 1540 03c1 58       		.byte	0x58
 1541 03c2 19       		.byte	0x19
 1542 03c3 F8010000 		.4byte	0x1f8
 1543 03c7 00       		.byte	0
 1544 03c8 07       		.uleb128 0x7
 1545 03c9 8A030000 		.4byte	.LASF51
 1546 03cd 0A       		.byte	0xa
 1547 03ce 59       		.byte	0x59
 1548 03cf 19       		.byte	0x19
 1549 03d0 E3000000 		.4byte	0xe3
 1550 03d4 08       		.byte	0x8
 1551 03d5 07       		.uleb128 0x7
 1552 03d6 1A030000 		.4byte	.LASF52
 1553 03da 0A       		.byte	0xa
 1554 03db 5B       		.byte	0x5b
 1555 03dc 19       		.byte	0x19
 1556 03dd BD020000 		.4byte	0x2bd
 1557 03e1 0C       		.byte	0xc
 1558 03e2 07       		.uleb128 0x7
 1559 03e3 35030000 		.4byte	.LASF53
 1560 03e7 0A       		.byte	0xa
 1561 03e8 62       		.byte	0x62
 1562 03e9 1A       		.byte	0x1a
 1563 03ea F2010000 		.4byte	0x1f2
 1564 03ee 10       		.byte	0x10
 1565 03ef 00       		.byte	0
 1566 03f0 03       		.uleb128 0x3
 1567 03f1 43040000 		.4byte	.LASF54
 1568 03f5 0A       		.byte	0xa
 1569 03f6 64       		.byte	0x64
 1570 03f7 03       		.byte	0x3
 1571 03f8 B2030000 		.4byte	0x3b2
 1572 03fc 0E       		.uleb128 0xe
 1573 03fd 4D040000 		.4byte	.LASF56
 1574 0401 0A       		.byte	0xa
 1575 0402 68       		.byte	0x68
 1576 0403 12       		.byte	0x12
 1577 0404 F0030000 		.4byte	0x3f0
 1578 0408 06       		.uleb128 0x6
 1579 0409 E8020000 		.4byte	.LASF57
 1580 040d 10       		.byte	0x10
 1581 040e 0B       		.byte	0xb
 1582 040f 25       		.byte	0x25
 1583 0410 10       		.byte	0x10
 1584 0411 3D040000 		.4byte	0x43d
 1585 0415 07       		.uleb128 0x7
 1586 0416 8B000000 		.4byte	.LASF58
 1587 041a 0B       		.byte	0xb
 1588 041b 26       		.byte	0x26
 1589 041c 19       		.byte	0x19
 1590 041d F8010000 		.4byte	0x1f8
 1591 0421 00       		.byte	0
 1592 0422 07       		.uleb128 0x7
 1593 0423 6D040000 		.4byte	.LASF59
 1594 0427 0B       		.byte	0xb
 1595 0428 28       		.byte	0x28
 1596 0429 1A       		.byte	0x1a
ARM GAS  /var/folders/l5/0x54b2c10074c8bt31ycjvl80000gp/T//ccfxZmfD.s 			page 29


 1597 042a F2010000 		.4byte	0x1f2
 1598 042e 08       		.byte	0x8
 1599 042f 07       		.uleb128 0x7
 1600 0430 FD030000 		.4byte	.LASF60
 1601 0434 0B       		.byte	0xb
 1602 0435 2A       		.byte	0x2a
 1603 0436 1A       		.byte	0x1a
 1604 0437 3D040000 		.4byte	0x43d
 1605 043b 0C       		.byte	0xc
 1606 043c 00       		.byte	0
 1607 043d 0A       		.uleb128 0xa
 1608 043e 04       		.byte	0x4
 1609 043f 08040000 		.4byte	0x408
 1610 0443 03       		.uleb128 0x3
 1611 0444 E8020000 		.4byte	.LASF57
 1612 0448 0B       		.byte	0xb
 1613 0449 2C       		.byte	0x2c
 1614 044a 03       		.byte	0x3
 1615 044b 08040000 		.4byte	0x408
 1616 044f 0F       		.uleb128 0xf
 1617 0450 04       		.byte	0x4
 1618 0451 07       		.byte	0x7
 1619 0452 8F       		.byte	0x8f
 1620 0453 03       		.byte	0x3
 1621 0454 89040000 		.4byte	0x489
 1622 0458 10       		.uleb128 0x10
 1623 0459 1F000000 		.4byte	.LASF61
 1624 045d 07       		.byte	0x7
 1625 045e 96       		.byte	0x96
 1626 045f 19       		.byte	0x19
 1627 0460 EF000000 		.4byte	0xef
 1628 0464 10       		.uleb128 0x10
 1629 0465 4E000000 		.4byte	.LASF62
 1630 0469 07       		.byte	0x7
 1631 046a 9D       		.byte	0x9d
 1632 046b 19       		.byte	0x19
 1633 046c EF000000 		.4byte	0xef
 1634 0470 10       		.uleb128 0x10
 1635 0471 5B040000 		.4byte	.LASF63
 1636 0475 07       		.byte	0x7
 1637 0476 A4       		.byte	0xa4
 1638 0477 1A       		.byte	0x1a
 1639 0478 3F020000 		.4byte	0x23f
 1640 047c 10       		.uleb128 0x10
 1641 047d 91030000 		.4byte	.LASF64
 1642 0481 07       		.byte	0x7
 1643 0482 AB       		.byte	0xab
 1644 0483 19       		.byte	0x19
 1645 0484 FB000000 		.4byte	0xfb
 1646 0488 00       		.byte	0
 1647 0489 0A       		.uleb128 0xa
 1648 048a 04       		.byte	0x4
 1649 048b 43040000 		.4byte	0x443
 1650 048f 11       		.uleb128 0x11
 1651 0490 27020000 		.4byte	0x227
 1652 0494 9F040000 		.4byte	0x49f
 1653 0498 12       		.uleb128 0x12
ARM GAS  /var/folders/l5/0x54b2c10074c8bt31ycjvl80000gp/T//ccfxZmfD.s 			page 30


 1654 0499 2C000000 		.4byte	0x2c
 1655 049d 1F       		.byte	0x1f
 1656 049e 00       		.byte	0
 1657 049f 0E       		.uleb128 0xe
 1658 04a0 19010000 		.4byte	.LASF65
 1659 04a4 0C       		.byte	0xc
 1660 04a5 82       		.byte	0x82
 1661 04a6 08       		.byte	0x8
 1662 04a7 8F040000 		.4byte	0x48f
 1663 04ab 13       		.uleb128 0x13
 1664 04ac A4020000 		.4byte	.LASF70
 1665 04b0 01       		.byte	0x1
 1666 04b1 6F01     		.2byte	0x16f
 1667 04b3 06       		.byte	0x6
 1668 04b4 00000000 		.4byte	.LFB14
 1669 04b8 84000000 		.4byte	.LFE14-.LFB14
 1670 04bc 01       		.uleb128 0x1
 1671 04bd 9C       		.byte	0x9c
 1672 04be 5A050000 		.4byte	0x55a
 1673 04c2 14       		.uleb128 0x14
 1674 04c3 63747000 		.ascii	"ctp\000"
 1675 04c7 01       		.byte	0x1
 1676 04c8 7001     		.2byte	0x170
 1677 04ca 0B       		.byte	0xb
 1678 04cb F2010000 		.4byte	0x1f2
 1679 04cf 02000000 		.4byte	.LLST32
 1680 04d3 00000000 		.4byte	.LVUS32
 1681 04d7 15       		.uleb128 0x15
 1682 04d8 08010000 		.4byte	.Ldebug_ranges0+0x108
 1683 04dc 50050000 		.4byte	0x550
 1684 04e0 14       		.uleb128 0x14
 1685 04e1 756D7000 		.ascii	"ump\000"
 1686 04e5 01       		.byte	0x1
 1687 04e6 7501     		.2byte	0x175
 1688 04e8 0E       		.byte	0xe
 1689 04e9 89040000 		.4byte	0x489
 1690 04ed 17000000 		.4byte	.LLST33
 1691 04f1 15000000 		.4byte	.LVUS33
 1692 04f5 16       		.uleb128 0x16
 1693 04f6 20010000 		.4byte	.Ldebug_ranges0+0x120
 1694 04fa 14       		.uleb128 0x14
 1695 04fb 747000   		.ascii	"tp\000"
 1696 04fe 01       		.byte	0x1
 1697 04ff 7801     		.2byte	0x178
 1698 0501 11       		.byte	0x11
 1699 0502 F2010000 		.4byte	0x1f2
 1700 0506 2D000000 		.4byte	.LLST34
 1701 050a 2B000000 		.4byte	.LVUS34
 1702 050e 17       		.uleb128 0x17
 1703 050f 50090000 		.4byte	0x950
 1704 0513 20000000 		.4byte	.LBI75
 1705 0517 05       		.byte	.LVU330
 1706 0518 40010000 		.4byte	.Ldebug_ranges0+0x140
 1707 051c 01       		.byte	0x1
 1708 051d 7801     		.2byte	0x178
 1709 051f 16       		.byte	0x16
 1710 0520 45050000 		.4byte	0x545
ARM GAS  /var/folders/l5/0x54b2c10074c8bt31ycjvl80000gp/T//ccfxZmfD.s 			page 31


 1711 0524 18       		.uleb128 0x18
 1712 0525 61090000 		.4byte	0x961
 1713 0529 42000000 		.4byte	.LLST35
 1714 052d 40000000 		.4byte	.LVUS35
 1715 0531 16       		.uleb128 0x16
 1716 0532 40010000 		.4byte	.Ldebug_ranges0+0x140
 1717 0536 19       		.uleb128 0x19
 1718 0537 6D090000 		.4byte	0x96d
 1719 053b 57000000 		.4byte	.LLST36
 1720 053f 55000000 		.4byte	.LVUS36
 1721 0543 00       		.byte	0
 1722 0544 00       		.byte	0
 1723 0545 1A       		.uleb128 0x1a
 1724 0546 60000000 		.4byte	.LVL64
 1725 054a EF090000 		.4byte	0x9ef
 1726 054e 00       		.byte	0
 1727 054f 00       		.byte	0
 1728 0550 1A       		.uleb128 0x1a
 1729 0551 78000000 		.4byte	.LVL65
 1730 0555 FB090000 		.4byte	0x9fb
 1731 0559 00       		.byte	0
 1732 055a 1B       		.uleb128 0x1b
 1733 055b 35020000 		.4byte	.LASF67
 1734 055f 01       		.byte	0x1
 1735 0560 3601     		.2byte	0x136
 1736 0562 08       		.byte	0x8
 1737 0563 89040000 		.4byte	0x489
 1738 0567 00000000 		.4byte	.LFB13
 1739 056b 98000000 		.4byte	.LFE13-.LFB13
 1740 056f 01       		.uleb128 0x1
 1741 0570 9C       		.byte	0x9c
 1742 0571 27060000 		.4byte	0x627
 1743 0575 14       		.uleb128 0x14
 1744 0576 63747000 		.ascii	"ctp\000"
 1745 057a 01       		.byte	0x1
 1746 057b 3701     		.2byte	0x137
 1747 057d 0B       		.byte	0xb
 1748 057e F2010000 		.4byte	0x1f2
 1749 0582 6E000000 		.4byte	.LLST25
 1750 0586 6A000000 		.4byte	.LVUS25
 1751 058a 14       		.uleb128 0x14
 1752 058b 756D7000 		.ascii	"ump\000"
 1753 058f 01       		.byte	0x1
 1754 0590 3801     		.2byte	0x138
 1755 0592 0A       		.byte	0xa
 1756 0593 89040000 		.4byte	0x489
 1757 0597 8E000000 		.4byte	.LLST26
 1758 059b 8C000000 		.4byte	.LVUS26
 1759 059f 14       		.uleb128 0x14
 1760 05a0 6D7000   		.ascii	"mp\000"
 1761 05a3 01       		.byte	0x1
 1762 05a4 3801     		.2byte	0x138
 1763 05a6 10       		.byte	0x10
 1764 05a7 89040000 		.4byte	0x489
 1765 05ab A3000000 		.4byte	.LLST27
 1766 05af A1000000 		.4byte	.LVUS27
 1767 05b3 1C       		.uleb128 0x1c
ARM GAS  /var/folders/l5/0x54b2c10074c8bt31ycjvl80000gp/T//ccfxZmfD.s 			page 32


 1768 05b4 24000000 		.4byte	.LBB66
 1769 05b8 58000000 		.4byte	.LBE66-.LBB66
 1770 05bc 14       		.uleb128 0x14
 1771 05bd 747000   		.ascii	"tp\000"
 1772 05c0 01       		.byte	0x1
 1773 05c1 4801     		.2byte	0x148
 1774 05c3 0D       		.byte	0xd
 1775 05c4 F2010000 		.4byte	0x1f2
 1776 05c8 B8000000 		.4byte	.LLST28
 1777 05cc B6000000 		.4byte	.LVUS28
 1778 05d0 1D       		.uleb128 0x1d
 1779 05d1 B3020000 		.4byte	.LASF66
 1780 05d5 01       		.byte	0x1
 1781 05d6 4C01     		.2byte	0x14c
 1782 05d8 0D       		.byte	0xd
 1783 05d9 E3000000 		.4byte	0xe3
 1784 05dd CD000000 		.4byte	.LLST29
 1785 05e1 CB000000 		.4byte	.LVUS29
 1786 05e5 17       		.uleb128 0x17
 1787 05e6 50090000 		.4byte	0x950
 1788 05ea 60000000 		.4byte	.LBI67
 1789 05ee 01       		.byte	.LVU290
 1790 05ef E8000000 		.4byte	.Ldebug_ranges0+0xe8
 1791 05f3 01       		.byte	0x1
 1792 05f4 5901     		.2byte	0x159
 1793 05f6 0A       		.byte	0xa
 1794 05f7 1C060000 		.4byte	0x61c
 1795 05fb 18       		.uleb128 0x18
 1796 05fc 61090000 		.4byte	0x961
 1797 0600 E2000000 		.4byte	.LLST30
 1798 0604 E0000000 		.4byte	.LVUS30
 1799 0608 16       		.uleb128 0x16
 1800 0609 E8000000 		.4byte	.Ldebug_ranges0+0xe8
 1801 060d 19       		.uleb128 0x19
 1802 060e 6D090000 		.4byte	0x96d
 1803 0612 F7000000 		.4byte	.LLST31
 1804 0616 F5000000 		.4byte	.LVUS31
 1805 061a 00       		.byte	0
 1806 061b 00       		.byte	0
 1807 061c 1A       		.uleb128 0x1a
 1808 061d 7C000000 		.4byte	.LVL55
 1809 0621 EF090000 		.4byte	0x9ef
 1810 0625 00       		.byte	0
 1811 0626 00       		.byte	0
 1812 0627 1E       		.uleb128 0x1e
 1813 0628 57000000 		.4byte	.LASF68
 1814 062c 01       		.byte	0x1
 1815 062d FA       		.byte	0xfa
 1816 062e 08       		.byte	0x8
 1817 062f 89040000 		.4byte	0x489
 1818 0633 00000000 		.4byte	.LFB12
 1819 0637 A0000000 		.4byte	.LFE12-.LFB12
 1820 063b 01       		.uleb128 0x1
 1821 063c 9C       		.byte	0x9c
 1822 063d F6060000 		.4byte	0x6f6
 1823 0641 1F       		.uleb128 0x1f
 1824 0642 63747000 		.ascii	"ctp\000"
ARM GAS  /var/folders/l5/0x54b2c10074c8bt31ycjvl80000gp/T//ccfxZmfD.s 			page 33


 1825 0646 01       		.byte	0x1
 1826 0647 FB       		.byte	0xfb
 1827 0648 0B       		.byte	0xb
 1828 0649 F2010000 		.4byte	0x1f2
 1829 064d 0E010000 		.4byte	.LLST18
 1830 0651 0A010000 		.4byte	.LVUS18
 1831 0655 1F       		.uleb128 0x1f
 1832 0656 756D7000 		.ascii	"ump\000"
 1833 065a 01       		.byte	0x1
 1834 065b FC       		.byte	0xfc
 1835 065c 0A       		.byte	0xa
 1836 065d 89040000 		.4byte	0x489
 1837 0661 2E010000 		.4byte	.LLST19
 1838 0665 2C010000 		.4byte	.LVUS19
 1839 0669 1F       		.uleb128 0x1f
 1840 066a 6D7000   		.ascii	"mp\000"
 1841 066d 01       		.byte	0x1
 1842 066e FC       		.byte	0xfc
 1843 066f 10       		.byte	0x10
 1844 0670 89040000 		.4byte	0x489
 1845 0674 43010000 		.4byte	.LLST20
 1846 0678 41010000 		.4byte	.LVUS20
 1847 067c 1C       		.uleb128 0x1c
 1848 067d 28000000 		.4byte	.LBB59
 1849 0681 5C000000 		.4byte	.LBE59-.LBB59
 1850 0685 14       		.uleb128 0x14
 1851 0686 747000   		.ascii	"tp\000"
 1852 0689 01       		.byte	0x1
 1853 068a 0B01     		.2byte	0x10b
 1854 068c 0D       		.byte	0xd
 1855 068d F2010000 		.4byte	0x1f2
 1856 0691 58010000 		.4byte	.LLST21
 1857 0695 56010000 		.4byte	.LVUS21
 1858 0699 1D       		.uleb128 0x1d
 1859 069a B3020000 		.4byte	.LASF66
 1860 069e 01       		.byte	0x1
 1861 069f 0F01     		.2byte	0x10f
 1862 06a1 0D       		.byte	0xd
 1863 06a2 E3000000 		.4byte	0xe3
 1864 06a6 6D010000 		.4byte	.LLST22
 1865 06aa 6B010000 		.4byte	.LVUS22
 1866 06ae 17       		.uleb128 0x17
 1867 06af 50090000 		.4byte	0x950
 1868 06b3 64000000 		.4byte	.LBI60
 1869 06b7 01       		.byte	.LVU226
 1870 06b8 C8000000 		.4byte	.Ldebug_ranges0+0xc8
 1871 06bc 01       		.byte	0x1
 1872 06bd 1E01     		.2byte	0x11e
 1873 06bf 0A       		.byte	0xa
 1874 06c0 E5060000 		.4byte	0x6e5
 1875 06c4 18       		.uleb128 0x18
 1876 06c5 61090000 		.4byte	0x961
 1877 06c9 82010000 		.4byte	.LLST23
 1878 06cd 80010000 		.4byte	.LVUS23
 1879 06d1 16       		.uleb128 0x16
 1880 06d2 C8000000 		.4byte	.Ldebug_ranges0+0xc8
 1881 06d6 19       		.uleb128 0x19
ARM GAS  /var/folders/l5/0x54b2c10074c8bt31ycjvl80000gp/T//ccfxZmfD.s 			page 34


 1882 06d7 6D090000 		.4byte	0x96d
 1883 06db 97010000 		.4byte	.LLST24
 1884 06df 95010000 		.4byte	.LVUS24
 1885 06e3 00       		.byte	0
 1886 06e4 00       		.byte	0
 1887 06e5 20       		.uleb128 0x20
 1888 06e6 84000000 		.4byte	.LVL44
 1889 06ea 070A0000 		.4byte	0xa07
 1890 06ee 21       		.uleb128 0x21
 1891 06ef 01       		.uleb128 0x1
 1892 06f0 51       		.byte	0x51
 1893 06f1 01       		.uleb128 0x1
 1894 06f2 30       		.byte	0x30
 1895 06f3 00       		.byte	0
 1896 06f4 00       		.byte	0
 1897 06f5 00       		.byte	0
 1898 06f6 22       		.uleb128 0x22
 1899 06f7 0B010000 		.4byte	.LASF83
 1900 06fb 01       		.byte	0x1
 1901 06fc E3       		.byte	0xe3
 1902 06fd 08       		.byte	0x8
 1903 06fe B3000000 		.4byte	0xb3
 1904 0702 01       		.byte	0x1
 1905 0703 13070000 		.4byte	0x713
 1906 0707 23       		.uleb128 0x23
 1907 0708 6D7000   		.ascii	"mp\000"
 1908 070b 01       		.byte	0x1
 1909 070c E3       		.byte	0xe3
 1910 070d 1D       		.byte	0x1d
 1911 070e 89040000 		.4byte	0x489
 1912 0712 00       		.byte	0
 1913 0713 1E       		.uleb128 0x1e
 1914 0714 DB020000 		.4byte	.LASF69
 1915 0718 01       		.byte	0x1
 1916 0719 C7       		.byte	0xc7
 1917 071a 08       		.byte	0x8
 1918 071b B3000000 		.4byte	0xb3
 1919 071f 00000000 		.4byte	.LFB10
 1920 0723 3C000000 		.4byte	.LFE10-.LFB10
 1921 0727 01       		.uleb128 0x1
 1922 0728 9C       		.byte	0x9c
 1923 0729 95070000 		.4byte	0x795
 1924 072d 24       		.uleb128 0x24
 1925 072e 6D7000   		.ascii	"mp\000"
 1926 0731 01       		.byte	0x1
 1927 0732 C7       		.byte	0xc7
 1928 0733 1C       		.byte	0x1c
 1929 0734 89040000 		.4byte	0x489
 1930 0738 AE010000 		.4byte	.LLST12
 1931 073c AA010000 		.4byte	.LVUS12
 1932 0740 1F       		.uleb128 0x1f
 1933 0741 6200     		.ascii	"b\000"
 1934 0743 01       		.byte	0x1
 1935 0744 C8       		.byte	0xc8
 1936 0745 0A       		.byte	0xa
 1937 0746 B3000000 		.4byte	0xb3
 1938 074a CE010000 		.4byte	.LLST13
ARM GAS  /var/folders/l5/0x54b2c10074c8bt31ycjvl80000gp/T//ccfxZmfD.s 			page 35


 1939 074e CC010000 		.4byte	.LVUS13
 1940 0752 25       		.uleb128 0x25
 1941 0753 F6060000 		.4byte	0x6f6
 1942 0757 08000000 		.4byte	.LBI47
 1943 075b 03       		.byte	.LVU136
 1944 075c 08000000 		.4byte	.LBB47
 1945 0760 28000000 		.4byte	.LBE47-.LBB47
 1946 0764 01       		.byte	0x1
 1947 0765 CC       		.byte	0xcc
 1948 0766 07       		.byte	0x7
 1949 0767 18       		.uleb128 0x18
 1950 0768 07070000 		.4byte	0x707
 1951 076c E5010000 		.4byte	.LLST14
 1952 0770 E1010000 		.4byte	.LVUS14
 1953 0774 26       		.uleb128 0x26
 1954 0775 F6060000 		.4byte	0x6f6
 1955 0779 10000000 		.4byte	.LBI49
 1956 077d 00       		.byte	.LVU143
 1957 077e 98000000 		.4byte	.Ldebug_ranges0+0x98
 1958 0782 01       		.byte	0x1
 1959 0783 E3       		.byte	0xe3
 1960 0784 08       		.byte	0x8
 1961 0785 18       		.uleb128 0x18
 1962 0786 07070000 		.4byte	0x707
 1963 078a 07020000 		.4byte	.LLST15
 1964 078e 03020000 		.4byte	.LVUS15
 1965 0792 00       		.byte	0
 1966 0793 00       		.byte	0
 1967 0794 00       		.byte	0
 1968 0795 27       		.uleb128 0x27
 1969 0796 00010000 		.4byte	.LASF71
 1970 079a 01       		.byte	0x1
 1971 079b 72       		.byte	0x72
 1972 079c 06       		.byte	0x6
 1973 079d 00000000 		.4byte	.LFB9
 1974 07a1 34010000 		.4byte	.LFE9-.LFB9
 1975 07a5 01       		.uleb128 0x1
 1976 07a6 9C       		.byte	0x9c
 1977 07a7 D4080000 		.4byte	0x8d4
 1978 07ab 24       		.uleb128 0x24
 1979 07ac 6D7000   		.ascii	"mp\000"
 1980 07af 01       		.byte	0x1
 1981 07b0 72       		.byte	0x72
 1982 07b1 18       		.byte	0x18
 1983 07b2 89040000 		.4byte	0x489
 1984 07b6 31020000 		.4byte	.LLST0
 1985 07ba 25020000 		.4byte	.LVUS0
 1986 07be 1F       		.uleb128 0x1f
 1987 07bf 63747000 		.ascii	"ctp\000"
 1988 07c3 01       		.byte	0x1
 1989 07c4 73       		.byte	0x73
 1990 07c5 0B       		.byte	0xb
 1991 07c6 F2010000 		.4byte	0x1f2
 1992 07ca 88020000 		.4byte	.LLST1
 1993 07ce 82020000 		.4byte	.LVUS1
 1994 07d2 16       		.uleb128 0x16
 1995 07d3 00000000 		.4byte	.Ldebug_ranges0+0
ARM GAS  /var/folders/l5/0x54b2c10074c8bt31ycjvl80000gp/T//ccfxZmfD.s 			page 36


 1996 07d7 1F       		.uleb128 0x1f
 1997 07d8 747000   		.ascii	"tp\000"
 1998 07db 01       		.byte	0x1
 1999 07dc 7D       		.byte	0x7d
 2000 07dd 0D       		.byte	0xd
 2001 07de F2010000 		.4byte	0x1f2
 2002 07e2 B6020000 		.4byte	.LLST2
 2003 07e6 B2020000 		.4byte	.LVUS2
 2004 07ea 28       		.uleb128 0x28
 2005 07eb 7F090000 		.4byte	0x97f
 2006 07ef 44000000 		.4byte	.LBI24
 2007 07f3 01       		.byte	.LVU32
 2008 07f4 18000000 		.4byte	.Ldebug_ranges0+0x18
 2009 07f8 01       		.byte	0x1
 2010 07f9 A6       		.byte	0xa6
 2011 07fa 05       		.byte	0x5
 2012 07fb 2D080000 		.4byte	0x82d
 2013 07ff 18       		.uleb128 0x18
 2014 0800 97090000 		.4byte	0x997
 2015 0804 D6020000 		.4byte	.LLST3
 2016 0808 D4020000 		.4byte	.LVUS3
 2017 080c 18       		.uleb128 0x18
 2018 080d 8C090000 		.4byte	0x98c
 2019 0811 EB020000 		.4byte	.LLST4
 2020 0815 E9020000 		.4byte	.LVUS4
 2021 0819 16       		.uleb128 0x16
 2022 081a 18000000 		.4byte	.Ldebug_ranges0+0x18
 2023 081e 19       		.uleb128 0x19
 2024 081f A3090000 		.4byte	0x9a3
 2025 0823 04030000 		.4byte	.LLST5
 2026 0827 FE020000 		.4byte	.LVUS5
 2027 082b 00       		.byte	0
 2028 082c 00       		.byte	0
 2029 082d 28       		.uleb128 0x28
 2030 082e 33090000 		.4byte	0x933
 2031 0832 90000000 		.4byte	.LBI28
 2032 0836 01       		.byte	.LVU58
 2033 0837 30000000 		.4byte	.Ldebug_ranges0+0x30
 2034 083b 01       		.byte	0x1
 2035 083c 87       		.byte	0x87
 2036 083d 09       		.byte	0x9
 2037 083e 50080000 		.4byte	0x850
 2038 0842 18       		.uleb128 0x18
 2039 0843 44090000 		.4byte	0x944
 2040 0847 30030000 		.4byte	.LLST6
 2041 084b 2E030000 		.4byte	.LVUS6
 2042 084f 00       		.byte	0
 2043 0850 28       		.uleb128 0x28
 2044 0851 7F090000 		.4byte	0x97f
 2045 0855 A8000000 		.4byte	.LBI34
 2046 0859 02       		.byte	.LVU69
 2047 085a 50000000 		.4byte	.Ldebug_ranges0+0x50
 2048 085e 01       		.byte	0x1
 2049 085f 87       		.byte	0x87
 2050 0860 09       		.byte	0x9
 2051 0861 93080000 		.4byte	0x893
 2052 0865 18       		.uleb128 0x18
ARM GAS  /var/folders/l5/0x54b2c10074c8bt31ycjvl80000gp/T//ccfxZmfD.s 			page 37


 2053 0866 97090000 		.4byte	0x997
 2054 086a 47030000 		.4byte	.LLST7
 2055 086e 43030000 		.4byte	.LVUS7
 2056 0872 18       		.uleb128 0x18
 2057 0873 8C090000 		.4byte	0x98c
 2058 0877 67030000 		.4byte	.LLST8
 2059 087b 65030000 		.4byte	.LVUS8
 2060 087f 16       		.uleb128 0x16
 2061 0880 68000000 		.4byte	.Ldebug_ranges0+0x68
 2062 0884 19       		.uleb128 0x19
 2063 0885 A3090000 		.4byte	0x9a3
 2064 0889 7E030000 		.4byte	.LLST9
 2065 088d 7A030000 		.4byte	.LVUS9
 2066 0891 00       		.byte	0
 2067 0892 00       		.byte	0
 2068 0893 28       		.uleb128 0x28
 2069 0894 33090000 		.4byte	0x933
 2070 0898 00010000 		.4byte	.LBI38
 2071 089c 01       		.byte	.LVU96
 2072 089d 80000000 		.4byte	.Ldebug_ranges0+0x80
 2073 08a1 01       		.byte	0x1
 2074 08a2 A0       		.byte	0xa0
 2075 08a3 09       		.byte	0x9
 2076 08a4 B6080000 		.4byte	0x8b6
 2077 08a8 18       		.uleb128 0x18
 2078 08a9 44090000 		.4byte	0x944
 2079 08ad 9F030000 		.4byte	.LLST10
 2080 08b1 9D030000 		.4byte	.LVUS10
 2081 08b5 00       		.byte	0
 2082 08b6 29       		.uleb128 0x29
 2083 08b7 90000000 		.4byte	.LVL11
 2084 08bb 130A0000 		.4byte	0xa13
 2085 08bf C9080000 		.4byte	0x8c9
 2086 08c3 21       		.uleb128 0x21
 2087 08c4 01       		.uleb128 0x1
 2088 08c5 50       		.byte	0x50
 2089 08c6 01       		.uleb128 0x1
 2090 08c7 34       		.byte	0x34
 2091 08c8 00       		.byte	0
 2092 08c9 1A       		.uleb128 0x1a
 2093 08ca 18010000 		.4byte	.LVL21
 2094 08ce EF090000 		.4byte	0x9ef
 2095 08d2 00       		.byte	0
 2096 08d3 00       		.byte	0
 2097 08d4 27       		.uleb128 0x27
 2098 08d5 09030000 		.4byte	.LASF72
 2099 08d9 01       		.byte	0x1
 2100 08da 60       		.byte	0x60
 2101 08db 06       		.byte	0x6
 2102 08dc 00000000 		.4byte	.LFB8
 2103 08e0 14000000 		.4byte	.LFE8-.LFB8
 2104 08e4 01       		.uleb128 0x1
 2105 08e5 9C       		.byte	0x9c
 2106 08e6 0F090000 		.4byte	0x90f
 2107 08ea 24       		.uleb128 0x24
 2108 08eb 6D7000   		.ascii	"mp\000"
 2109 08ee 01       		.byte	0x1
ARM GAS  /var/folders/l5/0x54b2c10074c8bt31ycjvl80000gp/T//ccfxZmfD.s 			page 38


 2110 08ef 60       		.byte	0x60
 2111 08f0 17       		.byte	0x17
 2112 08f1 89040000 		.4byte	0x489
 2113 08f5 B6030000 		.4byte	.LLST11
 2114 08f9 B2030000 		.4byte	.LVUS11
 2115 08fd 20       		.uleb128 0x20
 2116 08fe 0C000000 		.4byte	.LVL24
 2117 0902 95070000 		.4byte	0x795
 2118 0906 21       		.uleb128 0x21
 2119 0907 01       		.uleb128 0x1
 2120 0908 50       		.byte	0x50
 2121 0909 03       		.uleb128 0x3
 2122 090a F3       		.byte	0xf3
 2123 090b 01       		.uleb128 0x1
 2124 090c 50       		.byte	0x50
 2125 090d 00       		.byte	0
 2126 090e 00       		.byte	0
 2127 090f 27       		.uleb128 0x27
 2128 0910 39040000 		.4byte	.LASF73
 2129 0914 01       		.byte	0x1
 2130 0915 4F       		.byte	0x4f
 2131 0916 06       		.byte	0x6
 2132 0917 00000000 		.4byte	.LFB7
 2133 091b 14000000 		.4byte	.LFE7-.LFB7
 2134 091f 01       		.uleb128 0x1
 2135 0920 9C       		.byte	0x9c
 2136 0921 33090000 		.4byte	0x933
 2137 0925 2A       		.uleb128 0x2a
 2138 0926 6D7000   		.ascii	"mp\000"
 2139 0929 01       		.byte	0x1
 2140 092a 4F       		.byte	0x4f
 2141 092b 17       		.byte	0x17
 2142 092c 89040000 		.4byte	0x489
 2143 0930 01       		.uleb128 0x1
 2144 0931 50       		.byte	0x50
 2145 0932 00       		.byte	0
 2146 0933 2B       		.uleb128 0x2b
 2147 0934 2D030000 		.4byte	.LASF74
 2148 0938 02       		.byte	0x2
 2149 0939 42       		.byte	0x42
 2150 093a 17       		.byte	0x17
 2151 093b F2010000 		.4byte	0x1f2
 2152 093f 03       		.byte	0x3
 2153 0940 50090000 		.4byte	0x950
 2154 0944 23       		.uleb128 0x23
 2155 0945 747000   		.ascii	"tp\000"
 2156 0948 02       		.byte	0x2
 2157 0949 42       		.byte	0x42
 2158 094a 27       		.byte	0x27
 2159 094b F2010000 		.4byte	0x1f2
 2160 094f 00       		.byte	0
 2161 0950 2B       		.uleb128 0x2b
 2162 0951 F1030000 		.4byte	.LASF75
 2163 0955 02       		.byte	0x2
 2164 0956 34       		.byte	0x34
 2165 0957 17       		.byte	0x17
 2166 0958 F2010000 		.4byte	0x1f2
ARM GAS  /var/folders/l5/0x54b2c10074c8bt31ycjvl80000gp/T//ccfxZmfD.s 			page 39


 2167 095c 03       		.byte	0x3
 2168 095d 79090000 		.4byte	0x979
 2169 0961 23       		.uleb128 0x23
 2170 0962 74717000 		.ascii	"tqp\000"
 2171 0966 02       		.byte	0x2
 2172 0967 34       		.byte	0x34
 2173 0968 31       		.byte	0x31
 2174 0969 79090000 		.4byte	0x979
 2175 096d 2C       		.uleb128 0x2c
 2176 096e 747000   		.ascii	"tp\000"
 2177 0971 02       		.byte	0x2
 2178 0972 35       		.byte	0x35
 2179 0973 0B       		.byte	0xb
 2180 0974 F2010000 		.4byte	0x1f2
 2181 0978 00       		.byte	0
 2182 0979 0A       		.uleb128 0xa
 2183 097a 04       		.byte	0x4
 2184 097b F8010000 		.4byte	0x1f8
 2185 097f 2D       		.uleb128 0x2d
 2186 0980 98020000 		.4byte	.LASF84
 2187 0984 02       		.byte	0x2
 2188 0985 22       		.byte	0x22
 2189 0986 14       		.byte	0x14
 2190 0987 03       		.byte	0x3
 2191 0988 AF090000 		.4byte	0x9af
 2192 098c 23       		.uleb128 0x23
 2193 098d 747000   		.ascii	"tp\000"
 2194 0990 02       		.byte	0x2
 2195 0991 22       		.byte	0x22
 2196 0992 28       		.byte	0x28
 2197 0993 F2010000 		.4byte	0x1f2
 2198 0997 23       		.uleb128 0x23
 2199 0998 74717000 		.ascii	"tqp\000"
 2200 099c 02       		.byte	0x2
 2201 099d 22       		.byte	0x22
 2202 099e 3A       		.byte	0x3a
 2203 099f 79090000 		.4byte	0x979
 2204 09a3 2C       		.uleb128 0x2c
 2205 09a4 637000   		.ascii	"cp\000"
 2206 09a7 02       		.byte	0x2
 2207 09a8 24       		.byte	0x24
 2208 09a9 0B       		.byte	0xb
 2209 09aa F2010000 		.4byte	0x1f2
 2210 09ae 00       		.byte	0
 2211 09af 2E       		.uleb128 0x2e
 2212 09b0 F6060000 		.4byte	0x6f6
 2213 09b4 00000000 		.4byte	.LFB11
 2214 09b8 34000000 		.4byte	.LFE11-.LFB11
 2215 09bc 01       		.uleb128 0x1
 2216 09bd 9C       		.byte	0x9c
 2217 09be EF090000 		.4byte	0x9ef
 2218 09c2 18       		.uleb128 0x18
 2219 09c3 07070000 		.4byte	0x707
 2220 09c7 DB030000 		.4byte	.LLST16
 2221 09cb D7030000 		.4byte	.LVUS16
 2222 09cf 26       		.uleb128 0x26
 2223 09d0 F6060000 		.4byte	0x6f6
ARM GAS  /var/folders/l5/0x54b2c10074c8bt31ycjvl80000gp/T//ccfxZmfD.s 			page 40


 2224 09d4 0C000000 		.4byte	.LBI55
 2225 09d8 00       		.byte	.LVU170
 2226 09d9 B0000000 		.4byte	.Ldebug_ranges0+0xb0
 2227 09dd 01       		.byte	0x1
 2228 09de E3       		.byte	0xe3
 2229 09df 08       		.byte	0x8
 2230 09e0 18       		.uleb128 0x18
 2231 09e1 07070000 		.4byte	0x707
 2232 09e5 FD030000 		.4byte	.LLST17
 2233 09e9 F9030000 		.4byte	.LVUS17
 2234 09ed 00       		.byte	0
 2235 09ee 00       		.byte	0
 2236 09ef 2F       		.uleb128 0x2f
 2237 09f0 E5030000 		.4byte	.LASF76
 2238 09f4 E5030000 		.4byte	.LASF76
 2239 09f8 0A       		.byte	0xa
 2240 09f9 89       		.byte	0x89
 2241 09fa 0B       		.byte	0xb
 2242 09fb 2F       		.uleb128 0x2f
 2243 09fc 29010000 		.4byte	.LASF77
 2244 0a00 29010000 		.4byte	.LASF77
 2245 0a04 0A       		.byte	0xa
 2246 0a05 95       		.byte	0x95
 2247 0a06 08       		.byte	0x8
 2248 0a07 2F       		.uleb128 0x2f
 2249 0a08 85020000 		.4byte	.LASF78
 2250 0a0c 85020000 		.4byte	.LASF78
 2251 0a10 0A       		.byte	0xa
 2252 0a11 92       		.byte	0x92
 2253 0a12 08       		.byte	0x8
 2254 0a13 2F       		.uleb128 0x2f
 2255 0a14 AE030000 		.4byte	.LASF79
 2256 0a18 AE030000 		.4byte	.LASF79
 2257 0a1c 0A       		.byte	0xa
 2258 0a1d 8C       		.byte	0x8c
 2259 0a1e 08       		.byte	0x8
 2260 0a1f 00       		.byte	0
 2261              		.section	.debug_abbrev,"",%progbits
 2262              	.Ldebug_abbrev0:
 2263 0000 01       		.uleb128 0x1
 2264 0001 11       		.uleb128 0x11
 2265 0002 01       		.byte	0x1
 2266 0003 25       		.uleb128 0x25
 2267 0004 0E       		.uleb128 0xe
 2268 0005 13       		.uleb128 0x13
 2269 0006 0B       		.uleb128 0xb
 2270 0007 03       		.uleb128 0x3
 2271 0008 0E       		.uleb128 0xe
 2272 0009 1B       		.uleb128 0x1b
 2273 000a 0E       		.uleb128 0xe
 2274 000b 55       		.uleb128 0x55
 2275 000c 17       		.uleb128 0x17
 2276 000d 11       		.uleb128 0x11
 2277 000e 01       		.uleb128 0x1
 2278 000f 10       		.uleb128 0x10
 2279 0010 17       		.uleb128 0x17
 2280 0011 00       		.byte	0
ARM GAS  /var/folders/l5/0x54b2c10074c8bt31ycjvl80000gp/T//ccfxZmfD.s 			page 41


 2281 0012 00       		.byte	0
 2282 0013 02       		.uleb128 0x2
 2283 0014 24       		.uleb128 0x24
 2284 0015 00       		.byte	0
 2285 0016 0B       		.uleb128 0xb
 2286 0017 0B       		.uleb128 0xb
 2287 0018 3E       		.uleb128 0x3e
 2288 0019 0B       		.uleb128 0xb
 2289 001a 03       		.uleb128 0x3
 2290 001b 0E       		.uleb128 0xe
 2291 001c 00       		.byte	0
 2292 001d 00       		.byte	0
 2293 001e 03       		.uleb128 0x3
 2294 001f 16       		.uleb128 0x16
 2295 0020 00       		.byte	0
 2296 0021 03       		.uleb128 0x3
 2297 0022 0E       		.uleb128 0xe
 2298 0023 3A       		.uleb128 0x3a
 2299 0024 0B       		.uleb128 0xb
 2300 0025 3B       		.uleb128 0x3b
 2301 0026 0B       		.uleb128 0xb
 2302 0027 39       		.uleb128 0x39
 2303 0028 0B       		.uleb128 0xb
 2304 0029 49       		.uleb128 0x49
 2305 002a 13       		.uleb128 0x13
 2306 002b 00       		.byte	0
 2307 002c 00       		.byte	0
 2308 002d 04       		.uleb128 0x4
 2309 002e 24       		.uleb128 0x24
 2310 002f 00       		.byte	0
 2311 0030 0B       		.uleb128 0xb
 2312 0031 0B       		.uleb128 0xb
 2313 0032 3E       		.uleb128 0x3e
 2314 0033 0B       		.uleb128 0xb
 2315 0034 03       		.uleb128 0x3
 2316 0035 08       		.uleb128 0x8
 2317 0036 00       		.byte	0
 2318 0037 00       		.byte	0
 2319 0038 05       		.uleb128 0x5
 2320 0039 35       		.uleb128 0x35
 2321 003a 00       		.byte	0
 2322 003b 49       		.uleb128 0x49
 2323 003c 13       		.uleb128 0x13
 2324 003d 00       		.byte	0
 2325 003e 00       		.byte	0
 2326 003f 06       		.uleb128 0x6
 2327 0040 13       		.uleb128 0x13
 2328 0041 01       		.byte	0x1
 2329 0042 03       		.uleb128 0x3
 2330 0043 0E       		.uleb128 0xe
 2331 0044 0B       		.uleb128 0xb
 2332 0045 0B       		.uleb128 0xb
 2333 0046 3A       		.uleb128 0x3a
 2334 0047 0B       		.uleb128 0xb
 2335 0048 3B       		.uleb128 0x3b
 2336 0049 0B       		.uleb128 0xb
 2337 004a 39       		.uleb128 0x39
ARM GAS  /var/folders/l5/0x54b2c10074c8bt31ycjvl80000gp/T//ccfxZmfD.s 			page 42


 2338 004b 0B       		.uleb128 0xb
 2339 004c 01       		.uleb128 0x1
 2340 004d 13       		.uleb128 0x13
 2341 004e 00       		.byte	0
 2342 004f 00       		.byte	0
 2343 0050 07       		.uleb128 0x7
 2344 0051 0D       		.uleb128 0xd
 2345 0052 00       		.byte	0
 2346 0053 03       		.uleb128 0x3
 2347 0054 0E       		.uleb128 0xe
 2348 0055 3A       		.uleb128 0x3a
 2349 0056 0B       		.uleb128 0xb
 2350 0057 3B       		.uleb128 0x3b
 2351 0058 0B       		.uleb128 0xb
 2352 0059 39       		.uleb128 0x39
 2353 005a 0B       		.uleb128 0xb
 2354 005b 49       		.uleb128 0x49
 2355 005c 13       		.uleb128 0x13
 2356 005d 38       		.uleb128 0x38
 2357 005e 0B       		.uleb128 0xb
 2358 005f 00       		.byte	0
 2359 0060 00       		.byte	0
 2360 0061 08       		.uleb128 0x8
 2361 0062 0D       		.uleb128 0xd
 2362 0063 00       		.byte	0
 2363 0064 03       		.uleb128 0x3
 2364 0065 08       		.uleb128 0x8
 2365 0066 3A       		.uleb128 0x3a
 2366 0067 0B       		.uleb128 0xb
 2367 0068 3B       		.uleb128 0x3b
 2368 0069 0B       		.uleb128 0xb
 2369 006a 39       		.uleb128 0x39
 2370 006b 0B       		.uleb128 0xb
 2371 006c 49       		.uleb128 0x49
 2372 006d 13       		.uleb128 0x13
 2373 006e 38       		.uleb128 0x38
 2374 006f 0B       		.uleb128 0xb
 2375 0070 00       		.byte	0
 2376 0071 00       		.byte	0
 2377 0072 09       		.uleb128 0x9
 2378 0073 13       		.uleb128 0x13
 2379 0074 01       		.byte	0x1
 2380 0075 0B       		.uleb128 0xb
 2381 0076 0B       		.uleb128 0xb
 2382 0077 3A       		.uleb128 0x3a
 2383 0078 0B       		.uleb128 0xb
 2384 0079 3B       		.uleb128 0x3b
 2385 007a 0B       		.uleb128 0xb
 2386 007b 39       		.uleb128 0x39
 2387 007c 0B       		.uleb128 0xb
 2388 007d 01       		.uleb128 0x1
 2389 007e 13       		.uleb128 0x13
 2390 007f 00       		.byte	0
 2391 0080 00       		.byte	0
 2392 0081 0A       		.uleb128 0xa
 2393 0082 0F       		.uleb128 0xf
 2394 0083 00       		.byte	0
ARM GAS  /var/folders/l5/0x54b2c10074c8bt31ycjvl80000gp/T//ccfxZmfD.s 			page 43


 2395 0084 0B       		.uleb128 0xb
 2396 0085 0B       		.uleb128 0xb
 2397 0086 49       		.uleb128 0x49
 2398 0087 13       		.uleb128 0x13
 2399 0088 00       		.byte	0
 2400 0089 00       		.byte	0
 2401 008a 0B       		.uleb128 0xb
 2402 008b 0F       		.uleb128 0xf
 2403 008c 00       		.byte	0
 2404 008d 0B       		.uleb128 0xb
 2405 008e 0B       		.uleb128 0xb
 2406 008f 00       		.byte	0
 2407 0090 00       		.byte	0
 2408 0091 0C       		.uleb128 0xc
 2409 0092 15       		.uleb128 0x15
 2410 0093 01       		.byte	0x1
 2411 0094 27       		.uleb128 0x27
 2412 0095 19       		.uleb128 0x19
 2413 0096 01       		.uleb128 0x1
 2414 0097 13       		.uleb128 0x13
 2415 0098 00       		.byte	0
 2416 0099 00       		.byte	0
 2417 009a 0D       		.uleb128 0xd
 2418 009b 05       		.uleb128 0x5
 2419 009c 00       		.byte	0
 2420 009d 49       		.uleb128 0x49
 2421 009e 13       		.uleb128 0x13
 2422 009f 00       		.byte	0
 2423 00a0 00       		.byte	0
 2424 00a1 0E       		.uleb128 0xe
 2425 00a2 34       		.uleb128 0x34
 2426 00a3 00       		.byte	0
 2427 00a4 03       		.uleb128 0x3
 2428 00a5 0E       		.uleb128 0xe
 2429 00a6 3A       		.uleb128 0x3a
 2430 00a7 0B       		.uleb128 0xb
 2431 00a8 3B       		.uleb128 0x3b
 2432 00a9 0B       		.uleb128 0xb
 2433 00aa 39       		.uleb128 0x39
 2434 00ab 0B       		.uleb128 0xb
 2435 00ac 49       		.uleb128 0x49
 2436 00ad 13       		.uleb128 0x13
 2437 00ae 3F       		.uleb128 0x3f
 2438 00af 19       		.uleb128 0x19
 2439 00b0 3C       		.uleb128 0x3c
 2440 00b1 19       		.uleb128 0x19
 2441 00b2 00       		.byte	0
 2442 00b3 00       		.byte	0
 2443 00b4 0F       		.uleb128 0xf
 2444 00b5 17       		.uleb128 0x17
 2445 00b6 01       		.byte	0x1
 2446 00b7 0B       		.uleb128 0xb
 2447 00b8 0B       		.uleb128 0xb
 2448 00b9 3A       		.uleb128 0x3a
 2449 00ba 0B       		.uleb128 0xb
 2450 00bb 3B       		.uleb128 0x3b
 2451 00bc 0B       		.uleb128 0xb
ARM GAS  /var/folders/l5/0x54b2c10074c8bt31ycjvl80000gp/T//ccfxZmfD.s 			page 44


 2452 00bd 39       		.uleb128 0x39
 2453 00be 0B       		.uleb128 0xb
 2454 00bf 01       		.uleb128 0x1
 2455 00c0 13       		.uleb128 0x13
 2456 00c1 00       		.byte	0
 2457 00c2 00       		.byte	0
 2458 00c3 10       		.uleb128 0x10
 2459 00c4 0D       		.uleb128 0xd
 2460 00c5 00       		.byte	0
 2461 00c6 03       		.uleb128 0x3
 2462 00c7 0E       		.uleb128 0xe
 2463 00c8 3A       		.uleb128 0x3a
 2464 00c9 0B       		.uleb128 0xb
 2465 00ca 3B       		.uleb128 0x3b
 2466 00cb 0B       		.uleb128 0xb
 2467 00cc 39       		.uleb128 0x39
 2468 00cd 0B       		.uleb128 0xb
 2469 00ce 49       		.uleb128 0x49
 2470 00cf 13       		.uleb128 0x13
 2471 00d0 00       		.byte	0
 2472 00d1 00       		.byte	0
 2473 00d2 11       		.uleb128 0x11
 2474 00d3 01       		.uleb128 0x1
 2475 00d4 01       		.byte	0x1
 2476 00d5 49       		.uleb128 0x49
 2477 00d6 13       		.uleb128 0x13
 2478 00d7 01       		.uleb128 0x1
 2479 00d8 13       		.uleb128 0x13
 2480 00d9 00       		.byte	0
 2481 00da 00       		.byte	0
 2482 00db 12       		.uleb128 0x12
 2483 00dc 21       		.uleb128 0x21
 2484 00dd 00       		.byte	0
 2485 00de 49       		.uleb128 0x49
 2486 00df 13       		.uleb128 0x13
 2487 00e0 2F       		.uleb128 0x2f
 2488 00e1 0B       		.uleb128 0xb
 2489 00e2 00       		.byte	0
 2490 00e3 00       		.byte	0
 2491 00e4 13       		.uleb128 0x13
 2492 00e5 2E       		.uleb128 0x2e
 2493 00e6 01       		.byte	0x1
 2494 00e7 3F       		.uleb128 0x3f
 2495 00e8 19       		.uleb128 0x19
 2496 00e9 03       		.uleb128 0x3
 2497 00ea 0E       		.uleb128 0xe
 2498 00eb 3A       		.uleb128 0x3a
 2499 00ec 0B       		.uleb128 0xb
 2500 00ed 3B       		.uleb128 0x3b
 2501 00ee 05       		.uleb128 0x5
 2502 00ef 39       		.uleb128 0x39
 2503 00f0 0B       		.uleb128 0xb
 2504 00f1 27       		.uleb128 0x27
 2505 00f2 19       		.uleb128 0x19
 2506 00f3 11       		.uleb128 0x11
 2507 00f4 01       		.uleb128 0x1
 2508 00f5 12       		.uleb128 0x12
ARM GAS  /var/folders/l5/0x54b2c10074c8bt31ycjvl80000gp/T//ccfxZmfD.s 			page 45


 2509 00f6 06       		.uleb128 0x6
 2510 00f7 40       		.uleb128 0x40
 2511 00f8 18       		.uleb128 0x18
 2512 00f9 9742     		.uleb128 0x2117
 2513 00fb 19       		.uleb128 0x19
 2514 00fc 01       		.uleb128 0x1
 2515 00fd 13       		.uleb128 0x13
 2516 00fe 00       		.byte	0
 2517 00ff 00       		.byte	0
 2518 0100 14       		.uleb128 0x14
 2519 0101 34       		.uleb128 0x34
 2520 0102 00       		.byte	0
 2521 0103 03       		.uleb128 0x3
 2522 0104 08       		.uleb128 0x8
 2523 0105 3A       		.uleb128 0x3a
 2524 0106 0B       		.uleb128 0xb
 2525 0107 3B       		.uleb128 0x3b
 2526 0108 05       		.uleb128 0x5
 2527 0109 39       		.uleb128 0x39
 2528 010a 0B       		.uleb128 0xb
 2529 010b 49       		.uleb128 0x49
 2530 010c 13       		.uleb128 0x13
 2531 010d 02       		.uleb128 0x2
 2532 010e 17       		.uleb128 0x17
 2533 010f B742     		.uleb128 0x2137
 2534 0111 17       		.uleb128 0x17
 2535 0112 00       		.byte	0
 2536 0113 00       		.byte	0
 2537 0114 15       		.uleb128 0x15
 2538 0115 0B       		.uleb128 0xb
 2539 0116 01       		.byte	0x1
 2540 0117 55       		.uleb128 0x55
 2541 0118 17       		.uleb128 0x17
 2542 0119 01       		.uleb128 0x1
 2543 011a 13       		.uleb128 0x13
 2544 011b 00       		.byte	0
 2545 011c 00       		.byte	0
 2546 011d 16       		.uleb128 0x16
 2547 011e 0B       		.uleb128 0xb
 2548 011f 01       		.byte	0x1
 2549 0120 55       		.uleb128 0x55
 2550 0121 17       		.uleb128 0x17
 2551 0122 00       		.byte	0
 2552 0123 00       		.byte	0
 2553 0124 17       		.uleb128 0x17
 2554 0125 1D       		.uleb128 0x1d
 2555 0126 01       		.byte	0x1
 2556 0127 31       		.uleb128 0x31
 2557 0128 13       		.uleb128 0x13
 2558 0129 52       		.uleb128 0x52
 2559 012a 01       		.uleb128 0x1
 2560 012b B842     		.uleb128 0x2138
 2561 012d 0B       		.uleb128 0xb
 2562 012e 55       		.uleb128 0x55
 2563 012f 17       		.uleb128 0x17
 2564 0130 58       		.uleb128 0x58
 2565 0131 0B       		.uleb128 0xb
ARM GAS  /var/folders/l5/0x54b2c10074c8bt31ycjvl80000gp/T//ccfxZmfD.s 			page 46


 2566 0132 59       		.uleb128 0x59
 2567 0133 05       		.uleb128 0x5
 2568 0134 57       		.uleb128 0x57
 2569 0135 0B       		.uleb128 0xb
 2570 0136 01       		.uleb128 0x1
 2571 0137 13       		.uleb128 0x13
 2572 0138 00       		.byte	0
 2573 0139 00       		.byte	0
 2574 013a 18       		.uleb128 0x18
 2575 013b 05       		.uleb128 0x5
 2576 013c 00       		.byte	0
 2577 013d 31       		.uleb128 0x31
 2578 013e 13       		.uleb128 0x13
 2579 013f 02       		.uleb128 0x2
 2580 0140 17       		.uleb128 0x17
 2581 0141 B742     		.uleb128 0x2137
 2582 0143 17       		.uleb128 0x17
 2583 0144 00       		.byte	0
 2584 0145 00       		.byte	0
 2585 0146 19       		.uleb128 0x19
 2586 0147 34       		.uleb128 0x34
 2587 0148 00       		.byte	0
 2588 0149 31       		.uleb128 0x31
 2589 014a 13       		.uleb128 0x13
 2590 014b 02       		.uleb128 0x2
 2591 014c 17       		.uleb128 0x17
 2592 014d B742     		.uleb128 0x2137
 2593 014f 17       		.uleb128 0x17
 2594 0150 00       		.byte	0
 2595 0151 00       		.byte	0
 2596 0152 1A       		.uleb128 0x1a
 2597 0153 898201   		.uleb128 0x4109
 2598 0156 00       		.byte	0
 2599 0157 11       		.uleb128 0x11
 2600 0158 01       		.uleb128 0x1
 2601 0159 31       		.uleb128 0x31
 2602 015a 13       		.uleb128 0x13
 2603 015b 00       		.byte	0
 2604 015c 00       		.byte	0
 2605 015d 1B       		.uleb128 0x1b
 2606 015e 2E       		.uleb128 0x2e
 2607 015f 01       		.byte	0x1
 2608 0160 3F       		.uleb128 0x3f
 2609 0161 19       		.uleb128 0x19
 2610 0162 03       		.uleb128 0x3
 2611 0163 0E       		.uleb128 0xe
 2612 0164 3A       		.uleb128 0x3a
 2613 0165 0B       		.uleb128 0xb
 2614 0166 3B       		.uleb128 0x3b
 2615 0167 05       		.uleb128 0x5
 2616 0168 39       		.uleb128 0x39
 2617 0169 0B       		.uleb128 0xb
 2618 016a 27       		.uleb128 0x27
 2619 016b 19       		.uleb128 0x19
 2620 016c 49       		.uleb128 0x49
 2621 016d 13       		.uleb128 0x13
 2622 016e 11       		.uleb128 0x11
ARM GAS  /var/folders/l5/0x54b2c10074c8bt31ycjvl80000gp/T//ccfxZmfD.s 			page 47


 2623 016f 01       		.uleb128 0x1
 2624 0170 12       		.uleb128 0x12
 2625 0171 06       		.uleb128 0x6
 2626 0172 40       		.uleb128 0x40
 2627 0173 18       		.uleb128 0x18
 2628 0174 9742     		.uleb128 0x2117
 2629 0176 19       		.uleb128 0x19
 2630 0177 01       		.uleb128 0x1
 2631 0178 13       		.uleb128 0x13
 2632 0179 00       		.byte	0
 2633 017a 00       		.byte	0
 2634 017b 1C       		.uleb128 0x1c
 2635 017c 0B       		.uleb128 0xb
 2636 017d 01       		.byte	0x1
 2637 017e 11       		.uleb128 0x11
 2638 017f 01       		.uleb128 0x1
 2639 0180 12       		.uleb128 0x12
 2640 0181 06       		.uleb128 0x6
 2641 0182 00       		.byte	0
 2642 0183 00       		.byte	0
 2643 0184 1D       		.uleb128 0x1d
 2644 0185 34       		.uleb128 0x34
 2645 0186 00       		.byte	0
 2646 0187 03       		.uleb128 0x3
 2647 0188 0E       		.uleb128 0xe
 2648 0189 3A       		.uleb128 0x3a
 2649 018a 0B       		.uleb128 0xb
 2650 018b 3B       		.uleb128 0x3b
 2651 018c 05       		.uleb128 0x5
 2652 018d 39       		.uleb128 0x39
 2653 018e 0B       		.uleb128 0xb
 2654 018f 49       		.uleb128 0x49
 2655 0190 13       		.uleb128 0x13
 2656 0191 02       		.uleb128 0x2
 2657 0192 17       		.uleb128 0x17
 2658 0193 B742     		.uleb128 0x2137
 2659 0195 17       		.uleb128 0x17
 2660 0196 00       		.byte	0
 2661 0197 00       		.byte	0
 2662 0198 1E       		.uleb128 0x1e
 2663 0199 2E       		.uleb128 0x2e
 2664 019a 01       		.byte	0x1
 2665 019b 3F       		.uleb128 0x3f
 2666 019c 19       		.uleb128 0x19
 2667 019d 03       		.uleb128 0x3
 2668 019e 0E       		.uleb128 0xe
 2669 019f 3A       		.uleb128 0x3a
 2670 01a0 0B       		.uleb128 0xb
 2671 01a1 3B       		.uleb128 0x3b
 2672 01a2 0B       		.uleb128 0xb
 2673 01a3 39       		.uleb128 0x39
 2674 01a4 0B       		.uleb128 0xb
 2675 01a5 27       		.uleb128 0x27
 2676 01a6 19       		.uleb128 0x19
 2677 01a7 49       		.uleb128 0x49
 2678 01a8 13       		.uleb128 0x13
 2679 01a9 11       		.uleb128 0x11
ARM GAS  /var/folders/l5/0x54b2c10074c8bt31ycjvl80000gp/T//ccfxZmfD.s 			page 48


 2680 01aa 01       		.uleb128 0x1
 2681 01ab 12       		.uleb128 0x12
 2682 01ac 06       		.uleb128 0x6
 2683 01ad 40       		.uleb128 0x40
 2684 01ae 18       		.uleb128 0x18
 2685 01af 9742     		.uleb128 0x2117
 2686 01b1 19       		.uleb128 0x19
 2687 01b2 01       		.uleb128 0x1
 2688 01b3 13       		.uleb128 0x13
 2689 01b4 00       		.byte	0
 2690 01b5 00       		.byte	0
 2691 01b6 1F       		.uleb128 0x1f
 2692 01b7 34       		.uleb128 0x34
 2693 01b8 00       		.byte	0
 2694 01b9 03       		.uleb128 0x3
 2695 01ba 08       		.uleb128 0x8
 2696 01bb 3A       		.uleb128 0x3a
 2697 01bc 0B       		.uleb128 0xb
 2698 01bd 3B       		.uleb128 0x3b
 2699 01be 0B       		.uleb128 0xb
 2700 01bf 39       		.uleb128 0x39
 2701 01c0 0B       		.uleb128 0xb
 2702 01c1 49       		.uleb128 0x49
 2703 01c2 13       		.uleb128 0x13
 2704 01c3 02       		.uleb128 0x2
 2705 01c4 17       		.uleb128 0x17
 2706 01c5 B742     		.uleb128 0x2137
 2707 01c7 17       		.uleb128 0x17
 2708 01c8 00       		.byte	0
 2709 01c9 00       		.byte	0
 2710 01ca 20       		.uleb128 0x20
 2711 01cb 898201   		.uleb128 0x4109
 2712 01ce 01       		.byte	0x1
 2713 01cf 11       		.uleb128 0x11
 2714 01d0 01       		.uleb128 0x1
 2715 01d1 31       		.uleb128 0x31
 2716 01d2 13       		.uleb128 0x13
 2717 01d3 00       		.byte	0
 2718 01d4 00       		.byte	0
 2719 01d5 21       		.uleb128 0x21
 2720 01d6 8A8201   		.uleb128 0x410a
 2721 01d9 00       		.byte	0
 2722 01da 02       		.uleb128 0x2
 2723 01db 18       		.uleb128 0x18
 2724 01dc 9142     		.uleb128 0x2111
 2725 01de 18       		.uleb128 0x18
 2726 01df 00       		.byte	0
 2727 01e0 00       		.byte	0
 2728 01e1 22       		.uleb128 0x22
 2729 01e2 2E       		.uleb128 0x2e
 2730 01e3 01       		.byte	0x1
 2731 01e4 3F       		.uleb128 0x3f
 2732 01e5 19       		.uleb128 0x19
 2733 01e6 03       		.uleb128 0x3
 2734 01e7 0E       		.uleb128 0xe
 2735 01e8 3A       		.uleb128 0x3a
 2736 01e9 0B       		.uleb128 0xb
ARM GAS  /var/folders/l5/0x54b2c10074c8bt31ycjvl80000gp/T//ccfxZmfD.s 			page 49


 2737 01ea 3B       		.uleb128 0x3b
 2738 01eb 0B       		.uleb128 0xb
 2739 01ec 39       		.uleb128 0x39
 2740 01ed 0B       		.uleb128 0xb
 2741 01ee 27       		.uleb128 0x27
 2742 01ef 19       		.uleb128 0x19
 2743 01f0 49       		.uleb128 0x49
 2744 01f1 13       		.uleb128 0x13
 2745 01f2 20       		.uleb128 0x20
 2746 01f3 0B       		.uleb128 0xb
 2747 01f4 01       		.uleb128 0x1
 2748 01f5 13       		.uleb128 0x13
 2749 01f6 00       		.byte	0
 2750 01f7 00       		.byte	0
 2751 01f8 23       		.uleb128 0x23
 2752 01f9 05       		.uleb128 0x5
 2753 01fa 00       		.byte	0
 2754 01fb 03       		.uleb128 0x3
 2755 01fc 08       		.uleb128 0x8
 2756 01fd 3A       		.uleb128 0x3a
 2757 01fe 0B       		.uleb128 0xb
 2758 01ff 3B       		.uleb128 0x3b
 2759 0200 0B       		.uleb128 0xb
 2760 0201 39       		.uleb128 0x39
 2761 0202 0B       		.uleb128 0xb
 2762 0203 49       		.uleb128 0x49
 2763 0204 13       		.uleb128 0x13
 2764 0205 00       		.byte	0
 2765 0206 00       		.byte	0
 2766 0207 24       		.uleb128 0x24
 2767 0208 05       		.uleb128 0x5
 2768 0209 00       		.byte	0
 2769 020a 03       		.uleb128 0x3
 2770 020b 08       		.uleb128 0x8
 2771 020c 3A       		.uleb128 0x3a
 2772 020d 0B       		.uleb128 0xb
 2773 020e 3B       		.uleb128 0x3b
 2774 020f 0B       		.uleb128 0xb
 2775 0210 39       		.uleb128 0x39
 2776 0211 0B       		.uleb128 0xb
 2777 0212 49       		.uleb128 0x49
 2778 0213 13       		.uleb128 0x13
 2779 0214 02       		.uleb128 0x2
 2780 0215 17       		.uleb128 0x17
 2781 0216 B742     		.uleb128 0x2137
 2782 0218 17       		.uleb128 0x17
 2783 0219 00       		.byte	0
 2784 021a 00       		.byte	0
 2785 021b 25       		.uleb128 0x25
 2786 021c 1D       		.uleb128 0x1d
 2787 021d 01       		.byte	0x1
 2788 021e 31       		.uleb128 0x31
 2789 021f 13       		.uleb128 0x13
 2790 0220 52       		.uleb128 0x52
 2791 0221 01       		.uleb128 0x1
 2792 0222 B842     		.uleb128 0x2138
 2793 0224 0B       		.uleb128 0xb
ARM GAS  /var/folders/l5/0x54b2c10074c8bt31ycjvl80000gp/T//ccfxZmfD.s 			page 50


 2794 0225 11       		.uleb128 0x11
 2795 0226 01       		.uleb128 0x1
 2796 0227 12       		.uleb128 0x12
 2797 0228 06       		.uleb128 0x6
 2798 0229 58       		.uleb128 0x58
 2799 022a 0B       		.uleb128 0xb
 2800 022b 59       		.uleb128 0x59
 2801 022c 0B       		.uleb128 0xb
 2802 022d 57       		.uleb128 0x57
 2803 022e 0B       		.uleb128 0xb
 2804 022f 00       		.byte	0
 2805 0230 00       		.byte	0
 2806 0231 26       		.uleb128 0x26
 2807 0232 1D       		.uleb128 0x1d
 2808 0233 01       		.byte	0x1
 2809 0234 31       		.uleb128 0x31
 2810 0235 13       		.uleb128 0x13
 2811 0236 52       		.uleb128 0x52
 2812 0237 01       		.uleb128 0x1
 2813 0238 B842     		.uleb128 0x2138
 2814 023a 0B       		.uleb128 0xb
 2815 023b 55       		.uleb128 0x55
 2816 023c 17       		.uleb128 0x17
 2817 023d 58       		.uleb128 0x58
 2818 023e 0B       		.uleb128 0xb
 2819 023f 59       		.uleb128 0x59
 2820 0240 0B       		.uleb128 0xb
 2821 0241 57       		.uleb128 0x57
 2822 0242 0B       		.uleb128 0xb
 2823 0243 00       		.byte	0
 2824 0244 00       		.byte	0
 2825 0245 27       		.uleb128 0x27
 2826 0246 2E       		.uleb128 0x2e
 2827 0247 01       		.byte	0x1
 2828 0248 3F       		.uleb128 0x3f
 2829 0249 19       		.uleb128 0x19
 2830 024a 03       		.uleb128 0x3
 2831 024b 0E       		.uleb128 0xe
 2832 024c 3A       		.uleb128 0x3a
 2833 024d 0B       		.uleb128 0xb
 2834 024e 3B       		.uleb128 0x3b
 2835 024f 0B       		.uleb128 0xb
 2836 0250 39       		.uleb128 0x39
 2837 0251 0B       		.uleb128 0xb
 2838 0252 27       		.uleb128 0x27
 2839 0253 19       		.uleb128 0x19
 2840 0254 11       		.uleb128 0x11
 2841 0255 01       		.uleb128 0x1
 2842 0256 12       		.uleb128 0x12
 2843 0257 06       		.uleb128 0x6
 2844 0258 40       		.uleb128 0x40
 2845 0259 18       		.uleb128 0x18
 2846 025a 9742     		.uleb128 0x2117
 2847 025c 19       		.uleb128 0x19
 2848 025d 01       		.uleb128 0x1
 2849 025e 13       		.uleb128 0x13
 2850 025f 00       		.byte	0
ARM GAS  /var/folders/l5/0x54b2c10074c8bt31ycjvl80000gp/T//ccfxZmfD.s 			page 51


 2851 0260 00       		.byte	0
 2852 0261 28       		.uleb128 0x28
 2853 0262 1D       		.uleb128 0x1d
 2854 0263 01       		.byte	0x1
 2855 0264 31       		.uleb128 0x31
 2856 0265 13       		.uleb128 0x13
 2857 0266 52       		.uleb128 0x52
 2858 0267 01       		.uleb128 0x1
 2859 0268 B842     		.uleb128 0x2138
 2860 026a 0B       		.uleb128 0xb
 2861 026b 55       		.uleb128 0x55
 2862 026c 17       		.uleb128 0x17
 2863 026d 58       		.uleb128 0x58
 2864 026e 0B       		.uleb128 0xb
 2865 026f 59       		.uleb128 0x59
 2866 0270 0B       		.uleb128 0xb
 2867 0271 57       		.uleb128 0x57
 2868 0272 0B       		.uleb128 0xb
 2869 0273 01       		.uleb128 0x1
 2870 0274 13       		.uleb128 0x13
 2871 0275 00       		.byte	0
 2872 0276 00       		.byte	0
 2873 0277 29       		.uleb128 0x29
 2874 0278 898201   		.uleb128 0x4109
 2875 027b 01       		.byte	0x1
 2876 027c 11       		.uleb128 0x11
 2877 027d 01       		.uleb128 0x1
 2878 027e 9542     		.uleb128 0x2115
 2879 0280 19       		.uleb128 0x19
 2880 0281 31       		.uleb128 0x31
 2881 0282 13       		.uleb128 0x13
 2882 0283 01       		.uleb128 0x1
 2883 0284 13       		.uleb128 0x13
 2884 0285 00       		.byte	0
 2885 0286 00       		.byte	0
 2886 0287 2A       		.uleb128 0x2a
 2887 0288 05       		.uleb128 0x5
 2888 0289 00       		.byte	0
 2889 028a 03       		.uleb128 0x3
 2890 028b 08       		.uleb128 0x8
 2891 028c 3A       		.uleb128 0x3a
 2892 028d 0B       		.uleb128 0xb
 2893 028e 3B       		.uleb128 0x3b
 2894 028f 0B       		.uleb128 0xb
 2895 0290 39       		.uleb128 0x39
 2896 0291 0B       		.uleb128 0xb
 2897 0292 49       		.uleb128 0x49
 2898 0293 13       		.uleb128 0x13
 2899 0294 02       		.uleb128 0x2
 2900 0295 18       		.uleb128 0x18
 2901 0296 00       		.byte	0
 2902 0297 00       		.byte	0
 2903 0298 2B       		.uleb128 0x2b
 2904 0299 2E       		.uleb128 0x2e
 2905 029a 01       		.byte	0x1
 2906 029b 03       		.uleb128 0x3
 2907 029c 0E       		.uleb128 0xe
ARM GAS  /var/folders/l5/0x54b2c10074c8bt31ycjvl80000gp/T//ccfxZmfD.s 			page 52


 2908 029d 3A       		.uleb128 0x3a
 2909 029e 0B       		.uleb128 0xb
 2910 029f 3B       		.uleb128 0x3b
 2911 02a0 0B       		.uleb128 0xb
 2912 02a1 39       		.uleb128 0x39
 2913 02a2 0B       		.uleb128 0xb
 2914 02a3 27       		.uleb128 0x27
 2915 02a4 19       		.uleb128 0x19
 2916 02a5 49       		.uleb128 0x49
 2917 02a6 13       		.uleb128 0x13
 2918 02a7 20       		.uleb128 0x20
 2919 02a8 0B       		.uleb128 0xb
 2920 02a9 01       		.uleb128 0x1
 2921 02aa 13       		.uleb128 0x13
 2922 02ab 00       		.byte	0
 2923 02ac 00       		.byte	0
 2924 02ad 2C       		.uleb128 0x2c
 2925 02ae 34       		.uleb128 0x34
 2926 02af 00       		.byte	0
 2927 02b0 03       		.uleb128 0x3
 2928 02b1 08       		.uleb128 0x8
 2929 02b2 3A       		.uleb128 0x3a
 2930 02b3 0B       		.uleb128 0xb
 2931 02b4 3B       		.uleb128 0x3b
 2932 02b5 0B       		.uleb128 0xb
 2933 02b6 39       		.uleb128 0x39
 2934 02b7 0B       		.uleb128 0xb
 2935 02b8 49       		.uleb128 0x49
 2936 02b9 13       		.uleb128 0x13
 2937 02ba 00       		.byte	0
 2938 02bb 00       		.byte	0
 2939 02bc 2D       		.uleb128 0x2d
 2940 02bd 2E       		.uleb128 0x2e
 2941 02be 01       		.byte	0x1
 2942 02bf 03       		.uleb128 0x3
 2943 02c0 0E       		.uleb128 0xe
 2944 02c1 3A       		.uleb128 0x3a
 2945 02c2 0B       		.uleb128 0xb
 2946 02c3 3B       		.uleb128 0x3b
 2947 02c4 0B       		.uleb128 0xb
 2948 02c5 39       		.uleb128 0x39
 2949 02c6 0B       		.uleb128 0xb
 2950 02c7 27       		.uleb128 0x27
 2951 02c8 19       		.uleb128 0x19
 2952 02c9 20       		.uleb128 0x20
 2953 02ca 0B       		.uleb128 0xb
 2954 02cb 01       		.uleb128 0x1
 2955 02cc 13       		.uleb128 0x13
 2956 02cd 00       		.byte	0
 2957 02ce 00       		.byte	0
 2958 02cf 2E       		.uleb128 0x2e
 2959 02d0 2E       		.uleb128 0x2e
 2960 02d1 01       		.byte	0x1
 2961 02d2 31       		.uleb128 0x31
 2962 02d3 13       		.uleb128 0x13
 2963 02d4 11       		.uleb128 0x11
 2964 02d5 01       		.uleb128 0x1
ARM GAS  /var/folders/l5/0x54b2c10074c8bt31ycjvl80000gp/T//ccfxZmfD.s 			page 53


 2965 02d6 12       		.uleb128 0x12
 2966 02d7 06       		.uleb128 0x6
 2967 02d8 40       		.uleb128 0x40
 2968 02d9 18       		.uleb128 0x18
 2969 02da 9742     		.uleb128 0x2117
 2970 02dc 19       		.uleb128 0x19
 2971 02dd 01       		.uleb128 0x1
 2972 02de 13       		.uleb128 0x13
 2973 02df 00       		.byte	0
 2974 02e0 00       		.byte	0
 2975 02e1 2F       		.uleb128 0x2f
 2976 02e2 2E       		.uleb128 0x2e
 2977 02e3 00       		.byte	0
 2978 02e4 3F       		.uleb128 0x3f
 2979 02e5 19       		.uleb128 0x19
 2980 02e6 3C       		.uleb128 0x3c
 2981 02e7 19       		.uleb128 0x19
 2982 02e8 6E       		.uleb128 0x6e
 2983 02e9 0E       		.uleb128 0xe
 2984 02ea 03       		.uleb128 0x3
 2985 02eb 0E       		.uleb128 0xe
 2986 02ec 3A       		.uleb128 0x3a
 2987 02ed 0B       		.uleb128 0xb
 2988 02ee 3B       		.uleb128 0x3b
 2989 02ef 0B       		.uleb128 0xb
 2990 02f0 39       		.uleb128 0x39
 2991 02f1 0B       		.uleb128 0xb
 2992 02f2 00       		.byte	0
 2993 02f3 00       		.byte	0
 2994 02f4 00       		.byte	0
 2995              		.section	.debug_loc,"",%progbits
 2996              	.Ldebug_loc0:
 2997              	.LVUS32:
 2998 0000 00       		.uleb128 .LVU318
 2999 0001 00       		.uleb128 0
 3000              	.LLST32:
 3001 0002 0C000000 		.4byte	.LVL58
 3002 0006 84000000 		.4byte	.LFE14
 3003 000a 0100     		.2byte	0x1
 3004 000c 54       		.byte	0x54
 3005 000d 00000000 		.4byte	0
 3006 0011 00000000 		.4byte	0
 3007              	.LVUS33:
 3008 0015 03       		.uleb128 .LVU328
 3009 0016 00       		.uleb128 .LVU338
 3010              	.LLST33:
 3011 0017 20000000 		.4byte	.LVL59
 3012 001b 30000000 		.4byte	.LVL61
 3013 001f 0200     		.2byte	0x2
 3014 0021 74       		.byte	0x74
 3015 0022 20       		.sleb128 32
 3016 0023 00000000 		.4byte	0
 3017 0027 00000000 		.4byte	0
 3018              	.LVUS34:
 3019 002b 01       		.uleb128 .LVU347
 3020 002c 00       		.uleb128 .LVU355
 3021              	.LLST34:
ARM GAS  /var/folders/l5/0x54b2c10074c8bt31ycjvl80000gp/T//ccfxZmfD.s 			page 54


 3022 002d 50000000 		.4byte	.LVL63
 3023 0031 5F000000 		.4byte	.LVL64-1
 3024 0035 0100     		.2byte	0x1
 3025 0037 52       		.byte	0x52
 3026 0038 00000000 		.4byte	0
 3027 003c 00000000 		.4byte	0
 3028              	.LVUS35:
 3029 0040 05       		.uleb128 .LVU330
 3030 0041 00       		.uleb128 .LVU340
 3031              	.LLST35:
 3032 0042 20000000 		.4byte	.LVL59
 3033 0046 38000000 		.4byte	.LVL62
 3034 004a 0100     		.2byte	0x1
 3035 004c 53       		.byte	0x53
 3036 004d 00000000 		.4byte	0
 3037 0051 00000000 		.4byte	0
 3038              	.LVUS36:
 3039 0055 00       		.uleb128 .LVU334
 3040 0056 01       		.uleb128 .LVU347
 3041              	.LLST36:
 3042 0057 24000000 		.4byte	.LVL60
 3043 005b 50000000 		.4byte	.LVL63
 3044 005f 0100     		.2byte	0x1
 3045 0061 52       		.byte	0x52
 3046 0062 00000000 		.4byte	0
 3047 0066 00000000 		.4byte	0
 3048              	.LVUS25:
 3049 006a 00       		.uleb128 .LVU255
 3050 006b 00       		.uleb128 .LVU295
 3051 006c 00       		.uleb128 .LVU307
 3052 006d 00       		.uleb128 .LVU310
 3053              	.LLST25:
 3054 006e 0C000000 		.4byte	.LVL46
 3055 0072 68000000 		.4byte	.LVL53
 3056 0076 0100     		.2byte	0x1
 3057 0078 50       		.byte	0x50
 3058 0079 84000000 		.4byte	.LVL56
 3059 007d 8C000000 		.4byte	.LVL57
 3060 0081 0100     		.2byte	0x1
 3061 0083 50       		.byte	0x50
 3062 0084 00000000 		.4byte	0
 3063 0088 00000000 		.4byte	0
 3064              	.LVUS26:
 3065 008c 04       		.uleb128 .LVU263
 3066 008d 00       		.uleb128 0
 3067              	.LLST26:
 3068 008e 10000000 		.4byte	.LVL47
 3069 0092 98000000 		.4byte	.LFE13
 3070 0096 0100     		.2byte	0x1
 3071 0098 54       		.byte	0x54
 3072 0099 00000000 		.4byte	0
 3073 009d 00000000 		.4byte	0
 3074              	.LVUS27:
 3075 00a1 01       		.uleb128 .LVU275
 3076 00a2 00       		.uleb128 .LVU287
 3077              	.LLST27:
 3078 00a3 2C000000 		.4byte	.LVL48
ARM GAS  /var/folders/l5/0x54b2c10074c8bt31ycjvl80000gp/T//ccfxZmfD.s 			page 55


 3079 00a7 5C000000 		.4byte	.LVL51
 3080 00ab 0100     		.2byte	0x1
 3081 00ad 53       		.byte	0x53
 3082 00ae 00000000 		.4byte	0
 3083 00b2 00000000 		.4byte	0
 3084              	.LVUS28:
 3085 00b6 01       		.uleb128 .LVU297
 3086 00b7 00       		.uleb128 .LVU305
 3087              	.LLST28:
 3088 00b8 6C000000 		.4byte	.LVL54
 3089 00bc 7B000000 		.4byte	.LVL55-1
 3090 00c0 0100     		.2byte	0x1
 3091 00c2 5C       		.byte	0x5c
 3092 00c3 00000000 		.4byte	0
 3093 00c7 00000000 		.4byte	0
 3094              	.LVUS29:
 3095 00cb 00       		.uleb128 .LVU274
 3096 00cc 00       		.uleb128 .LVU305
 3097              	.LLST29:
 3098 00cd 2C000000 		.4byte	.LVL48
 3099 00d1 7B000000 		.4byte	.LVL55-1
 3100 00d5 0100     		.2byte	0x1
 3101 00d7 51       		.byte	0x51
 3102 00d8 00000000 		.4byte	0
 3103 00dc 00000000 		.4byte	0
 3104              	.LVUS30:
 3105 00e0 01       		.uleb128 .LVU290
 3106 00e1 01       		.uleb128 .LVU297
 3107              	.LLST30:
 3108 00e2 60000000 		.4byte	.LVL52
 3109 00e6 6C000000 		.4byte	.LVL54
 3110 00ea 0100     		.2byte	0x1
 3111 00ec 54       		.byte	0x54
 3112 00ed 00000000 		.4byte	0
 3113 00f1 00000000 		.4byte	0
 3114              	.LVUS31:
 3115 00f5 03       		.uleb128 .LVU292
 3116 00f6 01       		.uleb128 .LVU297
 3117              	.LLST31:
 3118 00f7 60000000 		.4byte	.LVL52
 3119 00fb 6C000000 		.4byte	.LVL54
 3120 00ff 0100     		.2byte	0x1
 3121 0101 5C       		.byte	0x5c
 3122 0102 00000000 		.4byte	0
 3123 0106 00000000 		.4byte	0
 3124              	.LVUS18:
 3125 010a 00       		.uleb128 .LVU190
 3126 010b 00       		.uleb128 .LVU231
 3127 010c 00       		.uleb128 .LVU248
 3128 010d 00       		.uleb128 0
 3129              	.LLST18:
 3130 010e 0C000000 		.4byte	.LVL34
 3131 0112 6C000000 		.4byte	.LVL41
 3132 0116 0100     		.2byte	0x1
 3133 0118 50       		.byte	0x50
 3134 0119 90000000 		.4byte	.LVL45
 3135 011d A0000000 		.4byte	.LFE12
ARM GAS  /var/folders/l5/0x54b2c10074c8bt31ycjvl80000gp/T//ccfxZmfD.s 			page 56


 3136 0121 0100     		.2byte	0x1
 3137 0123 50       		.byte	0x50
 3138 0124 00000000 		.4byte	0
 3139 0128 00000000 		.4byte	0
 3140              	.LVUS19:
 3141 012c 04       		.uleb128 .LVU199
 3142 012d 00       		.uleb128 0
 3143              	.LLST19:
 3144 012e 14000000 		.4byte	.LVL35
 3145 0132 A0000000 		.4byte	.LFE12
 3146 0136 0100     		.2byte	0x1
 3147 0138 54       		.byte	0x54
 3148 0139 00000000 		.4byte	0
 3149 013d 00000000 		.4byte	0
 3150              	.LVUS20:
 3151 0141 01       		.uleb128 .LVU211
 3152 0142 00       		.uleb128 .LVU223
 3153              	.LLST20:
 3154 0143 30000000 		.4byte	.LVL36
 3155 0147 60000000 		.4byte	.LVL39
 3156 014b 0100     		.2byte	0x1
 3157 014d 53       		.byte	0x53
 3158 014e 00000000 		.4byte	0
 3159 0152 00000000 		.4byte	0
 3160              	.LVUS21:
 3161 0156 01       		.uleb128 .LVU233
 3162 0157 00       		.uleb128 .LVU242
 3163              	.LLST21:
 3164 0158 70000000 		.4byte	.LVL42
 3165 015c 83000000 		.4byte	.LVL44-1
 3166 0160 0100     		.2byte	0x1
 3167 0162 5C       		.byte	0x5c
 3168 0163 00000000 		.4byte	0
 3169 0167 00000000 		.4byte	0
 3170              	.LVUS22:
 3171 016b 00       		.uleb128 .LVU210
 3172 016c 00       		.uleb128 .LVU236
 3173              	.LLST22:
 3174 016d 30000000 		.4byte	.LVL36
 3175 0171 74000000 		.4byte	.LVL43
 3176 0175 0100     		.2byte	0x1
 3177 0177 51       		.byte	0x51
 3178 0178 00000000 		.4byte	0
 3179 017c 00000000 		.4byte	0
 3180              	.LVUS23:
 3181 0180 01       		.uleb128 .LVU226
 3182 0181 01       		.uleb128 .LVU233
 3183              	.LLST23:
 3184 0182 64000000 		.4byte	.LVL40
 3185 0186 70000000 		.4byte	.LVL42
 3186 018a 0100     		.2byte	0x1
 3187 018c 54       		.byte	0x54
 3188 018d 00000000 		.4byte	0
 3189 0191 00000000 		.4byte	0
 3190              	.LVUS24:
 3191 0195 03       		.uleb128 .LVU228
 3192 0196 01       		.uleb128 .LVU233
ARM GAS  /var/folders/l5/0x54b2c10074c8bt31ycjvl80000gp/T//ccfxZmfD.s 			page 57


 3193              	.LLST24:
 3194 0197 64000000 		.4byte	.LVL40
 3195 019b 70000000 		.4byte	.LVL42
 3196 019f 0100     		.2byte	0x1
 3197 01a1 5C       		.byte	0x5c
 3198 01a2 00000000 		.4byte	0
 3199 01a6 00000000 		.4byte	0
 3200              	.LVUS12:
 3201 01aa 00       		.uleb128 0
 3202 01ab 00       		.uleb128 .LVU147
 3203 01ac 00       		.uleb128 .LVU147
 3204 01ad 00       		.uleb128 0
 3205              	.LLST12:
 3206 01ae 00000000 		.4byte	.LVL25
 3207 01b2 18000000 		.4byte	.LVL28
 3208 01b6 0100     		.2byte	0x1
 3209 01b8 50       		.byte	0x50
 3210 01b9 18000000 		.4byte	.LVL28
 3211 01bd 3C000000 		.4byte	.LFE10
 3212 01c1 0100     		.2byte	0x1
 3213 01c3 53       		.byte	0x53
 3214 01c4 00000000 		.4byte	0
 3215 01c8 00000000 		.4byte	0
 3216              	.LVUS13:
 3217 01cc 01       		.uleb128 .LVU156
 3218 01cd 00       		.uleb128 0
 3219              	.LLST13:
 3220 01ce 30000000 		.4byte	.LVL29
 3221 01d2 3C000000 		.4byte	.LFE10
 3222 01d6 0100     		.2byte	0x1
 3223 01d8 50       		.byte	0x50
 3224 01d9 00000000 		.4byte	0
 3225 01dd 00000000 		.4byte	0
 3226              	.LVUS14:
 3227 01e1 03       		.uleb128 .LVU136
 3228 01e2 00       		.uleb128 .LVU147
 3229 01e3 00       		.uleb128 .LVU147
 3230 01e4 01       		.uleb128 .LVU156
 3231              	.LLST14:
 3232 01e5 08000000 		.4byte	.LVL26
 3233 01e9 18000000 		.4byte	.LVL28
 3234 01ed 0100     		.2byte	0x1
 3235 01ef 50       		.byte	0x50
 3236 01f0 18000000 		.4byte	.LVL28
 3237 01f4 30000000 		.4byte	.LVL29
 3238 01f8 0100     		.2byte	0x1
 3239 01fa 53       		.byte	0x53
 3240 01fb 00000000 		.4byte	0
 3241 01ff 00000000 		.4byte	0
 3242              	.LVUS15:
 3243 0203 00       		.uleb128 .LVU143
 3244 0204 00       		.uleb128 .LVU147
 3245 0205 00       		.uleb128 .LVU147
 3246 0206 01       		.uleb128 .LVU156
 3247              	.LLST15:
 3248 0207 10000000 		.4byte	.LVL27
 3249 020b 18000000 		.4byte	.LVL28
ARM GAS  /var/folders/l5/0x54b2c10074c8bt31ycjvl80000gp/T//ccfxZmfD.s 			page 58


 3250 020f 0100     		.2byte	0x1
 3251 0211 50       		.byte	0x50
 3252 0212 18000000 		.4byte	.LVL28
 3253 0216 30000000 		.4byte	.LVL29
 3254 021a 0100     		.2byte	0x1
 3255 021c 53       		.byte	0x53
 3256 021d 00000000 		.4byte	0
 3257 0221 00000000 		.4byte	0
 3258              	.LVUS0:
 3259 0225 00       		.uleb128 0
 3260 0226 00       		.uleb128 .LVU30
 3261 0227 00       		.uleb128 .LVU30
 3262 0228 00       		.uleb128 .LVU56
 3263 0229 00       		.uleb128 .LVU56
 3264 022a 00       		.uleb128 .LVU57
 3265 022b 00       		.uleb128 .LVU57
 3266 022c 00       		.uleb128 .LVU57
 3267 022d 00       		.uleb128 .LVU57
 3268 022e 00       		.uleb128 .LVU108
 3269 022f 00       		.uleb128 .LVU108
 3270 0230 00       		.uleb128 0
 3271              	.LLST0:
 3272 0231 00000000 		.4byte	.LVL1
 3273 0235 3C000000 		.4byte	.LVL4
 3274 0239 0100     		.2byte	0x1
 3275 023b 50       		.byte	0x50
 3276 023c 3C000000 		.4byte	.LVL4
 3277 0240 8C000000 		.4byte	.LVL10
 3278 0244 0100     		.2byte	0x1
 3279 0246 55       		.byte	0x55
 3280 0247 8C000000 		.4byte	.LVL10
 3281 024b 8F000000 		.4byte	.LVL11-1
 3282 024f 0500     		.2byte	0x5
 3283 0251 73       		.byte	0x73
 3284 0252 00       		.sleb128 0
 3285 0253 06       		.byte	0x6
 3286 0254 23       		.byte	0x23
 3287 0255 14       		.uleb128 0x14
 3288 0256 8F000000 		.4byte	.LVL11-1
 3289 025a 90000000 		.4byte	.LVL11
 3290 025e 0400     		.2byte	0x4
 3291 0260 F3       		.byte	0xf3
 3292 0261 01       		.uleb128 0x1
 3293 0262 50       		.byte	0x50
 3294 0263 9F       		.byte	0x9f
 3295 0264 90000000 		.4byte	.LVL11
 3296 0268 1C010000 		.4byte	.LVL22
 3297 026c 0100     		.2byte	0x1
 3298 026e 55       		.byte	0x55
 3299 026f 1C010000 		.4byte	.LVL22
 3300 0273 34010000 		.4byte	.LFE9
 3301 0277 0100     		.2byte	0x1
 3302 0279 50       		.byte	0x50
 3303 027a 00000000 		.4byte	0
 3304 027e 00000000 		.4byte	0
 3305              	.LVUS1:
 3306 0282 00       		.uleb128 .LVU17
ARM GAS  /var/folders/l5/0x54b2c10074c8bt31ycjvl80000gp/T//ccfxZmfD.s 			page 59


 3307 0283 00       		.uleb128 .LVU56
 3308 0284 00       		.uleb128 .LVU56
 3309 0285 00       		.uleb128 .LVU57
 3310 0286 00       		.uleb128 .LVU57
 3311 0287 00       		.uleb128 0
 3312              	.LLST1:
 3313 0288 14000000 		.4byte	.LVL2
 3314 028c 8C000000 		.4byte	.LVL10
 3315 0290 0100     		.2byte	0x1
 3316 0292 54       		.byte	0x54
 3317 0293 8C000000 		.4byte	.LVL10
 3318 0297 8F000000 		.4byte	.LVL11-1
 3319 029b 0200     		.2byte	0x2
 3320 029d 73       		.byte	0x73
 3321 029e 00       		.sleb128 0
 3322 029f 90000000 		.4byte	.LVL11
 3323 02a3 34010000 		.4byte	.LFE9
 3324 02a7 0100     		.2byte	0x1
 3325 02a9 54       		.byte	0x54
 3326 02aa 00000000 		.4byte	0
 3327 02ae 00000000 		.4byte	0
 3328              	.LVUS2:
 3329 02b2 00       		.uleb128 .LVU25
 3330 02b3 00       		.uleb128 .LVU31
 3331 02b4 00       		.uleb128 .LVU57
 3332 02b5 00       		.uleb128 .LVU107
 3333              	.LLST2:
 3334 02b6 24000000 		.4byte	.LVL3
 3335 02ba 44000000 		.4byte	.LVL5
 3336 02be 0100     		.2byte	0x1
 3337 02c0 52       		.byte	0x52
 3338 02c1 90000000 		.4byte	.LVL11
 3339 02c5 17010000 		.4byte	.LVL21-1
 3340 02c9 0100     		.2byte	0x1
 3341 02cb 52       		.byte	0x52
 3342 02cc 00000000 		.4byte	0
 3343 02d0 00000000 		.4byte	0
 3344              	.LVUS3:
 3345 02d4 01       		.uleb128 .LVU32
 3346 02d5 00       		.uleb128 .LVU51
 3347              	.LLST3:
 3348 02d6 44000000 		.4byte	.LVL5
 3349 02da 84000000 		.4byte	.LVL9
 3350 02de 0100     		.2byte	0x1
 3351 02e0 55       		.byte	0x55
 3352 02e1 00000000 		.4byte	0
 3353 02e5 00000000 		.4byte	0
 3354              	.LVUS4:
 3355 02e9 01       		.uleb128 .LVU32
 3356 02ea 00       		.uleb128 .LVU51
 3357              	.LLST4:
 3358 02eb 44000000 		.4byte	.LVL5
 3359 02ef 84000000 		.4byte	.LVL9
 3360 02f3 0100     		.2byte	0x1
 3361 02f5 54       		.byte	0x54
 3362 02f6 00000000 		.4byte	0
 3363 02fa 00000000 		.4byte	0
ARM GAS  /var/folders/l5/0x54b2c10074c8bt31ycjvl80000gp/T//ccfxZmfD.s 			page 60


 3364              	.LVUS5:
 3365 02fe 03       		.uleb128 .LVU34
 3366 02ff 00       		.uleb128 .LVU35
 3367 0300 00       		.uleb128 .LVU35
 3368 0301 00       		.uleb128 .LVU48
 3369 0302 00       		.uleb128 .LVU48
 3370 0303 00       		.uleb128 .LVU51
 3371              	.LLST5:
 3372 0304 44000000 		.4byte	.LVL5
 3373 0308 4C000000 		.4byte	.LVL6
 3374 030c 0100     		.2byte	0x1
 3375 030e 55       		.byte	0x55
 3376 030f 4C000000 		.4byte	.LVL6
 3377 0313 7C000000 		.4byte	.LVL8
 3378 0317 0100     		.2byte	0x1
 3379 0319 53       		.byte	0x53
 3380 031a 7C000000 		.4byte	.LVL8
 3381 031e 84000000 		.4byte	.LVL9
 3382 0322 0200     		.2byte	0x2
 3383 0324 74       		.byte	0x74
 3384 0325 00       		.sleb128 0
 3385 0326 00000000 		.4byte	0
 3386 032a 00000000 		.4byte	0
 3387              	.LVUS6:
 3388 032e 01       		.uleb128 .LVU58
 3389 032f 01       		.uleb128 .LVU68
 3390              	.LLST6:
 3391 0330 90000000 		.4byte	.LVL11
 3392 0334 A8000000 		.4byte	.LVL12
 3393 0338 0100     		.2byte	0x1
 3394 033a 52       		.byte	0x52
 3395 033b 00000000 		.4byte	0
 3396 033f 00000000 		.4byte	0
 3397              	.LVUS7:
 3398 0343 01       		.uleb128 .LVU68
 3399 0344 00       		.uleb128 .LVU70
 3400 0345 00       		.uleb128 .LVU70
 3401 0346 00       		.uleb128 .LVU86
 3402              	.LLST7:
 3403 0347 A8000000 		.4byte	.LVL12
 3404 034b AC000000 		.4byte	.LVL13
 3405 034f 0100     		.2byte	0x1
 3406 0351 53       		.byte	0x53
 3407 0352 AC000000 		.4byte	.LVL13
 3408 0356 E0000000 		.4byte	.LVL17
 3409 035a 0100     		.2byte	0x1
 3410 035c 5C       		.byte	0x5c
 3411 035d 00000000 		.4byte	0
 3412 0361 00000000 		.4byte	0
 3413              	.LVUS8:
 3414 0365 01       		.uleb128 .LVU68
 3415 0366 00       		.uleb128 .LVU86
 3416              	.LLST8:
 3417 0367 A8000000 		.4byte	.LVL12
 3418 036b E0000000 		.4byte	.LVL17
 3419 036f 0100     		.2byte	0x1
 3420 0371 52       		.byte	0x52
ARM GAS  /var/folders/l5/0x54b2c10074c8bt31ycjvl80000gp/T//ccfxZmfD.s 			page 61


 3421 0372 00000000 		.4byte	0
 3422 0376 00000000 		.4byte	0
 3423              	.LVUS9:
 3424 037a 00       		.uleb128 .LVU70
 3425 037b 00       		.uleb128 .LVU83
 3426 037c 00       		.uleb128 .LVU83
 3427 037d 00       		.uleb128 .LVU86
 3428              	.LLST9:
 3429 037e AC000000 		.4byte	.LVL13
 3430 0382 D8000000 		.4byte	.LVL16
 3431 0386 0100     		.2byte	0x1
 3432 0388 53       		.byte	0x53
 3433 0389 D8000000 		.4byte	.LVL16
 3434 038d E0000000 		.4byte	.LVL17
 3435 0391 0200     		.2byte	0x2
 3436 0393 72       		.byte	0x72
 3437 0394 00       		.sleb128 0
 3438 0395 00000000 		.4byte	0
 3439 0399 00000000 		.4byte	0
 3440              	.LVUS10:
 3441 039d 01       		.uleb128 .LVU96
 3442 039e 01       		.uleb128 .LVU105
 3443              	.LLST10:
 3444 039f 00010000 		.4byte	.LVL19
 3445 03a3 14010000 		.4byte	.LVL20
 3446 03a7 0100     		.2byte	0x1
 3447 03a9 52       		.byte	0x52
 3448 03aa 00000000 		.4byte	0
 3449 03ae 00000000 		.4byte	0
 3450              	.LVUS11:
 3451 03b2 00       		.uleb128 0
 3452 03b3 00       		.uleb128 .LVU124
 3453 03b4 00       		.uleb128 .LVU124
 3454 03b5 00       		.uleb128 0
 3455              	.LLST11:
 3456 03b6 00000000 		.4byte	.LVL23
 3457 03ba 0B000000 		.4byte	.LVL24-1
 3458 03be 0100     		.2byte	0x1
 3459 03c0 50       		.byte	0x50
 3460 03c1 0B000000 		.4byte	.LVL24-1
 3461 03c5 14000000 		.4byte	.LFE8
 3462 03c9 0400     		.2byte	0x4
 3463 03cb F3       		.byte	0xf3
 3464 03cc 01       		.uleb128 0x1
 3465 03cd 50       		.byte	0x50
 3466 03ce 9F       		.byte	0x9f
 3467 03cf 00000000 		.4byte	0
 3468 03d3 00000000 		.4byte	0
 3469              	.LVUS16:
 3470 03d7 00       		.uleb128 0
 3471 03d8 00       		.uleb128 .LVU174
 3472 03d9 00       		.uleb128 .LVU174
 3473 03da 00       		.uleb128 0
 3474              	.LLST16:
 3475 03db 00000000 		.4byte	.LVL30
 3476 03df 14000000 		.4byte	.LVL32
 3477 03e3 0100     		.2byte	0x1
ARM GAS  /var/folders/l5/0x54b2c10074c8bt31ycjvl80000gp/T//ccfxZmfD.s 			page 62


 3478 03e5 50       		.byte	0x50
 3479 03e6 14000000 		.4byte	.LVL32
 3480 03ea 34000000 		.4byte	.LFE11
 3481 03ee 0100     		.2byte	0x1
 3482 03f0 53       		.byte	0x53
 3483 03f1 00000000 		.4byte	0
 3484 03f5 00000000 		.4byte	0
 3485              	.LVUS17:
 3486 03f9 00       		.uleb128 .LVU170
 3487 03fa 00       		.uleb128 .LVU174
 3488 03fb 00       		.uleb128 .LVU174
 3489 03fc 01       		.uleb128 .LVU183
 3490              	.LLST17:
 3491 03fd 0C000000 		.4byte	.LVL31
 3492 0401 14000000 		.4byte	.LVL32
 3493 0405 0100     		.2byte	0x1
 3494 0407 50       		.byte	0x50
 3495 0408 14000000 		.4byte	.LVL32
 3496 040c 2C000000 		.4byte	.LVL33
 3497 0410 0100     		.2byte	0x1
 3498 0412 53       		.byte	0x53
 3499 0413 00000000 		.4byte	0
 3500 0417 00000000 		.4byte	0
 3501              		.section	.debug_aranges,"",%progbits
 3502 0000 54000000 		.4byte	0x54
 3503 0004 0200     		.2byte	0x2
 3504 0006 00000000 		.4byte	.Ldebug_info0
 3505 000a 04       		.byte	0x4
 3506 000b 00       		.byte	0
 3507 000c 0000     		.2byte	0
 3508 000e 0000     		.2byte	0
 3509 0010 00000000 		.4byte	.LFB7
 3510 0014 14000000 		.4byte	.LFE7-.LFB7
 3511 0018 00000000 		.4byte	.LFB9
 3512 001c 34010000 		.4byte	.LFE9-.LFB9
 3513 0020 00000000 		.4byte	.LFB8
 3514 0024 14000000 		.4byte	.LFE8-.LFB8
 3515 0028 00000000 		.4byte	.LFB10
 3516 002c 3C000000 		.4byte	.LFE10-.LFB10
 3517 0030 00000000 		.4byte	.LFB11
 3518 0034 34000000 		.4byte	.LFE11-.LFB11
 3519 0038 00000000 		.4byte	.LFB12
 3520 003c A0000000 		.4byte	.LFE12-.LFB12
 3521 0040 00000000 		.4byte	.LFB13
 3522 0044 98000000 		.4byte	.LFE13-.LFB13
 3523 0048 00000000 		.4byte	.LFB14
 3524 004c 84000000 		.4byte	.LFE14-.LFB14
 3525 0050 00000000 		.4byte	0
 3526 0054 00000000 		.4byte	0
 3527              		.section	.debug_ranges,"",%progbits
 3528              	.Ldebug_ranges0:
 3529 0000 18000000 		.4byte	.LBB23
 3530 0004 88000000 		.4byte	.LBE23
 3531 0008 8C000000 		.4byte	.LBB42
 3532 000c 1C010000 		.4byte	.LBE42
 3533 0010 00000000 		.4byte	0
 3534 0014 00000000 		.4byte	0
ARM GAS  /var/folders/l5/0x54b2c10074c8bt31ycjvl80000gp/T//ccfxZmfD.s 			page 63


 3535 0018 44000000 		.4byte	.LBB24
 3536 001c 7C000000 		.4byte	.LBE24
 3537 0020 80000000 		.4byte	.LBB27
 3538 0024 84000000 		.4byte	.LBE27
 3539 0028 00000000 		.4byte	0
 3540 002c 00000000 		.4byte	0
 3541 0030 90000000 		.4byte	.LBB28
 3542 0034 90000000 		.4byte	.LBE28
 3543 0038 94000000 		.4byte	.LBB32
 3544 003c 9C000000 		.4byte	.LBE32
 3545 0040 A0000000 		.4byte	.LBB33
 3546 0044 A8000000 		.4byte	.LBE33
 3547 0048 00000000 		.4byte	0
 3548 004c 00000000 		.4byte	0
 3549 0050 A8000000 		.4byte	.LBB34
 3550 0054 D8000000 		.4byte	.LBE34
 3551 0058 DC000000 		.4byte	.LBB37
 3552 005c E0000000 		.4byte	.LBE37
 3553 0060 00000000 		.4byte	0
 3554 0064 00000000 		.4byte	0
 3555 0068 AC000000 		.4byte	.LBB35
 3556 006c D8000000 		.4byte	.LBE35
 3557 0070 DC000000 		.4byte	.LBB36
 3558 0074 E0000000 		.4byte	.LBE36
 3559 0078 00000000 		.4byte	0
 3560 007c 00000000 		.4byte	0
 3561 0080 00010000 		.4byte	.LBB38
 3562 0084 08010000 		.4byte	.LBE38
 3563 0088 0C010000 		.4byte	.LBB41
 3564 008c 14010000 		.4byte	.LBE41
 3565 0090 00000000 		.4byte	0
 3566 0094 00000000 		.4byte	0
 3567 0098 10000000 		.4byte	.LBB49
 3568 009c 1C000000 		.4byte	.LBE49
 3569 00a0 20000000 		.4byte	.LBB52
 3570 00a4 30000000 		.4byte	.LBE52
 3571 00a8 00000000 		.4byte	0
 3572 00ac 00000000 		.4byte	0
 3573 00b0 0C000000 		.4byte	.LBB55
 3574 00b4 18000000 		.4byte	.LBE55
 3575 00b8 1C000000 		.4byte	.LBB58
 3576 00bc 2C000000 		.4byte	.LBE58
 3577 00c0 00000000 		.4byte	0
 3578 00c4 00000000 		.4byte	0
 3579 00c8 5C000000 		.4byte	.LBB60
 3580 00cc 60000000 		.4byte	.LBE60
 3581 00d0 64000000 		.4byte	.LBB64
 3582 00d4 68000000 		.4byte	.LBE64
 3583 00d8 6C000000 		.4byte	.LBB65
 3584 00dc 70000000 		.4byte	.LBE65
 3585 00e0 00000000 		.4byte	0
 3586 00e4 00000000 		.4byte	0
 3587 00e8 58000000 		.4byte	.LBB67
 3588 00ec 5C000000 		.4byte	.LBE67
 3589 00f0 60000000 		.4byte	.LBB71
 3590 00f4 64000000 		.4byte	.LBE71
 3591 00f8 68000000 		.4byte	.LBB72
ARM GAS  /var/folders/l5/0x54b2c10074c8bt31ycjvl80000gp/T//ccfxZmfD.s 			page 64


 3592 00fc 6C000000 		.4byte	.LBE72
 3593 0100 00000000 		.4byte	0
 3594 0104 00000000 		.4byte	0
 3595 0108 1C000000 		.4byte	.LBB73
 3596 010c 20000000 		.4byte	.LBE73
 3597 0110 20000000 		.4byte	.LBB85
 3598 0114 64000000 		.4byte	.LBE85
 3599 0118 00000000 		.4byte	0
 3600 011c 00000000 		.4byte	0
 3601 0120 20000000 		.4byte	.LBB74
 3602 0124 20000000 		.4byte	.LBE74
 3603 0128 24000000 		.4byte	.LBB83
 3604 012c 24000000 		.4byte	.LBE83
 3605 0130 3C000000 		.4byte	.LBB84
 3606 0134 64000000 		.4byte	.LBE84
 3607 0138 00000000 		.4byte	0
 3608 013c 00000000 		.4byte	0
 3609 0140 20000000 		.4byte	.LBB75
 3610 0144 20000000 		.4byte	.LBE75
 3611 0148 24000000 		.4byte	.LBB80
 3612 014c 24000000 		.4byte	.LBE80
 3613 0150 40000000 		.4byte	.LBB81
 3614 0154 44000000 		.4byte	.LBE81
 3615 0158 48000000 		.4byte	.LBB82
 3616 015c 50000000 		.4byte	.LBE82
 3617 0160 00000000 		.4byte	0
 3618 0164 00000000 		.4byte	0
 3619 0168 00000000 		.4byte	.LFB7
 3620 016c 14000000 		.4byte	.LFE7
 3621 0170 00000000 		.4byte	.LFB9
 3622 0174 34010000 		.4byte	.LFE9
 3623 0178 00000000 		.4byte	.LFB8
 3624 017c 14000000 		.4byte	.LFE8
 3625 0180 00000000 		.4byte	.LFB10
 3626 0184 3C000000 		.4byte	.LFE10
 3627 0188 00000000 		.4byte	.LFB11
 3628 018c 34000000 		.4byte	.LFE11
 3629 0190 00000000 		.4byte	.LFB12
 3630 0194 A0000000 		.4byte	.LFE12
 3631 0198 00000000 		.4byte	.LFB13
 3632 019c 98000000 		.4byte	.LFE13
 3633 01a0 00000000 		.4byte	.LFB14
 3634 01a4 84000000 		.4byte	.LFE14
 3635 01a8 00000000 		.4byte	0
 3636 01ac 00000000 		.4byte	0
 3637              		.section	.debug_line,"",%progbits
 3638              	.Ldebug_line0:
 3639 0000 72070000 		.section	.debug_str,"MS",%progbits,1
 3639      03008D01 
 3639      00000201 
 3639      FB0E0D00 
 3639      01010101 
 3640              	.LASF81:
 3641 0000 2E2E2F2E 		.ascii	"../../../os/kernel/src/chmtx.c\000"
 3641      2E2F2E2E 
 3641      2F6F732F 
 3641      6B65726E 
ARM GAS  /var/folders/l5/0x54b2c10074c8bt31ycjvl80000gp/T//ccfxZmfD.s 			page 65


 3641      656C2F73 
 3642              	.LASF61:
 3643 001f 7264796D 		.ascii	"rdymsg\000"
 3643      736700
 3644              	.LASF6:
 3645 0026 5F5F7569 		.ascii	"__uint8_t\000"
 3645      6E74385F 
 3645      7400
 3646              	.LASF55:
 3647 0030 76746C69 		.ascii	"vtlist\000"
 3647      737400
 3648              	.LASF10:
 3649 0037 6C6F6E67 		.ascii	"long long unsigned int\000"
 3649      206C6F6E 
 3649      6720756E 
 3649      7369676E 
 3649      65642069 
 3650              	.LASF62:
 3651 004e 65786974 		.ascii	"exitcode\000"
 3651      636F6465 
 3651      00
 3652              	.LASF68:
 3653 0057 63684D74 		.ascii	"chMtxUnlock\000"
 3653      78556E6C 
 3653      6F636B00 
 3654              	.LASF26:
 3655 0063 705F7072 		.ascii	"p_prio\000"
 3655      696F00
 3656              	.LASF9:
 3657 006a 6C6F6E67 		.ascii	"long long int\000"
 3657      206C6F6E 
 3657      6720696E 
 3657      7400
 3658              	.LASF2:
 3659 0078 7369676E 		.ascii	"signed char\000"
 3659      65642063 
 3659      68617200 
 3660              	.LASF15:
 3661 0084 626F6F6C 		.ascii	"bool_t\000"
 3661      5F7400
 3662              	.LASF58:
 3663 008b 6D5F7175 		.ascii	"m_queue\000"
 3663      65756500 
 3664              	.LASF18:
 3665 0093 74736C69 		.ascii	"tslices_t\000"
 3665      6365735F 
 3665      7400
 3666              	.LASF0:
 3667 009d 6C6F6E67 		.ascii	"long int\000"
 3667      20696E74 
 3667      00
 3668              	.LASF17:
 3669 00a6 74737461 		.ascii	"tstate_t\000"
 3669      74655F74 
 3669      00
 3670              	.LASF82:
 3671 00af 2F557365 		.ascii	"/Users/fernandoguirado/eclipse-workspace/ChibiOS-RP"
ARM GAS  /var/folders/l5/0x54b2c10074c8bt31ycjvl80000gp/T//ccfxZmfD.s 			page 66


 3671      72732F66 
 3671      65726E61 
 3671      6E646F67 
 3671      75697261 
 3672 00e2 692D6D61 		.ascii	"i-master/testhal/BCM2835/GPIO\000"
 3672      73746572 
 3672      2F746573 
 3672      7468616C 
 3672      2F42434D 
 3673              	.LASF71:
 3674 0100 63684D74 		.ascii	"chMtxLockS\000"
 3674      784C6F63 
 3674      6B5300
 3675              	.LASF83:
 3676 010b 63684D74 		.ascii	"chMtxTryLockS\000"
 3676      78547279 
 3676      4C6F636B 
 3676      5300
 3677              	.LASF65:
 3678 0119 5F69646C 		.ascii	"_idle_thread_wa\000"
 3678      655F7468 
 3678      72656164 
 3678      5F776100 
 3679              	.LASF77:
 3680 0129 63685363 		.ascii	"chSchRescheduleS\000"
 3680      68526573 
 3680      63686564 
 3680      756C6553 
 3680      00
 3681              	.LASF8:
 3682 013a 5F5F7569 		.ascii	"__uint32_t\000"
 3682      6E743332 
 3682      5F7400
 3683              	.LASF38:
 3684 0145 72656761 		.ascii	"regarm_t\000"
 3684      726D5F74 
 3684      00
 3685              	.LASF44:
 3686 014e 76745F70 		.ascii	"vt_prev\000"
 3686      72657600 
 3687              	.LASF80:
 3688 0156 474E5520 		.ascii	"GNU C17 8.3.1 20190703 (release) [gcc-8-branch revi"
 3688      43313720 
 3688      382E332E 
 3688      31203230 
 3688      31393037 
 3689 0189 73696F6E 		.ascii	"sion 273027] -mcpu=arm1176jz-s -mabi=apcs-gnu -mno-"
 3689      20323733 
 3689      3032375D 
 3689      202D6D63 
 3689      70753D61 
 3690 01bc 7468756D 		.ascii	"thumb-interwork -mfloat-abi=soft -marm -march=armv6"
 3690      622D696E 
 3690      74657277 
 3690      6F726B20 
 3690      2D6D666C 
 3691 01ef 6B7A202D 		.ascii	"kz -ggdb -O2 -fomit-frame-pointer -ffunction-sectio"
ARM GAS  /var/folders/l5/0x54b2c10074c8bt31ycjvl80000gp/T//ccfxZmfD.s 			page 67


 3691      67676462 
 3691      202D4F32 
 3691      202D666F 
 3691      6D69742D 
 3692 0222 6E73202D 		.ascii	"ns -fdata-sections\000"
 3692      66646174 
 3692      612D7365 
 3692      6374696F 
 3692      6E7300
 3693              	.LASF67:
 3694 0235 63684D74 		.ascii	"chMtxUnlockS\000"
 3694      78556E6C 
 3694      6F636B53 
 3694      00
 3695              	.LASF14:
 3696 0242 756E7369 		.ascii	"unsigned int\000"
 3696      676E6564 
 3696      20696E74 
 3696      00
 3697              	.LASF43:
 3698 024f 76745F6E 		.ascii	"vt_next\000"
 3698      65787400 
 3699              	.LASF1:
 3700 0257 6C6F6E67 		.ascii	"long unsigned int\000"
 3700      20756E73 
 3700      69676E65 
 3700      6420696E 
 3700      7400
 3701              	.LASF41:
 3702 0269 76746675 		.ascii	"vtfunc_t\000"
 3702      6E635F74 
 3702      00
 3703              	.LASF5:
 3704 0272 73686F72 		.ascii	"short unsigned int\000"
 3704      7420756E 
 3704      7369676E 
 3704      65642069 
 3704      6E7400
 3705              	.LASF78:
 3706 0285 63685363 		.ascii	"chSchWakeupS\000"
 3706      6857616B 
 3706      65757053 
 3706      00
 3707              	.LASF20:
 3708 0292 6D73675F 		.ascii	"msg_t\000"
 3708      7400
 3709              	.LASF84:
 3710 0298 7072696F 		.ascii	"prio_insert\000"
 3710      5F696E73 
 3710      65727400 
 3711              	.LASF70:
 3712 02a4 63684D74 		.ascii	"chMtxUnlockAll\000"
 3712      78556E6C 
 3712      6F636B41 
 3712      6C6C00
 3713              	.LASF66:
 3714 02b3 6E657770 		.ascii	"newprio\000"
ARM GAS  /var/folders/l5/0x54b2c10074c8bt31ycjvl80000gp/T//ccfxZmfD.s 			page 68


 3714      72696F00 
 3715              	.LASF16:
 3716 02bb 746D6F64 		.ascii	"tmode_t\000"
 3716      655F7400 
 3717              	.LASF36:
 3718 02c3 54687265 		.ascii	"ThreadsList\000"
 3718      6164734C 
 3718      69737400 
 3719              	.LASF21:
 3720 02cf 6576656E 		.ascii	"eventmask_t\000"
 3720      746D6173 
 3720      6B5F7400 
 3721              	.LASF69:
 3722 02db 63684D74 		.ascii	"chMtxTryLock\000"
 3722      78547279 
 3722      4C6F636B 
 3722      00
 3723              	.LASF57:
 3724 02e8 4D757465 		.ascii	"Mutex\000"
 3724      7800
 3725              	.LASF37:
 3726 02ee 73746B61 		.ascii	"stkalign_t\000"
 3726      6C69676E 
 3726      5F7400
 3727              	.LASF45:
 3728 02f9 76745F74 		.ascii	"vt_time\000"
 3728      696D6500 
 3729              	.LASF46:
 3730 0301 76745F66 		.ascii	"vt_func\000"
 3730      756E6300 
 3731              	.LASF72:
 3732 0309 63684D74 		.ascii	"chMtxLock\000"
 3732      784C6F63 
 3732      6B00
 3733              	.LASF49:
 3734 0313 56544C69 		.ascii	"VTList\000"
 3734      737400
 3735              	.LASF52:
 3736 031a 725F6374 		.ascii	"r_ctx\000"
 3736      7800
 3737              	.LASF35:
 3738 0320 54687265 		.ascii	"ThreadsQueue\000"
 3738      61647351 
 3738      75657565 
 3738      00
 3739              	.LASF74:
 3740 032d 64657175 		.ascii	"dequeue\000"
 3740      65756500 
 3741              	.LASF53:
 3742 0335 725F6375 		.ascii	"r_current\000"
 3742      7272656E 
 3742      7400
 3743              	.LASF25:
 3744 033f 705F7072 		.ascii	"p_prev\000"
 3744      657600
 3745              	.LASF19:
 3746 0346 74707269 		.ascii	"tprio_t\000"
ARM GAS  /var/folders/l5/0x54b2c10074c8bt31ycjvl80000gp/T//ccfxZmfD.s 			page 69


 3746      6F5F7400 
 3747              	.LASF12:
 3748 034e 696E7433 		.ascii	"int32_t\000"
 3748      325F7400 
 3749              	.LASF3:
 3750 0356 756E7369 		.ascii	"unsigned char\000"
 3750      676E6564 
 3750      20636861 
 3750      7200
 3751              	.LASF33:
 3752 0364 705F6D74 		.ascii	"p_mtxlist\000"
 3752      786C6973 
 3752      7400
 3753              	.LASF4:
 3754 036e 73686F72 		.ascii	"short int\000"
 3754      7420696E 
 3754      7400
 3755              	.LASF28:
 3756 0378 705F7374 		.ascii	"p_state\000"
 3756      61746500 
 3757              	.LASF30:
 3758 0380 705F7072 		.ascii	"p_preempt\000"
 3758      65656D70 
 3758      7400
 3759              	.LASF51:
 3760 038a 725F7072 		.ascii	"r_prio\000"
 3760      696F00
 3761              	.LASF64:
 3762 0391 65776D61 		.ascii	"ewmask\000"
 3762      736B00
 3763              	.LASF24:
 3764 0398 705F6E65 		.ascii	"p_next\000"
 3764      787400
 3765              	.LASF29:
 3766 039f 705F666C 		.ascii	"p_flags\000"
 3766      61677300 
 3767              	.LASF23:
 3768 03a7 54687265 		.ascii	"Thread\000"
 3768      616400
 3769              	.LASF79:
 3770 03ae 63685363 		.ascii	"chSchGoSleepS\000"
 3770      68476F53 
 3770      6C656570 
 3770      5300
 3771              	.LASF32:
 3772 03bc 705F6570 		.ascii	"p_epending\000"
 3772      656E6469 
 3772      6E6700
 3773              	.LASF13:
 3774 03c7 75696E74 		.ascii	"uint32_t\000"
 3774      33325F74 
 3774      00
 3775              	.LASF50:
 3776 03d0 725F7175 		.ascii	"r_queue\000"
 3776      65756500 
 3777              	.LASF42:
 3778 03d8 56697274 		.ascii	"VirtualTimer\000"
ARM GAS  /var/folders/l5/0x54b2c10074c8bt31ycjvl80000gp/T//ccfxZmfD.s 			page 70


 3778      75616C54 
 3778      696D6572 
 3778      00
 3779              	.LASF76:
 3780 03e5 63685363 		.ascii	"chSchReadyI\000"
 3780      68526561 
 3780      64794900 
 3781              	.LASF75:
 3782 03f1 6669666F 		.ascii	"fifo_remove\000"
 3782      5F72656D 
 3782      6F766500 
 3783              	.LASF60:
 3784 03fd 6D5F6E65 		.ascii	"m_next\000"
 3784      787400
 3785              	.LASF22:
 3786 0404 73797374 		.ascii	"systime_t\000"
 3786      696D655F 
 3786      7400
 3787              	.LASF34:
 3788 040e 705F7265 		.ascii	"p_realprio\000"
 3788      616C7072 
 3788      696F00
 3789              	.LASF7:
 3790 0419 5F5F696E 		.ascii	"__int32_t\000"
 3790      7433325F 
 3790      7400
 3791              	.LASF40:
 3792 0423 636F6E74 		.ascii	"context\000"
 3792      65787400 
 3793              	.LASF39:
 3794 042b 696E7463 		.ascii	"intctx\000"
 3794      747800
 3795              	.LASF47:
 3796 0432 76745F70 		.ascii	"vt_par\000"
 3796      617200
 3797              	.LASF73:
 3798 0439 63684D74 		.ascii	"chMtxInit\000"
 3798      78496E69 
 3798      7400
 3799              	.LASF54:
 3800 0443 52656164 		.ascii	"ReadyList\000"
 3800      794C6973 
 3800      7400
 3801              	.LASF56:
 3802 044d 726C6973 		.ascii	"rlist\000"
 3802      7400
 3803              	.LASF11:
 3804 0453 75696E74 		.ascii	"uint8_t\000"
 3804      385F7400 
 3805              	.LASF63:
 3806 045b 77746F62 		.ascii	"wtobjp\000"
 3806      6A7000
 3807              	.LASF48:
 3808 0462 76745F73 		.ascii	"vt_systime\000"
 3808      79737469 
 3808      6D6500
 3809              	.LASF59:
ARM GAS  /var/folders/l5/0x54b2c10074c8bt31ycjvl80000gp/T//ccfxZmfD.s 			page 71


 3810 046d 6D5F6F77 		.ascii	"m_owner\000"
 3810      6E657200 
 3811              	.LASF27:
 3812 0475 705F6374 		.ascii	"p_ctx\000"
 3812      7800
 3813              	.LASF31:
 3814 047b 705F7761 		.ascii	"p_waiting\000"
 3814      6974696E 
 3814      6700
 3815              		.ident	"GCC: (GNU Tools for Arm Embedded Processors 8-2019-q3-update) 8.3.1 20190703 (release) [gc
ARM GAS  /var/folders/l5/0x54b2c10074c8bt31ycjvl80000gp/T//ccfxZmfD.s 			page 72


DEFINED SYMBOLS
                            *ABS*:0000000000000000 chmtx.c
/var/folders/l5/0x54b2c10074c8bt31ycjvl80000gp/T//ccfxZmfD.s:6      .text.chMtxInit:0000000000000000 $a
/var/folders/l5/0x54b2c10074c8bt31ycjvl80000gp/T//ccfxZmfD.s:13     .text.chMtxInit:0000000000000000 chMtxInit
/var/folders/l5/0x54b2c10074c8bt31ycjvl80000gp/T//ccfxZmfD.s:40     .text.chMtxLockS:0000000000000000 $a
/var/folders/l5/0x54b2c10074c8bt31ycjvl80000gp/T//ccfxZmfD.s:46     .text.chMtxLockS:0000000000000000 chMtxLockS
/var/folders/l5/0x54b2c10074c8bt31ycjvl80000gp/T//ccfxZmfD.s:325    .text.chMtxLockS:0000000000000130 $d
/var/folders/l5/0x54b2c10074c8bt31ycjvl80000gp/T//ccfxZmfD.s:330    .text.chMtxLock:0000000000000000 $a
/var/folders/l5/0x54b2c10074c8bt31ycjvl80000gp/T//ccfxZmfD.s:336    .text.chMtxLock:0000000000000000 chMtxLock
/var/folders/l5/0x54b2c10074c8bt31ycjvl80000gp/T//ccfxZmfD.s:375    .text.chMtxTryLock:0000000000000000 $a
/var/folders/l5/0x54b2c10074c8bt31ycjvl80000gp/T//ccfxZmfD.s:381    .text.chMtxTryLock:0000000000000000 chMtxTryLock
/var/folders/l5/0x54b2c10074c8bt31ycjvl80000gp/T//ccfxZmfD.s:467    .text.chMtxTryLock:0000000000000038 $d
/var/folders/l5/0x54b2c10074c8bt31ycjvl80000gp/T//ccfxZmfD.s:472    .text.chMtxTryLockS:0000000000000000 $a
/var/folders/l5/0x54b2c10074c8bt31ycjvl80000gp/T//ccfxZmfD.s:478    .text.chMtxTryLockS:0000000000000000 chMtxTryLockS
/var/folders/l5/0x54b2c10074c8bt31ycjvl80000gp/T//ccfxZmfD.s:535    .text.chMtxTryLockS:0000000000000030 $d
/var/folders/l5/0x54b2c10074c8bt31ycjvl80000gp/T//ccfxZmfD.s:540    .text.chMtxUnlock:0000000000000000 $a
/var/folders/l5/0x54b2c10074c8bt31ycjvl80000gp/T//ccfxZmfD.s:546    .text.chMtxUnlock:0000000000000000 chMtxUnlock
/var/folders/l5/0x54b2c10074c8bt31ycjvl80000gp/T//ccfxZmfD.s:703    .text.chMtxUnlock:000000000000009c $d
/var/folders/l5/0x54b2c10074c8bt31ycjvl80000gp/T//ccfxZmfD.s:708    .text.chMtxUnlockS:0000000000000000 $a
/var/folders/l5/0x54b2c10074c8bt31ycjvl80000gp/T//ccfxZmfD.s:714    .text.chMtxUnlockS:0000000000000000 chMtxUnlockS
/var/folders/l5/0x54b2c10074c8bt31ycjvl80000gp/T//ccfxZmfD.s:856    .text.chMtxUnlockS:0000000000000094 $d
/var/folders/l5/0x54b2c10074c8bt31ycjvl80000gp/T//ccfxZmfD.s:861    .text.chMtxUnlockAll:0000000000000000 $a
/var/folders/l5/0x54b2c10074c8bt31ycjvl80000gp/T//ccfxZmfD.s:867    .text.chMtxUnlockAll:0000000000000000 chMtxUnlockAll
/var/folders/l5/0x54b2c10074c8bt31ycjvl80000gp/T//ccfxZmfD.s:1011   .text.chMtxUnlockAll:0000000000000080 $d

UNDEFINED SYMBOLS
chSchGoSleepS
chSchReadyI
rlist
chSchWakeupS
chSchRescheduleS
