ARM GAS  /var/folders/l5/0x54b2c10074c8bt31ycjvl80000gp/T//cc7SF9Cr.s 			page 1


   1              		.file	"chprintf.c"
   2              		.text
   3              	.Ltext0:
   4              		.cfi_sections	.debug_frame
   5              		.global	__truncdfsf2
   6              		.global	__ltsf2
   7              		.global	__extendsfdf2
   8              		.global	__fixsfsi
   9              		.global	__floatsidf
  10              		.global	__subdf3
  11              		.global	__muldf3
  12              		.global	__fixdfsi
  13              		.global	__umodsi3
  14              		.global	__udivsi3
  15              		.section	.text.chprintf,"ax",%progbits
  16              		.align	2
  17              		.global	chprintf
  18              		.arch armv6kz
  19              		.syntax unified
  20              		.arm
  21              		.fpu softvfp
  22              		.type	chprintf, %function
  23              	chprintf:
  24              	.LVL0:
  25              	.LFB10:
  26              		.file 1 "../../../os/various/chprintf.c"
  27              		.loc 1 112 64 view -0
  28              		.cfi_startproc
  29              		@ args = 4, pretend = 12, frame = 40
  30              		@ frame_needed = 0, uses_anonymous_args = 1
  31              		.loc 1 113 3 view .LVU1
  32              		.loc 1 114 3 view .LVU2
  33              		.loc 1 115 3 view .LVU3
  34              		.loc 1 116 3 view .LVU4
  35              		.loc 1 117 3 view .LVU5
  36              		.loc 1 119 3 view .LVU6
  37              		.loc 1 120 3 view .LVU7
  38              		.loc 1 125 3 view .LVU8
  39              		.loc 1 112 64 is_stmt 0 view .LVU9
  40 0000 0E002DE9 		push	{r1, r2, r3}
  41              		.cfi_def_cfa_offset 12
  42              		.cfi_offset 1, -12
  43              		.cfi_offset 2, -8
  44              		.cfi_offset 3, -4
  45 0004 F04F2DE9 		push	{r4, r5, r6, r7, r8, r9, r10, fp, lr}
  46              		.cfi_def_cfa_offset 48
  47              		.cfi_offset 4, -48
  48              		.cfi_offset 5, -44
  49              		.cfi_offset 6, -40
  50              		.cfi_offset 7, -36
  51              		.cfi_offset 8, -32
  52              		.cfi_offset 9, -28
  53              		.cfi_offset 10, -24
  54              		.cfi_offset 11, -20
  55              		.cfi_offset 14, -16
  56 0008 0050A0E1 		mov	r5, r0
  57 000c 28D04DE2 		sub	sp, sp, #40
ARM GAS  /var/folders/l5/0x54b2c10074c8bt31ycjvl80000gp/T//cc7SF9Cr.s 			page 2


  58              		.cfi_def_cfa_offset 88
  59              		.loc 1 125 3 view .LVU10
  60 0010 50308DE2 		add	r3, sp, #80
  61              		.loc 1 112 64 view .LVU11
  62 0014 4CA09DE5 		ldr	r10, [sp, #76]
  63              		.loc 1 125 3 view .LVU12
  64 0018 0C308DE5 		str	r3, [sp, #12]
  65              	.LVL1:
  66              	.L2:
  67              		.loc 1 126 3 is_stmt 1 view .LVU13
  68              		.loc 1 127 5 view .LVU14
  69              		.loc 1 127 13 is_stmt 0 view .LVU15
  70 001c 0A20A0E1 		mov	r2, r10
  71              		.loc 1 127 7 view .LVU16
  72 0020 0110D2E4 		ldrb	r1, [r2], #1	@ zero_extendqisi2
  73              	.LVL2:
  74              		.loc 1 128 5 is_stmt 1 view .LVU17
  75              		.loc 1 128 8 is_stmt 0 view .LVU18
  76 0024 000051E3 		cmp	r1, #0
  77 0028 0A00000A 		beq	.L110
  78              	.L117:
  79              		.loc 1 132 5 is_stmt 1 view .LVU19
  80              		.loc 1 132 8 is_stmt 0 view .LVU20
  81 002c 250051E3 		cmp	r1, #37
  82 0030 0C00000A 		beq	.L4
  83              		.loc 1 133 7 is_stmt 1 view .LVU21
  84              		.loc 1 127 13 is_stmt 0 view .LVU22
  85 0034 02A0A0E1 		mov	r10, r2
  86              	.LVL3:
  87              		.loc 1 133 7 view .LVU23
  88 0038 003095E5 		ldr	r3, [r5]
  89 003c 0500A0E1 		mov	r0, r5
  90 0040 083093E5 		ldr	r3, [r3, #8]
  91 0044 33FF2FE1 		blx	r3
  92              	.LVL4:
  93              		.loc 1 134 7 is_stmt 1 view .LVU24
  94              		.loc 1 126 3 view .LVU25
  95              		.loc 1 127 5 view .LVU26
  96              		.loc 1 127 13 is_stmt 0 view .LVU27
  97 0048 0A20A0E1 		mov	r2, r10
  98              		.loc 1 127 7 view .LVU28
  99 004c 0110D2E4 		ldrb	r1, [r2], #1	@ zero_extendqisi2
 100              	.LVL5:
 101              		.loc 1 128 5 is_stmt 1 view .LVU29
 102              		.loc 1 128 8 is_stmt 0 view .LVU30
 103 0050 000051E3 		cmp	r1, #0
 104 0054 F4FFFF1A 		bne	.L117
 105              	.L110:
 106              		.loc 1 263 1 view .LVU31
 107 0058 28D08DE2 		add	sp, sp, #40
 108              		.cfi_remember_state
 109              		.cfi_def_cfa_offset 48
 110              		@ sp needed
 111 005c F04FBDE8 		pop	{r4, r5, r6, r7, r8, r9, r10, fp, lr}
 112              		.cfi_restore 14
 113              		.cfi_restore 11
 114              		.cfi_restore 10
ARM GAS  /var/folders/l5/0x54b2c10074c8bt31ycjvl80000gp/T//cc7SF9Cr.s 			page 3


 115              		.cfi_restore 9
 116              		.cfi_restore 8
 117              		.cfi_restore 7
 118              		.cfi_restore 6
 119              		.cfi_restore 5
 120              		.cfi_restore 4
 121              		.cfi_def_cfa_offset 12
 122              	.LVL6:
 123              		.loc 1 263 1 view .LVU32
 124 0060 0CD08DE2 		add	sp, sp, #12
 125              		.cfi_restore 3
 126              		.cfi_restore 2
 127              		.cfi_restore 1
 128              		.cfi_def_cfa_offset 0
 129 0064 1EFF2FE1 		bx	lr
 130              	.LVL7:
 131              	.L4:
 132              		.cfi_restore_state
 133              		.loc 1 136 5 is_stmt 1 view .LVU33
 134              		.loc 1 137 5 view .LVU34
 135              		.loc 1 138 5 view .LVU35
 136              		.loc 1 139 5 view .LVU36
 137              		.loc 1 139 9 is_stmt 0 view .LVU37
 138 0068 0110DAE5 		ldrb	r1, [r10, #1]	@ zero_extendqisi2
 139              	.LVL8:
 140              		.loc 1 143 12 view .LVU38
 141 006c 00C0A0E3 		mov	ip, #0
 142              		.loc 1 139 8 view .LVU39
 143 0070 2D0051E3 		cmp	r1, #45
 144              		.loc 1 140 7 is_stmt 1 view .LVU40
 145              		.loc 1 141 18 is_stmt 0 view .LVU41
 146 0074 0130A003 		moveq	r3, #1
 147              		.loc 1 138 16 view .LVU42
 148 0078 0030A013 		movne	r3, #0
 149 007c 0210DA05 		ldrbeq	r1, [r10, #2]	@ zero_extendqisi2
 150              		.loc 1 140 10 view .LVU43
 151 0080 02208A02 		addeq	r2, r10, #2
 152              	.LVL9:
 153              		.loc 1 141 7 is_stmt 1 view .LVU44
 154              		.loc 1 144 8 is_stmt 0 view .LVU45
 155 0084 2E0051E3 		cmp	r1, #46
 156 0088 0110D205 		ldrbeq	r1, [r2, #1]	@ zero_extendqisi2
 157              		.loc 1 145 10 view .LVU46
 158 008c 01208202 		addeq	r2, r2, #1
 159              	.LVL10:
 160              		.loc 1 138 16 view .LVU47
 161 0090 00308DE5 		str	r3, [sp]
 162              	.LVL11:
 163              		.loc 1 143 5 is_stmt 1 view .LVU48
 164              		.loc 1 144 5 view .LVU49
 165              		.loc 1 145 7 view .LVU50
 166              		.loc 1 146 7 view .LVU51
 167              		.loc 1 146 14 is_stmt 0 view .LVU52
 168 0094 3070A003 		moveq	r7, #48
 169              		.loc 1 143 12 view .LVU53
 170 0098 2070A013 		movne	r7, #32
 171              	.LVL12:
ARM GAS  /var/folders/l5/0x54b2c10074c8bt31ycjvl80000gp/T//cc7SF9Cr.s 			page 4


 172              		.loc 1 148 5 is_stmt 1 view .LVU54
 173              		.loc 1 148 11 is_stmt 0 view .LVU55
 174 009c 0C40A0E1 		mov	r4, ip
 175 00a0 0C009DE5 		ldr	r0, [sp, #12]
 176 00a4 012082E2 		add	r2, r2, #1
 177              	.LVL13:
 178              		.loc 1 148 11 view .LVU56
 179 00a8 040000EA 		b	.L10
 180              	.LVL14:
 181              	.L118:
 182              		.loc 1 154 11 view .LVU57
 183 00ac 01C0A0E3 		mov	ip, #1
 184 00b0 043090E4 		ldr	r3, [r0], #4
 185 00b4 7330EFE6 		uxtb	r3, r3
 186              	.LVL15:
 187              	.L8:
 188              		.loc 1 157 7 is_stmt 1 view .LVU58
 189 00b8 0110D2E4 		ldrb	r1, [r2], #1	@ zero_extendqisi2
 190              	.LVL16:
 191              		.loc 1 157 13 is_stmt 0 view .LVU59
 192 00bc 8E4083E0 		add	r4, r3, lr, lsl #1
 193              	.LVL17:
 194              	.L10:
 195              		.loc 1 149 5 is_stmt 1 view .LVU60
 196              		.loc 1 150 7 view .LVU61
 197              		.loc 1 153 12 view .LVU62
 198              		.loc 1 154 9 view .LVU63
 199              		.loc 1 151 20 is_stmt 0 view .LVU64
 200 00c0 303041E2 		sub	r3, r1, #48
 201 00c4 7330EFE6 		uxtb	r3, r3
 202              		.loc 1 151 10 view .LVU65
 203 00c8 090053E3 		cmp	r3, #9
 204              		.loc 1 157 21 view .LVU66
 205 00cc 04E184E0 		add	lr, r4, r4, lsl #2
 206              		.loc 1 150 15 view .LVU67
 207 00d0 02A0A0E1 		mov	r10, r2
 208              	.LVL18:
 209              		.loc 1 151 7 is_stmt 1 view .LVU68
 210              		.loc 1 151 10 is_stmt 0 view .LVU69
 211 00d4 F7FFFF9A 		bls	.L8
 212              		.loc 1 153 15 view .LVU70
 213 00d8 2A0051E3 		cmp	r1, #42
 214 00dc F2FFFF0A 		beq	.L118
 215 00e0 00005CE3 		cmp	ip, #0
 216 00e4 0C008D15 		strne	r0, [sp, #12]
 217              	.LVL19:
 218              		.loc 1 159 5 is_stmt 1 view .LVU71
 219              		.loc 1 160 5 view .LVU72
 220              		.loc 1 160 8 is_stmt 0 view .LVU73
 221 00e8 2E0051E3 		cmp	r1, #46
 222              		.loc 1 159 15 view .LVU74
 223 00ec 0000A013 		movne	r0, #0
 224              		.loc 1 160 8 view .LVU75
 225 00f0 3201000A 		beq	.L119
 226              	.LVL20:
 227              	.L12:
 228              		.loc 1 174 5 is_stmt 1 view .LVU76
ARM GAS  /var/folders/l5/0x54b2c10074c8bt31ycjvl80000gp/T//cc7SF9Cr.s 			page 5


 229              		.loc 1 174 8 is_stmt 0 view .LVU77
 230 00f4 DF3001E2 		and	r3, r1, #223
 231 00f8 4C0053E3 		cmp	r3, #76
 232 00fc 3C00001A 		bne	.L17
 233              		.loc 1 175 7 is_stmt 1 view .LVU78
 234              	.LVL21:
 235              		.loc 1 176 7 view .LVU79
 236              		.loc 1 176 11 is_stmt 0 view .LVU80
 237 0100 0030DAE5 		ldrb	r3, [r10]	@ zero_extendqisi2
 238              		.loc 1 176 10 view .LVU81
 239 0104 000053E3 		cmp	r3, #0
 240 0108 0310A011 		movne	r1, r3
 241              	.LVL22:
 242              		.loc 1 183 5 view .LVU82
 243 010c 443041E2 		sub	r3, r1, #68
 244 0110 01A08A12 		addne	r10, r10, #1
 245              	.LVL23:
 246              		.loc 1 183 5 is_stmt 1 view .LVU83
 247 0114 340053E3 		cmp	r3, #52
 248 0118 03F19F97 		ldrls	pc, [pc, r3, asl #2]
 249 011c 1B0100EA 		b	.L19
 250              	.L69:
 251 0120 A4060000 		.word	.L93
 252 0124 90050000 		.word	.L19
 253 0128 90050000 		.word	.L19
 254 012c 90050000 		.word	.L19
 255 0130 90050000 		.word	.L19
 256 0134 90050000 		.word	.L19
 257 0138 90050000 		.word	.L19
 258 013c 90050000 		.word	.L19
 259 0140 90050000 		.word	.L19
 260 0144 90050000 		.word	.L19
 261 0148 90050000 		.word	.L19
 262 014c 44070000 		.word	.L70
 263 0150 90050000 		.word	.L19
 264 0154 90050000 		.word	.L19
 265 0158 90050000 		.word	.L19
 266 015c 90050000 		.word	.L19
 267 0160 90050000 		.word	.L19
 268 0164 34070000 		.word	.L49
 269 0168 90050000 		.word	.L19
 270 016c 90050000 		.word	.L19
 271 0170 54070000 		.word	.L68
 272 0174 90050000 		.word	.L19
 273 0178 90050000 		.word	.L19
 274 017c 90050000 		.word	.L19
 275 0180 90050000 		.word	.L19
 276 0184 90050000 		.word	.L19
 277 0188 90050000 		.word	.L19
 278 018c 90050000 		.word	.L19
 279 0190 90050000 		.word	.L19
 280 0194 90050000 		.word	.L19
 281 0198 90050000 		.word	.L19
 282 019c 68050000 		.word	.L27
 283 01a0 A4060000 		.word	.L93
 284 01a4 90050000 		.word	.L19
 285 01a8 64030000 		.word	.L25
ARM GAS  /var/folders/l5/0x54b2c10074c8bt31ycjvl80000gp/T//cc7SF9Cr.s 			page 6


 286 01ac 90050000 		.word	.L19
 287 01b0 90050000 		.word	.L19
 288 01b4 90050000 		.word	.L19
 289 01b8 90050000 		.word	.L19
 290 01bc 90050000 		.word	.L19
 291 01c0 90050000 		.word	.L19
 292 01c4 90050000 		.word	.L19
 293 01c8 90050000 		.word	.L19
 294 01cc 44070000 		.word	.L70
 295 01d0 90050000 		.word	.L19
 296 01d4 90050000 		.word	.L19
 297 01d8 90050000 		.word	.L19
 298 01dc E0020000 		.word	.L23
 299 01e0 90050000 		.word	.L19
 300 01e4 34070000 		.word	.L49
 301 01e8 90050000 		.word	.L19
 302 01ec 90050000 		.word	.L19
 303 01f0 54070000 		.word	.L68
 304              	.LVL24:
 305              	.L17:
 306              		.loc 1 180 7 view .LVU84
 307              		.loc 1 180 28 is_stmt 0 view .LVU85
 308 01f4 413041E2 		sub	r3, r1, #65
 309              		.loc 1 183 5 view .LVU86
 310 01f8 442041E2 		sub	r2, r1, #68
 311              		.loc 1 180 28 view .LVU87
 312 01fc 7330EFE6 		uxtb	r3, r3
 313              	.LVL25:
 314              		.loc 1 183 5 is_stmt 1 view .LVU88
 315 0200 340052E3 		cmp	r2, #52
 316 0204 02F19F97 		ldrls	pc, [pc, r2, asl #2]
 317 0208 E00000EA 		b	.L19
 318              	.L21:
 319 020c 64070000 		.word	.L26
 320 0210 90050000 		.word	.L19
 321 0214 90050000 		.word	.L19
 322 0218 90050000 		.word	.L19
 323 021c 90050000 		.word	.L19
 324 0220 90050000 		.word	.L19
 325 0224 90050000 		.word	.L19
 326 0228 90050000 		.word	.L19
 327 022c 90050000 		.word	.L19
 328 0230 90050000 		.word	.L19
 329 0234 90050000 		.word	.L19
 330 0238 80070000 		.word	.L24
 331 023c 90050000 		.word	.L19
 332 0240 90050000 		.word	.L19
 333 0244 90050000 		.word	.L19
 334 0248 90050000 		.word	.L19
 335 024c 90050000 		.word	.L19
 336 0250 0C060000 		.word	.L78
 337 0254 90050000 		.word	.L19
 338 0258 90050000 		.word	.L19
 339 025c 88070000 		.word	.L20
 340 0260 90050000 		.word	.L19
 341 0264 90050000 		.word	.L19
 342 0268 90050000 		.word	.L19
ARM GAS  /var/folders/l5/0x54b2c10074c8bt31ycjvl80000gp/T//cc7SF9Cr.s 			page 7


 343 026c 90050000 		.word	.L19
 344 0270 90050000 		.word	.L19
 345 0274 90050000 		.word	.L19
 346 0278 90050000 		.word	.L19
 347 027c 90050000 		.word	.L19
 348 0280 90050000 		.word	.L19
 349 0284 90050000 		.word	.L19
 350 0288 68050000 		.word	.L27
 351 028c 64070000 		.word	.L26
 352 0290 90050000 		.word	.L19
 353 0294 64030000 		.word	.L25
 354 0298 90050000 		.word	.L19
 355 029c 90050000 		.word	.L19
 356 02a0 90050000 		.word	.L19
 357 02a4 90050000 		.word	.L19
 358 02a8 90050000 		.word	.L19
 359 02ac 90050000 		.word	.L19
 360 02b0 90050000 		.word	.L19
 361 02b4 90050000 		.word	.L19
 362 02b8 80070000 		.word	.L24
 363 02bc 90050000 		.word	.L19
 364 02c0 90050000 		.word	.L19
 365 02c4 90050000 		.word	.L19
 366 02c8 E0020000 		.word	.L23
 367 02cc 90050000 		.word	.L19
 368 02d0 0C060000 		.word	.L78
 369 02d4 90050000 		.word	.L19
 370 02d8 90050000 		.word	.L19
 371 02dc 88070000 		.word	.L20
 372              	.LVL26:
 373              	.L23:
 374              		.loc 1 189 7 view .LVU89
 375              		.loc 1 190 7 view .LVU90
 376              		.loc 1 190 14 is_stmt 0 view .LVU91
 377 02e0 0C309DE5 		ldr	r3, [sp, #12]
 378 02e4 006093E5 		ldr	r6, [r3]
 379 02e8 043083E2 		add	r3, r3, #4
 380              		.loc 1 190 10 view .LVU92
 381 02ec 000056E3 		cmp	r6, #0
 382              		.loc 1 190 14 view .LVU93
 383 02f0 0C308DE5 		str	r3, [sp, #12]
 384              	.LVL27:
 385              		.loc 1 190 10 view .LVU94
 386 02f4 2501000A 		beq	.L29
 387              		.loc 1 193 19 view .LVU95
 388 02f8 04259FE5 		ldr	r2, .L127
 389 02fc 0030D6E5 		ldrb	r3, [r6]	@ zero_extendqisi2
 390              	.LVL28:
 391              		.loc 1 192 7 is_stmt 1 view .LVU96
 392              		.loc 1 193 19 is_stmt 0 view .LVU97
 393 0300 000050E3 		cmp	r0, #0
 394 0304 0200A001 		moveq	r0, r2
 395              	.LVL29:
 396              		.loc 1 194 7 view .LVU98
 397 0308 000053E3 		cmp	r3, #0
 398 030c 2E01000A 		beq	.L120
 399              	.LVL30:
ARM GAS  /var/folders/l5/0x54b2c10074c8bt31ycjvl80000gp/T//cc7SF9Cr.s 			page 8


 400              	.L71:
 401              		.loc 1 159 15 view .LVU99
 402 0310 06B0A0E1 		mov	fp, r6
 403 0314 030000EA 		b	.L33
 404              	.LVL31:
 405              	.L32:
 406              		.loc 1 159 15 view .LVU100
 407 0318 0B30E0E1 		mvn	r3, fp
 408 031c 033086E0 		add	r3, r6, r3
 409              		.loc 1 194 22 discriminator 3 view .LVU101
 410 0320 000073E1 		cmn	r3, r0
 411 0324 0200004A 		bmi	.L115
 412              	.LVL32:
 413              	.L33:
 414              		.loc 1 195 9 is_stmt 1 discriminator 4 view .LVU102
 415              		.loc 1 194 7 is_stmt 0 discriminator 4 view .LVU103
 416 0328 0130FBE5 		ldrb	r3, [fp, #1]!	@ zero_extendqisi2
 417              	.LVL33:
 418              		.loc 1 194 7 discriminator 4 view .LVU104
 419 032c 000053E3 		cmp	r3, #0
 420 0330 F8FFFF1A 		bne	.L32
 421              	.L115:
 422 0334 06204BE0 		sub	r2, fp, r6
 423              		.loc 1 242 8 view .LVU105
 424 0338 02B054E0 		subs	fp, r4, r2
 425              	.LVL34:
 426              		.loc 1 242 8 view .LVU106
 427 033c 019042E2 		sub	r9, r2, #1
 428              		.loc 1 189 14 view .LVU107
 429 0340 2070A0E3 		mov	r7, #32
 430              	.LVL35:
 431              		.loc 1 241 5 is_stmt 1 view .LVU108
 432              		.loc 1 242 5 view .LVU109
 433              		.loc 1 244 8 is_stmt 0 view .LVU110
 434 0344 00309DE5 		ldr	r3, [sp]
 435              		.loc 1 242 8 view .LVU111
 436 0348 5E00005A 		bpl	.L57
 437              	.LVL36:
 438              	.L123:
 439              		.loc 1 243 7 is_stmt 1 view .LVU112
 440              		.loc 1 244 5 view .LVU113
 441              		.loc 1 244 8 is_stmt 0 view .LVU114
 442 034c 000053E3 		cmp	r3, #0
 443 0350 9600001A 		bne	.L121
 444              		.loc 1 255 11 view .LVU115
 445 0354 000059E3 		cmp	r9, #0
 446              		.loc 1 245 13 view .LVU116
 447 0358 00B09DA5 		ldrge	fp, [sp]
 448              		.loc 1 255 11 view .LVU117
 449 035c 6E0000AA 		bge	.L66
 450 0360 2DFFFFEA 		b	.L2
 451              	.LVL37:
 452              	.L25:
 453              		.loc 1 211 7 is_stmt 1 view .LVU118
 454              		.loc 1 211 19 is_stmt 0 view .LVU119
 455 0364 0C309DE5 		ldr	r3, [sp, #12]
 456 0368 082083E2 		add	r2, r3, #8
ARM GAS  /var/folders/l5/0x54b2c10074c8bt31ycjvl80000gp/T//cc7SF9Cr.s 			page 9


 457              		.loc 1 211 9 view .LVU120
 458 036c 030093E8 		ldmia	r3, {r0-r1}
 459              	.LVL38:
 460              		.loc 1 211 19 view .LVU121
 461 0370 0C208DE5 		str	r2, [sp, #12]
 462              		.loc 1 211 9 view .LVU122
 463 0374 FEFFFFEB 		bl	__truncdfsf2
 464              	.LVL39:
 465              		.loc 1 212 10 view .LVU123
 466 0378 0010A0E3 		mov	r1, #0
 467              		.loc 1 211 9 view .LVU124
 468 037c 00B0A0E1 		mov	fp, r0
 469              	.LVL40:
 470              		.loc 1 212 7 is_stmt 1 view .LVU125
 471              		.loc 1 212 10 is_stmt 0 view .LVU126
 472 0380 FEFFFFEB 		bl	__ltsf2
 473              	.LVL41:
 474              		.loc 1 212 10 view .LVU127
 475 0384 000050E3 		cmp	r0, #0
 476              		.loc 1 213 9 is_stmt 1 view .LVU128
 477              	.LVL42:
 478              		.loc 1 213 14 is_stmt 0 view .LVU129
 479 0388 2D30A0B3 		movlt	r3, #45
 480              		.loc 1 214 11 view .LVU130
 481 038c 02B18BB2 		addlt	fp, fp, #-2147483648
 482              	.LVL43:
 483              		.loc 1 136 7 view .LVU131
 484 0390 10608DA2 		addge	r6, sp, #16
 485              		.loc 1 216 11 view .LVU132
 486 0394 0B00A0E1 		mov	r0, fp
 487              		.loc 1 213 11 view .LVU133
 488 0398 11908DB2 		addlt	r9, sp, #17
 489              		.loc 1 136 7 view .LVU134
 490 039c 0690A0A1 		movge	r9, r6
 491              		.loc 1 213 14 view .LVU135
 492 03a0 1030CDB5 		strblt	r3, [sp, #16]
 493              		.loc 1 214 9 is_stmt 1 view .LVU136
 494              	.LVL44:
 495              		.loc 1 214 9 is_stmt 0 view .LVU137
 496 03a4 10608DB2 		addlt	r6, sp, #16
 497              	.LVL45:
 498              		.loc 1 216 7 is_stmt 1 view .LVU138
 499              		.loc 1 216 11 is_stmt 0 view .LVU139
 500 03a8 FEFFFFEB 		bl	__extendsfdf2
 501              	.LVL46:
 502              		.loc 1 216 11 view .LVU140
 503 03ac 03008DE9 		stmib	sp, {r0-r1}
 504              	.LVL47:
 505              	.LBB26:
 506              	.LBI26:
 507              		.loc 1 79 14 is_stmt 1 view .LVU141
 508              	.LBB27:
 509              		.loc 1 80 3 view .LVU142
 510              		.loc 1 81 3 view .LVU143
 511              		.loc 1 83 3 view .LVU144
 512              		.loc 1 83 5 is_stmt 0 view .LVU145
 513 03b0 0B00A0E1 		mov	r0, fp
ARM GAS  /var/folders/l5/0x54b2c10074c8bt31ycjvl80000gp/T//cc7SF9Cr.s 			page 10


 514              	.LVL48:
 515              		.loc 1 83 5 view .LVU146
 516 03b4 FEFFFFEB 		bl	__fixsfsi
 517              	.LVL49:
 518              		.loc 1 84 3 is_stmt 1 view .LVU147
 519              	.LBB28:
 520              	.LBI28:
 521              		.loc 1 40 14 view .LVU148
 522              	.LBB29:
 523              		.loc 1 44 3 view .LVU149
 524              		.loc 1 45 3 view .LVU150
 525              		.loc 1 46 3 view .LVU151
 526              		.loc 1 48 3 view .LVU152
 527              		.loc 1 49 3 view .LVU153
 528              		.loc 1 55 3 view .LVU154
 529              		.loc 1 55 5 is_stmt 0 view .LVU155
 530 03b8 0BC089E2 		add	ip, r9, #11
 531              	.LVL50:
 532              		.loc 1 48 5 view .LVU156
 533 03bc 0020A0E1 		mov	r2, r0
 534              		.loc 1 55 5 view .LVU157
 535 03c0 0CE0A0E1 		mov	lr, ip
 536              	.LVL51:
 537              	.L43:
 538              		.loc 1 56 3 is_stmt 1 view .LVU158
 539              		.loc 1 57 5 view .LVU159
 540              		.loc 1 57 17 is_stmt 0 view .LVU160
 541 03c4 3C349FE5 		ldr	r3, .L127+4
 542              		.loc 1 63 3 view .LVU161
 543 03c8 090052E3 		cmp	r2, #9
 544              		.loc 1 57 17 view .LVU162
 545 03cc 931283E0 		umull	r1, r3, r3, r2
 546 03d0 A331A0E1 		lsr	r3, r3, #3
 547 03d4 0310A0E1 		mov	r1, r3
 548 03d8 033183E0 		add	r3, r3, r3, lsl #2
 549 03dc 833042E0 		sub	r3, r2, r3, lsl #1
 550              	.LVL52:
 551              		.loc 1 58 5 is_stmt 1 view .LVU163
 552              		.loc 1 59 5 view .LVU164
 553              		.loc 1 61 5 view .LVU165
 554              		.loc 1 58 7 is_stmt 0 view .LVU166
 555 03e0 303083E2 		add	r3, r3, #48
 556              	.LVL53:
 557              		.loc 1 61 10 view .LVU167
 558 03e4 7330EFE6 		uxtb	r3, r3
 559              	.LVL54:
 560              		.loc 1 61 10 view .LVU168
 561 03e8 01306EE5 		strb	r3, [lr, #-1]!
 562              	.LVL55:
 563              		.loc 1 62 5 is_stmt 1 view .LVU169
 564              		.loc 1 62 7 is_stmt 0 view .LVU170
 565 03ec 0120A0E1 		mov	r2, r1
 566              	.LVL56:
 567              		.loc 1 63 3 view .LVU171
 568 03f0 F3FFFF8A 		bhi	.L43
 569              		.loc 1 65 3 is_stmt 1 view .LVU172
 570              		.loc 1 65 5 is_stmt 0 view .LVU173
ARM GAS  /var/folders/l5/0x54b2c10074c8bt31ycjvl80000gp/T//cc7SF9Cr.s 			page 11


 571 03f4 0EC04CE0 		sub	ip, ip, lr
 572              	.LVL57:
 573              		.loc 1 65 5 view .LVU174
 574 03f8 0E10A0E1 		mov	r1, lr
 575              	.LVL58:
 576              		.loc 1 65 5 view .LVU175
 577 03fc 0920A0E1 		mov	r2, r9
 578              	.LVL59:
 579              		.loc 1 65 5 view .LVU176
 580 0400 0CE089E0 		add	lr, r9, ip
 581              	.LVL60:
 582              		.loc 1 65 5 view .LVU177
 583 0404 000000EA 		b	.L45
 584              	.LVL61:
 585              	.L122:
 586              		.loc 1 65 5 view .LVU178
 587 0408 0130F1E5 		ldrb	r3, [r1, #1]!	@ zero_extendqisi2
 588              	.LVL62:
 589              	.L45:
 590              		.loc 1 66 3 is_stmt 1 view .LVU179
 591              		.loc 1 67 5 view .LVU180
 592              		.loc 1 67 10 is_stmt 0 view .LVU181
 593 040c 0130C2E4 		strb	r3, [r2], #1
 594              	.LVL63:
 595              		.loc 1 68 3 view .LVU182
 596 0410 0E0052E1 		cmp	r2, lr
 597 0414 FBFFFF1A 		bne	.L122
 598              	.LBE29:
 599              	.LBE28:
 600              		.loc 1 85 8 view .LVU183
 601 0418 2E30A0E3 		mov	r3, #46
 602 041c 01C04CE2 		sub	ip, ip, #1
 603 0420 0030C2E5 		strb	r3, [r2]
 604 0424 0C9089E0 		add	r9, r9, ip
 605              	.LVL64:
 606              	.LBB31:
 607              	.LBB30:
 608              		.loc 1 70 3 is_stmt 1 view .LVU184
 609              		.loc 1 70 3 is_stmt 0 view .LVU185
 610              	.LBE30:
 611              	.LBE31:
 612              		.loc 1 85 3 is_stmt 1 view .LVU186
 613              		.loc 1 86 12 is_stmt 0 view .LVU187
 614 0428 FEFFFFEB 		bl	__floatsidf
 615              	.LVL65:
 616              		.loc 1 86 12 view .LVU188
 617 042c 0020A0E1 		mov	r2, r0
 618 0430 0130A0E1 		mov	r3, r1
 619 0434 03009DE9 		ldmib	sp, {r0-r1}
 620 0438 FEFFFFEB 		bl	__subdf3
 621              	.LVL66:
 622              		.loc 1 86 17 view .LVU189
 623 043c 0020A0E3 		mov	r2, #0
 624 0440 C4339FE5 		ldr	r3, .L127+8
 625 0444 FEFFFFEB 		bl	__muldf3
 626              	.LVL67:
 627              	.LBB32:
ARM GAS  /var/folders/l5/0x54b2c10074c8bt31ycjvl80000gp/T//cc7SF9Cr.s 			page 12


 628              	.LBB33:
 629              		.loc 1 55 5 view .LVU190
 630 0448 0DB089E2 		add	fp, r9, #13
 631              	.LVL68:
 632              		.loc 1 55 5 view .LVU191
 633              	.LBE33:
 634              	.LBE32:
 635              		.loc 1 86 5 view .LVU192
 636 044c FEFFFFEB 		bl	__fixdfsi
 637              	.LVL69:
 638              	.LBB36:
 639              	.LBB34:
 640              		.loc 1 55 5 view .LVU193
 641 0450 0B10A0E1 		mov	r1, fp
 642              	.LBE34:
 643              	.LBE36:
 644              		.loc 1 85 5 view .LVU194
 645 0454 022089E2 		add	r2, r9, #2
 646              	.LVL70:
 647              		.loc 1 86 3 is_stmt 1 view .LVU195
 648              		.loc 1 87 3 view .LVU196
 649              	.LBB37:
 650              	.LBI32:
 651              		.loc 1 40 14 view .LVU197
 652              	.LBB35:
 653              		.loc 1 44 3 view .LVU198
 654              		.loc 1 45 3 view .LVU199
 655              		.loc 1 46 3 view .LVU200
 656              		.loc 1 48 3 view .LVU201
 657              		.loc 1 49 3 view .LVU202
 658              		.loc 1 52 5 view .LVU203
 659              		.loc 1 55 3 view .LVU204
 660              		.loc 1 55 3 is_stmt 0 view .LVU205
 661 0458 08E089E2 		add	lr, r9, #8
 662              	.LVL71:
 663              	.L46:
 664              		.loc 1 56 3 is_stmt 1 view .LVU206
 665              		.loc 1 57 5 view .LVU207
 666              		.loc 1 57 17 is_stmt 0 view .LVU208
 667 045c A4339FE5 		ldr	r3, .L127+4
 668 0460 93C083E0 		umull	ip, r3, r3, r0
 669 0464 A331A0E1 		lsr	r3, r3, #3
 670 0468 03C0A0E1 		mov	ip, r3
 671 046c 033183E0 		add	r3, r3, r3, lsl #2
 672 0470 833040E0 		sub	r3, r0, r3, lsl #1
 673              	.LVL72:
 674              		.loc 1 58 5 is_stmt 1 view .LVU209
 675              		.loc 1 59 5 view .LVU210
 676              		.loc 1 61 5 view .LVU211
 677              		.loc 1 58 7 is_stmt 0 view .LVU212
 678 0474 303083E2 		add	r3, r3, #48
 679              	.LVL73:
 680              		.loc 1 61 10 view .LVU213
 681 0478 7330EFE6 		uxtb	r3, r3
 682              	.LVL74:
 683              		.loc 1 61 10 view .LVU214
 684 047c 013061E5 		strb	r3, [r1, #-1]!
ARM GAS  /var/folders/l5/0x54b2c10074c8bt31ycjvl80000gp/T//cc7SF9Cr.s 			page 13


 685              	.LVL75:
 686              		.loc 1 62 5 is_stmt 1 view .LVU215
 687              		.loc 1 63 3 is_stmt 0 view .LVU216
 688 0480 0E0051E1 		cmp	r1, lr
 689              		.loc 1 62 7 view .LVU217
 690 0484 0C00A0E1 		mov	r0, ip
 691              	.LVL76:
 692              		.loc 1 63 3 view .LVU218
 693 0488 F3FFFF1A 		bne	.L46
 694              		.loc 1 65 3 is_stmt 1 view .LVU219
 695              	.LVL77:
 696              		.loc 1 65 5 is_stmt 0 view .LVU220
 697 048c 01B04BE0 		sub	fp, fp, r1
 698              	.LVL78:
 699              		.loc 1 65 5 view .LVU221
 700 0490 02C08BE2 		add	ip, fp, #2
 701 0494 0200A0E1 		mov	r0, r2
 702 0498 0C9089E0 		add	r9, r9, ip
 703              	.LVL79:
 704              		.loc 1 65 5 view .LVU222
 705 049c 000000EA 		b	.L48
 706              	.LVL80:
 707              	.L47:
 708              		.loc 1 65 5 view .LVU223
 709 04a0 0130F1E5 		ldrb	r3, [r1, #1]!	@ zero_extendqisi2
 710              	.LVL81:
 711              	.L48:
 712              		.loc 1 66 3 is_stmt 1 view .LVU224
 713              		.loc 1 67 5 view .LVU225
 714              		.loc 1 67 10 is_stmt 0 view .LVU226
 715 04a4 0130C0E4 		strb	r3, [r0], #1
 716              	.LVL82:
 717              		.loc 1 68 3 view .LVU227
 718 04a8 090050E1 		cmp	r0, r9
 719 04ac FBFFFF1A 		bne	.L47
 720 04b0 0BB082E0 		add	fp, r2, fp
 721 04b4 06204BE0 		sub	r2, fp, r6
 722              	.LVL83:
 723              		.loc 1 68 3 view .LVU228
 724 04b8 019042E2 		sub	r9, r2, #1
 725              	.LVL84:
 726              	.L28:
 727              		.loc 1 68 3 view .LVU229
 728              	.LBE35:
 729              	.LBE37:
 730              	.LBE27:
 731              	.LBE26:
 732              		.loc 1 241 5 is_stmt 1 view .LVU230
 733              		.loc 1 242 5 view .LVU231
 734              		.loc 1 242 8 is_stmt 0 view .LVU232
 735 04bc 02B054E0 		subs	fp, r4, r2
 736              	.LVL85:
 737              		.loc 1 244 8 view .LVU233
 738 04c0 00309DE5 		ldr	r3, [sp]
 739              		.loc 1 242 8 view .LVU234
 740 04c4 A0FFFF4A 		bmi	.L123
 741              	.LVL86:
ARM GAS  /var/folders/l5/0x54b2c10074c8bt31ycjvl80000gp/T//cc7SF9Cr.s 			page 14


 742              	.L57:
 743              		.loc 1 244 5 is_stmt 1 view .LVU235
 744              		.loc 1 244 8 is_stmt 0 view .LVU236
 745 04c8 000053E3 		cmp	r3, #0
 746 04cc 3400001A 		bne	.L60
 747              		.loc 1 245 7 is_stmt 1 view .LVU237
 748              		.loc 1 246 8 is_stmt 0 view .LVU238
 749 04d0 00005BE3 		cmp	fp, #0
 750              		.loc 1 245 13 view .LVU239
 751 04d4 04B042E0 		sub	fp, r2, r4
 752              	.LVL87:
 753              		.loc 1 246 5 is_stmt 1 view .LVU240
 754              		.loc 1 246 8 is_stmt 0 view .LVU241
 755 04d8 3100000A 		beq	.L60
 756              		.loc 1 247 7 is_stmt 1 view .LVU242
 757              		.loc 1 247 10 is_stmt 0 view .LVU243
 758 04dc 0020D6E5 		ldrb	r2, [r6]	@ zero_extendqisi2
 759 04e0 003095E5 		ldr	r3, [r5]
 760              		.loc 1 247 21 view .LVU244
 761 04e4 2D0052E3 		cmp	r2, #45
 762 04e8 30005703 		cmpeq	r7, #48
 763 04ec 083093E5 		ldr	r3, [r3, #8]
 764 04f0 0200001A 		bne	.L63
 765 04f4 AA0000EA 		b	.L124
 766              	.LVL88:
 767              	.L125:
 768              		.loc 1 247 21 view .LVU245
 769 04f8 003095E5 		ldr	r3, [r5]
 770 04fc 083093E5 		ldr	r3, [r3, #8]
 771              	.L63:
 772              		.loc 1 251 7 is_stmt 1 discriminator 1 view .LVU246
 773              		.loc 1 252 9 discriminator 1 view .LVU247
 774 0500 0710A0E1 		mov	r1, r7
 775 0504 0500A0E1 		mov	r0, r5
 776 0508 33FF2FE1 		blx	r3
 777              	.LVL89:
 778              		.loc 1 253 7 is_stmt 0 discriminator 1 view .LVU248
 779 050c 01B09BE2 		adds	fp, fp, #1
 780              	.LVL90:
 781              		.loc 1 253 7 discriminator 1 view .LVU249
 782 0510 F8FFFF1A 		bne	.L125
 783              	.LVL91:
 784              		.loc 1 255 11 view .LVU250
 785 0514 000059E3 		cmp	r9, #0
 786 0518 BFFEFFBA 		blt	.L2
 787              	.LVL92:
 788              	.L66:
 789              		.loc 1 255 11 view .LVU251
 790 051c 099086E0 		add	r9, r6, r9
 791              	.L64:
 792              	.LVL93:
 793              		.loc 1 256 7 is_stmt 1 view .LVU252
 794              		.loc 1 256 7 is_stmt 0 view .LVU253
 795 0520 003095E5 		ldr	r3, [r5]
 796 0524 0110D6E4 		ldrb	r1, [r6], #1	@ zero_extendqisi2
 797              	.LVL94:
 798              		.loc 1 256 7 view .LVU254
ARM GAS  /var/folders/l5/0x54b2c10074c8bt31ycjvl80000gp/T//cc7SF9Cr.s 			page 15


 799 0528 083093E5 		ldr	r3, [r3, #8]
 800 052c 0500A0E1 		mov	r0, r5
 801 0530 33FF2FE1 		blx	r3
 802              	.LVL95:
 803              		.loc 1 256 7 view .LVU255
 804 0534 063049E0 		sub	r3, r9, r6
 805              		.loc 1 255 11 view .LVU256
 806 0538 000053E3 		cmp	r3, #0
 807 053c F7FFFFAA 		bge	.L64
 808              	.LVL96:
 809              	.L65:
 810              		.loc 1 258 11 view .LVU257
 811 0540 00005BE3 		cmp	fp, #0
 812 0544 B4FEFF0A 		beq	.L2
 813              	.L67:
 814              		.loc 1 259 7 is_stmt 1 view .LVU258
 815 0548 003095E5 		ldr	r3, [r5]
 816 054c 0710A0E1 		mov	r1, r7
 817 0550 083093E5 		ldr	r3, [r3, #8]
 818 0554 0500A0E1 		mov	r0, r5
 819 0558 33FF2FE1 		blx	r3
 820              	.LVL97:
 821              		.loc 1 260 7 view .LVU259
 822              		.loc 1 258 11 is_stmt 0 view .LVU260
 823 055c 01B05BE2 		subs	fp, fp, #1
 824              	.LVL98:
 825              		.loc 1 258 11 view .LVU261
 826 0560 F8FFFF1A 		bne	.L67
 827 0564 ACFEFFEA 		b	.L2
 828              	.LVL99:
 829              	.L27:
 830              		.loc 1 185 7 is_stmt 1 view .LVU262
 831              		.loc 1 186 7 view .LVU263
 832              		.loc 1 186 14 is_stmt 0 view .LVU264
 833 0568 0C309DE5 		ldr	r3, [sp, #12]
 834              		.loc 1 187 7 view .LVU265
 835 056c 0120A0E3 		mov	r2, #1
 836              		.loc 1 186 12 view .LVU266
 837 0570 001093E5 		ldr	r1, [r3]
 838              	.LVL100:
 839              		.loc 1 186 14 view .LVU267
 840 0574 043083E2 		add	r3, r3, #4
 841              		.loc 1 186 12 view .LVU268
 842 0578 1010CDE5 		strb	r1, [sp, #16]
 843              		.loc 1 186 14 view .LVU269
 844 057c 0C308DE5 		str	r3, [sp, #12]
 845              	.LVL101:
 846              		.loc 1 187 7 is_stmt 1 view .LVU270
 847 0580 0090A0E3 		mov	r9, #0
 848              		.loc 1 185 14 is_stmt 0 view .LVU271
 849 0584 2070A0E3 		mov	r7, #32
 850              		.loc 1 137 7 view .LVU272
 851 0588 10608DE2 		add	r6, sp, #16
 852              	.LVL102:
 853              		.loc 1 187 7 view .LVU273
 854 058c CAFFFFEA 		b	.L28
 855              	.LVL103:
ARM GAS  /var/folders/l5/0x54b2c10074c8bt31ycjvl80000gp/T//cc7SF9Cr.s 			page 16


 856              	.L19:
 857              		.loc 1 238 7 is_stmt 1 view .LVU274
 858              		.loc 1 239 7 is_stmt 0 view .LVU275
 859 0590 0120A0E3 		mov	r2, #1
 860 0594 0090A0E3 		mov	r9, #0
 861              		.loc 1 238 12 view .LVU276
 862 0598 1010CDE5 		strb	r1, [sp, #16]
 863              		.loc 1 239 7 is_stmt 1 view .LVU277
 864              		.loc 1 137 7 is_stmt 0 view .LVU278
 865 059c 10608DE2 		add	r6, sp, #16
 866              	.LVL104:
 867              		.loc 1 239 7 view .LVU279
 868 05a0 C5FFFFEA 		b	.L28
 869              	.LVL105:
 870              	.L60:
 871              		.loc 1 255 11 view .LVU280
 872 05a4 000059E3 		cmp	r9, #0
 873 05a8 DBFFFFAA 		bge	.L66
 874              		.loc 1 255 11 view .LVU281
 875 05ac E3FFFFEA 		b	.L65
 876              	.LVL106:
 877              	.L121:
 878              		.loc 1 255 11 view .LVU282
 879 05b0 000059E3 		cmp	r9, #0
 880              		.loc 1 243 13 view .LVU283
 881 05b4 00B0A0A3 		movge	fp, #0
 882              		.loc 1 255 11 view .LVU284
 883 05b8 D7FFFFAA 		bge	.L66
 884 05bc 96FEFFEA 		b	.L2
 885              	.LVL107:
 886              	.L119:
 887              		.loc 1 160 8 view .LVU285
 888 05c0 00E0A0E3 		mov	lr, #0
 889 05c4 0C209DE5 		ldr	r2, [sp, #12]
 890              	.LVL108:
 891              		.loc 1 159 15 view .LVU286
 892 05c8 0E00A0E1 		mov	r0, lr
 893 05cc 030000EA 		b	.L15
 894              	.LVL109:
 895              	.L126:
 896              		.loc 1 166 13 view .LVU287
 897 05d0 01E0A0E3 		mov	lr, #1
 898 05d4 043092E4 		ldr	r3, [r2], #4
 899 05d8 7330EFE6 		uxtb	r3, r3
 900              	.LVL110:
 901              	.L13:
 902              		.loc 1 169 9 is_stmt 1 view .LVU288
 903              		.loc 1 170 9 view .LVU289
 904              		.loc 1 170 19 is_stmt 0 view .LVU290
 905 05dc 8C0083E0 		add	r0, r3, ip, lsl #1
 906              	.LVL111:
 907              	.L15:
 908              		.loc 1 161 7 is_stmt 1 view .LVU291
 909              		.loc 1 162 9 view .LVU292
 910              		.loc 1 165 14 view .LVU293
 911              		.loc 1 166 11 view .LVU294
 912              		.loc 1 162 11 is_stmt 0 view .LVU295
ARM GAS  /var/folders/l5/0x54b2c10074c8bt31ycjvl80000gp/T//cc7SF9Cr.s 			page 17


 913 05e0 0110DAE4 		ldrb	r1, [r10], #1	@ zero_extendqisi2
 914              	.LVL112:
 915              		.loc 1 163 9 is_stmt 1 view .LVU296
 916              		.loc 1 169 19 is_stmt 0 view .LVU297
 917 05e4 00C180E0 		add	ip, r0, r0, lsl #2
 918              		.loc 1 163 22 view .LVU298
 919 05e8 303041E2 		sub	r3, r1, #48
 920 05ec 7330EFE6 		uxtb	r3, r3
 921              		.loc 1 163 12 view .LVU299
 922 05f0 090053E3 		cmp	r3, #9
 923 05f4 F8FFFF9A 		bls	.L13
 924              		.loc 1 165 17 view .LVU300
 925 05f8 2A0051E3 		cmp	r1, #42
 926 05fc F3FFFF0A 		beq	.L126
 927 0600 00005EE3 		cmp	lr, #0
 928 0604 0C208D15 		strne	r2, [sp, #12]
 929 0608 B9FEFFEA 		b	.L12
 930              	.LVL113:
 931              	.L78:
 932              		.loc 1 183 5 view .LVU301
 933 060c 0A60A0E3 		mov	r6, #10
 934              	.L22:
 935              	.LVL114:
 936              		.loc 1 231 7 is_stmt 1 view .LVU302
 937 0610 0C109DE5 		ldr	r1, [sp, #12]
 938 0614 04B091E4 		ldr	fp, [r1], #4
 939              	.LVL115:
 940              	.L51:
 941              		.loc 1 234 9 view .LVU303
 942              		.loc 1 234 11 is_stmt 0 view .LVU304
 943 0618 0C108DE5 		str	r1, [sp, #12]
 944              	.LVL116:
 945              		.loc 1 235 7 is_stmt 1 view .LVU305
 946              	.LBB38:
 947              	.LBI38:
 948              		.loc 1 73 14 view .LVU306
 949              	.LBE38:
 950              		.loc 1 75 3 view .LVU307
 951              	.LBB41:
 952              	.LBB39:
 953              	.LBI39:
 954              		.loc 1 40 14 view .LVU308
 955              	.LBB40:
 956              		.loc 1 44 3 view .LVU309
 957              		.loc 1 45 3 view .LVU310
 958              		.loc 1 46 3 view .LVU311
 959              		.loc 1 48 3 view .LVU312
 960              		.loc 1 49 3 view .LVU313
 961              		.loc 1 55 3 view .LVU314
 962              		.loc 1 55 5 is_stmt 0 view .LVU315
 963 061c 1B908DE2 		add	r9, sp, #27
 964              	.LVL117:
 965              		.loc 1 55 5 view .LVU316
 966 0620 04408DE5 		str	r4, [sp, #4]
 967 0624 000000EA 		b	.L54
 968              	.LVL118:
 969              	.L82:
ARM GAS  /var/folders/l5/0x54b2c10074c8bt31ycjvl80000gp/T//cc7SF9Cr.s 			page 18


 970              		.loc 1 63 3 view .LVU317
 971 0628 0190A0E1 		mov	r9, r1
 972              	.LVL119:
 973              	.L54:
 974              		.loc 1 56 3 is_stmt 1 view .LVU318
 975              		.loc 1 57 5 view .LVU319
 976              		.loc 1 57 17 is_stmt 0 view .LVU320
 977 062c 0610A0E1 		mov	r1, r6
 978 0630 0B00A0E1 		mov	r0, fp
 979 0634 FEFFFFEB 		bl	__umodsi3
 980              	.LVL120:
 981              		.loc 1 60 7 is_stmt 1 view .LVU321
 982              		.loc 1 57 17 is_stmt 0 view .LVU322
 983 0638 0020A0E1 		mov	r2, r0
 984              	.LVL121:
 985              		.loc 1 58 5 is_stmt 1 view .LVU323
 986              		.loc 1 58 7 is_stmt 0 view .LVU324
 987 063c 303080E2 		add	r3, r0, #48
 988              	.LVL122:
 989              		.loc 1 59 5 is_stmt 1 view .LVU325
 990              		.loc 1 59 8 is_stmt 0 view .LVU326
 991 0640 390053E3 		cmp	r3, #57
 992              		.loc 1 60 9 view .LVU327
 993 0644 373082C2 		addgt	r3, r2, #55
 994              	.LVL123:
 995              		.loc 1 61 5 is_stmt 1 view .LVU328
 996              		.loc 1 61 10 is_stmt 0 view .LVU329
 997 0648 7380EFE6 		uxtb	r8, r3
 998              		.loc 1 62 7 view .LVU330
 999 064c 0610A0E1 		mov	r1, r6
 1000 0650 0B00A0E1 		mov	r0, fp
 1001              		.loc 1 57 17 view .LVU331
 1002 0654 0B40A0E1 		mov	r4, fp
 1003              		.loc 1 61 10 view .LVU332
 1004 0658 018049E5 		strb	r8, [r9, #-1]
 1005              		.loc 1 62 7 view .LVU333
 1006 065c FEFFFFEB 		bl	__udivsi3
 1007              	.LVL124:
 1008              		.loc 1 63 3 view .LVU334
 1009 0660 060054E1 		cmp	r4, r6
 1010              		.loc 1 62 7 view .LVU335
 1011 0664 00B0A0E1 		mov	fp, r0
 1012              	.LVL125:
 1013              		.loc 1 61 10 view .LVU336
 1014 0668 011049E2 		sub	r1, r9, #1
 1015              	.LVL126:
 1016              		.loc 1 62 5 is_stmt 1 view .LVU337
 1017              		.loc 1 63 3 is_stmt 0 view .LVU338
 1018 066c EDFFFF2A 		bcs	.L82
 1019              		.loc 1 65 5 view .LVU339
 1020 0670 1B308DE2 		add	r3, sp, #27
 1021 0674 10608DE2 		add	r6, sp, #16
 1022              	.LVL127:
 1023              		.loc 1 65 5 view .LVU340
 1024 0678 012043E0 		sub	r2, r3, r1
 1025 067c 04409DE5 		ldr	r4, [sp, #4]
 1026              		.loc 1 65 3 is_stmt 1 view .LVU341
ARM GAS  /var/folders/l5/0x54b2c10074c8bt31ycjvl80000gp/T//cc7SF9Cr.s 			page 19


 1027              	.LVL128:
 1028              		.loc 1 65 5 is_stmt 0 view .LVU342
 1029 0680 0600A0E1 		mov	r0, r6
 1030              	.LVL129:
 1031              		.loc 1 65 5 view .LVU343
 1032 0684 021081E0 		add	r1, r1, r2
 1033              	.LVL130:
 1034              		.loc 1 65 5 view .LVU344
 1035 0688 000000EA 		b	.L56
 1036              	.LVL131:
 1037              	.L55:
 1038              		.loc 1 65 5 view .LVU345
 1039 068c 0180D9E4 		ldrb	r8, [r9], #1	@ zero_extendqisi2
 1040              	.LVL132:
 1041              	.L56:
 1042              		.loc 1 66 3 is_stmt 1 view .LVU346
 1043              		.loc 1 67 5 view .LVU347
 1044              		.loc 1 68 3 is_stmt 0 view .LVU348
 1045 0690 090051E1 		cmp	r1, r9
 1046              		.loc 1 67 10 view .LVU349
 1047 0694 0180C0E4 		strb	r8, [r0], #1
 1048              	.LVL133:
 1049              		.loc 1 68 3 view .LVU350
 1050 0698 FBFFFF1A 		bne	.L55
 1051 069c 019042E2 		sub	r9, r2, #1
 1052 06a0 85FFFFEA 		b	.L28
 1053              	.LVL134:
 1054              	.L93:
 1055              		.loc 1 68 3 view .LVU351
 1056 06a4 0C209DE5 		ldr	r2, [sp, #12]
 1057              	.LVL135:
 1058              	.L35:
 1059              		.loc 1 68 3 view .LVU352
 1060              	.LBE40:
 1061              	.LBE39:
 1062              	.LBE41:
 1063              		.loc 1 200 9 is_stmt 1 view .LVU353
 1064              		.loc 1 200 11 is_stmt 0 view .LVU354
 1065 06a8 043082E2 		add	r3, r2, #4
 1066 06ac 00E092E5 		ldr	lr, [r2]
 1067 06b0 0C308DE5 		str	r3, [sp, #12]
 1068              	.L36:
 1069              	.LVL136:
 1070              		.loc 1 203 7 is_stmt 1 view .LVU355
 1071              		.loc 1 203 10 is_stmt 0 view .LVU356
 1072 06b4 00005EE3 		cmp	lr, #0
 1073              		.loc 1 204 9 is_stmt 1 view .LVU357
 1074              	.LVL137:
 1075              		.loc 1 136 7 is_stmt 0 view .LVU358
 1076 06b8 10608DA2 		addge	r6, sp, #16
 1077 06bc 0620A0A1 		movge	r2, r6
 1078              		.loc 1 204 14 view .LVU359
 1079 06c0 2D30A0B3 		movlt	r3, #45
 1080              		.loc 1 204 11 view .LVU360
 1081 06c4 11208DB2 		addlt	r2, sp, #17
 1082              	.LBB42:
 1083              	.LBB43:
ARM GAS  /var/folders/l5/0x54b2c10074c8bt31ycjvl80000gp/T//cc7SF9Cr.s 			page 20


 1084              	.LBB44:
 1085              		.loc 1 55 5 view .LVU361
 1086 06c8 0BC082E2 		add	ip, r2, #11
 1087              	.LBE44:
 1088              	.LBE43:
 1089              	.LBE42:
 1090              		.loc 1 205 11 view .LVU362
 1091 06cc 00E06EB2 		rsblt	lr, lr, #0
 1092              	.LVL138:
 1093              		.loc 1 204 14 view .LVU363
 1094 06d0 1030CDB5 		strblt	r3, [sp, #16]
 1095              		.loc 1 205 9 is_stmt 1 view .LVU364
 1096              	.LVL139:
 1097              		.loc 1 205 9 is_stmt 0 view .LVU365
 1098 06d4 10608DB2 		addlt	r6, sp, #16
 1099              	.LVL140:
 1100              		.loc 1 207 7 is_stmt 1 view .LVU366
 1101              	.LBB47:
 1102              	.LBI42:
 1103              		.loc 1 73 14 view .LVU367
 1104              	.LBE47:
 1105              		.loc 1 75 3 view .LVU368
 1106              	.LBB48:
 1107              	.LBB46:
 1108              	.LBI43:
 1109              		.loc 1 40 14 view .LVU369
 1110              	.LBB45:
 1111              		.loc 1 44 3 view .LVU370
 1112              		.loc 1 45 3 view .LVU371
 1113              		.loc 1 46 3 view .LVU372
 1114              		.loc 1 48 3 view .LVU373
 1115              		.loc 1 49 3 view .LVU374
 1116              		.loc 1 55 3 view .LVU375
 1117              		.loc 1 55 5 is_stmt 0 view .LVU376
 1118 06d8 0C00A0E1 		mov	r0, ip
 1119              	.LVL141:
 1120              		.loc 1 55 5 view .LVU377
 1121 06dc 000000EA 		b	.L38
 1122              	.LVL142:
 1123              	.L80:
 1124              		.loc 1 63 3 view .LVU378
 1125 06e0 01E0A0E1 		mov	lr, r1
 1126              	.LVL143:
 1127              	.L38:
 1128              		.loc 1 56 3 is_stmt 1 view .LVU379
 1129              		.loc 1 57 5 view .LVU380
 1130              		.loc 1 57 17 is_stmt 0 view .LVU381
 1131 06e4 1C319FE5 		ldr	r3, .L127+4
 1132              		.loc 1 63 3 view .LVU382
 1133 06e8 09005EE3 		cmp	lr, #9
 1134              		.loc 1 57 17 view .LVU383
 1135 06ec 933E81E0 		umull	r3, r1, r3, lr
 1136 06f0 A111A0E1 		lsr	r1, r1, #3
 1137 06f4 013181E0 		add	r3, r1, r1, lsl #2
 1138 06f8 83304EE0 		sub	r3, lr, r3, lsl #1
 1139              	.LVL144:
 1140              		.loc 1 58 5 is_stmt 1 view .LVU384
ARM GAS  /var/folders/l5/0x54b2c10074c8bt31ycjvl80000gp/T//cc7SF9Cr.s 			page 21


 1141              		.loc 1 59 5 view .LVU385
 1142              		.loc 1 61 5 view .LVU386
 1143              		.loc 1 58 7 is_stmt 0 view .LVU387
 1144 06fc 303083E2 		add	r3, r3, #48
 1145              	.LVL145:
 1146              		.loc 1 61 10 view .LVU388
 1147 0700 7330EFE6 		uxtb	r3, r3
 1148              	.LVL146:
 1149              		.loc 1 61 10 view .LVU389
 1150 0704 013060E5 		strb	r3, [r0, #-1]!
 1151              	.LVL147:
 1152              		.loc 1 62 5 is_stmt 1 view .LVU390
 1153              		.loc 1 63 3 is_stmt 0 view .LVU391
 1154 0708 F4FFFFCA 		bgt	.L80
 1155              		.loc 1 65 3 is_stmt 1 view .LVU392
 1156              	.LVL148:
 1157              		.loc 1 65 5 is_stmt 0 view .LVU393
 1158 070c 00104CE0 		sub	r1, ip, r0
 1159              	.LVL149:
 1160              		.loc 1 65 5 view .LVU394
 1161 0710 011082E0 		add	r1, r2, r1
 1162 0714 000000EA 		b	.L40
 1163              	.LVL150:
 1164              	.L39:
 1165              		.loc 1 65 5 view .LVU395
 1166 0718 0130F0E5 		ldrb	r3, [r0, #1]!	@ zero_extendqisi2
 1167              	.LVL151:
 1168              	.L40:
 1169              		.loc 1 66 3 is_stmt 1 view .LVU396
 1170              		.loc 1 67 5 view .LVU397
 1171              		.loc 1 67 10 is_stmt 0 view .LVU398
 1172 071c 0130C2E4 		strb	r3, [r2], #1
 1173              	.LVL152:
 1174              		.loc 1 68 3 view .LVU399
 1175 0720 010052E1 		cmp	r2, r1
 1176 0724 FBFFFF1A 		bne	.L39
 1177 0728 062042E0 		sub	r2, r2, r6
 1178              	.LVL153:
 1179              		.loc 1 68 3 view .LVU400
 1180 072c 019042E2 		sub	r9, r2, #1
 1181 0730 61FFFFEA 		b	.L28
 1182              	.LVL154:
 1183              	.L49:
 1184              		.loc 1 68 3 view .LVU401
 1185              	.LBE45:
 1186              	.LBE46:
 1187              	.LBE48:
 1188              		.loc 1 231 7 is_stmt 1 view .LVU402
 1189 0734 0C109DE5 		ldr	r1, [sp, #12]
 1190              		.loc 1 183 5 is_stmt 0 view .LVU403
 1191 0738 0A60A0E3 		mov	r6, #10
 1192 073c 04B091E4 		ldr	fp, [r1], #4
 1193 0740 B4FFFFEA 		b	.L51
 1194              	.LVL155:
 1195              	.L70:
 1196              		.loc 1 231 7 is_stmt 1 view .LVU404
 1197 0744 0C109DE5 		ldr	r1, [sp, #12]
ARM GAS  /var/folders/l5/0x54b2c10074c8bt31ycjvl80000gp/T//cc7SF9Cr.s 			page 22


 1198              		.loc 1 183 5 is_stmt 0 view .LVU405
 1199 0748 0860A0E3 		mov	r6, #8
 1200 074c 04B091E4 		ldr	fp, [r1], #4
 1201 0750 B0FFFFEA 		b	.L51
 1202              	.LVL156:
 1203              	.L68:
 1204              		.loc 1 183 5 view .LVU406
 1205 0754 0C109DE5 		ldr	r1, [sp, #12]
 1206              	.LVL157:
 1207              		.loc 1 183 5 view .LVU407
 1208 0758 1060A0E3 		mov	r6, #16
 1209 075c 04B091E4 		ldr	fp, [r1], #4
 1210 0760 ACFFFFEA 		b	.L51
 1211              	.LVL158:
 1212              	.L26:
 1213              		.loc 1 199 7 is_stmt 1 view .LVU408
 1214 0764 0C209DE5 		ldr	r2, [sp, #12]
 1215              		.loc 1 199 10 is_stmt 0 view .LVU409
 1216 0768 190053E3 		cmp	r3, #25
 1217 076c 0230A0E1 		mov	r3, r2
 1218              	.LVL159:
 1219              		.loc 1 199 10 view .LVU410
 1220 0770 04E093E4 		ldr	lr, [r3], #4
 1221              		.loc 1 202 11 view .LVU411
 1222 0774 0C308D85 		strhi	r3, [sp, #12]
 1223              		.loc 1 199 10 view .LVU412
 1224 0778 CDFFFF8A 		bhi	.L36
 1225 077c C9FFFFEA 		b	.L35
 1226              	.LVL160:
 1227              	.L24:
 1228              		.loc 1 183 5 view .LVU413
 1229 0780 0860A0E3 		mov	r6, #8
 1230 0784 A1FFFFEA 		b	.L22
 1231              	.L20:
 1232 0788 1060A0E3 		mov	r6, #16
 1233 078c 9FFFFFEA 		b	.L22
 1234              	.LVL161:
 1235              	.L29:
 1236              		.loc 1 192 7 is_stmt 1 view .LVU414
 1237              		.loc 1 192 10 is_stmt 0 view .LVU415
 1238 0790 000050E3 		cmp	r0, #0
 1239 0794 0A00001A 		bne	.L86
 1240              		.loc 1 193 19 view .LVU416
 1241 0798 64009FE5 		ldr	r0, .L127
 1242              	.LVL162:
 1243              		.loc 1 191 11 view .LVU417
 1244 079c 6C609FE5 		ldr	r6, .L127+12
 1245 07a0 DAFEFFEA 		b	.L71
 1246              	.LVL163:
 1247              	.L124:
 1248              		.loc 1 248 9 is_stmt 1 view .LVU418
 1249              		.loc 1 248 9 is_stmt 0 view .LVU419
 1250 07a4 2D10A0E3 		mov	r1, #45
 1251 07a8 0500A0E1 		mov	r0, r5
 1252 07ac 33FF2FE1 		blx	r3
 1253              	.LVL164:
 1254 07b0 003095E5 		ldr	r3, [r5]
ARM GAS  /var/folders/l5/0x54b2c10074c8bt31ycjvl80000gp/T//cc7SF9Cr.s 			page 23


 1255 07b4 016086E2 		add	r6, r6, #1
 1256              	.LVL165:
 1257              		.loc 1 249 9 is_stmt 1 view .LVU420
 1258 07b8 083093E5 		ldr	r3, [r3, #8]
 1259 07bc 019049E2 		sub	r9, r9, #1
 1260 07c0 4EFFFFEA 		b	.L63
 1261              	.LVL166:
 1262              	.L86:
 1263              		.loc 1 191 11 is_stmt 0 view .LVU421
 1264 07c4 44609FE5 		ldr	r6, .L127+12
 1265 07c8 D0FEFFEA 		b	.L71
 1266              	.LVL167:
 1267              	.L120:
 1268              		.loc 1 244 5 is_stmt 1 view .LVU422
 1269              		.loc 1 244 8 is_stmt 0 view .LVU423
 1270 07cc 00309DE5 		ldr	r3, [sp]
 1271 07d0 000053E3 		cmp	r3, #0
 1272 07d4 04B0A011 		movne	fp, r4
 1273              		.loc 1 189 14 view .LVU424
 1274 07d8 2070A013 		movne	r7, #32
 1275              		.loc 1 244 8 view .LVU425
 1276 07dc 57FFFF1A 		bne	.L65
 1277              		.loc 1 245 7 is_stmt 1 view .LVU426
 1278              		.loc 1 246 8 is_stmt 0 view .LVU427
 1279 07e0 000054E3 		cmp	r4, #0
 1280              		.loc 1 245 13 view .LVU428
 1281 07e4 00B064E2 		rsb	fp, r4, #0
 1282              	.LVL168:
 1283              		.loc 1 246 5 is_stmt 1 view .LVU429
 1284              		.loc 1 189 14 is_stmt 0 view .LVU430
 1285 07e8 2070A003 		moveq	r7, #32
 1286              		.loc 1 246 8 view .LVU431
 1287 07ec 53FFFF0A 		beq	.L65
 1288              		.loc 1 247 7 is_stmt 1 view .LVU432
 1289 07f0 003095E5 		ldr	r3, [r5]
 1290              		.loc 1 189 14 is_stmt 0 view .LVU433
 1291 07f4 2070A0E3 		mov	r7, #32
 1292 07f8 083093E5 		ldr	r3, [r3, #8]
 1293              		.loc 1 246 8 view .LVU434
 1294 07fc 0090E0E3 		mvn	r9, #0
 1295 0800 3EFFFFEA 		b	.L63
 1296              	.L128:
 1297              		.align	2
 1298              	.L127:
 1299 0804 FF7F0000 		.word	32767
 1300 0808 CDCCCCCC 		.word	-858993459
 1301 080c 006AF840 		.word	1090021888
 1302 0810 00000000 		.word	.LC0
 1303              		.cfi_endproc
 1304              	.LFE10:
 1305              		.size	chprintf, .-chprintf
 1306              		.section	.rodata.chprintf.str1.4,"aMS",%progbits,1
 1307              		.align	2
 1308              	.LC0:
 1309 0000 286E756C 		.ascii	"(null)\000"
 1309      6C2900
 1310              		.text
ARM GAS  /var/folders/l5/0x54b2c10074c8bt31ycjvl80000gp/T//cc7SF9Cr.s 			page 24


 1311              	.Letext0:
 1312              		.file 2 "/usr/local/Cellar/arm-gcc-bin/8-2019-q3-update/lib/gcc/arm-none-eabi/8.3.1/include/stdarg
 1313              		.file 3 "/usr/local/Cellar/arm-gcc-bin/8-2019-q3-update/lib/gcc/arm-none-eabi/8.3.1/include/stddef
 1314              		.file 4 "/usr/local/Cellar/arm-gcc-bin/8-2019-q3-update/arm-none-eabi/include/machine/_default_typ
 1315              		.file 5 "/usr/local/Cellar/arm-gcc-bin/8-2019-q3-update/arm-none-eabi/include/sys/_stdint.h"
 1316              		.file 6 "../../../os/ports/GCC/ARM/chtypes.h"
 1317              		.file 7 "../../../os/kernel/include/chlists.h"
 1318              		.file 8 "../../../os/kernel/include/chthreads.h"
 1319              		.file 9 "../../../os/ports/GCC/ARM/chcore.h"
 1320              		.file 10 "../../../os/kernel/include/chvt.h"
 1321              		.file 11 "../../../os/kernel/include/chschd.h"
 1322              		.file 12 "../../../os/kernel/include/chmtx.h"
 1323              		.file 13 "../../../os/kernel/include/chstreams.h"
 1324              		.file 14 "../../../os/kernel/include/ch.h"