ARM GAS  /var/folders/l5/0x54b2c10074c8bt31ycjvl80000gp/T//ccvkVa4l.s 			page 1


   1              		.file	"chqueues.c"
   2              		.text
   3              	.Ltext0:
   4              		.cfi_sections	.debug_frame
   5              		.section	.text.qwait,"ax",%progbits
   6              		.align	2
   7              		.arch armv6kz
   8              		.syntax unified
   9              		.arm
  10              		.fpu softvfp
  11              		.type	qwait, %function
  12              	qwait:
  13              	.LVL0:
  14              	.LFB7:
  15              		.file 1 "../../../os/kernel/src/chqueues.c"
  16              		.loc 1 63 54 view -0
  17              		.cfi_startproc
  18              		@ args = 0, pretend = 0, frame = 0
  19              		@ frame_needed = 0, uses_anonymous_args = 0
  20              		@ link register save eliminated.
  21              		.loc 1 65 3 view .LVU1
  22              		.loc 1 65 6 is_stmt 0 view .LVU2
  23 0000 000051E3 		cmp	r1, #0
  24              		.loc 1 63 54 view .LVU3
  25 0004 0020A0E1 		mov	r2, r0
  26              		.loc 1 65 6 view .LVU4
  27 0008 0800000A 		beq	.L2
  28              		.loc 1 67 3 is_stmt 1 view .LVU5
  29 000c 24309FE5 		ldr	r3, .L4
  30              	.LBB12:
  31              	.LBB13:
  32              		.file 2 "../../../os/kernel/include/chinline.h"
  33              		.loc 2 48 19 is_stmt 0 view .LVU6
  34 0010 04C090E5 		ldr	ip, [r0, #4]
  35              	.LBE13:
  36              	.LBE12:
  37              		.loc 1 67 3 view .LVU7
  38 0014 103093E5 		ldr	r3, [r3, #16]
  39              		.loc 1 69 10 view .LVU8
  40 0018 0D00A0E3 		mov	r0, #13
  41              	.LVL1:
  42              		.loc 1 67 21 view .LVU9
  43 001c 142083E5 		str	r2, [r3, #20]
  44              		.loc 1 68 3 is_stmt 1 view .LVU10
  45              	.LVL2:
  46              	.LBB15:
  47              	.LBI12:
  48              		.loc 2 45 20 view .LVU11
  49              	.LBB14:
  50              		.loc 2 47 3 view .LVU12
  51              		.loc 2 48 14 is_stmt 0 view .LVU13
  52 0020 041083E8 		stm	r3, {r2, ip}
  53              		.loc 2 49 3 is_stmt 1 view .LVU14
  54              		.loc 2 49 36 is_stmt 0 view .LVU15
  55 0024 043082E5 		str	r3, [r2, #4]
  56              		.loc 2 49 22 view .LVU16
  57 0028 00308CE5 		str	r3, [ip]
ARM GAS  /var/folders/l5/0x54b2c10074c8bt31ycjvl80000gp/T//ccvkVa4l.s 			page 2


  58              	.LVL3:
  59              		.loc 2 49 22 view .LVU17
  60              	.LBE14:
  61              	.LBE15:
  62              		.loc 1 69 3 is_stmt 1 view .LVU18
  63              		.loc 1 69 10 is_stmt 0 view .LVU19
  64 002c FEFFFFEA 		b	chSchGoSleepTimeoutS
  65              	.LVL4:
  66              	.L2:
  67              		.loc 1 70 1 view .LVU20
  68 0030 0000E0E3 		mvn	r0, #0
  69              	.LVL5:
  70              		.loc 1 70 1 view .LVU21
  71 0034 1EFF2FE1 		bx	lr
  72              	.L5:
  73              		.align	2
  74              	.L4:
  75 0038 00000000 		.word	rlist
  76              		.cfi_endproc
  77              	.LFE7:
  78              		.size	qwait, .-qwait
  79              		.section	.text.chIQInit,"ax",%progbits
  80              		.align	2
  81              		.global	chIQInit
  82              		.syntax unified
  83              		.arm
  84              		.fpu softvfp
  85              		.type	chIQInit, %function
  86              	chIQInit:
  87              	.LVL6:
  88              	.LFB8:
  89              		.loc 1 89 27 is_stmt 1 view -0
  90              		.cfi_startproc
  91              		@ args = 4, pretend = 0, frame = 0
  92              		@ frame_needed = 0, uses_anonymous_args = 0
  93              		.loc 1 91 3 view .LVU23
  94              		.loc 1 89 27 is_stmt 0 view .LVU24
  95 0000 04E02DE5 		str	lr, [sp, #-4]!
  96              		.cfi_def_cfa_offset 4
  97              		.cfi_offset 14, -4
  98              		.loc 1 92 18 view .LVU25
  99 0004 00E0A0E3 		mov	lr, #0
 100              		.loc 1 89 27 view .LVU26
 101 0008 04C09DE5 		ldr	ip, [sp, #4]
 102              		.loc 1 94 19 view .LVU27
 103 000c 022081E0 		add	r2, r1, r2
 104              	.LVL7:
 105              		.loc 1 94 14 view .LVU28
 106 0010 102080E5 		str	r2, [r0, #16]
 107              		.loc 1 91 3 view .LVU29
 108 0014 040080E5 		str	r0, [r0, #4]
 109 0018 000080E5 		str	r0, [r0]
 110              		.loc 1 91 30 is_stmt 1 view .LVU30
 111              		.loc 1 92 3 view .LVU31
 112              		.loc 1 93 47 is_stmt 0 view .LVU32
 113 001c 141080E5 		str	r1, [r0, #20]
 114              		.loc 1 93 32 view .LVU33
ARM GAS  /var/folders/l5/0x54b2c10074c8bt31ycjvl80000gp/T//ccvkVa4l.s 			page 3


 115 0020 181080E5 		str	r1, [r0, #24]
 116              		.loc 1 93 17 view .LVU34
 117 0024 0C1080E5 		str	r1, [r0, #12]
 118              		.loc 1 95 17 view .LVU35
 119 0028 1C3080E5 		str	r3, [r0, #28]
 120              		.loc 1 92 18 view .LVU36
 121 002c 08E080E5 		str	lr, [r0, #8]
 122              		.loc 1 93 3 is_stmt 1 view .LVU37
 123              		.loc 1 94 3 view .LVU38
 124              		.loc 1 95 3 view .LVU39
 125              		.loc 1 96 3 view .LVU40
 126              		.loc 1 96 15 is_stmt 0 view .LVU41
 127 0030 20C080E5 		str	ip, [r0, #32]
 128              		.loc 1 97 1 view .LVU42
 129 0034 04F09DE4 		ldr	pc, [sp], #4
 130              		.cfi_endproc
 131              	.LFE8:
 132              		.size	chIQInit, .-chIQInit
 133              		.section	.text.chIQResetI,"ax",%progbits
 134              		.align	2
 135              		.global	chIQResetI
 136              		.syntax unified
 137              		.arm
 138              		.fpu softvfp
 139              		.type	chIQResetI, %function
 140              	chIQResetI:
 141              	.LVL8:
 142              	.LFB9:
 143              		.loc 1 110 34 is_stmt 1 view -0
 144              		.cfi_startproc
 145              		@ args = 0, pretend = 0, frame = 0
 146              		@ frame_needed = 0, uses_anonymous_args = 0
 147              		.loc 1 112 3 view .LVU44
 148              		.loc 1 112 21 view .LVU45
 149              		.loc 1 114 3 view .LVU46
 150              		.loc 1 115 18 is_stmt 0 view .LVU47
 151 0000 0010A0E3 		mov	r1, #0
 152              		.loc 1 116 10 view .LVU48
 153 0004 003090E5 		ldr	r3, [r0]
 154              		.loc 1 114 36 view .LVU49
 155 0008 0C2090E5 		ldr	r2, [r0, #12]
 156              		.loc 1 116 9 view .LVU50
 157 000c 030050E1 		cmp	r0, r3
 158              		.loc 1 115 18 view .LVU51
 159 0010 081080E5 		str	r1, [r0, #8]
 160              		.loc 1 114 31 view .LVU52
 161 0014 142080E5 		str	r2, [r0, #20]
 162              		.loc 1 114 16 view .LVU53
 163 0018 182080E5 		str	r2, [r0, #24]
 164              		.loc 1 115 3 is_stmt 1 view .LVU54
 165              		.loc 1 116 3 view .LVU55
 166              		.loc 1 116 9 is_stmt 0 view .LVU56
 167 001c 1EFF2F01 		bxeq	lr
 168              		.loc 1 110 34 view .LVU57
 169 0020 30402DE9 		push	{r4, r5, lr}
 170              		.cfi_def_cfa_offset 12
 171              		.cfi_offset 4, -12
ARM GAS  /var/folders/l5/0x54b2c10074c8bt31ycjvl80000gp/T//ccvkVa4l.s 			page 4


 172              		.cfi_offset 5, -8
 173              		.cfi_offset 14, -4
 174 0024 0040A0E1 		mov	r4, r0
 175              		.loc 1 117 59 view .LVU58
 176 0028 0150E0E3 		mvn	r5, #1
 177              	.LVL9:
 178              	.L10:
 179              		.loc 1 117 5 is_stmt 1 view .LVU59
 180              	.LBB16:
 181              	.LBI16:
 182              		.loc 2 52 23 view .LVU60
 183              	.LBB17:
 184              		.loc 2 53 3 view .LVU61
 185              		.loc 2 55 3 view .LVU62
 186              		.loc 2 55 20 is_stmt 0 view .LVU63
 187 002c 002093E5 		ldr	r2, [r3]
 188              	.LBE17:
 189              	.LBE16:
 190              		.loc 1 117 5 view .LVU64
 191 0030 0300A0E1 		mov	r0, r3
 192              	.LBB19:
 193              	.LBB18:
 194              		.loc 2 55 16 view .LVU65
 195 0034 002084E5 		str	r2, [r4]
 196              		.loc 2 55 38 view .LVU66
 197 0038 044082E5 		str	r4, [r2, #4]
 198              		.loc 2 56 3 is_stmt 1 view .LVU67
 199              	.LVL10:
 200              		.loc 2 56 3 is_stmt 0 view .LVU68
 201              	.LBE18:
 202              	.LBE19:
 203              		.loc 1 117 5 view .LVU69
 204 003c FEFFFFEB 		bl	chSchReadyI
 205              	.LVL11:
 206              		.loc 1 116 10 view .LVU70
 207 0040 003094E5 		ldr	r3, [r4]
 208              		.loc 1 117 59 view .LVU71
 209 0044 145080E5 		str	r5, [r0, #20]
 210              		.loc 1 116 9 view .LVU72
 211 0048 040053E1 		cmp	r3, r4
 212 004c F6FFFF1A 		bne	.L10
 213 0050 3080BDE8 		pop	{r4, r5, pc}
 214              		.cfi_endproc
 215              	.LFE9:
 216              		.size	chIQResetI, .-chIQResetI
 217              		.section	.text.chIQPutI,"ax",%progbits
 218              		.align	2
 219              		.global	chIQPutI
 220              		.syntax unified
 221              		.arm
 222              		.fpu softvfp
 223              		.type	chIQPutI, %function
 224              	chIQPutI:
 225              	.LVL12:
 226              	.LFB10:
 227              		.loc 1 133 44 is_stmt 1 view -0
 228              		.cfi_startproc
ARM GAS  /var/folders/l5/0x54b2c10074c8bt31ycjvl80000gp/T//ccvkVa4l.s 			page 5


 229              		@ args = 0, pretend = 0, frame = 0
 230              		@ frame_needed = 0, uses_anonymous_args = 0
 231              		.loc 1 135 3 view .LVU74
 232              		.loc 1 135 21 view .LVU75
 233              		.loc 1 137 3 view .LVU76
 234              		.loc 1 137 6 is_stmt 0 view .LVU77
 235 0000 183090E5 		ldr	r3, [r0, #24]
 236              		.loc 1 137 7 view .LVU78
 237 0004 142090E5 		ldr	r2, [r0, #20]
 238              		.loc 1 133 44 view .LVU79
 239 0008 7110EFE6 		uxtb	r1, r1
 240              		.loc 1 137 6 view .LVU80
 241 000c 030052E1 		cmp	r2, r3
 242 0010 083090E5 		ldr	r3, [r0, #8]
 243 0014 1900000A 		beq	.L26
 244              	.L17:
 245              		.loc 1 140 3 is_stmt 1 view .LVU81
 246              		.loc 1 140 17 is_stmt 0 view .LVU82
 247 0018 013083E2 		add	r3, r3, #1
 248              		.loc 1 141 16 view .LVU83
 249 001c 01C082E2 		add	ip, r2, #1
 250 0020 14C080E5 		str	ip, [r0, #20]
 251              		.loc 1 140 17 view .LVU84
 252 0024 083080E5 		str	r3, [r0, #8]
 253              		.loc 1 141 3 is_stmt 1 view .LVU85
 254              		.loc 1 141 19 is_stmt 0 view .LVU86
 255 0028 0010C2E5 		strb	r1, [r2]
 256              		.loc 1 142 3 is_stmt 1 view .LVU87
 257              		.loc 1 142 6 is_stmt 0 view .LVU88
 258 002c 142090E5 		ldr	r2, [r0, #20]
 259 0030 103090E5 		ldr	r3, [r0, #16]
 260 0034 030052E1 		cmp	r2, r3
 261              		.loc 1 143 5 is_stmt 1 view .LVU89
 262              		.loc 1 143 18 is_stmt 0 view .LVU90
 263 0038 0C309025 		ldrcs	r3, [r0, #12]
 264              		.loc 1 145 7 view .LVU91
 265 003c 002090E5 		ldr	r2, [r0]
 266              		.loc 1 143 18 view .LVU92
 267 0040 14308025 		strcs	r3, [r0, #20]
 268              		.loc 1 145 3 is_stmt 1 view .LVU93
 269              		.loc 1 145 6 is_stmt 0 view .LVU94
 270 0044 000052E1 		cmp	r2, r0
 271 0048 0A00000A 		beq	.L21
 272 004c 0030A0E1 		mov	r3, r0
 273              		.loc 1 146 5 is_stmt 1 view .LVU95
 274              	.LVL13:
 275              	.LBB20:
 276              	.LBI20:
 277              		.loc 2 52 23 view .LVU96
 278              	.LBB21:
 279              		.loc 2 53 3 view .LVU97
 280              		.loc 2 55 3 view .LVU98
 281              		.loc 2 55 20 is_stmt 0 view .LVU99
 282 0050 001092E5 		ldr	r1, [r2]
 283              	.LVL14:
 284              		.loc 2 55 20 view .LVU100
 285              	.LBE21:
ARM GAS  /var/folders/l5/0x54b2c10074c8bt31ycjvl80000gp/T//ccvkVa4l.s 			page 6


 286              	.LBE20:
 287              		.loc 1 133 44 view .LVU101
 288 0054 04E02DE5 		str	lr, [sp, #-4]!
 289              		.cfi_def_cfa_offset 4
 290              		.cfi_offset 14, -4
 291              		.loc 1 146 5 view .LVU102
 292 0058 0200A0E1 		mov	r0, r2
 293              	.LVL15:
 294              	.LBB23:
 295              	.LBB22:
 296              		.loc 2 55 16 view .LVU103
 297 005c 001083E5 		str	r1, [r3]
 298              		.loc 2 55 38 view .LVU104
 299 0060 043081E5 		str	r3, [r1, #4]
 300              		.loc 2 56 3 is_stmt 1 view .LVU105
 301              	.LVL16:
 302              		.loc 2 56 3 is_stmt 0 view .LVU106
 303              	.LBE22:
 304              	.LBE23:
 305              		.loc 1 146 5 view .LVU107
 306 0064 FEFFFFEB 		bl	chSchReadyI
 307              	.LVL17:
 308              		.loc 1 146 59 view .LVU108
 309 0068 0030A0E3 		mov	r3, #0
 310 006c 143080E5 		str	r3, [r0, #20]
 311              		.loc 1 148 10 view .LVU109
 312 0070 0300A0E1 		mov	r0, r3
 313              		.loc 1 149 1 view .LVU110
 314 0074 04F09DE4 		ldr	pc, [sp], #4
 315              	.LVL18:
 316              	.L21:
 317              		.cfi_def_cfa_offset 0
 318              		.cfi_restore 14
 319              		.loc 1 148 10 view .LVU111
 320 0078 0000A0E3 		mov	r0, #0
 321              	.LVL19:
 322              		.loc 1 149 1 view .LVU112
 323 007c 1EFF2FE1 		bx	lr
 324              	.LVL20:
 325              	.L26:
 326              		.loc 1 137 7 discriminator 1 view .LVU113
 327 0080 000053E3 		cmp	r3, #0
 328 0084 E3FFFF0A 		beq	.L17
 329              		.loc 1 138 12 view .LVU114
 330 0088 0300E0E3 		mvn	r0, #3
 331              	.LVL21:
 332              		.loc 1 138 12 view .LVU115
 333 008c 1EFF2FE1 		bx	lr
 334              		.cfi_endproc
 335              	.LFE10:
 336              		.size	chIQPutI, .-chIQPutI
 337              		.section	.text.chIQGetTimeout,"ax",%progbits
 338              		.align	2
 339              		.global	chIQGetTimeout
 340              		.syntax unified
 341              		.arm
 342              		.fpu softvfp
ARM GAS  /var/folders/l5/0x54b2c10074c8bt31ycjvl80000gp/T//ccvkVa4l.s 			page 7


 343              		.type	chIQGetTimeout, %function
 344              	chIQGetTimeout:
 345              	.LVL22:
 346              	.LFB11:
 347              		.loc 1 171 55 is_stmt 1 view -0
 348              		.cfi_startproc
 349              		@ args = 0, pretend = 0, frame = 0
 350              		@ frame_needed = 0, uses_anonymous_args = 0
 351              		.loc 1 172 3 view .LVU117
 352              		.loc 1 174 3 view .LVU118
 353              		.loc 1 171 55 is_stmt 0 view .LVU119
 354 0000 30402DE9 		push	{r4, r5, lr}
 355              		.cfi_def_cfa_offset 12
 356              		.cfi_offset 4, -12
 357              		.cfi_offset 5, -8
 358              		.cfi_offset 14, -4
 359              		.loc 1 171 55 view .LVU120
 360 0004 0150A0E1 		mov	r5, r1
 361 0008 0040A0E1 		mov	r4, r0
 362              		.loc 1 174 3 view .LVU121
 363              		.syntax divided
 364              	@ 174 "../../../os/kernel/src/chqueues.c" 1
 365 000c 9FF021E3 		msr     CPSR_c, #0x9F
 366              	@ 0 "" 2
 367              		.loc 1 174 3 is_stmt 1 view .LVU122
 368              		.loc 1 174 14 view .LVU123
 369              		.loc 1 175 3 view .LVU124
 370              		.loc 1 175 10 is_stmt 0 view .LVU125
 371              		.arm
 372              		.syntax unified
 373 0010 1C3090E5 		ldr	r3, [r0, #28]
 374              		.loc 1 175 6 view .LVU126
 375 0014 000053E3 		cmp	r3, #0
 376 0018 0600000A 		beq	.L29
 377              		.loc 1 176 5 is_stmt 1 view .LVU127
 378 001c 33FF2FE1 		blx	r3
 379              	.LVL23:
 380              		.loc 1 176 5 is_stmt 0 view .LVU128
 381 0020 040000EA 		b	.L29
 382              	.L31:
 383              	.LBB24:
 384              		.loc 1 180 16 view .LVU129
 385 0024 0510A0E1 		mov	r1, r5
 386 0028 0400A0E1 		mov	r0, r4
 387 002c FEFFFFEB 		bl	qwait
 388              	.LVL24:
 389              		.loc 1 180 8 view .LVU130
 390 0030 000050E3 		cmp	r0, #0
 391              		.loc 1 180 8 view .LVU131
 392 0034 0C0000BA 		blt	.L32
 393              	.LVL25:
 394              	.L29:
 395              		.loc 1 179 5 is_stmt 1 view .LVU132
 396              		.loc 1 180 5 view .LVU133
 397              	.LBE24:
 398              		.loc 1 178 10 is_stmt 0 view .LVU134
 399 0038 083094E5 		ldr	r3, [r4, #8]
ARM GAS  /var/folders/l5/0x54b2c10074c8bt31ycjvl80000gp/T//ccvkVa4l.s 			page 8


 400              		.loc 1 178 9 view .LVU135
 401 003c 000053E3 		cmp	r3, #0
 402 0040 F7FFFF0A 		beq	.L31
 403              		.loc 1 186 3 is_stmt 1 view .LVU136
 404              		.loc 1 187 11 is_stmt 0 view .LVU137
 405 0044 182094E5 		ldr	r2, [r4, #24]
 406              		.loc 1 188 6 view .LVU138
 407 0048 100094E5 		ldr	r0, [r4, #16]
 408              		.loc 1 187 20 view .LVU139
 409 004c 011082E2 		add	r1, r2, #1
 410              		.loc 1 186 17 view .LVU140
 411 0050 013043E2 		sub	r3, r3, #1
 412              		.loc 1 188 6 view .LVU141
 413 0054 000051E1 		cmp	r1, r0
 414              		.loc 1 186 17 view .LVU142
 415 0058 083084E5 		str	r3, [r4, #8]
 416              		.loc 1 187 3 is_stmt 1 view .LVU143
 417              		.loc 1 189 18 is_stmt 0 view .LVU144
 418 005c 0C309425 		ldrcs	r3, [r4, #12]
 419              		.loc 1 187 20 view .LVU145
 420 0060 181084E5 		str	r1, [r4, #24]
 421              		.loc 1 187 5 view .LVU146
 422 0064 0000D2E5 		ldrb	r0, [r2]	@ zero_extendqisi2
 423              	.LVL26:
 424              		.loc 1 188 3 is_stmt 1 view .LVU147
 425              		.loc 1 189 5 view .LVU148
 426              		.loc 1 189 18 is_stmt 0 view .LVU149
 427 0068 18308425 		strcs	r3, [r4, #24]
 428              	.LVL27:
 429              	.L32:
 430              		.loc 1 191 3 is_stmt 1 view .LVU150
 431              		.loc 1 191 3 view .LVU151
 432              		.syntax divided
 433              	@ 191 "../../../os/kernel/src/chqueues.c" 1
 434 006c 1FF021E3 		msr     CPSR_c, #0x1F
 435              	@ 0 "" 2
 436              		.loc 1 191 16 view .LVU152
 437              		.loc 1 192 3 view .LVU153
 438              		.loc 1 193 1 is_stmt 0 view .LVU154
 439              		.arm
 440              		.syntax unified
 441 0070 3080BDE8 		pop	{r4, r5, pc}
 442              		.cfi_endproc
 443              	.LFE11:
 444              		.size	chIQGetTimeout, .-chIQGetTimeout
 445              		.section	.text.chIQReadTimeout,"ax",%progbits
 446              		.align	2
 447              		.global	chIQReadTimeout
 448              		.syntax unified
 449              		.arm
 450              		.fpu softvfp
 451              		.type	chIQReadTimeout, %function
 452              	chIQReadTimeout:
 453              	.LVL28:
 454              	.LFB12:
 455              		.loc 1 220 50 is_stmt 1 view -0
 456              		.cfi_startproc
ARM GAS  /var/folders/l5/0x54b2c10074c8bt31ycjvl80000gp/T//ccvkVa4l.s 			page 9


 457              		@ args = 0, pretend = 0, frame = 0
 458              		@ frame_needed = 0, uses_anonymous_args = 0
 459              		.loc 1 221 3 view .LVU156
 460              		.loc 1 220 50 is_stmt 0 view .LVU157
 461 0000 F0432DE9 		push	{r4, r5, r6, r7, r8, r9, lr}
 462              		.cfi_def_cfa_offset 28
 463              		.cfi_offset 4, -28
 464              		.cfi_offset 5, -24
 465              		.cfi_offset 6, -20
 466              		.cfi_offset 7, -16
 467              		.cfi_offset 8, -12
 468              		.cfi_offset 9, -8
 469              		.cfi_offset 14, -4
 470              		.loc 1 220 50 view .LVU158
 471 0004 0040A0E1 		mov	r4, r0
 472 0008 0180A0E1 		mov	r8, r1
 473 000c 0290A0E1 		mov	r9, r2
 474 0010 0350A0E1 		mov	r5, r3
 475              		.loc 1 221 13 view .LVU159
 476 0014 1C7090E5 		ldr	r7, [r0, #28]
 477              	.LVL29:
 478              		.loc 1 222 3 is_stmt 1 view .LVU160
 479              		.loc 1 224 3 view .LVU161
 480              		.loc 1 224 39 view .LVU162
 481              		.loc 1 226 3 view .LVU163
 482              		.syntax divided
 483              	@ 226 "../../../os/kernel/src/chqueues.c" 1
 484 0018 9FF021E3 		msr     CPSR_c, #0x9F
 485              	@ 0 "" 2
 486              		.loc 1 222 10 is_stmt 0 view .LVU164
 487              		.arm
 488              		.syntax unified
 489 001c 0060A0E3 		mov	r6, #0
 490              	.LVL30:
 491              	.L44:
 492              		.loc 1 226 3 is_stmt 1 discriminator 1 view .LVU165
 493              		.loc 1 226 14 discriminator 1 view .LVU166
 494              		.loc 1 227 3 discriminator 1 view .LVU167
 495              		.loc 1 228 5 discriminator 1 view .LVU168
 496              		.loc 1 228 8 is_stmt 0 discriminator 1 view .LVU169
 497 0020 000057E3 		cmp	r7, #0
 498 0024 0700000A 		beq	.L40
 499              		.loc 1 229 7 is_stmt 1 view .LVU170
 500 0028 0400A0E1 		mov	r0, r4
 501 002c 37FF2FE1 		blx	r7
 502              	.LVL31:
 503 0030 040000EA 		b	.L40
 504              	.L42:
 505              		.loc 1 232 11 is_stmt 0 view .LVU171
 506 0034 0510A0E1 		mov	r1, r5
 507 0038 0400A0E1 		mov	r0, r4
 508 003c FEFFFFEB 		bl	qwait
 509              	.LVL32:
 510              		.loc 1 232 10 view .LVU172
 511 0040 000050E3 		cmp	r0, #0
 512 0044 1400001A 		bne	.L51
 513              	.L40:
ARM GAS  /var/folders/l5/0x54b2c10074c8bt31ycjvl80000gp/T//ccvkVa4l.s 			page 10


 514              		.loc 1 232 7 is_stmt 1 view .LVU173
 515              		.loc 1 231 12 is_stmt 0 view .LVU174
 516 0048 083094E5 		ldr	r3, [r4, #8]
 517              		.loc 1 231 11 view .LVU175
 518 004c 000053E3 		cmp	r3, #0
 519 0050 F7FFFF0A 		beq	.L42
 520              		.loc 1 238 5 is_stmt 1 view .LVU176
 521              		.loc 1 239 17 is_stmt 0 view .LVU177
 522 0054 182094E5 		ldr	r2, [r4, #24]
 523              		.loc 1 238 19 view .LVU178
 524 0058 013043E2 		sub	r3, r3, #1
 525              		.loc 1 239 26 view .LVU179
 526 005c 011082E2 		add	r1, r2, #1
 527 0060 181084E5 		str	r1, [r4, #24]
 528              		.loc 1 238 19 view .LVU180
 529 0064 083084E5 		str	r3, [r4, #8]
 530              		.loc 1 239 5 is_stmt 1 view .LVU181
 531              		.loc 1 239 13 is_stmt 0 view .LVU182
 532 0068 0030D2E5 		ldrb	r3, [r2]	@ zero_extendqisi2
 533              		.loc 1 239 11 view .LVU183
 534 006c 0130C8E4 		strb	r3, [r8], #1
 535              	.LVL33:
 536              		.loc 1 240 5 is_stmt 1 view .LVU184
 537              		.loc 1 240 8 is_stmt 0 view .LVU185
 538 0070 103094E5 		ldr	r3, [r4, #16]
 539 0074 182094E5 		ldr	r2, [r4, #24]
 540 0078 030052E1 		cmp	r2, r3
 541              		.loc 1 241 7 is_stmt 1 view .LVU186
 542              		.loc 1 241 20 is_stmt 0 view .LVU187
 543 007c 0C309425 		ldrcs	r3, [r4, #12]
 544 0080 18308425 		strcs	r3, [r4, #24]
 545              		.loc 1 243 5 is_stmt 1 view .LVU188
 546              		.loc 1 243 5 view .LVU189
 547              		.syntax divided
 548              	@ 243 "../../../os/kernel/src/chqueues.c" 1
 549 0084 1FF021E3 		msr     CPSR_c, #0x1F
 550              	@ 0 "" 2
 551              		.loc 1 243 18 view .LVU190
 552              		.loc 1 244 5 view .LVU191
 553              		.loc 1 244 6 is_stmt 0 view .LVU192
 554              		.arm
 555              		.syntax unified
 556 0088 016086E2 		add	r6, r6, #1
 557              	.LVL34:
 558              		.loc 1 245 5 is_stmt 1 view .LVU193
 559              		.loc 1 245 8 is_stmt 0 view .LVU194
 560 008c 060059E1 		cmp	r9, r6
 561 0090 0200000A 		beq	.L38
 562              		.loc 1 248 5 is_stmt 1 view .LVU195
 563              		.syntax divided
 564              	@ 248 "../../../os/kernel/src/chqueues.c" 1
 565 0094 9FF021E3 		msr     CPSR_c, #0x9F
 566              	@ 0 "" 2
 567              		.loc 1 248 5 view .LVU196
 568              		.loc 1 248 16 view .LVU197
 569              		.loc 1 228 8 is_stmt 0 view .LVU198
 570              		.arm
ARM GAS  /var/folders/l5/0x54b2c10074c8bt31ycjvl80000gp/T//ccvkVa4l.s 			page 11


 571              		.syntax unified
 572 0098 E0FFFFEA 		b	.L44
 573              	.LVL35:
 574              	.L51:
 575              		.loc 1 233 9 is_stmt 1 view .LVU199
 576              		.loc 1 233 9 view .LVU200
 577              		.syntax divided
 578              	@ 233 "../../../os/kernel/src/chqueues.c" 1
 579 009c 1FF021E3 		msr     CPSR_c, #0x1F
 580              	@ 0 "" 2
 581              		.loc 1 233 22 view .LVU201
 582              		.loc 1 234 9 view .LVU202
 583              	.LVL36:
 584              		.arm
 585              		.syntax unified
 586              	.L38:
 587              		.loc 1 250 1 is_stmt 0 view .LVU203
 588 00a0 0600A0E1 		mov	r0, r6
 589 00a4 F083BDE8 		pop	{r4, r5, r6, r7, r8, r9, pc}
 590              		.cfi_endproc
 591              	.LFE12:
 592              		.size	chIQReadTimeout, .-chIQReadTimeout
 593              		.section	.text.chOQInit,"ax",%progbits
 594              		.align	2
 595              		.global	chOQInit
 596              		.syntax unified
 597              		.arm
 598              		.fpu softvfp
 599              		.type	chOQInit, %function
 600              	chOQInit:
 601              	.LVL37:
 602              	.LFB13:
 603              		.loc 1 269 27 is_stmt 1 view -0
 604              		.cfi_startproc
 605              		@ args = 4, pretend = 0, frame = 0
 606              		@ frame_needed = 0, uses_anonymous_args = 0
 607              		.loc 1 271 3 view .LVU205
 608              		.loc 1 269 27 is_stmt 0 view .LVU206
 609 0000 04E02DE5 		str	lr, [sp, #-4]!
 610              		.cfi_def_cfa_offset 4
 611              		.cfi_offset 14, -4
 612              		.loc 1 269 27 view .LVU207
 613 0004 04C09DE5 		ldr	ip, [sp, #4]
 614              		.loc 1 274 19 view .LVU208
 615 0008 02E081E0 		add	lr, r1, r2
 616              		.loc 1 271 3 view .LVU209
 617 000c 040080E5 		str	r0, [r0, #4]
 618 0010 000080E5 		str	r0, [r0]
 619              		.loc 1 271 30 is_stmt 1 view .LVU210
 620              		.loc 1 272 3 view .LVU211
 621              		.loc 1 272 18 is_stmt 0 view .LVU212
 622 0014 082080E5 		str	r2, [r0, #8]
 623              		.loc 1 273 3 is_stmt 1 view .LVU213
 624              		.loc 1 274 14 is_stmt 0 view .LVU214
 625 0018 10E080E5 		str	lr, [r0, #16]
 626              		.loc 1 273 47 view .LVU215
 627 001c 141080E5 		str	r1, [r0, #20]
ARM GAS  /var/folders/l5/0x54b2c10074c8bt31ycjvl80000gp/T//ccvkVa4l.s 			page 12


 628              		.loc 1 273 32 view .LVU216
 629 0020 181080E5 		str	r1, [r0, #24]
 630              		.loc 1 273 17 view .LVU217
 631 0024 0C1080E5 		str	r1, [r0, #12]
 632              		.loc 1 274 3 is_stmt 1 view .LVU218
 633              		.loc 1 275 3 view .LVU219
 634              		.loc 1 275 17 is_stmt 0 view .LVU220
 635 0028 1C3080E5 		str	r3, [r0, #28]
 636              		.loc 1 276 3 is_stmt 1 view .LVU221
 637              		.loc 1 276 15 is_stmt 0 view .LVU222
 638 002c 20C080E5 		str	ip, [r0, #32]
 639              		.loc 1 277 1 view .LVU223
 640 0030 04F09DE4 		ldr	pc, [sp], #4
 641              		.cfi_endproc
 642              	.LFE13:
 643              		.size	chOQInit, .-chOQInit
 644              		.section	.text.chOQResetI,"ax",%progbits
 645              		.align	2
 646              		.global	chOQResetI
 647              		.syntax unified
 648              		.arm
 649              		.fpu softvfp
 650              		.type	chOQResetI, %function
 651              	chOQResetI:
 652              	.LVL38:
 653              	.LFB14:
 654              		.loc 1 290 35 is_stmt 1 view -0
 655              		.cfi_startproc
 656              		@ args = 0, pretend = 0, frame = 0
 657              		@ frame_needed = 0, uses_anonymous_args = 0
 658              		.loc 1 292 3 view .LVU225
 659              		.loc 1 292 21 view .LVU226
 660              		.loc 1 294 3 view .LVU227
 661              		.loc 1 294 36 is_stmt 0 view .LVU228
 662 0000 0C1090E5 		ldr	r1, [r0, #12]
 663              		.loc 1 295 20 view .LVU229
 664 0004 102090E5 		ldr	r2, [r0, #16]
 665              		.loc 1 296 10 view .LVU230
 666 0008 003090E5 		ldr	r3, [r0]
 667              		.loc 1 295 20 view .LVU231
 668 000c 012042E0 		sub	r2, r2, r1
 669              		.loc 1 296 9 view .LVU232
 670 0010 030050E1 		cmp	r0, r3
 671              		.loc 1 294 31 view .LVU233
 672 0014 141080E5 		str	r1, [r0, #20]
 673              		.loc 1 294 16 view .LVU234
 674 0018 181080E5 		str	r1, [r0, #24]
 675              		.loc 1 295 3 is_stmt 1 view .LVU235
 676              		.loc 1 295 18 is_stmt 0 view .LVU236
 677 001c 082080E5 		str	r2, [r0, #8]
 678              		.loc 1 296 3 is_stmt 1 view .LVU237
 679              		.loc 1 296 9 is_stmt 0 view .LVU238
 680 0020 1EFF2F01 		bxeq	lr
 681              		.loc 1 290 35 view .LVU239
 682 0024 30402DE9 		push	{r4, r5, lr}
 683              		.cfi_def_cfa_offset 12
 684              		.cfi_offset 4, -12
ARM GAS  /var/folders/l5/0x54b2c10074c8bt31ycjvl80000gp/T//ccvkVa4l.s 			page 13


 685              		.cfi_offset 5, -8
 686              		.cfi_offset 14, -4
 687 0028 0040A0E1 		mov	r4, r0
 688              		.loc 1 297 59 view .LVU240
 689 002c 0150E0E3 		mvn	r5, #1
 690              	.LVL39:
 691              	.L56:
 692              		.loc 1 297 5 is_stmt 1 view .LVU241
 693              	.LBB25:
 694              	.LBI25:
 695              		.loc 2 52 23 view .LVU242
 696              	.LBB26:
 697              		.loc 2 53 3 view .LVU243
 698              		.loc 2 55 3 view .LVU244
 699              		.loc 2 55 20 is_stmt 0 view .LVU245
 700 0030 002093E5 		ldr	r2, [r3]
 701              	.LBE26:
 702              	.LBE25:
 703              		.loc 1 297 5 view .LVU246
 704 0034 0300A0E1 		mov	r0, r3
 705              	.LBB28:
 706              	.LBB27:
 707              		.loc 2 55 16 view .LVU247
 708 0038 002084E5 		str	r2, [r4]
 709              		.loc 2 55 38 view .LVU248
 710 003c 044082E5 		str	r4, [r2, #4]
 711              		.loc 2 56 3 is_stmt 1 view .LVU249
 712              	.LVL40:
 713              		.loc 2 56 3 is_stmt 0 view .LVU250
 714              	.LBE27:
 715              	.LBE28:
 716              		.loc 1 297 5 view .LVU251
 717 0040 FEFFFFEB 		bl	chSchReadyI
 718              	.LVL41:
 719              		.loc 1 296 10 view .LVU252
 720 0044 003094E5 		ldr	r3, [r4]
 721              		.loc 1 297 59 view .LVU253
 722 0048 145080E5 		str	r5, [r0, #20]
 723              		.loc 1 296 9 view .LVU254
 724 004c 040053E1 		cmp	r3, r4
 725 0050 F6FFFF1A 		bne	.L56
 726 0054 3080BDE8 		pop	{r4, r5, pc}
 727              		.cfi_endproc
 728              	.LFE14:
 729              		.size	chOQResetI, .-chOQResetI
 730              		.section	.text.chOQPutTimeout,"ax",%progbits
 731              		.align	2
 732              		.global	chOQPutTimeout
 733              		.syntax unified
 734              		.arm
 735              		.fpu softvfp
 736              		.type	chOQPutTimeout, %function
 737              	chOQPutTimeout:
 738              	.LVL42:
 739              	.LFB15:
 740              		.loc 1 322 67 is_stmt 1 view -0
 741              		.cfi_startproc
ARM GAS  /var/folders/l5/0x54b2c10074c8bt31ycjvl80000gp/T//ccvkVa4l.s 			page 14


 742              		@ args = 0, pretend = 0, frame = 0
 743              		@ frame_needed = 0, uses_anonymous_args = 0
 744              		.loc 1 324 3 view .LVU256
 745              		.loc 1 322 67 is_stmt 0 view .LVU257
 746 0000 70402DE9 		push	{r4, r5, r6, lr}
 747              		.cfi_def_cfa_offset 16
 748              		.cfi_offset 4, -16
 749              		.cfi_offset 5, -12
 750              		.cfi_offset 6, -8
 751              		.cfi_offset 14, -4
 752              		.loc 1 322 67 view .LVU258
 753 0004 0040A0E1 		mov	r4, r0
 754 0008 0250A0E1 		mov	r5, r2
 755 000c 7160EFE6 		uxtb	r6, r1
 756              		.loc 1 324 3 view .LVU259
 757              		.syntax divided
 758              	@ 324 "../../../os/kernel/src/chqueues.c" 1
 759 0010 9FF021E3 		msr     CPSR_c, #0x9F
 760              	@ 0 "" 2
 761              		.loc 1 324 3 is_stmt 1 view .LVU260
 762              		.loc 1 324 14 view .LVU261
 763              		.loc 1 325 3 view .LVU262
 764              		.loc 1 325 9 is_stmt 0 view .LVU263
 765              		.arm
 766              		.syntax unified
 767 0014 040000EA 		b	.L63
 768              	.LVL43:
 769              	.L65:
 770              	.LBB29:
 771              		.loc 1 328 16 view .LVU264
 772 0018 0510A0E1 		mov	r1, r5
 773 001c 0400A0E1 		mov	r0, r4
 774 0020 FEFFFFEB 		bl	qwait
 775              	.LVL44:
 776              		.loc 1 328 8 view .LVU265
 777 0024 000050E3 		cmp	r0, #0
 778              		.loc 1 328 8 view .LVU266
 779 0028 150000BA 		blt	.L73
 780              	.LVL45:
 781              	.L63:
 782              		.loc 1 326 5 is_stmt 1 view .LVU267
 783              		.loc 1 328 5 view .LVU268
 784              	.LBE29:
 785              		.loc 1 325 10 is_stmt 0 view .LVU269
 786 002c 083094E5 		ldr	r3, [r4, #8]
 787              		.loc 1 325 9 view .LVU270
 788 0030 000053E3 		cmp	r3, #0
 789 0034 F7FFFF0A 		beq	.L65
 790              		.loc 1 334 3 is_stmt 1 view .LVU271
 791              		.loc 1 335 7 is_stmt 0 view .LVU272
 792 0038 142094E5 		ldr	r2, [r4, #20]
 793              		.loc 1 334 17 view .LVU273
 794 003c 013043E2 		sub	r3, r3, #1
 795              		.loc 1 335 16 view .LVU274
 796 0040 011082E2 		add	r1, r2, #1
 797 0044 141084E5 		str	r1, [r4, #20]
 798              		.loc 1 334 17 view .LVU275
ARM GAS  /var/folders/l5/0x54b2c10074c8bt31ycjvl80000gp/T//ccvkVa4l.s 			page 15


 799 0048 083084E5 		str	r3, [r4, #8]
 800              		.loc 1 335 3 is_stmt 1 view .LVU276
 801              		.loc 1 335 19 is_stmt 0 view .LVU277
 802 004c 0060C2E5 		strb	r6, [r2]
 803              		.loc 1 336 3 is_stmt 1 view .LVU278
 804              		.loc 1 336 6 is_stmt 0 view .LVU279
 805 0050 103094E5 		ldr	r3, [r4, #16]
 806 0054 142094E5 		ldr	r2, [r4, #20]
 807 0058 030052E1 		cmp	r2, r3
 808              		.loc 1 337 5 is_stmt 1 view .LVU280
 809              		.loc 1 337 18 is_stmt 0 view .LVU281
 810 005c 0C309425 		ldrcs	r3, [r4, #12]
 811 0060 14308425 		strcs	r3, [r4, #20]
 812              		.loc 1 339 3 is_stmt 1 view .LVU282
 813              		.loc 1 339 10 is_stmt 0 view .LVU283
 814 0064 1C3094E5 		ldr	r3, [r4, #28]
 815              		.loc 1 339 6 view .LVU284
 816 0068 000053E3 		cmp	r3, #0
 817 006c 0100000A 		beq	.L67
 818              		.loc 1 340 5 is_stmt 1 view .LVU285
 819 0070 0400A0E1 		mov	r0, r4
 820 0074 33FF2FE1 		blx	r3
 821              	.LVL46:
 822              	.L67:
 823              		.loc 1 342 3 view .LVU286
 824              		.loc 1 342 3 view .LVU287
 825              		.syntax divided
 826              	@ 342 "../../../os/kernel/src/chqueues.c" 1
 827 0078 1FF021E3 		msr     CPSR_c, #0x1F
 828              	@ 0 "" 2
 829              		.loc 1 342 16 view .LVU288
 830              		.loc 1 343 3 view .LVU289
 831              		.loc 1 343 10 is_stmt 0 view .LVU290
 832              		.arm
 833              		.syntax unified
 834 007c 0000A0E3 		mov	r0, #0
 835              		.loc 1 344 1 view .LVU291
 836 0080 7080BDE8 		pop	{r4, r5, r6, pc}
 837              	.LVL47:
 838              	.L73:
 839              	.LBB30:
 840              		.loc 1 329 7 is_stmt 1 view .LVU292
 841              		.loc 1 329 7 view .LVU293
 842              		.syntax divided
 843              	@ 329 "../../../os/kernel/src/chqueues.c" 1
 844 0084 1FF021E3 		msr     CPSR_c, #0x1F
 845              	@ 0 "" 2
 846              		.loc 1 329 20 view .LVU294
 847              		.loc 1 330 7 view .LVU295
 848              		.loc 1 330 14 is_stmt 0 view .LVU296
 849              		.arm
 850              		.syntax unified
 851 0088 7080BDE8 		pop	{r4, r5, r6, pc}
 852              	.LBE30:
 853              		.cfi_endproc
 854              	.LFE15:
 855              		.size	chOQPutTimeout, .-chOQPutTimeout
ARM GAS  /var/folders/l5/0x54b2c10074c8bt31ycjvl80000gp/T//ccvkVa4l.s 			page 16


 856              		.section	.text.chOQGetI,"ax",%progbits
 857              		.align	2
 858              		.global	chOQGetI
 859              		.syntax unified
 860              		.arm
 861              		.fpu softvfp
 862              		.type	chOQGetI, %function
 863              	chOQGetI:
 864              	.LVL48:
 865              	.LFB16:
 866              		.loc 1 356 34 is_stmt 1 view -0
 867              		.cfi_startproc
 868              		@ args = 0, pretend = 0, frame = 0
 869              		@ frame_needed = 0, uses_anonymous_args = 0
 870              		.loc 1 357 3 view .LVU298
 871              		.loc 1 359 3 view .LVU299
 872              		.loc 1 359 21 view .LVU300
 873              		.loc 1 361 3 view .LVU301
 874              		.loc 1 361 7 is_stmt 0 view .LVU302
 875 0000 182090E5 		ldr	r2, [r0, #24]
 876              		.loc 1 361 6 view .LVU303
 877 0004 141090E5 		ldr	r1, [r0, #20]
 878 0008 083090E5 		ldr	r3, [r0, #8]
 879 000c 020051E1 		cmp	r1, r2
 880 0010 1600000A 		beq	.L83
 881              	.L75:
 882              		.loc 1 364 3 is_stmt 1 view .LVU304
 883              		.loc 1 356 34 is_stmt 0 view .LVU305
 884 0014 10402DE9 		push	{r4, lr}
 885              		.cfi_def_cfa_offset 8
 886              		.cfi_offset 4, -8
 887              		.cfi_offset 14, -4
 888              		.loc 1 366 6 view .LVU306
 889 0018 10C090E5 		ldr	ip, [r0, #16]
 890              		.loc 1 364 17 view .LVU307
 891 001c 013083E2 		add	r3, r3, #1
 892              		.loc 1 365 20 view .LVU308
 893 0020 011082E2 		add	r1, r2, #1
 894              		.loc 1 366 6 view .LVU309
 895 0024 0C0051E1 		cmp	r1, ip
 896              		.loc 1 364 17 view .LVU310
 897 0028 083080E5 		str	r3, [r0, #8]
 898              		.loc 1 365 3 is_stmt 1 view .LVU311
 899              		.loc 1 365 20 is_stmt 0 view .LVU312
 900 002c 181080E5 		str	r1, [r0, #24]
 901              		.loc 1 365 5 view .LVU313
 902 0030 0040D2E5 		ldrb	r4, [r2]	@ zero_extendqisi2
 903              	.LVL49:
 904              		.loc 1 366 3 is_stmt 1 view .LVU314
 905              		.loc 1 367 5 view .LVU315
 906              		.loc 1 367 18 is_stmt 0 view .LVU316
 907 0034 0C309025 		ldrcs	r3, [r0, #12]
 908              		.loc 1 369 7 view .LVU317
 909 0038 002090E5 		ldr	r2, [r0]
 910              		.loc 1 367 18 view .LVU318
 911 003c 18308025 		strcs	r3, [r0, #24]
 912              		.loc 1 369 3 is_stmt 1 view .LVU319
ARM GAS  /var/folders/l5/0x54b2c10074c8bt31ycjvl80000gp/T//ccvkVa4l.s 			page 17


 913              		.loc 1 369 6 is_stmt 0 view .LVU320
 914 0040 000052E1 		cmp	r2, r0
 915 0044 0700000A 		beq	.L78
 916 0048 0030A0E1 		mov	r3, r0
 917              		.loc 1 370 5 is_stmt 1 view .LVU321
 918              	.LVL50:
 919              	.LBB31:
 920              	.LBI31:
 921              		.loc 2 52 23 view .LVU322
 922              	.LBB32:
 923              		.loc 2 53 3 view .LVU323
 924              		.loc 2 55 3 view .LVU324
 925              		.loc 2 55 20 is_stmt 0 view .LVU325
 926 004c 001092E5 		ldr	r1, [r2]
 927              	.LBE32:
 928              	.LBE31:
 929              		.loc 1 370 5 view .LVU326
 930 0050 0200A0E1 		mov	r0, r2
 931              	.LVL51:
 932              	.LBB34:
 933              	.LBB33:
 934              		.loc 2 55 16 view .LVU327
 935 0054 001083E5 		str	r1, [r3]
 936              		.loc 2 55 38 view .LVU328
 937 0058 043081E5 		str	r3, [r1, #4]
 938              		.loc 2 56 3 is_stmt 1 view .LVU329
 939              	.LVL52:
 940              		.loc 2 56 3 is_stmt 0 view .LVU330
 941              	.LBE33:
 942              	.LBE34:
 943              		.loc 1 370 5 view .LVU331
 944 005c FEFFFFEB 		bl	chSchReadyI
 945              	.LVL53:
 946              		.loc 1 370 59 view .LVU332
 947 0060 0030A0E3 		mov	r3, #0
 948 0064 143080E5 		str	r3, [r0, #20]
 949              	.L78:
 950              		.loc 1 372 3 is_stmt 1 view .LVU333
 951              		.loc 1 372 10 is_stmt 0 view .LVU334
 952 0068 0400A0E1 		mov	r0, r4
 953              		.loc 1 373 1 view .LVU335
 954 006c 1080BDE8 		pop	{r4, pc}
 955              	.LVL54:
 956              	.L83:
 957              		.cfi_def_cfa_offset 0
 958              		.cfi_restore 4
 959              		.cfi_restore 14
 960              		.loc 1 361 7 discriminator 1 view .LVU336
 961 0070 000053E3 		cmp	r3, #0
 962 0074 E6FFFF0A 		beq	.L75
 963              		.loc 1 362 12 view .LVU337
 964 0078 0200E0E3 		mvn	r0, #2
 965              	.LVL55:
 966              		.loc 1 373 1 view .LVU338
 967 007c 1EFF2FE1 		bx	lr
 968              		.cfi_endproc
 969              	.LFE16:
ARM GAS  /var/folders/l5/0x54b2c10074c8bt31ycjvl80000gp/T//ccvkVa4l.s 			page 18


 970              		.size	chOQGetI, .-chOQGetI
 971              		.section	.text.chOQWriteTimeout,"ax",%progbits
 972              		.align	2
 973              		.global	chOQWriteTimeout
 974              		.syntax unified
 975              		.arm
 976              		.fpu softvfp
 977              		.type	chOQWriteTimeout, %function
 978              	chOQWriteTimeout:
 979              	.LVL56:
 980              	.LFB17:
 981              		.loc 1 400 51 is_stmt 1 view -0
 982              		.cfi_startproc
 983              		@ args = 0, pretend = 0, frame = 0
 984              		@ frame_needed = 0, uses_anonymous_args = 0
 985              		.loc 1 401 3 view .LVU340
 986              		.loc 1 400 51 is_stmt 0 view .LVU341
 987 0000 F0432DE9 		push	{r4, r5, r6, r7, r8, r9, lr}
 988              		.cfi_def_cfa_offset 28
 989              		.cfi_offset 4, -28
 990              		.cfi_offset 5, -24
 991              		.cfi_offset 6, -20
 992              		.cfi_offset 7, -16
 993              		.cfi_offset 8, -12
 994              		.cfi_offset 9, -8
 995              		.cfi_offset 14, -4
 996              		.loc 1 400 51 view .LVU342
 997 0004 0040A0E1 		mov	r4, r0
 998 0008 0150A0E1 		mov	r5, r1
 999 000c 0260A0E1 		mov	r6, r2
 1000 0010 0390A0E1 		mov	r9, r3
 1001              		.loc 1 401 13 view .LVU343
 1002 0014 1C8090E5 		ldr	r8, [r0, #28]
 1003              	.LVL57:
 1004              		.loc 1 402 3 is_stmt 1 view .LVU344
 1005              		.loc 1 404 3 view .LVU345
 1006              		.loc 1 404 40 view .LVU346
 1007              		.loc 1 406 3 view .LVU347
 1008              		.syntax divided
 1009              	@ 406 "../../../os/kernel/src/chqueues.c" 1
 1010 0018 9FF021E3 		msr     CPSR_c, #0x9F
 1011              	@ 0 "" 2
 1012              		.loc 1 402 10 is_stmt 0 view .LVU348
 1013              		.arm
 1014              		.syntax unified
 1015 001c 0070A0E3 		mov	r7, #0
 1016              	.LVL58:
 1017              	.L85:
 1018              		.loc 1 414 5 is_stmt 1 view .LVU349
 1019              		.loc 1 419 5 view .LVU350
 1020              		.loc 1 420 7 view .LVU351
 1021              		.loc 1 408 12 is_stmt 0 view .LVU352
 1022 0020 083094E5 		ldr	r3, [r4, #8]
 1023              		.loc 1 408 11 view .LVU353
 1024 0024 000053E3 		cmp	r3, #0
 1025              		.loc 1 414 19 view .LVU354
 1026 0028 012043E2 		sub	r2, r3, #1
ARM GAS  /var/folders/l5/0x54b2c10074c8bt31ycjvl80000gp/T//ccvkVa4l.s 			page 19


 1027              		.loc 1 408 11 view .LVU355
 1028 002c 1700000A 		beq	.L88
 1029              	.L101:
 1030              		.loc 1 417 7 is_stmt 1 view .LVU356
 1031              		.loc 1 415 9 is_stmt 0 view .LVU357
 1032 0030 143094E5 		ldr	r3, [r4, #20]
 1033              		.loc 1 414 19 view .LVU358
 1034 0034 082084E5 		str	r2, [r4, #8]
 1035              		.loc 1 415 5 is_stmt 1 view .LVU359
 1036              		.loc 1 415 18 is_stmt 0 view .LVU360
 1037 0038 012083E2 		add	r2, r3, #1
 1038 003c 142084E5 		str	r2, [r4, #20]
 1039              		.loc 1 415 23 view .LVU361
 1040 0040 0120D5E4 		ldrb	r2, [r5], #1	@ zero_extendqisi2
 1041              	.LVL59:
 1042              		.loc 1 415 21 view .LVU362
 1043 0044 0020C3E5 		strb	r2, [r3]
 1044              		.loc 1 416 5 is_stmt 1 view .LVU363
 1045              		.loc 1 416 8 is_stmt 0 view .LVU364
 1046 0048 103094E5 		ldr	r3, [r4, #16]
 1047 004c 142094E5 		ldr	r2, [r4, #20]
 1048 0050 030052E1 		cmp	r2, r3
 1049              		.loc 1 417 20 view .LVU365
 1050 0054 0C309425 		ldrcs	r3, [r4, #12]
 1051 0058 14308425 		strcs	r3, [r4, #20]
 1052              		.loc 1 419 8 view .LVU366
 1053 005c 000058E3 		cmp	r8, #0
 1054 0060 0100000A 		beq	.L90
 1055              		.loc 1 420 7 view .LVU367
 1056 0064 0400A0E1 		mov	r0, r4
 1057 0068 38FF2FE1 		blx	r8
 1058              	.LVL60:
 1059              	.L90:
 1060              		.loc 1 422 5 is_stmt 1 view .LVU368
 1061              		.loc 1 422 5 view .LVU369
 1062              		.syntax divided
 1063              	@ 422 "../../../os/kernel/src/chqueues.c" 1
 1064 006c 1FF021E3 		msr     CPSR_c, #0x1F
 1065              	@ 0 "" 2
 1066              		.loc 1 422 18 view .LVU370
 1067              		.loc 1 423 5 view .LVU371
 1068              		.loc 1 426 5 view .LVU372
 1069              		.loc 1 424 8 is_stmt 0 view .LVU373
 1070              		.arm
 1071              		.syntax unified
 1072 0070 016056E2 		subs	r6, r6, #1
 1073              	.LVL61:
 1074              		.loc 1 423 6 view .LVU374
 1075 0074 017087E2 		add	r7, r7, #1
 1076              	.LVL62:
 1077              		.loc 1 424 5 is_stmt 1 view .LVU375
 1078              		.loc 1 424 8 is_stmt 0 view .LVU376
 1079 0078 0A00000A 		beq	.L84
 1080              		.loc 1 426 5 view .LVU377
 1081              		.syntax divided
 1082              	@ 426 "../../../os/kernel/src/chqueues.c" 1
 1083 007c 9FF021E3 		msr     CPSR_c, #0x9F
ARM GAS  /var/folders/l5/0x54b2c10074c8bt31ycjvl80000gp/T//ccvkVa4l.s 			page 20


 1084              	@ 0 "" 2
 1085              		.loc 1 426 5 is_stmt 1 view .LVU378
 1086              		.loc 1 426 16 view .LVU379
 1087              	.LVL63:
 1088              		.loc 1 414 5 view .LVU380
 1089              		.loc 1 419 5 view .LVU381
 1090              		.loc 1 420 7 view .LVU382
 1091              		.loc 1 408 12 is_stmt 0 view .LVU383
 1092              		.arm
 1093              		.syntax unified
 1094 0080 083094E5 		ldr	r3, [r4, #8]
 1095              		.loc 1 408 11 view .LVU384
 1096 0084 000053E3 		cmp	r3, #0
 1097              		.loc 1 414 19 view .LVU385
 1098 0088 012043E2 		sub	r2, r3, #1
 1099              		.loc 1 408 11 view .LVU386
 1100 008c E7FFFF1A 		bne	.L101
 1101              	.L88:
 1102              		.loc 1 409 7 is_stmt 1 view .LVU387
 1103              		.loc 1 409 11 is_stmt 0 view .LVU388
 1104 0090 0910A0E1 		mov	r1, r9
 1105 0094 0400A0E1 		mov	r0, r4
 1106 0098 FEFFFFEB 		bl	qwait
 1107              	.LVL64:
 1108              		.loc 1 409 10 view .LVU389
 1109 009c 000050E3 		cmp	r0, #0
 1110 00a0 DEFFFF0A 		beq	.L85
 1111              		.loc 1 410 9 is_stmt 1 view .LVU390
 1112              		.loc 1 410 9 view .LVU391
 1113              		.syntax divided
 1114              	@ 410 "../../../os/kernel/src/chqueues.c" 1
 1115 00a4 1FF021E3 		msr     CPSR_c, #0x1F
 1116              	@ 0 "" 2
 1117              		.loc 1 410 22 view .LVU392
 1118              		.loc 1 411 9 view .LVU393
 1119              	.LVL65:
 1120              		.arm
 1121              		.syntax unified
 1122              	.L84:
 1123              		.loc 1 428 1 is_stmt 0 view .LVU394
 1124 00a8 0700A0E1 		mov	r0, r7
 1125 00ac F083BDE8 		pop	{r4, r5, r6, r7, r8, r9, pc}
 1126              		.cfi_endproc
 1127              	.LFE17:
 1128              		.size	chOQWriteTimeout, .-chOQWriteTimeout
 1129              		.text
 1130              	.Letext0:
 1131              		.file 3 "/usr/local/Cellar/arm-gcc-bin/8-2019-q3-update/lib/gcc/arm-none-eabi/8.3.1/include/stddef
 1132              		.file 4 "/usr/local/Cellar/arm-gcc-bin/8-2019-q3-update/arm-none-eabi/include/machine/_default_typ
 1133              		.file 5 "/usr/local/Cellar/arm-gcc-bin/8-2019-q3-update/arm-none-eabi/include/sys/_stdint.h"
 1134              		.file 6 "../../../os/ports/GCC/ARM/chtypes.h"
 1135              		.file 7 "../../../os/kernel/include/chlists.h"
 1136              		.file 8 "../../../os/kernel/include/chthreads.h"
 1137              		.file 9 "../../../os/ports/GCC/ARM/chcore.h"
 1138              		.file 10 "../../../os/kernel/include/chvt.h"
 1139              		.file 11 "../../../os/kernel/include/chschd.h"
 1140              		.file 12 "../../../os/kernel/include/chmtx.h"
ARM GAS  /var/folders/l5/0x54b2c10074c8bt31ycjvl80000gp/T//ccvkVa4l.s 			page 21


 1141              		.file 13 "../../../os/kernel/include/chqueues.h"
 1142              		.file 14 "../../../os/kernel/include/ch.h"