ARM GAS  /var/folders/l5/0x54b2c10074c8bt31ycjvl80000gp/T//ccvkVa4l.s 			page 1


   1              		.file	"chqueues.c"
   2              		.text
   3              	.Ltext0:
   4              		.cfi_sections	.debug_frame
   5              		.section	.text.qwait,"ax",%progbits
   6              		.align	2
   7              		.arch armv6kz
   8              		.syntax unified
   9              		.arm
  10              		.fpu softvfp
  11              		.type	qwait, %function
  12              	qwait:
  13              	.LVL0:
  14              	.LFB7:
  15              		.file 1 "../../../os/kernel/src/chqueues.c"
  16              		.loc 1 63 54 view -0
  17              		.cfi_startproc
  18              		@ args = 0, pretend = 0, frame = 0
  19              		@ frame_needed = 0, uses_anonymous_args = 0
  20              		@ link register save eliminated.
  21              		.loc 1 65 3 view .LVU1
  22              		.loc 1 65 6 is_stmt 0 view .LVU2
  23 0000 000051E3 		cmp	r1, #0
  24              		.loc 1 63 54 view .LVU3
  25 0004 0020A0E1 		mov	r2, r0
  26              		.loc 1 65 6 view .LVU4
  27 0008 0800000A 		beq	.L2
  28              		.loc 1 67 3 is_stmt 1 view .LVU5
  29 000c 24309FE5 		ldr	r3, .L4
  30              	.LBB12:
  31              	.LBB13:
  32              		.file 2 "../../../os/kernel/include/chinline.h"
  33              		.loc 2 48 19 is_stmt 0 view .LVU6
  34 0010 04C090E5 		ldr	ip, [r0, #4]
  35              	.LBE13:
  36              	.LBE12:
  37              		.loc 1 67 3 view .LVU7
  38 0014 103093E5 		ldr	r3, [r3, #16]
  39              		.loc 1 69 10 view .LVU8
  40 0018 0D00A0E3 		mov	r0, #13
  41              	.LVL1:
  42              		.loc 1 67 21 view .LVU9
  43 001c 142083E5 		str	r2, [r3, #20]
  44              		.loc 1 68 3 is_stmt 1 view .LVU10
  45              	.LVL2:
  46              	.LBB15:
  47              	.LBI12:
  48              		.loc 2 45 20 view .LVU11
  49              	.LBB14:
  50              		.loc 2 47 3 view .LVU12
  51              		.loc 2 48 14 is_stmt 0 view .LVU13
  52 0020 041083E8 		stm	r3, {r2, ip}
  53              		.loc 2 49 3 is_stmt 1 view .LVU14
  54              		.loc 2 49 36 is_stmt 0 view .LVU15
  55 0024 043082E5 		str	r3, [r2, #4]
  56              		.loc 2 49 22 view .LVU16
  57 0028 00308CE5 		str	r3, [ip]
ARM GAS  /var/folders/l5/0x54b2c10074c8bt31ycjvl80000gp/T//ccvkVa4l.s 			page 2


  58              	.LVL3:
  59              		.loc 2 49 22 view .LVU17
  60              	.LBE14:
  61              	.LBE15:
  62              		.loc 1 69 3 is_stmt 1 view .LVU18
  63              		.loc 1 69 10 is_stmt 0 view .LVU19
  64 002c FEFFFFEA 		b	chSchGoSleepTimeoutS
  65              	.LVL4:
  66              	.L2:
  67              		.loc 1 70 1 view .LVU20
  68 0030 0000E0E3 		mvn	r0, #0
  69              	.LVL5:
  70              		.loc 1 70 1 view .LVU21
  71 0034 1EFF2FE1 		bx	lr
  72              	.L5:
  73              		.align	2
  74              	.L4:
  75 0038 00000000 		.word	rlist
  76              		.cfi_endproc
  77              	.LFE7:
  78              		.size	qwait, .-qwait
  79              		.section	.text.chIQInit,"ax",%progbits
  80              		.align	2
  81              		.global	chIQInit
  82              		.syntax unified
  83              		.arm
  84              		.fpu softvfp
  85              		.type	chIQInit, %function
  86              	chIQInit:
  87              	.LVL6:
  88              	.LFB8:
  89              		.loc 1 89 27 is_stmt 1 view -0
  90              		.cfi_startproc
  91              		@ args = 4, pretend = 0, frame = 0
  92              		@ frame_needed = 0, uses_anonymous_args = 0
  93              		.loc 1 91 3 view .LVU23
  94              		.loc 1 89 27 is_stmt 0 view .LVU24
  95 0000 04E02DE5 		str	lr, [sp, #-4]!
  96              		.cfi_def_cfa_offset 4
  97              		.cfi_offset 14, -4
  98              		.loc 1 92 18 view .LVU25
  99 0004 00E0A0E3 		mov	lr, #0
 100              		.loc 1 89 27 view .LVU26
 101 0008 04C09DE5 		ldr	ip, [sp, #4]
 102              		.loc 1 94 19 view .LVU27
 103 000c 022081E0 		add	r2, r1, r2
 104              	.LVL7:
 105              		.loc 1 94 14 view .LVU28
 106 0010 102080E5 		str	r2, [r0, #16]
 107              		.loc 1 91 3 view .LVU29
 108 0014 040080E5 		str	r0, [r0, #4]
 109 0018 000080E5 		str	r0, [r0]
 110              		.loc 1 91 30 is_stmt 1 view .LVU30
 111              		.loc 1 92 3 view .LVU31
 112              		.loc 1 93 47 is_stmt 0 view .LVU32
 113 001c 141080E5 		str	r1, [r0, #20]
 114              		.loc 1 93 32 view .LVU33
ARM GAS  /var/folders/l5/0x54b2c10074c8bt31ycjvl80000gp/T//ccvkVa4l.s 			page 3


 115 0020 181080E5 		str	r1, [r0, #24]
 116              		.loc 1 93 17 view .LVU34
 117 0024 0C1080E5 		str	r1, [r0, #12]
 118              		.loc 1 95 17 view .LVU35
 119 0028 1C3080E5 		str	r3, [r0, #28]
 120              		.loc 1 92 18 view .LVU36
 121 002c 08E080E5 		str	lr, [r0, #8]
 122              		.loc 1 93 3 is_stmt 1 view .LVU37
 123              		.loc 1 94 3 view .LVU38
 124              		.loc 1 95 3 view .LVU39
 125              		.loc 1 96 3 view .LVU40
 126              		.loc 1 96 15 is_stmt 0 view .LVU41
 127 0030 20C080E5 		str	ip, [r0, #32]
 128              		.loc 1 97 1 view .LVU42
 129 0034 04F09DE4 		ldr	pc, [sp], #4
 130              		.cfi_endproc
 131              	.LFE8:
 132              		.size	chIQInit, .-chIQInit
 133              		.section	.text.chIQResetI,"ax",%progbits
 134              		.align	2
 135              		.global	chIQResetI
 136              		.syntax unified
 137              		.arm
 138              		.fpu softvfp
 139              		.type	chIQResetI, %function
 140              	chIQResetI:
 141              	.LVL8:
 142              	.LFB9:
 143              		.loc 1 110 34 is_stmt 1 view -0
 144              		.cfi_startproc
 145              		@ args = 0, pretend = 0, frame = 0
 146              		@ frame_needed = 0, uses_anonymous_args = 0
 147              		.loc 1 112 3 view .LVU44
 148              		.loc 1 112 21 view .LVU45
 149              		.loc 1 114 3 view .LVU46
 150              		.loc 1 115 18 is_stmt 0 view .LVU47
 151 0000 0010A0E3 		mov	r1, #0
 152              		.loc 1 116 10 view .LVU48
 153 0004 003090E5 		ldr	r3, [r0]
 154              		.loc 1 114 36 view .LVU49
 155 0008 0C2090E5 		ldr	r2, [r0, #12]
 156              		.loc 1 116 9 view .LVU50
 157 000c 030050E1 		cmp	r0, r3
 158              		.loc 1 115 18 view .LVU51
 159 0010 081080E5 		str	r1, [r0, #8]
 160              		.loc 1 114 31 view .LVU52
 161 0014 142080E5 		str	r2, [r0, #20]
 162              		.loc 1 114 16 view .LVU53
 163 0018 182080E5 		str	r2, [r0, #24]
 164              		.loc 1 115 3 is_stmt 1 view .LVU54
 165              		.loc 1 116 3 view .LVU55
 166              		.loc 1 116 9 is_stmt 0 view .LVU56
 167 001c 1EFF2F01 		bxeq	lr
 168              		.loc 1 110 34 view .LVU57
 169 0020 30402DE9 		push	{r4, r5, lr}
 170              		.cfi_def_cfa_offset 12
 171              		.cfi_offset 4, -12
ARM GAS  /var/folders/l5/0x54b2c10074c8bt31ycjvl80000gp/T//ccvkVa4l.s 			page 4


 172              		.cfi_offset 5, -8
 173              		.cfi_offset 14, -4
 174 0024 0040A0E1 		mov	r4, r0
 175              		.loc 1 117 59 view .LVU58
 176 0028 0150E0E3 		mvn	r5, #1
 177              	.LVL9:
 178              	.L10:
 179              		.loc 1 117 5 is_stmt 1 view .LVU59
 180              	.LBB16:
 181              	.LBI16:
 182              		.loc 2 52 23 view .LVU60
 183              	.LBB17:
 184              		.loc 2 53 3 view .LVU61
 185              		.loc 2 55 3 view .LVU62
 186              		.loc 2 55 20 is_stmt 0 view .LVU63
 187 002c 002093E5 		ldr	r2, [r3]
 188              	.LBE17:
 189              	.LBE16:
 190              		.loc 1 117 5 view .LVU64
 191 0030 0300A0E1 		mov	r0, r3
 192              	.LBB19:
 193              	.LBB18:
 194              		.loc 2 55 16 view .LVU65
 195 0034 002084E5 		str	r2, [r4]
 196              		.loc 2 55 38 view .LVU66
 197 0038 044082E5 		str	r4, [r2, #4]
 198              		.loc 2 56 3 is_stmt 1 view .LVU67
 199              	.LVL10:
 200              		.loc 2 56 3 is_stmt 0 view .LVU68
 201              	.LBE18:
 202              	.LBE19:
 203              		.loc 1 117 5 view .LVU69
 204 003c FEFFFFEB 		bl	chSchReadyI
 205              	.LVL11:
 206              		.loc 1 116 10 view .LVU70
 207 0040 003094E5 		ldr	r3, [r4]
 208              		.loc 1 117 59 view .LVU71
 209 0044 145080E5 		str	r5, [r0, #20]
 210              		.loc 1 116 9 view .LVU72
 211 0048 040053E1 		cmp	r3, r4
 212 004c F6FFFF1A 		bne	.L10
 213 0050 3080BDE8 		pop	{r4, r5, pc}
 214              		.cfi_endproc
 215              	.LFE9:
 216              		.size	chIQResetI, .-chIQResetI
 217              		.section	.text.chIQPutI,"ax",%progbits
 218              		.align	2
 219              		.global	chIQPutI
 220              		.syntax unified
 221              		.arm
 222              		.fpu softvfp
 223              		.type	chIQPutI, %function
 224              	chIQPutI:
 225              	.LVL12:
 226              	.LFB10:
 227              		.loc 1 133 44 is_stmt 1 view -0
 228              		.cfi_startproc
ARM GAS  /var/folders/l5/0x54b2c10074c8bt31ycjvl80000gp/T//ccvkVa4l.s 			page 5


 229              		@ args = 0, pretend = 0, frame = 0
 230              		@ frame_needed = 0, uses_anonymous_args = 0
 231              		.loc 1 135 3 view .LVU74
 232              		.loc 1 135 21 view .LVU75
 233              		.loc 1 137 3 view .LVU76
 234              		.loc 1 137 6 is_stmt 0 view .LVU77
 235 0000 183090E5 		ldr	r3, [r0, #24]
 236              		.loc 1 137 7 view .LVU78
 237 0004 142090E5 		ldr	r2, [r0, #20]
 238              		.loc 1 133 44 view .LVU79
 239 0008 7110EFE6 		uxtb	r1, r1
 240              		.loc 1 137 6 view .LVU80
 241 000c 030052E1 		cmp	r2, r3
 242 0010 083090E5 		ldr	r3, [r0, #8]
 243 0014 1900000A 		beq	.L26
 244              	.L17:
 245              		.loc 1 140 3 is_stmt 1 view .LVU81
 246              		.loc 1 140 17 is_stmt 0 view .LVU82
 247 0018 013083E2 		add	r3, r3, #1
 248              		.loc 1 141 16 view .LVU83
 249 001c 01C082E2 		add	ip, r2, #1
 250 0020 14C080E5 		str	ip, [r0, #20]
 251              		.loc 1 140 17 view .LVU84
 252 0024 083080E5 		str	r3, [r0, #8]
 253              		.loc 1 141 3 is_stmt 1 view .LVU85
 254              		.loc 1 141 19 is_stmt 0 view .LVU86
 255 0028 0010C2E5 		strb	r1, [r2]
 256              		.loc 1 142 3 is_stmt 1 view .LVU87
 257              		.loc 1 142 6 is_stmt 0 view .LVU88
 258 002c 142090E5 		ldr	r2, [r0, #20]
 259 0030 103090E5 		ldr	r3, [r0, #16]
 260 0034 030052E1 		cmp	r2, r3
 261              		.loc 1 143 5 is_stmt 1 view .LVU89
 262              		.loc 1 143 18 is_stmt 0 view .LVU90
 263 0038 0C309025 		ldrcs	r3, [r0, #12]
 264              		.loc 1 145 7 view .LVU91
 265 003c 002090E5 		ldr	r2, [r0]
 266              		.loc 1 143 18 view .LVU92
 267 0040 14308025 		strcs	r3, [r0, #20]
 268              		.loc 1 145 3 is_stmt 1 view .LVU93
 269              		.loc 1 145 6 is_stmt 0 view .LVU94
 270 0044 000052E1 		cmp	r2, r0
 271 0048 0A00000A 		beq	.L21
 272 004c 0030A0E1 		mov	r3, r0
 273              		.loc 1 146 5 is_stmt 1 view .LVU95
 274              	.LVL13:
 275              	.LBB20:
 276              	.LBI20:
 277              		.loc 2 52 23 view .LVU96
 278              	.LBB21:
 279              		.loc 2 53 3 view .LVU97
 280              		.loc 2 55 3 view .LVU98
 281              		.loc 2 55 20 is_stmt 0 view .LVU99
 282 0050 001092E5 		ldr	r1, [r2]
 283              	.LVL14:
 284              		.loc 2 55 20 view .LVU100
 285              	.LBE21:
ARM GAS  /var/folders/l5/0x54b2c10074c8bt31ycjvl80000gp/T//ccvkVa4l.s 			page 6


 286              	.LBE20:
 287              		.loc 1 133 44 view .LVU101
 288 0054 04E02DE5 		str	lr, [sp, #-4]!
 289              		.cfi_def_cfa_offset 4
 290              		.cfi_offset 14, -4
 291              		.loc 1 146 5 view .LVU102
 292 0058 0200A0E1 		mov	r0, r2
 293              	.LVL15:
 294              	.LBB23:
 295              	.LBB22:
 296              		.loc 2 55 16 view .LVU103
 297 005c 001083E5 		str	r1, [r3]
 298              		.loc 2 55 38 view .LVU104
 299 0060 043081E5 		str	r3, [r1, #4]
 300              		.loc 2 56 3 is_stmt 1 view .LVU105
 301              	.LVL16:
 302              		.loc 2 56 3 is_stmt 0 view .LVU106
 303              	.LBE22:
 304              	.LBE23:
 305              		.loc 1 146 5 view .LVU107
 306 0064 FEFFFFEB 		bl	chSchReadyI
 307              	.LVL17:
 308              		.loc 1 146 59 view .LVU108
 309 0068 0030A0E3 		mov	r3, #0
 310 006c 143080E5 		str	r3, [r0, #20]
 311              		.loc 1 148 10 view .LVU109
 312 0070 0300A0E1 		mov	r0, r3
 313              		.loc 1 149 1 view .LVU110
 314 0074 04F09DE4 		ldr	pc, [sp], #4
 315              	.LVL18:
 316              	.L21:
 317              		.cfi_def_cfa_offset 0
 318              		.cfi_restore 14
 319              		.loc 1 148 10 view .LVU111
 320 0078 0000A0E3 		mov	r0, #0
 321              	.LVL19:
 322              		.loc 1 149 1 view .LVU112
 323 007c 1EFF2FE1 		bx	lr
 324              	.LVL20:
 325              	.L26:
 326              		.loc 1 137 7 discriminator 1 view .LVU113
 327 0080 000053E3 		cmp	r3, #0
 328 0084 E3FFFF0A 		beq	.L17
 329              		.loc 1 138 12 view .LVU114
 330 0088 0300E0E3 		mvn	r0, #3
 331              	.LVL21:
 332              		.loc 1 138 12 view .LVU115
 333 008c 1EFF2FE1 		bx	lr
 334              		.cfi_endproc
 335              	.LFE10:
 336              		.size	chIQPutI, .-chIQPutI
 337              		.section	.text.chIQGetTimeout,"ax",%progbits
 338              		.align	2
 339              		.global	chIQGetTimeout
 340              		.syntax unified
 341              		.arm
 342              		.fpu softvfp
ARM GAS  /var/folders/l5/0x54b2c10074c8bt31ycjvl80000gp/T//ccvkVa4l.s 			page 7


 343              		.type	chIQGetTimeout, %function
 344              	chIQGetTimeout:
 345              	.LVL22:
 346              	.LFB11:
 347              		.loc 1 171 55 is_stmt 1 view -0
 348              		.cfi_startproc
 349              		@ args = 0, pretend = 0, frame = 0
 350              		@ frame_needed = 0, uses_anonymous_args = 0
 351              		.loc 1 172 3 view .LVU117
 352              		.loc 1 174 3 view .LVU118
 353              		.loc 1 171 55 is_stmt 0 view .LVU119
 354 0000 30402DE9 		push	{r4, r5, lr}
 355              		.cfi_def_cfa_offset 12
 356              		.cfi_offset 4, -12
 357              		.cfi_offset 5, -8
 358              		.cfi_offset 14, -4
 359              		.loc 1 171 55 view .LVU120
 360 0004 0150A0E1 		mov	r5, r1
 361 0008 0040A0E1 		mov	r4, r0
 362              		.loc 1 174 3 view .LVU121
 363              		.syntax divided
 364              	@ 174 "../../../os/kernel/src/chqueues.c" 1
 365 000c 9FF021E3 		msr     CPSR_c, #0x9F
 366              	@ 0 "" 2
 367              		.loc 1 174 3 is_stmt 1 view .LVU122
 368              		.loc 1 174 14 view .LVU123
 369              		.loc 1 175 3 view .LVU124
 370              		.loc 1 175 10 is_stmt 0 view .LVU125
 371              		.arm
 372              		.syntax unified
 373 0010 1C3090E5 		ldr	r3, [r0, #28]
 374              		.loc 1 175 6 view .LVU126
 375 0014 000053E3 		cmp	r3, #0
 376 0018 0600000A 		beq	.L29
 377              		.loc 1 176 5 is_stmt 1 view .LVU127
 378 001c 33FF2FE1 		blx	r3
 379              	.LVL23:
 380              		.loc 1 176 5 is_stmt 0 view .LVU128
 381 0020 040000EA 		b	.L29
 382              	.L31:
 383              	.LBB24:
 384              		.loc 1 180 16 view .LVU129
 385 0024 0510A0E1 		mov	r1, r5
 386 0028 0400A0E1 		mov	r0, r4
 387 002c FEFFFFEB 		bl	qwait
 388              	.LVL24:
 389              		.loc 1 180 8 view .LVU130
 390 0030 000050E3 		cmp	r0, #0
 391              		.loc 1 180 8 view .LVU131
 392 0034 0C0000BA 		blt	.L32
 393              	.LVL25:
 394              	.L29:
 395              		.loc 1 179 5 is_stmt 1 view .LVU132
 396              		.loc 1 180 5 view .LVU133
 397              	.LBE24:
 398              		.loc 1 178 10 is_stmt 0 view .LVU134
 399 0038 083094E5 		ldr	r3, [r4, #8]
ARM GAS  /var/folders/l5/0x54b2c10074c8bt31ycjvl80000gp/T//ccvkVa4l.s 			page 8


 400              		.loc 1 178 9 view .LVU135
 401 003c 000053E3 		cmp	r3, #0
 402 0040 F7FFFF0A 		beq	.L31
 403              		.loc 1 186 3 is_stmt 1 view .LVU136
 404              		.loc 1 187 11 is_stmt 0 view .LVU137
 405 0044 182094E5 		ldr	r2, [r4, #24]
 406              		.loc 1 188 6 view .LVU138
 407 0048 100094E5 		ldr	r0, [r4, #16]
 408              		.loc 1 187 20 view .LVU139
 409 004c 011082E2 		add	r1, r2, #1
 410              		.loc 1 186 17 view .LVU140
 411 0050 013043E2 		sub	r3, r3, #1
 412              		.loc 1 188 6 view .LVU141
 413 0054 000051E1 		cmp	r1, r0
 414              		.loc 1 186 17 view .LVU142
 415 0058 083084E5 		str	r3, [r4, #8]
 416              		.loc 1 187 3 is_stmt 1 view .LVU143
 417              		.loc 1 189 18 is_stmt 0 view .LVU144
 418 005c 0C309425 		ldrcs	r3, [r4, #12]
 419              		.loc 1 187 20 view .LVU145
 420 0060 181084E5 		str	r1, [r4, #24]
 421              		.loc 1 187 5 view .LVU146
 422 0064 0000D2E5 		ldrb	r0, [r2]	@ zero_extendqisi2
 423              	.LVL26:
 424              		.loc 1 188 3 is_stmt 1 view .LVU147
 425              		.loc 1 189 5 view .LVU148
 426              		.loc 1 189 18 is_stmt 0 view .LVU149
 427 0068 18308425 		strcs	r3, [r4, #24]
 428              	.LVL27:
 429              	.L32:
 430              		.loc 1 191 3 is_stmt 1 view .LVU150
 431              		.loc 1 191 3 view .LVU151
 432              		.syntax divided
 433              	@ 191 "../../../os/kernel/src/chqueues.c" 1
 434 006c 1FF021E3 		msr     CPSR_c, #0x1F
 435              	@ 0 "" 2
 436              		.loc 1 191 16 view .LVU152
 437              		.loc 1 192 3 view .LVU153
 438              		.loc 1 193 1 is_stmt 0 view .LVU154
 439              		.arm
 440              		.syntax unified
 441 0070 3080BDE8 		pop	{r4, r5, pc}
 442              		.cfi_endproc
 443              	.LFE11:
 444              		.size	chIQGetTimeout, .-chIQGetTimeout
 445              		.section	.text.chIQReadTimeout,"ax",%progbits
 446              		.align	2
 447              		.global	chIQReadTimeout
 448              		.syntax unified
 449              		.arm
 450              		.fpu softvfp
 451              		.type	chIQReadTimeout, %function
 452              	chIQReadTimeout:
 453              	.LVL28:
 454              	.LFB12:
 455              		.loc 1 220 50 is_stmt 1 view -0
 456              		.cfi_startproc
ARM GAS  /var/folders/l5/0x54b2c10074c8bt31ycjvl80000gp/T//ccvkVa4l.s 			page 9


 457              		@ args = 0, pretend = 0, frame = 0
 458              		@ frame_needed = 0, uses_anonymous_args = 0
 459              		.loc 1 221 3 view .LVU156
 460              		.loc 1 220 50 is_stmt 0 view .LVU157
 461 0000 F0432DE9 		push	{r4, r5, r6, r7, r8, r9, lr}
 462              		.cfi_def_cfa_offset 28
 463              		.cfi_offset 4, -28
 464              		.cfi_offset 5, -24
 465              		.cfi_offset 6, -20
 466              		.cfi_offset 7, -16
 467              		.cfi_offset 8, -12
 468              		.cfi_offset 9, -8
 469              		.cfi_offset 14, -4
 470              		.loc 1 220 50 view .LVU158
 471 0004 0040A0E1 		mov	r4, r0
 472 0008 0180A0E1 		mov	r8, r1
 473 000c 0290A0E1 		mov	r9, r2
 474 0010 0350A0E1 		mov	r5, r3
 475              		.loc 1 221 13 view .LVU159
 476 0014 1C7090E5 		ldr	r7, [r0, #28]
 477              	.LVL29:
 478              		.loc 1 222 3 is_stmt 1 view .LVU160
 479              		.loc 1 224 3 view .LVU161
 480              		.loc 1 224 39 view .LVU162
 481              		.loc 1 226 3 view .LVU163
 482              		.syntax divided
 483              	@ 226 "../../../os/kernel/src/chqueues.c" 1
 484 0018 9FF021E3 		msr     CPSR_c, #0x9F
 485              	@ 0 "" 2
 486              		.loc 1 222 10 is_stmt 0 view .LVU164
 487              		.arm
 488              		.syntax unified
 489 001c 0060A0E3 		mov	r6, #0
 490              	.LVL30:
 491              	.L44:
 492              		.loc 1 226 3 is_stmt 1 discriminator 1 view .LVU165
 493              		.loc 1 226 14 discriminator 1 view .LVU166
 494              		.loc 1 227 3 discriminator 1 view .LVU167
 495              		.loc 1 228 5 discriminator 1 view .LVU168
 496              		.loc 1 228 8 is_stmt 0 discriminator 1 view .LVU169
 497 0020 000057E3 		cmp	r7, #0
 498 0024 0700000A 		beq	.L40
 499              		.loc 1 229 7 is_stmt 1 view .LVU170
 500 0028 0400A0E1 		mov	r0, r4
 501 002c 37FF2FE1 		blx	r7
 502              	.LVL31:
 503 0030 040000EA 		b	.L40
 504              	.L42:
 505              		.loc 1 232 11 is_stmt 0 view .LVU171
 506 0034 0510A0E1 		mov	r1, r5
 507 0038 0400A0E1 		mov	r0, r4
 508 003c FEFFFFEB 		bl	qwait
 509              	.LVL32:
 510              		.loc 1 232 10 view .LVU172
 511 0040 000050E3 		cmp	r0, #0
 512 0044 1400001A 		bne	.L51
 513              	.L40:
ARM GAS  /var/folders/l5/0x54b2c10074c8bt31ycjvl80000gp/T//ccvkVa4l.s 			page 10


 514              		.loc 1 232 7 is_stmt 1 view .LVU173
 515              		.loc 1 231 12 is_stmt 0 view .LVU174
 516 0048 083094E5 		ldr	r3, [r4, #8]
 517              		.loc 1 231 11 view .LVU175
 518 004c 000053E3 		cmp	r3, #0
 519 0050 F7FFFF0A 		beq	.L42
 520              		.loc 1 238 5 is_stmt 1 view .LVU176
 521              		.loc 1 239 17 is_stmt 0 view .LVU177
 522 0054 182094E5 		ldr	r2, [r4, #24]
 523              		.loc 1 238 19 view .LVU178
 524 0058 013043E2 		sub	r3, r3, #1
 525              		.loc 1 239 26 view .LVU179
 526 005c 011082E2 		add	r1, r2, #1
 527 0060 181084E5 		str	r1, [r4, #24]
 528              		.loc 1 238 19 view .LVU180
 529 0064 083084E5 		str	r3, [r4, #8]
 530              		.loc 1 239 5 is_stmt 1 view .LVU181
 531              		.loc 1 239 13 is_stmt 0 view .LVU182
 532 0068 0030D2E5 		ldrb	r3, [r2]	@ zero_extendqisi2
 533              		.loc 1 239 11 view .LVU183
 534 006c 0130C8E4 		strb	r3, [r8], #1
 535              	.LVL33:
 536              		.loc 1 240 5 is_stmt 1 view .LVU184
 537              		.loc 1 240 8 is_stmt 0 view .LVU185
 538 0070 103094E5 		ldr	r3, [r4, #16]
 539 0074 182094E5 		ldr	r2, [r4, #24]
 540 0078 030052E1 		cmp	r2, r3
 541              		.loc 1 241 7 is_stmt 1 view .LVU186
 542              		.loc 1 241 20 is_stmt 0 view .LVU187
 543 007c 0C309425 		ldrcs	r3, [r4, #12]
 544 0080 18308425 		strcs	r3, [r4, #24]
 545              		.loc 1 243 5 is_stmt 1 view .LVU188
 546              		.loc 1 243 5 view .LVU189
 547              		.syntax divided
 548              	@ 243 "../../../os/kernel/src/chqueues.c" 1
 549 0084 1FF021E3 		msr     CPSR_c, #0x1F
 550              	@ 0 "" 2
 551              		.loc 1 243 18 view .LVU190
 552              		.loc 1 244 5 view .LVU191
 553              		.loc 1 244 6 is_stmt 0 view .LVU192
 554              		.arm
 555              		.syntax unified
 556 0088 016086E2 		add	r6, r6, #1
 557              	.LVL34:
 558              		.loc 1 245 5 is_stmt 1 view .LVU193
 559              		.loc 1 245 8 is_stmt 0 view .LVU194
 560 008c 060059E1 		cmp	r9, r6
 561 0090 0200000A 		beq	.L38
 562              		.loc 1 248 5 is_stmt 1 view .LVU195
 563              		.syntax divided
 564              	@ 248 "../../../os/kernel/src/chqueues.c" 1
 565 0094 9FF021E3 		msr     CPSR_c, #0x9F
 566              	@ 0 "" 2
 567              		.loc 1 248 5 view .LVU196
 568              		.loc 1 248 16 view .LVU197
 569              		.loc 1 228 8 is_stmt 0 view .LVU198
 570              		.arm
ARM GAS  /var/folders/l5/0x54b2c10074c8bt31ycjvl80000gp/T//ccvkVa4l.s 			page 11


 571              		.syntax unified
 572 0098 E0FFFFEA 		b	.L44
 573              	.LVL35:
 574              	.L51:
 575              		.loc 1 233 9 is_stmt 1 view .LVU199
 576              		.loc 1 233 9 view .LVU200
 577              		.syntax divided
 578              	@ 233 "../../../os/kernel/src/chqueues.c" 1
 579 009c 1FF021E3 		msr     CPSR_c, #0x1F
 580              	@ 0 "" 2
 581              		.loc 1 233 22 view .LVU201
 582              		.loc 1 234 9 view .LVU202
 583              	.LVL36:
 584              		.arm
 585              		.syntax unified
 586              	.L38:
 587              		.loc 1 250 1 is_stmt 0 view .LVU203
 588 00a0 0600A0E1 		mov	r0, r6
 589 00a4 F083BDE8 		pop	{r4, r5, r6, r7, r8, r9, pc}
 590              		.cfi_endproc
 591              	.LFE12:
 592              		.size	chIQReadTimeout, .-chIQReadTimeout
 593              		.section	.text.chOQInit,"ax",%progbits
 594              		.align	2
 595              		.global	chOQInit
 596              		.syntax unified
 597              		.arm
 598              		.fpu softvfp
 599              		.type	chOQInit, %function
 600              	chOQInit:
 601              	.LVL37:
 602              	.LFB13:
 603              		.loc 1 269 27 is_stmt 1 view -0
 604              		.cfi_startproc
 605              		@ args = 4, pretend = 0, frame = 0
 606              		@ frame_needed = 0, uses_anonymous_args = 0
 607              		.loc 1 271 3 view .LVU205
 608              		.loc 1 269 27 is_stmt 0 view .LVU206
 609 0000 04E02DE5 		str	lr, [sp, #-4]!
 610              		.cfi_def_cfa_offset 4
 611              		.cfi_offset 14, -4
 612              		.loc 1 269 27 view .LVU207
 613 0004 04C09DE5 		ldr	ip, [sp, #4]
 614              		.loc 1 274 19 view .LVU208
 615 0008 02E081E0 		add	lr, r1, r2
 616              		.loc 1 271 3 view .LVU209
 617 000c 040080E5 		str	r0, [r0, #4]
 618 0010 000080E5 		str	r0, [r0]
 619              		.loc 1 271 30 is_stmt 1 view .LVU210
 620              		.loc 1 272 3 view .LVU211
 621              		.loc 1 272 18 is_stmt 0 view .LVU212
 622 0014 082080E5 		str	r2, [r0, #8]
 623              		.loc 1 273 3 is_stmt 1 view .LVU213
 624              		.loc 1 274 14 is_stmt 0 view .LVU214
 625 0018 10E080E5 		str	lr, [r0, #16]
 626              		.loc 1 273 47 view .LVU215
 627 001c 141080E5 		str	r1, [r0, #20]
ARM GAS  /var/folders/l5/0x54b2c10074c8bt31ycjvl80000gp/T//ccvkVa4l.s 			page 12


 628              		.loc 1 273 32 view .LVU216
 629 0020 181080E5 		str	r1, [r0, #24]
 630              		.loc 1 273 17 view .LVU217
 631 0024 0C1080E5 		str	r1, [r0, #12]
 632              		.loc 1 274 3 is_stmt 1 view .LVU218
 633              		.loc 1 275 3 view .LVU219
 634              		.loc 1 275 17 is_stmt 0 view .LVU220
 635 0028 1C3080E5 		str	r3, [r0, #28]
 636              		.loc 1 276 3 is_stmt 1 view .LVU221
 637              		.loc 1 276 15 is_stmt 0 view .LVU222
 638 002c 20C080E5 		str	ip, [r0, #32]
 639              		.loc 1 277 1 view .LVU223
 640 0030 04F09DE4 		ldr	pc, [sp], #4
 641              		.cfi_endproc
 642              	.LFE13:
 643              		.size	chOQInit, .-chOQInit
 644              		.section	.text.chOQResetI,"ax",%progbits
 645              		.align	2
 646              		.global	chOQResetI
 647              		.syntax unified
 648              		.arm
 649              		.fpu softvfp
 650              		.type	chOQResetI, %function
 651              	chOQResetI:
 652              	.LVL38:
 653              	.LFB14:
 654              		.loc 1 290 35 is_stmt 1 view -0
 655              		.cfi_startproc
 656              		@ args = 0, pretend = 0, frame = 0
 657              		@ frame_needed = 0, uses_anonymous_args = 0
 658              		.loc 1 292 3 view .LVU225
 659              		.loc 1 292 21 view .LVU226
 660              		.loc 1 294 3 view .LVU227
 661              		.loc 1 294 36 is_stmt 0 view .LVU228
 662 0000 0C1090E5 		ldr	r1, [r0, #12]
 663              		.loc 1 295 20 view .LVU229
 664 0004 102090E5 		ldr	r2, [r0, #16]
 665              		.loc 1 296 10 view .LVU230
 666 0008 003090E5 		ldr	r3, [r0]
 667              		.loc 1 295 20 view .LVU231
 668 000c 012042E0 		sub	r2, r2, r1
 669              		.loc 1 296 9 view .LVU232
 670 0010 030050E1 		cmp	r0, r3
 671              		.loc 1 294 31 view .LVU233
 672 0014 141080E5 		str	r1, [r0, #20]
 673              		.loc 1 294 16 view .LVU234
 674 0018 181080E5 		str	r1, [r0, #24]
 675              		.loc 1 295 3 is_stmt 1 view .LVU235
 676              		.loc 1 295 18 is_stmt 0 view .LVU236
 677 001c 082080E5 		str	r2, [r0, #8]
 678              		.loc 1 296 3 is_stmt 1 view .LVU237
 679              		.loc 1 296 9 is_stmt 0 view .LVU238
 680 0020 1EFF2F01 		bxeq	lr
 681              		.loc 1 290 35 view .LVU239
 682 0024 30402DE9 		push	{r4, r5, lr}
 683              		.cfi_def_cfa_offset 12
 684              		.cfi_offset 4, -12
ARM GAS  /var/folders/l5/0x54b2c10074c8bt31ycjvl80000gp/T//ccvkVa4l.s 			page 13


 685              		.cfi_offset 5, -8
 686              		.cfi_offset 14, -4
 687 0028 0040A0E1 		mov	r4, r0
 688              		.loc 1 297 59 view .LVU240
 689 002c 0150E0E3 		mvn	r5, #1
 690              	.LVL39:
 691              	.L56:
 692              		.loc 1 297 5 is_stmt 1 view .LVU241
 693              	.LBB25:
 694              	.LBI25:
 695              		.loc 2 52 23 view .LVU242
 696              	.LBB26:
 697              		.loc 2 53 3 view .LVU243
 698              		.loc 2 55 3 view .LVU244
 699              		.loc 2 55 20 is_stmt 0 view .LVU245
 700 0030 002093E5 		ldr	r2, [r3]
 701              	.LBE26:
 702              	.LBE25:
 703              		.loc 1 297 5 view .LVU246
 704 0034 0300A0E1 		mov	r0, r3
 705              	.LBB28:
 706              	.LBB27:
 707              		.loc 2 55 16 view .LVU247
 708 0038 002084E5 		str	r2, [r4]
 709              		.loc 2 55 38 view .LVU248
 710 003c 044082E5 		str	r4, [r2, #4]
 711              		.loc 2 56 3 is_stmt 1 view .LVU249
 712              	.LVL40:
 713              		.loc 2 56 3 is_stmt 0 view .LVU250
 714              	.LBE27:
 715              	.LBE28:
 716              		.loc 1 297 5 view .LVU251
 717 0040 FEFFFFEB 		bl	chSchReadyI
 718              	.LVL41:
 719              		.loc 1 296 10 view .LVU252
 720 0044 003094E5 		ldr	r3, [r4]
 721              		.loc 1 297 59 view .LVU253
 722 0048 145080E5 		str	r5, [r0, #20]
 723              		.loc 1 296 9 view .LVU254
 724 004c 040053E1 		cmp	r3, r4
 725 0050 F6FFFF1A 		bne	.L56
 726 0054 3080BDE8 		pop	{r4, r5, pc}
 727              		.cfi_endproc
 728              	.LFE14:
 729              		.size	chOQResetI, .-chOQResetI
 730              		.section	.text.chOQPutTimeout,"ax",%progbits
 731              		.align	2
 732              		.global	chOQPutTimeout
 733              		.syntax unified
 734              		.arm
 735              		.fpu softvfp
 736              		.type	chOQPutTimeout, %function
 737              	chOQPutTimeout:
 738              	.LVL42:
 739              	.LFB15:
 740              		.loc 1 322 67 is_stmt 1 view -0
 741              		.cfi_startproc
ARM GAS  /var/folders/l5/0x54b2c10074c8bt31ycjvl80000gp/T//ccvkVa4l.s 			page 14


 742              		@ args = 0, pretend = 0, frame = 0
 743              		@ frame_needed = 0, uses_anonymous_args = 0
 744              		.loc 1 324 3 view .LVU256
 745              		.loc 1 322 67 is_stmt 0 view .LVU257
 746 0000 70402DE9 		push	{r4, r5, r6, lr}
 747              		.cfi_def_cfa_offset 16
 748              		.cfi_offset 4, -16
 749              		.cfi_offset 5, -12
 750              		.cfi_offset 6, -8
 751              		.cfi_offset 14, -4
 752              		.loc 1 322 67 view .LVU258
 753 0004 0040A0E1 		mov	r4, r0
 754 0008 0250A0E1 		mov	r5, r2
 755 000c 7160EFE6 		uxtb	r6, r1
 756              		.loc 1 324 3 view .LVU259
 757              		.syntax divided
 758              	@ 324 "../../../os/kernel/src/chqueues.c" 1
 759 0010 9FF021E3 		msr     CPSR_c, #0x9F
 760              	@ 0 "" 2
 761              		.loc 1 324 3 is_stmt 1 view .LVU260
 762              		.loc 1 324 14 view .LVU261
 763              		.loc 1 325 3 view .LVU262
 764              		.loc 1 325 9 is_stmt 0 view .LVU263
 765              		.arm
 766              		.syntax unified
 767 0014 040000EA 		b	.L63
 768              	.LVL43:
 769              	.L65:
 770              	.LBB29:
 771              		.loc 1 328 16 view .LVU264
 772 0018 0510A0E1 		mov	r1, r5
 773 001c 0400A0E1 		mov	r0, r4
 774 0020 FEFFFFEB 		bl	qwait
 775              	.LVL44:
 776              		.loc 1 328 8 view .LVU265
 777 0024 000050E3 		cmp	r0, #0
 778              		.loc 1 328 8 view .LVU266
 779 0028 150000BA 		blt	.L73
 780              	.LVL45:
 781              	.L63:
 782              		.loc 1 326 5 is_stmt 1 view .LVU267
 783              		.loc 1 328 5 view .LVU268
 784              	.LBE29:
 785              		.loc 1 325 10 is_stmt 0 view .LVU269
 786 002c 083094E5 		ldr	r3, [r4, #8]
 787              		.loc 1 325 9 view .LVU270
 788 0030 000053E3 		cmp	r3, #0
 789 0034 F7FFFF0A 		beq	.L65
 790              		.loc 1 334 3 is_stmt 1 view .LVU271
 791              		.loc 1 335 7 is_stmt 0 view .LVU272
 792 0038 142094E5 		ldr	r2, [r4, #20]
 793              		.loc 1 334 17 view .LVU273
 794 003c 013043E2 		sub	r3, r3, #1
 795              		.loc 1 335 16 view .LVU274
 796 0040 011082E2 		add	r1, r2, #1
 797 0044 141084E5 		str	r1, [r4, #20]
 798              		.loc 1 334 17 view .LVU275
ARM GAS  /var/folders/l5/0x54b2c10074c8bt31ycjvl80000gp/T//ccvkVa4l.s 			page 15


 799 0048 083084E5 		str	r3, [r4, #8]
 800              		.loc 1 335 3 is_stmt 1 view .LVU276
 801              		.loc 1 335 19 is_stmt 0 view .LVU277
 802 004c 0060C2E5 		strb	r6, [r2]
 803              		.loc 1 336 3 is_stmt 1 view .LVU278
 804              		.loc 1 336 6 is_stmt 0 view .LVU279
 805 0050 103094E5 		ldr	r3, [r4, #16]
 806 0054 142094E5 		ldr	r2, [r4, #20]
 807 0058 030052E1 		cmp	r2, r3
 808              		.loc 1 337 5 is_stmt 1 view .LVU280
 809              		.loc 1 337 18 is_stmt 0 view .LVU281
 810 005c 0C309425 		ldrcs	r3, [r4, #12]
 811 0060 14308425 		strcs	r3, [r4, #20]
 812              		.loc 1 339 3 is_stmt 1 view .LVU282
 813              		.loc 1 339 10 is_stmt 0 view .LVU283
 814 0064 1C3094E5 		ldr	r3, [r4, #28]
 815              		.loc 1 339 6 view .LVU284
 816 0068 000053E3 		cmp	r3, #0
 817 006c 0100000A 		beq	.L67
 818              		.loc 1 340 5 is_stmt 1 view .LVU285
 819 0070 0400A0E1 		mov	r0, r4
 820 0074 33FF2FE1 		blx	r3
 821              	.LVL46:
 822              	.L67:
 823              		.loc 1 342 3 view .LVU286
 824              		.loc 1 342 3 view .LVU287
 825              		.syntax divided
 826              	@ 342 "../../../os/kernel/src/chqueues.c" 1
 827 0078 1FF021E3 		msr     CPSR_c, #0x1F
 828              	@ 0 "" 2
 829              		.loc 1 342 16 view .LVU288
 830              		.loc 1 343 3 view .LVU289
 831              		.loc 1 343 10 is_stmt 0 view .LVU290
 832              		.arm
 833              		.syntax unified
 834 007c 0000A0E3 		mov	r0, #0
 835              		.loc 1 344 1 view .LVU291
 836 0080 7080BDE8 		pop	{r4, r5, r6, pc}
 837              	.LVL47:
 838              	.L73:
 839              	.LBB30:
 840              		.loc 1 329 7 is_stmt 1 view .LVU292
 841              		.loc 1 329 7 view .LVU293
 842              		.syntax divided
 843              	@ 329 "../../../os/kernel/src/chqueues.c" 1
 844 0084 1FF021E3 		msr     CPSR_c, #0x1F
 845              	@ 0 "" 2
 846              		.loc 1 329 20 view .LVU294
 847              		.loc 1 330 7 view .LVU295
 848              		.loc 1 330 14 is_stmt 0 view .LVU296
 849              		.arm
 850              		.syntax unified
 851 0088 7080BDE8 		pop	{r4, r5, r6, pc}
 852              	.LBE30:
 853              		.cfi_endproc
 854              	.LFE15:
 855              		.size	chOQPutTimeout, .-chOQPutTimeout
ARM GAS  /var/folders/l5/0x54b2c10074c8bt31ycjvl80000gp/T//ccvkVa4l.s 			page 16


 856              		.section	.text.chOQGetI,"ax",%progbits
 857              		.align	2
 858              		.global	chOQGetI
 859              		.syntax unified
 860              		.arm
 861              		.fpu softvfp
 862              		.type	chOQGetI, %function
 863              	chOQGetI:
 864              	.LVL48:
 865              	.LFB16:
 866              		.loc 1 356 34 is_stmt 1 view -0
 867              		.cfi_startproc
 868              		@ args = 0, pretend = 0, frame = 0
 869              		@ frame_needed = 0, uses_anonymous_args = 0
 870              		.loc 1 357 3 view .LVU298
 871              		.loc 1 359 3 view .LVU299
 872              		.loc 1 359 21 view .LVU300
 873              		.loc 1 361 3 view .LVU301
 874              		.loc 1 361 7 is_stmt 0 view .LVU302
 875 0000 182090E5 		ldr	r2, [r0, #24]
 876              		.loc 1 361 6 view .LVU303
 877 0004 141090E5 		ldr	r1, [r0, #20]
 878 0008 083090E5 		ldr	r3, [r0, #8]
 879 000c 020051E1 		cmp	r1, r2
 880 0010 1600000A 		beq	.L83
 881              	.L75:
 882              		.loc 1 364 3 is_stmt 1 view .LVU304
 883              		.loc 1 356 34 is_stmt 0 view .LVU305
 884 0014 10402DE9 		push	{r4, lr}
 885              		.cfi_def_cfa_offset 8
 886              		.cfi_offset 4, -8
 887              		.cfi_offset 14, -4
 888              		.loc 1 366 6 view .LVU306
 889 0018 10C090E5 		ldr	ip, [r0, #16]
 890              		.loc 1 364 17 view .LVU307
 891 001c 013083E2 		add	r3, r3, #1
 892              		.loc 1 365 20 view .LVU308
 893 0020 011082E2 		add	r1, r2, #1
 894              		.loc 1 366 6 view .LVU309
 895 0024 0C0051E1 		cmp	r1, ip
 896              		.loc 1 364 17 view .LVU310
 897 0028 083080E5 		str	r3, [r0, #8]
 898              		.loc 1 365 3 is_stmt 1 view .LVU311
 899              		.loc 1 365 20 is_stmt 0 view .LVU312
 900 002c 181080E5 		str	r1, [r0, #24]
 901              		.loc 1 365 5 view .LVU313
 902 0030 0040D2E5 		ldrb	r4, [r2]	@ zero_extendqisi2
 903              	.LVL49:
 904              		.loc 1 366 3 is_stmt 1 view .LVU314
 905              		.loc 1 367 5 view .LVU315
 906              		.loc 1 367 18 is_stmt 0 view .LVU316
 907 0034 0C309025 		ldrcs	r3, [r0, #12]
 908              		.loc 1 369 7 view .LVU317
 909 0038 002090E5 		ldr	r2, [r0]
 910              		.loc 1 367 18 view .LVU318
 911 003c 18308025 		strcs	r3, [r0, #24]
 912              		.loc 1 369 3 is_stmt 1 view .LVU319
ARM GAS  /var/folders/l5/0x54b2c10074c8bt31ycjvl80000gp/T//ccvkVa4l.s 			page 17


 913              		.loc 1 369 6 is_stmt 0 view .LVU320
 914 0040 000052E1 		cmp	r2, r0
 915 0044 0700000A 		beq	.L78
 916 0048 0030A0E1 		mov	r3, r0
 917              		.loc 1 370 5 is_stmt 1 view .LVU321
 918              	.LVL50:
 919              	.LBB31:
 920              	.LBI31:
 921              		.loc 2 52 23 view .LVU322
 922              	.LBB32:
 923              		.loc 2 53 3 view .LVU323
 924              		.loc 2 55 3 view .LVU324
 925              		.loc 2 55 20 is_stmt 0 view .LVU325
 926 004c 001092E5 		ldr	r1, [r2]
 927              	.LBE32:
 928              	.LBE31:
 929              		.loc 1 370 5 view .LVU326
 930 0050 0200A0E1 		mov	r0, r2
 931              	.LVL51:
 932              	.LBB34:
 933              	.LBB33:
 934              		.loc 2 55 16 view .LVU327
 935 0054 001083E5 		str	r1, [r3]
 936              		.loc 2 55 38 view .LVU328
 937 0058 043081E5 		str	r3, [r1, #4]
 938              		.loc 2 56 3 is_stmt 1 view .LVU329
 939              	.LVL52:
 940              		.loc 2 56 3 is_stmt 0 view .LVU330
 941              	.LBE33:
 942              	.LBE34:
 943              		.loc 1 370 5 view .LVU331
 944 005c FEFFFFEB 		bl	chSchReadyI
 945              	.LVL53:
 946              		.loc 1 370 59 view .LVU332
 947 0060 0030A0E3 		mov	r3, #0
 948 0064 143080E5 		str	r3, [r0, #20]
 949              	.L78:
 950              		.loc 1 372 3 is_stmt 1 view .LVU333
 951              		.loc 1 372 10 is_stmt 0 view .LVU334
 952 0068 0400A0E1 		mov	r0, r4
 953              		.loc 1 373 1 view .LVU335
 954 006c 1080BDE8 		pop	{r4, pc}
 955              	.LVL54:
 956              	.L83:
 957              		.cfi_def_cfa_offset 0
 958              		.cfi_restore 4
 959              		.cfi_restore 14
 960              		.loc 1 361 7 discriminator 1 view .LVU336
 961 0070 000053E3 		cmp	r3, #0
 962 0074 E6FFFF0A 		beq	.L75
 963              		.loc 1 362 12 view .LVU337
 964 0078 0200E0E3 		mvn	r0, #2
 965              	.LVL55:
 966              		.loc 1 373 1 view .LVU338
 967 007c 1EFF2FE1 		bx	lr
 968              		.cfi_endproc
 969              	.LFE16:
ARM GAS  /var/folders/l5/0x54b2c10074c8bt31ycjvl80000gp/T//ccvkVa4l.s 			page 18


 970              		.size	chOQGetI, .-chOQGetI
 971              		.section	.text.chOQWriteTimeout,"ax",%progbits
 972              		.align	2
 973              		.global	chOQWriteTimeout
 974              		.syntax unified
 975              		.arm
 976              		.fpu softvfp
 977              		.type	chOQWriteTimeout, %function
 978              	chOQWriteTimeout:
 979              	.LVL56:
 980              	.LFB17:
 981              		.loc 1 400 51 is_stmt 1 view -0
 982              		.cfi_startproc
 983              		@ args = 0, pretend = 0, frame = 0
 984              		@ frame_needed = 0, uses_anonymous_args = 0
 985              		.loc 1 401 3 view .LVU340
 986              		.loc 1 400 51 is_stmt 0 view .LVU341
 987 0000 F0432DE9 		push	{r4, r5, r6, r7, r8, r9, lr}
 988              		.cfi_def_cfa_offset 28
 989              		.cfi_offset 4, -28
 990              		.cfi_offset 5, -24
 991              		.cfi_offset 6, -20
 992              		.cfi_offset 7, -16
 993              		.cfi_offset 8, -12
 994              		.cfi_offset 9, -8
 995              		.cfi_offset 14, -4
 996              		.loc 1 400 51 view .LVU342
 997 0004 0040A0E1 		mov	r4, r0
 998 0008 0150A0E1 		mov	r5, r1
 999 000c 0260A0E1 		mov	r6, r2
 1000 0010 0390A0E1 		mov	r9, r3
 1001              		.loc 1 401 13 view .LVU343
 1002 0014 1C8090E5 		ldr	r8, [r0, #28]
 1003              	.LVL57:
 1004              		.loc 1 402 3 is_stmt 1 view .LVU344
 1005              		.loc 1 404 3 view .LVU345
 1006              		.loc 1 404 40 view .LVU346
 1007              		.loc 1 406 3 view .LVU347
 1008              		.syntax divided
 1009              	@ 406 "../../../os/kernel/src/chqueues.c" 1
 1010 0018 9FF021E3 		msr     CPSR_c, #0x9F
 1011              	@ 0 "" 2
 1012              		.loc 1 402 10 is_stmt 0 view .LVU348
 1013              		.arm
 1014              		.syntax unified
 1015 001c 0070A0E3 		mov	r7, #0
 1016              	.LVL58:
 1017              	.L85:
 1018              		.loc 1 414 5 is_stmt 1 view .LVU349
 1019              		.loc 1 419 5 view .LVU350
 1020              		.loc 1 420 7 view .LVU351
 1021              		.loc 1 408 12 is_stmt 0 view .LVU352
 1022 0020 083094E5 		ldr	r3, [r4, #8]
 1023              		.loc 1 408 11 view .LVU353
 1024 0024 000053E3 		cmp	r3, #0
 1025              		.loc 1 414 19 view .LVU354
 1026 0028 012043E2 		sub	r2, r3, #1
ARM GAS  /var/folders/l5/0x54b2c10074c8bt31ycjvl80000gp/T//ccvkVa4l.s 			page 19


 1027              		.loc 1 408 11 view .LVU355
 1028 002c 1700000A 		beq	.L88
 1029              	.L101:
 1030              		.loc 1 417 7 is_stmt 1 view .LVU356
 1031              		.loc 1 415 9 is_stmt 0 view .LVU357
 1032 0030 143094E5 		ldr	r3, [r4, #20]
 1033              		.loc 1 414 19 view .LVU358
 1034 0034 082084E5 		str	r2, [r4, #8]
 1035              		.loc 1 415 5 is_stmt 1 view .LVU359
 1036              		.loc 1 415 18 is_stmt 0 view .LVU360
 1037 0038 012083E2 		add	r2, r3, #1
 1038 003c 142084E5 		str	r2, [r4, #20]
 1039              		.loc 1 415 23 view .LVU361
 1040 0040 0120D5E4 		ldrb	r2, [r5], #1	@ zero_extendqisi2
 1041              	.LVL59:
 1042              		.loc 1 415 21 view .LVU362
 1043 0044 0020C3E5 		strb	r2, [r3]
 1044              		.loc 1 416 5 is_stmt 1 view .LVU363
 1045              		.loc 1 416 8 is_stmt 0 view .LVU364
 1046 0048 103094E5 		ldr	r3, [r4, #16]
 1047 004c 142094E5 		ldr	r2, [r4, #20]
 1048 0050 030052E1 		cmp	r2, r3
 1049              		.loc 1 417 20 view .LVU365
 1050 0054 0C309425 		ldrcs	r3, [r4, #12]
 1051 0058 14308425 		strcs	r3, [r4, #20]
 1052              		.loc 1 419 8 view .LVU366
 1053 005c 000058E3 		cmp	r8, #0
 1054 0060 0100000A 		beq	.L90
 1055              		.loc 1 420 7 view .LVU367
 1056 0064 0400A0E1 		mov	r0, r4
 1057 0068 38FF2FE1 		blx	r8
 1058              	.LVL60:
 1059              	.L90:
 1060              		.loc 1 422 5 is_stmt 1 view .LVU368
 1061              		.loc 1 422 5 view .LVU369
 1062              		.syntax divided
 1063              	@ 422 "../../../os/kernel/src/chqueues.c" 1
 1064 006c 1FF021E3 		msr     CPSR_c, #0x1F
 1065              	@ 0 "" 2
 1066              		.loc 1 422 18 view .LVU370
 1067              		.loc 1 423 5 view .LVU371
 1068              		.loc 1 426 5 view .LVU372
 1069              		.loc 1 424 8 is_stmt 0 view .LVU373
 1070              		.arm
 1071              		.syntax unified
 1072 0070 016056E2 		subs	r6, r6, #1
 1073              	.LVL61:
 1074              		.loc 1 423 6 view .LVU374
 1075 0074 017087E2 		add	r7, r7, #1
 1076              	.LVL62:
 1077              		.loc 1 424 5 is_stmt 1 view .LVU375
 1078              		.loc 1 424 8 is_stmt 0 view .LVU376
 1079 0078 0A00000A 		beq	.L84
 1080              		.loc 1 426 5 view .LVU377
 1081              		.syntax divided
 1082              	@ 426 "../../../os/kernel/src/chqueues.c" 1
 1083 007c 9FF021E3 		msr     CPSR_c, #0x9F
ARM GAS  /var/folders/l5/0x54b2c10074c8bt31ycjvl80000gp/T//ccvkVa4l.s 			page 20


 1084              	@ 0 "" 2
 1085              		.loc 1 426 5 is_stmt 1 view .LVU378
 1086              		.loc 1 426 16 view .LVU379
 1087              	.LVL63:
 1088              		.loc 1 414 5 view .LVU380
 1089              		.loc 1 419 5 view .LVU381
 1090              		.loc 1 420 7 view .LVU382
 1091              		.loc 1 408 12 is_stmt 0 view .LVU383
 1092              		.arm
 1093              		.syntax unified
 1094 0080 083094E5 		ldr	r3, [r4, #8]
 1095              		.loc 1 408 11 view .LVU384
 1096 0084 000053E3 		cmp	r3, #0
 1097              		.loc 1 414 19 view .LVU385
 1098 0088 012043E2 		sub	r2, r3, #1
 1099              		.loc 1 408 11 view .LVU386
 1100 008c E7FFFF1A 		bne	.L101
 1101              	.L88:
 1102              		.loc 1 409 7 is_stmt 1 view .LVU387
 1103              		.loc 1 409 11 is_stmt 0 view .LVU388
 1104 0090 0910A0E1 		mov	r1, r9
 1105 0094 0400A0E1 		mov	r0, r4
 1106 0098 FEFFFFEB 		bl	qwait
 1107              	.LVL64:
 1108              		.loc 1 409 10 view .LVU389
 1109 009c 000050E3 		cmp	r0, #0
 1110 00a0 DEFFFF0A 		beq	.L85
 1111              		.loc 1 410 9 is_stmt 1 view .LVU390
 1112              		.loc 1 410 9 view .LVU391
 1113              		.syntax divided
 1114              	@ 410 "../../../os/kernel/src/chqueues.c" 1
 1115 00a4 1FF021E3 		msr     CPSR_c, #0x1F
 1116              	@ 0 "" 2
 1117              		.loc 1 410 22 view .LVU392
 1118              		.loc 1 411 9 view .LVU393
 1119              	.LVL65:
 1120              		.arm
 1121              		.syntax unified
 1122              	.L84:
 1123              		.loc 1 428 1 is_stmt 0 view .LVU394
 1124 00a8 0700A0E1 		mov	r0, r7
 1125 00ac F083BDE8 		pop	{r4, r5, r6, r7, r8, r9, pc}
 1126              		.cfi_endproc
 1127              	.LFE17:
 1128              		.size	chOQWriteTimeout, .-chOQWriteTimeout
 1129              		.text
 1130              	.Letext0:
 1131              		.file 3 "/usr/local/Cellar/arm-gcc-bin/8-2019-q3-update/lib/gcc/arm-none-eabi/8.3.1/include/stddef
 1132              		.file 4 "/usr/local/Cellar/arm-gcc-bin/8-2019-q3-update/arm-none-eabi/include/machine/_default_typ
 1133              		.file 5 "/usr/local/Cellar/arm-gcc-bin/8-2019-q3-update/arm-none-eabi/include/sys/_stdint.h"
 1134              		.file 6 "../../../os/ports/GCC/ARM/chtypes.h"
 1135              		.file 7 "../../../os/kernel/include/chlists.h"
 1136              		.file 8 "../../../os/kernel/include/chthreads.h"
 1137              		.file 9 "../../../os/ports/GCC/ARM/chcore.h"
 1138              		.file 10 "../../../os/kernel/include/chvt.h"
 1139              		.file 11 "../../../os/kernel/include/chschd.h"
 1140              		.file 12 "../../../os/kernel/include/chmtx.h"
ARM GAS  /var/folders/l5/0x54b2c10074c8bt31ycjvl80000gp/T//ccvkVa4l.s 			page 21


 1141              		.file 13 "../../../os/kernel/include/chqueues.h"
 1142              		.file 14 "../../../os/kernel/include/ch.h"
 1143              		.section	.debug_info,"",%progbits
 1144              	.Ldebug_info0:
 1145 0000 CB0B0000 		.4byte	0xbcb
 1146 0004 0400     		.2byte	0x4
 1147 0006 00000000 		.4byte	.Ldebug_abbrev0
 1148 000a 04       		.byte	0x4
 1149 000b 01       		.uleb128 0x1
 1150 000c 82010000 		.4byte	.LASF96
 1151 0010 0C       		.byte	0xc
 1152 0011 72040000 		.4byte	.LASF97
 1153 0015 DD000000 		.4byte	.LASF98
 1154 0019 90000000 		.4byte	.Ldebug_ranges0+0x90
 1155 001d 00000000 		.4byte	0
 1156 0021 00000000 		.4byte	.Ldebug_line0
 1157 0025 02       		.uleb128 0x2
 1158 0026 04       		.byte	0x4
 1159 0027 05       		.byte	0x5
 1160 0028 CB000000 		.4byte	.LASF0
 1161 002c 03       		.uleb128 0x3
 1162 002d 14000000 		.4byte	.LASF3
 1163 0031 03       		.byte	0x3
 1164 0032 D8       		.byte	0xd8
 1165 0033 17       		.byte	0x17
 1166 0034 38000000 		.4byte	0x38
 1167 0038 02       		.uleb128 0x2
 1168 0039 04       		.byte	0x4
 1169 003a 07       		.byte	0x7
 1170 003b 81020000 		.4byte	.LASF1
 1171 003f 02       		.uleb128 0x2
 1172 0040 01       		.byte	0x1
 1173 0041 06       		.byte	0x6
 1174 0042 A0000000 		.4byte	.LASF2
 1175 0046 03       		.uleb128 0x3
 1176 0047 37000000 		.4byte	.LASF4
 1177 004b 04       		.byte	0x4
 1178 004c 2B       		.byte	0x2b
 1179 004d 18       		.byte	0x18
 1180 004e 52000000 		.4byte	0x52
 1181 0052 02       		.uleb128 0x2
 1182 0053 01       		.byte	0x1
 1183 0054 08       		.byte	0x8
 1184 0055 8D030000 		.4byte	.LASF5
 1185 0059 02       		.uleb128 0x2
 1186 005a 02       		.byte	0x2
 1187 005b 05       		.byte	0x5
 1188 005c A5030000 		.4byte	.LASF6
 1189 0060 02       		.uleb128 0x2
 1190 0061 02       		.byte	0x2
 1191 0062 07       		.byte	0x7
 1192 0063 A1020000 		.4byte	.LASF7
 1193 0067 03       		.uleb128 0x3
 1194 0068 47040000 		.4byte	.LASF8
 1195 006c 04       		.byte	0x4
 1196 006d 4D       		.byte	0x4d
 1197 006e 18       		.byte	0x18
ARM GAS  /var/folders/l5/0x54b2c10074c8bt31ycjvl80000gp/T//ccvkVa4l.s 			page 22


 1198 006f 25000000 		.4byte	0x25
 1199 0073 03       		.uleb128 0x3
 1200 0074 61010000 		.4byte	.LASF9
 1201 0078 04       		.byte	0x4
 1202 0079 4F       		.byte	0x4f
 1203 007a 19       		.byte	0x19
 1204 007b 38000000 		.4byte	0x38
 1205 007f 02       		.uleb128 0x2
 1206 0080 08       		.byte	0x8
 1207 0081 05       		.byte	0x5
 1208 0082 92000000 		.4byte	.LASF10
 1209 0086 02       		.uleb128 0x2
 1210 0087 08       		.byte	0x8
 1211 0088 07       		.byte	0x7
 1212 0089 58000000 		.4byte	.LASF11
 1213 008d 03       		.uleb128 0x3
 1214 008e B3040000 		.4byte	.LASF12
 1215 0092 05       		.byte	0x5
 1216 0093 18       		.byte	0x18
 1217 0094 13       		.byte	0x13
 1218 0095 46000000 		.4byte	0x46
 1219 0099 04       		.uleb128 0x4
 1220 009a 8D000000 		.4byte	0x8d
 1221 009e 03       		.uleb128 0x3
 1222 009f 85030000 		.4byte	.LASF13
 1223 00a3 05       		.byte	0x5
 1224 00a4 2C       		.byte	0x2c
 1225 00a5 13       		.byte	0x13
 1226 00a6 67000000 		.4byte	0x67
 1227 00aa 03       		.uleb128 0x3
 1228 00ab F5030000 		.4byte	.LASF14
 1229 00af 05       		.byte	0x5
 1230 00b0 30       		.byte	0x30
 1231 00b1 14       		.byte	0x14
 1232 00b2 73000000 		.4byte	0x73
 1233 00b6 05       		.uleb128 0x5
 1234 00b7 04       		.byte	0x4
 1235 00b8 05       		.byte	0x5
 1236 00b9 696E7400 		.ascii	"int\000"
 1237 00bd 02       		.uleb128 0x2
 1238 00be 04       		.byte	0x4
 1239 00bf 07       		.byte	0x7
 1240 00c0 61020000 		.4byte	.LASF15
 1241 00c4 03       		.uleb128 0x3
 1242 00c5 AC000000 		.4byte	.LASF16
 1243 00c9 06       		.byte	0x6
 1244 00ca 29       		.byte	0x29
 1245 00cb 19       		.byte	0x19
 1246 00cc 9E000000 		.4byte	0x9e
 1247 00d0 03       		.uleb128 0x3
 1248 00d1 C7020000 		.4byte	.LASF17
 1249 00d5 06       		.byte	0x6
 1250 00d6 2A       		.byte	0x2a
 1251 00d7 19       		.byte	0x19
 1252 00d8 8D000000 		.4byte	0x8d
 1253 00dc 03       		.uleb128 0x3
 1254 00dd D4000000 		.4byte	.LASF18
ARM GAS  /var/folders/l5/0x54b2c10074c8bt31ycjvl80000gp/T//ccvkVa4l.s 			page 23


 1255 00e1 06       		.byte	0x6
 1256 00e2 2B       		.byte	0x2b
 1257 00e3 19       		.byte	0x19
 1258 00e4 8D000000 		.4byte	0x8d
 1259 00e8 03       		.uleb128 0x3
 1260 00e9 BB000000 		.4byte	.LASF19
 1261 00ed 06       		.byte	0x6
 1262 00ee 2D       		.byte	0x2d
 1263 00ef 19       		.byte	0x19
 1264 00f0 8D000000 		.4byte	0x8d
 1265 00f4 03       		.uleb128 0x3
 1266 00f5 75030000 		.4byte	.LASF20
 1267 00f9 06       		.byte	0x6
 1268 00fa 2E       		.byte	0x2e
 1269 00fb 19       		.byte	0x19
 1270 00fc AA000000 		.4byte	0xaa
 1271 0100 03       		.uleb128 0x3
 1272 0101 B4020000 		.4byte	.LASF21
 1273 0105 06       		.byte	0x6
 1274 0106 2F       		.byte	0x2f
 1275 0107 19       		.byte	0x19
 1276 0108 9E000000 		.4byte	0x9e
 1277 010c 03       		.uleb128 0x3
 1278 010d DB020000 		.4byte	.LASF22
 1279 0111 06       		.byte	0x6
 1280 0112 31       		.byte	0x31
 1281 0113 19       		.byte	0x19
 1282 0114 AA000000 		.4byte	0xaa
 1283 0118 03       		.uleb128 0x3
 1284 0119 32040000 		.4byte	.LASF23
 1285 011d 06       		.byte	0x6
 1286 011e 33       		.byte	0x33
 1287 011f 19       		.byte	0x19
 1288 0120 AA000000 		.4byte	0xaa
 1289 0124 06       		.uleb128 0x6
 1290 0125 18010000 		.4byte	0x118
 1291 0129 03       		.uleb128 0x3
 1292 012a E3030000 		.4byte	.LASF24
 1293 012e 07       		.byte	0x7
 1294 012f 23       		.byte	0x23
 1295 0130 17       		.byte	0x17
 1296 0131 35010000 		.4byte	0x135
 1297 0135 07       		.uleb128 0x7
 1298 0136 E3030000 		.4byte	.LASF24
 1299 013a 28       		.byte	0x28
 1300 013b 08       		.byte	0x8
 1301 013c 57       		.byte	0x57
 1302 013d 08       		.byte	0x8
 1303 013e DF010000 		.4byte	0x1df
 1304 0142 08       		.uleb128 0x8
 1305 0143 CF030000 		.4byte	.LASF25
 1306 0147 08       		.byte	0x8
 1307 0148 58       		.byte	0x58
 1308 0149 1A       		.byte	0x1a
 1309 014a 03020000 		.4byte	0x203
 1310 014e 00       		.byte	0
 1311 014f 08       		.uleb128 0x8
ARM GAS  /var/folders/l5/0x54b2c10074c8bt31ycjvl80000gp/T//ccvkVa4l.s 			page 24


 1312 0150 6E030000 		.4byte	.LASF26
 1313 0154 08       		.byte	0x8
 1314 0155 5A       		.byte	0x5a
 1315 0156 1A       		.byte	0x1a
 1316 0157 03020000 		.4byte	0x203
 1317 015b 04       		.byte	0x4
 1318 015c 08       		.uleb128 0x8
 1319 015d 81000000 		.4byte	.LASF27
 1320 0161 08       		.byte	0x8
 1321 0162 5C       		.byte	0x5c
 1322 0163 19       		.byte	0x19
 1323 0164 F4000000 		.4byte	0xf4
 1324 0168 08       		.byte	0x8
 1325 0169 08       		.uleb128 0x8
 1326 016a F1040000 		.4byte	.LASF28
 1327 016e 08       		.byte	0x8
 1328 016f 5D       		.byte	0x5d
 1329 0170 19       		.byte	0x19
 1330 0171 CE020000 		.4byte	0x2ce
 1331 0175 0C       		.byte	0xc
 1332 0176 08       		.uleb128 0x8
 1333 0177 AF030000 		.4byte	.LASF29
 1334 017b 08       		.byte	0x8
 1335 017c 72       		.byte	0x72
 1336 017d 19       		.byte	0x19
 1337 017e DC000000 		.4byte	0xdc
 1338 0182 10       		.byte	0x10
 1339 0183 08       		.uleb128 0x8
 1340 0184 DB030000 		.4byte	.LASF30
 1341 0188 08       		.byte	0x8
 1342 0189 76       		.byte	0x76
 1343 018a 19       		.byte	0x19
 1344 018b D0000000 		.4byte	0xd0
 1345 018f 11       		.byte	0x11
 1346 0190 08       		.uleb128 0x8
 1347 0191 B7030000 		.4byte	.LASF31
 1348 0195 08       		.byte	0x8
 1349 0196 81       		.byte	0x81
 1350 0197 19       		.byte	0x19
 1351 0198 E8000000 		.4byte	0xe8
 1352 019c 12       		.byte	0x12
 1353 019d 09       		.uleb128 0x9
 1354 019e 705F7500 		.ascii	"p_u\000"
 1355 01a2 08       		.byte	0x8
 1356 01a3 AD       		.byte	0xad
 1357 01a4 19       		.byte	0x19
 1358 01a5 60040000 		.4byte	0x460
 1359 01a9 14       		.byte	0x14
 1360 01aa 08       		.uleb128 0x8
 1361 01ab F7040000 		.4byte	.LASF32
 1362 01af 08       		.byte	0x8
 1363 01b0 B2       		.byte	0xb2
 1364 01b1 19       		.byte	0x19
 1365 01b2 2C020000 		.4byte	0x22c
 1366 01b6 18       		.byte	0x18
 1367 01b7 08       		.uleb128 0x8
 1368 01b8 EA030000 		.4byte	.LASF33
ARM GAS  /var/folders/l5/0x54b2c10074c8bt31ycjvl80000gp/T//ccvkVa4l.s 			page 25


 1369 01bc 08       		.byte	0x8
 1370 01bd C2       		.byte	0xc2
 1371 01be 19       		.byte	0x19
 1372 01bf 0C010000 		.4byte	0x10c
 1373 01c3 1C       		.byte	0x1c
 1374 01c4 08       		.uleb128 0x8
 1375 01c5 9B030000 		.4byte	.LASF34
 1376 01c9 08       		.byte	0x8
 1377 01ca C9       		.byte	0xc9
 1378 01cb 1A       		.byte	0x1a
 1379 01cc 9A040000 		.4byte	0x49a
 1380 01d0 20       		.byte	0x20
 1381 01d1 08       		.uleb128 0x8
 1382 01d2 3C040000 		.4byte	.LASF35
 1383 01d6 08       		.byte	0x8
 1384 01d7 CD       		.byte	0xcd
 1385 01d8 19       		.byte	0x19
 1386 01d9 F4000000 		.4byte	0xf4
 1387 01dd 24       		.byte	0x24
 1388 01de 00       		.byte	0
 1389 01df 0A       		.uleb128 0xa
 1390 01e0 08       		.byte	0x8
 1391 01e1 07       		.byte	0x7
 1392 01e2 5A       		.byte	0x5a
 1393 01e3 09       		.byte	0x9
 1394 01e4 03020000 		.4byte	0x203
 1395 01e8 08       		.uleb128 0x8
 1396 01e9 CF030000 		.4byte	.LASF25
 1397 01ed 07       		.byte	0x7
 1398 01ee 5B       		.byte	0x5b
 1399 01ef 1A       		.byte	0x1a
 1400 01f0 03020000 		.4byte	0x203
 1401 01f4 00       		.byte	0
 1402 01f5 08       		.uleb128 0x8
 1403 01f6 6E030000 		.4byte	.LASF26
 1404 01fa 07       		.byte	0x7
 1405 01fb 5D       		.byte	0x5d
 1406 01fc 1A       		.byte	0x1a
 1407 01fd 03020000 		.4byte	0x203
 1408 0201 04       		.byte	0x4
 1409 0202 00       		.byte	0
 1410 0203 0B       		.uleb128 0xb
 1411 0204 04       		.byte	0x4
 1412 0205 29010000 		.4byte	0x129
 1413 0209 03       		.uleb128 0x3
 1414 020a 48030000 		.4byte	.LASF36
 1415 020e 07       		.byte	0x7
 1416 020f 5F       		.byte	0x5f
 1417 0210 03       		.byte	0x3
 1418 0211 DF010000 		.4byte	0x1df
 1419 0215 0A       		.uleb128 0xa
 1420 0216 04       		.byte	0x4
 1421 0217 07       		.byte	0x7
 1422 0218 64       		.byte	0x64
 1423 0219 09       		.byte	0x9
 1424 021a 2C020000 		.4byte	0x22c
 1425 021e 08       		.uleb128 0x8
ARM GAS  /var/folders/l5/0x54b2c10074c8bt31ycjvl80000gp/T//ccvkVa4l.s 			page 26


 1426 021f CF030000 		.4byte	.LASF25
 1427 0223 07       		.byte	0x7
 1428 0224 66       		.byte	0x66
 1429 0225 16       		.byte	0x16
 1430 0226 03020000 		.4byte	0x203
 1431 022a 00       		.byte	0
 1432 022b 00       		.byte	0
 1433 022c 03       		.uleb128 0x3
 1434 022d CF020000 		.4byte	.LASF37
 1435 0231 07       		.byte	0x7
 1436 0232 69       		.byte	0x69
 1437 0233 03       		.byte	0x3
 1438 0234 15020000 		.4byte	0x215
 1439 0238 03       		.uleb128 0x3
 1440 0239 05030000 		.4byte	.LASF38
 1441 023d 09       		.byte	0x9
 1442 023e 9D       		.byte	0x9d
 1443 023f 12       		.byte	0x12
 1444 0240 AA000000 		.4byte	0xaa
 1445 0244 03       		.uleb128 0x3
 1446 0245 6C010000 		.4byte	.LASF39
 1447 0249 09       		.byte	0x9
 1448 024a A2       		.byte	0xa2
 1449 024b 0F       		.byte	0xf
 1450 024c 50020000 		.4byte	0x250
 1451 0250 0C       		.uleb128 0xc
 1452 0251 04       		.byte	0x4
 1453 0252 07       		.uleb128 0x7
 1454 0253 64040000 		.4byte	.LASF40
 1455 0257 24       		.byte	0x24
 1456 0258 09       		.byte	0x9
 1457 0259 B9       		.byte	0xb9
 1458 025a 08       		.byte	0x8
 1459 025b CE020000 		.4byte	0x2ce
 1460 025f 09       		.uleb128 0x9
 1461 0260 723400   		.ascii	"r4\000"
 1462 0263 09       		.byte	0x9
 1463 0264 BA       		.byte	0xba
 1464 0265 11       		.byte	0x11
 1465 0266 44020000 		.4byte	0x244
 1466 026a 00       		.byte	0
 1467 026b 09       		.uleb128 0x9
 1468 026c 723500   		.ascii	"r5\000"
 1469 026f 09       		.byte	0x9
 1470 0270 BB       		.byte	0xbb
 1471 0271 11       		.byte	0x11
 1472 0272 44020000 		.4byte	0x244
 1473 0276 04       		.byte	0x4
 1474 0277 09       		.uleb128 0x9
 1475 0278 723600   		.ascii	"r6\000"
 1476 027b 09       		.byte	0x9
 1477 027c BC       		.byte	0xbc
 1478 027d 11       		.byte	0x11
 1479 027e 44020000 		.4byte	0x244
 1480 0282 08       		.byte	0x8
 1481 0283 09       		.uleb128 0x9
 1482 0284 723700   		.ascii	"r7\000"
ARM GAS  /var/folders/l5/0x54b2c10074c8bt31ycjvl80000gp/T//ccvkVa4l.s 			page 27


 1483 0287 09       		.byte	0x9
 1484 0288 BD       		.byte	0xbd
 1485 0289 11       		.byte	0x11
 1486 028a 44020000 		.4byte	0x244
 1487 028e 0C       		.byte	0xc
 1488 028f 09       		.uleb128 0x9
 1489 0290 723800   		.ascii	"r8\000"
 1490 0293 09       		.byte	0x9
 1491 0294 BE       		.byte	0xbe
 1492 0295 11       		.byte	0x11
 1493 0296 44020000 		.4byte	0x244
 1494 029a 10       		.byte	0x10
 1495 029b 09       		.uleb128 0x9
 1496 029c 723900   		.ascii	"r9\000"
 1497 029f 09       		.byte	0x9
 1498 02a0 BF       		.byte	0xbf
 1499 02a1 11       		.byte	0x11
 1500 02a2 44020000 		.4byte	0x244
 1501 02a6 14       		.byte	0x14
 1502 02a7 09       		.uleb128 0x9
 1503 02a8 72313000 		.ascii	"r10\000"
 1504 02ac 09       		.byte	0x9
 1505 02ad C0       		.byte	0xc0
 1506 02ae 11       		.byte	0x11
 1507 02af 44020000 		.4byte	0x244
 1508 02b3 18       		.byte	0x18
 1509 02b4 09       		.uleb128 0x9
 1510 02b5 72313100 		.ascii	"r11\000"
 1511 02b9 09       		.byte	0x9
 1512 02ba C1       		.byte	0xc1
 1513 02bb 11       		.byte	0x11
 1514 02bc 44020000 		.4byte	0x244
 1515 02c0 1C       		.byte	0x1c
 1516 02c1 09       		.uleb128 0x9
 1517 02c2 6C7200   		.ascii	"lr\000"
 1518 02c5 09       		.byte	0x9
 1519 02c6 C2       		.byte	0xc2
 1520 02c7 11       		.byte	0x11
 1521 02c8 44020000 		.4byte	0x244
 1522 02cc 20       		.byte	0x20
 1523 02cd 00       		.byte	0
 1524 02ce 07       		.uleb128 0x7
 1525 02cf 5C040000 		.4byte	.LASF41
 1526 02d3 04       		.byte	0x4
 1527 02d4 09       		.byte	0x9
 1528 02d5 CA       		.byte	0xca
 1529 02d6 08       		.byte	0x8
 1530 02d7 E9020000 		.4byte	0x2e9
 1531 02db 09       		.uleb128 0x9
 1532 02dc 72313300 		.ascii	"r13\000"
 1533 02e0 09       		.byte	0x9
 1534 02e1 CB       		.byte	0xcb
 1535 02e2 12       		.byte	0x12
 1536 02e3 E9020000 		.4byte	0x2e9
 1537 02e7 00       		.byte	0
 1538 02e8 00       		.byte	0
 1539 02e9 0B       		.uleb128 0xb
ARM GAS  /var/folders/l5/0x54b2c10074c8bt31ycjvl80000gp/T//ccvkVa4l.s 			page 28


 1540 02ea 04       		.byte	0x4
 1541 02eb 52020000 		.4byte	0x252
 1542 02ef 03       		.uleb128 0x3
 1543 02f0 93020000 		.4byte	.LASF42
 1544 02f4 0A       		.byte	0xa
 1545 02f5 4E       		.byte	0x4e
 1546 02f6 10       		.byte	0x10
 1547 02f7 FB020000 		.4byte	0x2fb
 1548 02fb 0B       		.uleb128 0xb
 1549 02fc 04       		.byte	0x4
 1550 02fd 01030000 		.4byte	0x301
 1551 0301 0D       		.uleb128 0xd
 1552 0302 0C030000 		.4byte	0x30c
 1553 0306 0E       		.uleb128 0xe
 1554 0307 50020000 		.4byte	0x250
 1555 030b 00       		.byte	0
 1556 030c 03       		.uleb128 0x3
 1557 030d 06040000 		.4byte	.LASF43
 1558 0311 0A       		.byte	0xa
 1559 0312 53       		.byte	0x53
 1560 0313 1D       		.byte	0x1d
 1561 0314 18030000 		.4byte	0x318
 1562 0318 07       		.uleb128 0x7
 1563 0319 06040000 		.4byte	.LASF43
 1564 031d 14       		.byte	0x14
 1565 031e 0A       		.byte	0xa
 1566 031f 5A       		.byte	0x5a
 1567 0320 08       		.byte	0x8
 1568 0321 67030000 		.4byte	0x367
 1569 0325 08       		.uleb128 0x8
 1570 0326 6E020000 		.4byte	.LASF44
 1571 032a 0A       		.byte	0xa
 1572 032b 5B       		.byte	0x5b
 1573 032c 1A       		.byte	0x1a
 1574 032d 67030000 		.4byte	0x367
 1575 0331 00       		.byte	0
 1576 0332 08       		.uleb128 0x8
 1577 0333 75010000 		.4byte	.LASF45
 1578 0337 0A       		.byte	0xa
 1579 0338 5D       		.byte	0x5d
 1580 0339 1A       		.byte	0x1a
 1581 033a 67030000 		.4byte	0x367
 1582 033e 04       		.byte	0x4
 1583 033f 08       		.uleb128 0x8
 1584 0340 21030000 		.4byte	.LASF46
 1585 0344 0A       		.byte	0xa
 1586 0345 5F       		.byte	0x5f
 1587 0346 19       		.byte	0x19
 1588 0347 18010000 		.4byte	0x118
 1589 034b 08       		.byte	0x8
 1590 034c 08       		.uleb128 0x8
 1591 034d 33030000 		.4byte	.LASF47
 1592 0351 0A       		.byte	0xa
 1593 0352 60       		.byte	0x60
 1594 0353 19       		.byte	0x19
 1595 0354 EF020000 		.4byte	0x2ef
 1596 0358 0C       		.byte	0xc
ARM GAS  /var/folders/l5/0x54b2c10074c8bt31ycjvl80000gp/T//ccvkVa4l.s 			page 29


 1597 0359 08       		.uleb128 0x8
 1598 035a 6B040000 		.4byte	.LASF48
 1599 035e 0A       		.byte	0xa
 1600 035f 62       		.byte	0x62
 1601 0360 1A       		.byte	0x1a
 1602 0361 50020000 		.4byte	0x250
 1603 0365 10       		.byte	0x10
 1604 0366 00       		.byte	0
 1605 0367 0B       		.uleb128 0xb
 1606 0368 04       		.byte	0x4
 1607 0369 0C030000 		.4byte	0x30c
 1608 036d 0A       		.uleb128 0xa
 1609 036e 10       		.byte	0x10
 1610 036f 0A       		.byte	0xa
 1611 0370 6C       		.byte	0x6c
 1612 0371 09       		.byte	0x9
 1613 0372 AB030000 		.4byte	0x3ab
 1614 0376 08       		.uleb128 0x8
 1615 0377 6E020000 		.4byte	.LASF44
 1616 037b 0A       		.byte	0xa
 1617 037c 6D       		.byte	0x6d
 1618 037d 1A       		.byte	0x1a
 1619 037e 67030000 		.4byte	0x367
 1620 0382 00       		.byte	0
 1621 0383 08       		.uleb128 0x8
 1622 0384 75010000 		.4byte	.LASF45
 1623 0388 0A       		.byte	0xa
 1624 0389 6F       		.byte	0x6f
 1625 038a 1A       		.byte	0x1a
 1626 038b 67030000 		.4byte	0x367
 1627 038f 04       		.byte	0x4
 1628 0390 08       		.uleb128 0x8
 1629 0391 21030000 		.4byte	.LASF46
 1630 0395 0A       		.byte	0xa
 1631 0396 71       		.byte	0x71
 1632 0397 19       		.byte	0x19
 1633 0398 18010000 		.4byte	0x118
 1634 039c 08       		.byte	0x8
 1635 039d 08       		.uleb128 0x8
 1636 039e C2040000 		.4byte	.LASF49
 1637 03a2 0A       		.byte	0xa
 1638 03a3 72       		.byte	0x72
 1639 03a4 19       		.byte	0x19
 1640 03a5 24010000 		.4byte	0x124
 1641 03a9 0C       		.byte	0xc
 1642 03aa 00       		.byte	0
 1643 03ab 03       		.uleb128 0x3
 1644 03ac 3B030000 		.4byte	.LASF50
 1645 03b0 0A       		.byte	0xa
 1646 03b1 73       		.byte	0x73
 1647 03b2 03       		.byte	0x3
 1648 03b3 6D030000 		.4byte	0x36d
 1649 03b7 0F       		.uleb128 0xf
 1650 03b8 41000000 		.4byte	.LASF56
 1651 03bc 0A       		.byte	0xa
 1652 03bd D1       		.byte	0xd1
 1653 03be 0F       		.byte	0xf
ARM GAS  /var/folders/l5/0x54b2c10074c8bt31ycjvl80000gp/T//ccvkVa4l.s 			page 30


 1654 03bf AB030000 		.4byte	0x3ab
 1655 03c3 0A       		.uleb128 0xa
 1656 03c4 14       		.byte	0x14
 1657 03c5 0B       		.byte	0xb
 1658 03c6 57       		.byte	0x57
 1659 03c7 09       		.byte	0x9
 1660 03c8 01040000 		.4byte	0x401
 1661 03cc 08       		.uleb128 0x8
 1662 03cd FE030000 		.4byte	.LASF51
 1663 03d1 0B       		.byte	0xb
 1664 03d2 58       		.byte	0x58
 1665 03d3 19       		.byte	0x19
 1666 03d4 09020000 		.4byte	0x209
 1667 03d8 00       		.byte	0
 1668 03d9 08       		.uleb128 0x8
 1669 03da C1030000 		.4byte	.LASF52
 1670 03de 0B       		.byte	0xb
 1671 03df 59       		.byte	0x59
 1672 03e0 19       		.byte	0x19
 1673 03e1 F4000000 		.4byte	0xf4
 1674 03e5 08       		.byte	0x8
 1675 03e6 08       		.uleb128 0x8
 1676 03e7 42030000 		.4byte	.LASF53
 1677 03eb 0B       		.byte	0xb
 1678 03ec 5B       		.byte	0x5b
 1679 03ed 19       		.byte	0x19
 1680 03ee CE020000 		.4byte	0x2ce
 1681 03f2 0C       		.byte	0xc
 1682 03f3 08       		.uleb128 0x8
 1683 03f4 5A030000 		.4byte	.LASF54
 1684 03f8 0B       		.byte	0xb
 1685 03f9 62       		.byte	0x62
 1686 03fa 1A       		.byte	0x1a
 1687 03fb 03020000 		.4byte	0x203
 1688 03ff 10       		.byte	0x10
 1689 0400 00       		.byte	0
 1690 0401 03       		.uleb128 0x3
 1691 0402 9A040000 		.4byte	.LASF55
 1692 0406 0B       		.byte	0xb
 1693 0407 64       		.byte	0x64
 1694 0408 03       		.byte	0x3
 1695 0409 C3030000 		.4byte	0x3c3
 1696 040d 0F       		.uleb128 0xf
 1697 040e AD040000 		.4byte	.LASF57
 1698 0412 0B       		.byte	0xb
 1699 0413 68       		.byte	0x68
 1700 0414 12       		.byte	0x12
 1701 0415 01040000 		.4byte	0x401
 1702 0419 07       		.uleb128 0x7
 1703 041a F2020000 		.4byte	.LASF58
 1704 041e 10       		.byte	0x10
 1705 041f 0C       		.byte	0xc
 1706 0420 25       		.byte	0x25
 1707 0421 10       		.byte	0x10
 1708 0422 4E040000 		.4byte	0x44e
 1709 0426 08       		.uleb128 0x8
 1710 0427 B3000000 		.4byte	.LASF59
ARM GAS  /var/folders/l5/0x54b2c10074c8bt31ycjvl80000gp/T//ccvkVa4l.s 			page 31


 1711 042b 0C       		.byte	0xc
 1712 042c 26       		.byte	0x26
 1713 042d 19       		.byte	0x19
 1714 042e 09020000 		.4byte	0x209
 1715 0432 00       		.byte	0
 1716 0433 08       		.uleb128 0x8
 1717 0434 E9040000 		.4byte	.LASF60
 1718 0438 0C       		.byte	0xc
 1719 0439 28       		.byte	0x28
 1720 043a 1A       		.byte	0x1a
 1721 043b 03020000 		.4byte	0x203
 1722 043f 08       		.byte	0x8
 1723 0440 08       		.uleb128 0x8
 1724 0441 2B040000 		.4byte	.LASF61
 1725 0445 0C       		.byte	0xc
 1726 0446 2A       		.byte	0x2a
 1727 0447 1A       		.byte	0x1a
 1728 0448 4E040000 		.4byte	0x44e
 1729 044c 0C       		.byte	0xc
 1730 044d 00       		.byte	0
 1731 044e 0B       		.uleb128 0xb
 1732 044f 04       		.byte	0x4
 1733 0450 19040000 		.4byte	0x419
 1734 0454 03       		.uleb128 0x3
 1735 0455 F2020000 		.4byte	.LASF58
 1736 0459 0C       		.byte	0xc
 1737 045a 2C       		.byte	0x2c
 1738 045b 03       		.byte	0x3
 1739 045c 19040000 		.4byte	0x419
 1740 0460 10       		.uleb128 0x10
 1741 0461 04       		.byte	0x4
 1742 0462 08       		.byte	0x8
 1743 0463 8F       		.byte	0x8f
 1744 0464 03       		.byte	0x3
 1745 0465 9A040000 		.4byte	0x49a
 1746 0469 11       		.uleb128 0x11
 1747 046a 1B000000 		.4byte	.LASF62
 1748 046e 08       		.byte	0x8
 1749 046f 96       		.byte	0x96
 1750 0470 19       		.byte	0x19
 1751 0471 00010000 		.4byte	0x100
 1752 0475 11       		.uleb128 0x11
 1753 0476 78000000 		.4byte	.LASF63
 1754 047a 08       		.byte	0x8
 1755 047b 9D       		.byte	0x9d
 1756 047c 19       		.byte	0x19
 1757 047d 00010000 		.4byte	0x100
 1758 0481 11       		.uleb128 0x11
 1759 0482 BB040000 		.4byte	.LASF64
 1760 0486 08       		.byte	0x8
 1761 0487 A4       		.byte	0xa4
 1762 0488 1A       		.byte	0x1a
 1763 0489 50020000 		.4byte	0x250
 1764 048d 11       		.uleb128 0x11
 1765 048e C8030000 		.4byte	.LASF65
 1766 0492 08       		.byte	0x8
 1767 0493 AB       		.byte	0xab
ARM GAS  /var/folders/l5/0x54b2c10074c8bt31ycjvl80000gp/T//ccvkVa4l.s 			page 32


 1768 0494 19       		.byte	0x19
 1769 0495 0C010000 		.4byte	0x10c
 1770 0499 00       		.byte	0
 1771 049a 0B       		.uleb128 0xb
 1772 049b 04       		.byte	0x4
 1773 049c 54040000 		.4byte	0x454
 1774 04a0 03       		.uleb128 0x3
 1775 04a1 F8020000 		.4byte	.LASF66
 1776 04a5 0D       		.byte	0xd
 1777 04a6 30       		.byte	0x30
 1778 04a7 1D       		.byte	0x1d
 1779 04a8 AC040000 		.4byte	0x4ac
 1780 04ac 07       		.uleb128 0x7
 1781 04ad F8020000 		.4byte	.LASF66
 1782 04b1 24       		.byte	0x24
 1783 04b2 0D       		.byte	0xd
 1784 04b3 3E       		.byte	0x3e
 1785 04b4 08       		.byte	0x8
 1786 04b5 22050000 		.4byte	0x522
 1787 04b9 08       		.uleb128 0x8
 1788 04ba 88000000 		.4byte	.LASF67
 1789 04be 0D       		.byte	0xd
 1790 04bf 3F       		.byte	0x3f
 1791 04c0 19       		.byte	0x19
 1792 04c1 09020000 		.4byte	0x209
 1793 04c5 00       		.byte	0
 1794 04c6 08       		.uleb128 0x8
 1795 04c7 29030000 		.4byte	.LASF68
 1796 04cb 0D       		.byte	0xd
 1797 04cc 40       		.byte	0x40
 1798 04cd 19       		.byte	0x19
 1799 04ce 2C000000 		.4byte	0x2c
 1800 04d2 08       		.byte	0x8
 1801 04d3 08       		.uleb128 0x8
 1802 04d4 37010000 		.4byte	.LASF69
 1803 04d8 0D       		.byte	0xd
 1804 04d9 41       		.byte	0x41
 1805 04da 1A       		.byte	0x1a
 1806 04db 45050000 		.4byte	0x545
 1807 04df 0C       		.byte	0xc
 1808 04e0 08       		.uleb128 0x8
 1809 04e1 94040000 		.4byte	.LASF70
 1810 04e5 0D       		.byte	0xd
 1811 04e6 42       		.byte	0x42
 1812 04e7 1A       		.byte	0x1a
 1813 04e8 45050000 		.4byte	0x545
 1814 04ec 10       		.byte	0x10
 1815 04ed 08       		.uleb128 0x8
 1816 04ee 40010000 		.4byte	.LASF71
 1817 04f2 0D       		.byte	0xd
 1818 04f3 44       		.byte	0x44
 1819 04f4 1A       		.byte	0x1a
 1820 04f5 45050000 		.4byte	0x545
 1821 04f9 14       		.byte	0x14
 1822 04fa 08       		.uleb128 0x8
 1823 04fb 7D030000 		.4byte	.LASF72
 1824 04ff 0D       		.byte	0xd
ARM GAS  /var/folders/l5/0x54b2c10074c8bt31ycjvl80000gp/T//ccvkVa4l.s 			page 33


 1825 0500 45       		.byte	0x45
 1826 0501 1A       		.byte	0x1a
 1827 0502 45050000 		.4byte	0x545
 1828 0506 18       		.byte	0x18
 1829 0507 08       		.uleb128 0x8
 1830 0508 A4040000 		.4byte	.LASF73
 1831 050c 0D       		.byte	0xd
 1832 050d 46       		.byte	0x46
 1833 050e 19       		.byte	0x19
 1834 050f 22050000 		.4byte	0x522
 1835 0513 1C       		.byte	0x1c
 1836 0514 08       		.uleb128 0x8
 1837 0515 E2040000 		.4byte	.LASF74
 1838 0519 0D       		.byte	0xd
 1839 051a 47       		.byte	0x47
 1840 051b 1A       		.byte	0x1a
 1841 051c 50020000 		.4byte	0x250
 1842 0520 20       		.byte	0x20
 1843 0521 00       		.byte	0
 1844 0522 03       		.uleb128 0x3
 1845 0523 64030000 		.4byte	.LASF75
 1846 0527 0D       		.byte	0xd
 1847 0528 33       		.byte	0x33
 1848 0529 10       		.byte	0x10
 1849 052a 2E050000 		.4byte	0x52e
 1850 052e 0B       		.uleb128 0xb
 1851 052f 04       		.byte	0x4
 1852 0530 34050000 		.4byte	0x534
 1853 0534 0D       		.uleb128 0xd
 1854 0535 3F050000 		.4byte	0x53f
 1855 0539 0E       		.uleb128 0xe
 1856 053a 3F050000 		.4byte	0x53f
 1857 053e 00       		.byte	0
 1858 053f 0B       		.uleb128 0xb
 1859 0540 04       		.byte	0x4
 1860 0541 A0040000 		.4byte	0x4a0
 1861 0545 0B       		.uleb128 0xb
 1862 0546 04       		.byte	0x4
 1863 0547 8D000000 		.4byte	0x8d
 1864 054b 03       		.uleb128 0x3
 1865 054c E7020000 		.4byte	.LASF76
 1866 0550 0D       		.byte	0xd
 1867 0551 7B       		.byte	0x7b
 1868 0552 16       		.byte	0x16
 1869 0553 A0040000 		.4byte	0x4a0
 1870 0557 03       		.uleb128 0x3
 1871 0558 2B000000 		.4byte	.LASF77
 1872 055c 0D       		.byte	0xd
 1873 055d EE       		.byte	0xee
 1874 055e 16       		.byte	0x16
 1875 055f A0040000 		.4byte	0x4a0
 1876 0563 0B       		.uleb128 0xb
 1877 0564 04       		.byte	0x4
 1878 0565 99000000 		.4byte	0x99
 1879 0569 12       		.uleb128 0x12
 1880 056a 38020000 		.4byte	0x238
 1881 056e 79050000 		.4byte	0x579
ARM GAS  /var/folders/l5/0x54b2c10074c8bt31ycjvl80000gp/T//ccvkVa4l.s 			page 34


 1882 0572 13       		.uleb128 0x13
 1883 0573 38000000 		.4byte	0x38
 1884 0577 1F       		.byte	0x1f
 1885 0578 00       		.byte	0
 1886 0579 0F       		.uleb128 0xf
 1887 057a 48010000 		.4byte	.LASF78
 1888 057e 0E       		.byte	0xe
 1889 057f 82       		.byte	0x82
 1890 0580 08       		.byte	0x8
 1891 0581 69050000 		.4byte	0x569
 1892 0585 14       		.uleb128 0x14
 1893 0586 10030000 		.4byte	.LASF80
 1894 058a 01       		.byte	0x1
 1895 058b 8F01     		.2byte	0x18f
 1896 058d 08       		.byte	0x8
 1897 058e 2C000000 		.4byte	0x2c
 1898 0592 00000000 		.4byte	.LFB17
 1899 0596 B0000000 		.4byte	.LFE17-.LFB17
 1900 059a 01       		.uleb128 0x1
 1901 059b 9C       		.byte	0x9c
 1902 059c 43060000 		.4byte	0x643
 1903 05a0 15       		.uleb128 0x15
 1904 05a1 6F717000 		.ascii	"oqp\000"
 1905 05a5 01       		.byte	0x1
 1906 05a6 8F01     		.2byte	0x18f
 1907 05a8 26       		.byte	0x26
 1908 05a9 43060000 		.4byte	0x643
 1909 05ad 04000000 		.4byte	.LLST33
 1910 05b1 00000000 		.4byte	.LVUS33
 1911 05b5 15       		.uleb128 0x15
 1912 05b6 627000   		.ascii	"bp\000"
 1913 05b9 01       		.byte	0x1
 1914 05ba 8F01     		.2byte	0x18f
 1915 05bc 3A       		.byte	0x3a
 1916 05bd 63050000 		.4byte	0x563
 1917 05c1 2A000000 		.4byte	.LLST34
 1918 05c5 22000000 		.4byte	.LVUS34
 1919 05c9 15       		.uleb128 0x15
 1920 05ca 6E00     		.ascii	"n\000"
 1921 05cc 01       		.byte	0x1
 1922 05cd 9001     		.2byte	0x190
 1923 05cf 20       		.byte	0x20
 1924 05d0 2C000000 		.4byte	0x2c
 1925 05d4 68000000 		.4byte	.LLST35
 1926 05d8 60000000 		.4byte	.LVUS35
 1927 05dc 16       		.uleb128 0x16
 1928 05dd 55030000 		.4byte	.LASF79
 1929 05e1 01       		.byte	0x1
 1930 05e2 9001     		.2byte	0x190
 1931 05e4 2D       		.byte	0x2d
 1932 05e5 18010000 		.4byte	0x118
 1933 05e9 A2000000 		.4byte	.LLST36
 1934 05ed 9E000000 		.4byte	.LVUS36
 1935 05f1 17       		.uleb128 0x17
 1936 05f2 6E667900 		.ascii	"nfy\000"
 1937 05f6 01       		.byte	0x1
 1938 05f7 9101     		.2byte	0x191
ARM GAS  /var/folders/l5/0x54b2c10074c8bt31ycjvl80000gp/T//ccvkVa4l.s 			page 35


 1939 05f9 0D       		.byte	0xd
 1940 05fa 22050000 		.4byte	0x522
 1941 05fe C2000000 		.4byte	.LLST37
 1942 0602 C0000000 		.4byte	.LVUS37
 1943 0606 17       		.uleb128 0x17
 1944 0607 7700     		.ascii	"w\000"
 1945 0609 01       		.byte	0x1
 1946 060a 9201     		.2byte	0x192
 1947 060c 0A       		.byte	0xa
 1948 060d 2C000000 		.4byte	0x2c
 1949 0611 D9000000 		.4byte	.LLST38
 1950 0615 D5000000 		.4byte	.LVUS38
 1951 0619 18       		.uleb128 0x18
 1952 061a 6C000000 		.4byte	.LVL60
 1953 061e 02       		.uleb128 0x2
 1954 061f 78       		.byte	0x78
 1955 0620 00       		.sleb128 0
 1956 0621 2C060000 		.4byte	0x62c
 1957 0625 19       		.uleb128 0x19
 1958 0626 01       		.uleb128 0x1
 1959 0627 50       		.byte	0x50
 1960 0628 02       		.uleb128 0x2
 1961 0629 74       		.byte	0x74
 1962 062a 00       		.sleb128 0
 1963 062b 00       		.byte	0
 1964 062c 1A       		.uleb128 0x1a
 1965 062d 9C000000 		.4byte	.LVL64
 1966 0631 DA0A0000 		.4byte	0xada
 1967 0635 19       		.uleb128 0x19
 1968 0636 01       		.uleb128 0x1
 1969 0637 50       		.byte	0x50
 1970 0638 02       		.uleb128 0x2
 1971 0639 74       		.byte	0x74
 1972 063a 00       		.sleb128 0
 1973 063b 19       		.uleb128 0x19
 1974 063c 01       		.uleb128 0x1
 1975 063d 51       		.byte	0x51
 1976 063e 02       		.uleb128 0x2
 1977 063f 79       		.byte	0x79
 1978 0640 00       		.sleb128 0
 1979 0641 00       		.byte	0
 1980 0642 00       		.byte	0
 1981 0643 0B       		.uleb128 0xb
 1982 0644 04       		.byte	0x4
 1983 0645 57050000 		.4byte	0x557
 1984 0649 14       		.uleb128 0x14
 1985 064a 2E010000 		.4byte	.LASF81
 1986 064e 01       		.byte	0x1
 1987 064f 6401     		.2byte	0x164
 1988 0651 07       		.byte	0x7
 1989 0652 00010000 		.4byte	0x100
 1990 0656 00000000 		.4byte	.LFB16
 1991 065a 80000000 		.4byte	.LFE16-.LFB16
 1992 065e 01       		.uleb128 0x1
 1993 065f 9C       		.byte	0x9c
 1994 0660 CD060000 		.4byte	0x6cd
 1995 0664 15       		.uleb128 0x15
ARM GAS  /var/folders/l5/0x54b2c10074c8bt31ycjvl80000gp/T//ccvkVa4l.s 			page 36


 1996 0665 6F717000 		.ascii	"oqp\000"
 1997 0669 01       		.byte	0x1
 1998 066a 6401     		.2byte	0x164
 1999 066c 1D       		.byte	0x1d
 2000 066d 43060000 		.4byte	0x643
 2001 0671 02010000 		.4byte	.LLST29
 2002 0675 F8000000 		.4byte	.LVUS29
 2003 0679 17       		.uleb128 0x17
 2004 067a 6200     		.ascii	"b\000"
 2005 067c 01       		.byte	0x1
 2006 067d 6501     		.2byte	0x165
 2007 067f 0B       		.byte	0xb
 2008 0680 8D000000 		.4byte	0x8d
 2009 0684 49010000 		.4byte	.LLST30
 2010 0688 47010000 		.4byte	.LVUS30
 2011 068c 1B       		.uleb128 0x1b
 2012 068d 620B0000 		.4byte	0xb62
 2013 0691 4C000000 		.4byte	.LBI31
 2014 0695 01       		.byte	.LVU322
 2015 0696 78000000 		.4byte	.Ldebug_ranges0+0x78
 2016 069a 01       		.byte	0x1
 2017 069b 7201     		.2byte	0x172
 2018 069d 05       		.byte	0x5
 2019 069e C3060000 		.4byte	0x6c3
 2020 06a2 1C       		.uleb128 0x1c
 2021 06a3 730B0000 		.4byte	0xb73
 2022 06a7 5E010000 		.4byte	.LLST31
 2023 06ab 5C010000 		.4byte	.LVUS31
 2024 06af 1D       		.uleb128 0x1d
 2025 06b0 78000000 		.4byte	.Ldebug_ranges0+0x78
 2026 06b4 1E       		.uleb128 0x1e
 2027 06b5 7F0B0000 		.4byte	0xb7f
 2028 06b9 73010000 		.4byte	.LLST32
 2029 06bd 71010000 		.4byte	.LVUS32
 2030 06c1 00       		.byte	0
 2031 06c2 00       		.byte	0
 2032 06c3 1F       		.uleb128 0x1f
 2033 06c4 60000000 		.4byte	.LVL53
 2034 06c8 B60B0000 		.4byte	0xbb6
 2035 06cc 00       		.byte	0
 2036 06cd 14       		.uleb128 0x14
 2037 06ce 00000000 		.4byte	.LASF82
 2038 06d2 01       		.byte	0x1
 2039 06d3 4201     		.2byte	0x142
 2040 06d5 07       		.byte	0x7
 2041 06d6 00010000 		.4byte	0x100
 2042 06da 00000000 		.4byte	.LFB15
 2043 06de 8C000000 		.4byte	.LFE15-.LFB15
 2044 06e2 01       		.uleb128 0x1
 2045 06e3 9C       		.byte	0x9c
 2046 06e4 67070000 		.4byte	0x767
 2047 06e8 15       		.uleb128 0x15
 2048 06e9 6F717000 		.ascii	"oqp\000"
 2049 06ed 01       		.byte	0x1
 2050 06ee 4201     		.2byte	0x142
 2051 06f0 23       		.byte	0x23
 2052 06f1 43060000 		.4byte	0x643
ARM GAS  /var/folders/l5/0x54b2c10074c8bt31ycjvl80000gp/T//ccvkVa4l.s 			page 37


 2053 06f5 8A010000 		.4byte	.LLST25
 2054 06f9 86010000 		.4byte	.LVUS25
 2055 06fd 15       		.uleb128 0x15
 2056 06fe 6200     		.ascii	"b\000"
 2057 0700 01       		.byte	0x1
 2058 0701 4201     		.2byte	0x142
 2059 0703 30       		.byte	0x30
 2060 0704 8D000000 		.4byte	0x8d
 2061 0708 AC010000 		.4byte	.LLST26
 2062 070c A8010000 		.4byte	.LVUS26
 2063 0710 16       		.uleb128 0x16
 2064 0711 55030000 		.4byte	.LASF79
 2065 0715 01       		.byte	0x1
 2066 0716 4201     		.2byte	0x142
 2067 0718 3D       		.byte	0x3d
 2068 0719 18010000 		.4byte	0x118
 2069 071d CE010000 		.4byte	.LLST27
 2070 0721 CA010000 		.4byte	.LVUS27
 2071 0725 20       		.uleb128 0x20
 2072 0726 60000000 		.4byte	.Ldebug_ranges0+0x60
 2073 072a 5A070000 		.4byte	0x75a
 2074 072e 17       		.uleb128 0x17
 2075 072f 6D736700 		.ascii	"msg\000"
 2076 0733 01       		.byte	0x1
 2077 0734 4601     		.2byte	0x146
 2078 0736 0B       		.byte	0xb
 2079 0737 00010000 		.4byte	0x100
 2080 073b F0010000 		.4byte	.LLST28
 2081 073f EC010000 		.4byte	.LVUS28
 2082 0743 1A       		.uleb128 0x1a
 2083 0744 24000000 		.4byte	.LVL44
 2084 0748 DA0A0000 		.4byte	0xada
 2085 074c 19       		.uleb128 0x19
 2086 074d 01       		.uleb128 0x1
 2087 074e 50       		.byte	0x50
 2088 074f 02       		.uleb128 0x2
 2089 0750 74       		.byte	0x74
 2090 0751 00       		.sleb128 0
 2091 0752 19       		.uleb128 0x19
 2092 0753 01       		.uleb128 0x1
 2093 0754 51       		.byte	0x51
 2094 0755 02       		.uleb128 0x2
 2095 0756 75       		.byte	0x75
 2096 0757 00       		.sleb128 0
 2097 0758 00       		.byte	0
 2098 0759 00       		.byte	0
 2099 075a 21       		.uleb128 0x21
 2100 075b 78000000 		.4byte	.LVL46
 2101 075f 19       		.uleb128 0x19
 2102 0760 01       		.uleb128 0x1
 2103 0761 50       		.byte	0x50
 2104 0762 02       		.uleb128 0x2
 2105 0763 74       		.byte	0x74
 2106 0764 00       		.sleb128 0
 2107 0765 00       		.byte	0
 2108 0766 00       		.byte	0
 2109 0767 22       		.uleb128 0x22
ARM GAS  /var/folders/l5/0x54b2c10074c8bt31ycjvl80000gp/T//ccvkVa4l.s 			page 38


 2110 0768 51040000 		.4byte	.LASF83
 2111 076c 01       		.byte	0x1
 2112 076d 2201     		.2byte	0x122
 2113 076f 06       		.byte	0x6
 2114 0770 00000000 		.4byte	.LFB14
 2115 0774 58000000 		.4byte	.LFE14-.LFB14
 2116 0778 01       		.uleb128 0x1
 2117 0779 9C       		.byte	0x9c
 2118 077a D4070000 		.4byte	0x7d4
 2119 077e 15       		.uleb128 0x15
 2120 077f 6F717000 		.ascii	"oqp\000"
 2121 0783 01       		.byte	0x1
 2122 0784 2201     		.2byte	0x122
 2123 0786 1E       		.byte	0x1e
 2124 0787 43060000 		.4byte	0x643
 2125 078b 12020000 		.4byte	.LLST22
 2126 078f 0E020000 		.4byte	.LVUS22
 2127 0793 1B       		.uleb128 0x1b
 2128 0794 620B0000 		.4byte	0xb62
 2129 0798 30000000 		.4byte	.LBI25
 2130 079c 01       		.byte	.LVU242
 2131 079d 48000000 		.4byte	.Ldebug_ranges0+0x48
 2132 07a1 01       		.byte	0x1
 2133 07a2 2901     		.2byte	0x129
 2134 07a4 05       		.byte	0x5
 2135 07a5 CA070000 		.4byte	0x7ca
 2136 07a9 1C       		.uleb128 0x1c
 2137 07aa 730B0000 		.4byte	0xb73
 2138 07ae 32020000 		.4byte	.LLST23
 2139 07b2 30020000 		.4byte	.LVUS23
 2140 07b6 1D       		.uleb128 0x1d
 2141 07b7 48000000 		.4byte	.Ldebug_ranges0+0x48
 2142 07bb 1E       		.uleb128 0x1e
 2143 07bc 7F0B0000 		.4byte	0xb7f
 2144 07c0 47020000 		.4byte	.LLST24
 2145 07c4 45020000 		.4byte	.LVUS24
 2146 07c8 00       		.byte	0
 2147 07c9 00       		.byte	0
 2148 07ca 1F       		.uleb128 0x1f
 2149 07cb 44000000 		.4byte	.LVL41
 2150 07cf B60B0000 		.4byte	0xbb6
 2151 07d3 00       		.byte	0
 2152 07d4 22       		.uleb128 0x22
 2153 07d5 6F000000 		.4byte	.LASF84
 2154 07d9 01       		.byte	0x1
 2155 07da 0C01     		.2byte	0x10c
 2156 07dc 06       		.byte	0x6
 2157 07dd 00000000 		.4byte	.LFB13
 2158 07e1 34000000 		.4byte	.LFE13-.LFB13
 2159 07e5 01       		.uleb128 0x1
 2160 07e6 9C       		.byte	0x9c
 2161 07e7 37080000 		.4byte	0x837
 2162 07eb 23       		.uleb128 0x23
 2163 07ec 6F717000 		.ascii	"oqp\000"
 2164 07f0 01       		.byte	0x1
 2165 07f1 0C01     		.2byte	0x10c
 2166 07f3 1C       		.byte	0x1c
ARM GAS  /var/folders/l5/0x54b2c10074c8bt31ycjvl80000gp/T//ccvkVa4l.s 			page 39


 2167 07f4 43060000 		.4byte	0x643
 2168 07f8 01       		.uleb128 0x1
 2169 07f9 50       		.byte	0x50
 2170 07fa 23       		.uleb128 0x23
 2171 07fb 627000   		.ascii	"bp\000"
 2172 07fe 01       		.byte	0x1
 2173 07ff 0C01     		.2byte	0x10c
 2174 0801 2A       		.byte	0x2a
 2175 0802 45050000 		.4byte	0x545
 2176 0806 01       		.uleb128 0x1
 2177 0807 51       		.byte	0x51
 2178 0808 24       		.uleb128 0x24
 2179 0809 9C020000 		.4byte	.LASF85
 2180 080d 01       		.byte	0x1
 2181 080e 0C01     		.2byte	0x10c
 2182 0810 35       		.byte	0x35
 2183 0811 2C000000 		.4byte	0x2c
 2184 0815 01       		.uleb128 0x1
 2185 0816 52       		.byte	0x52
 2186 0817 24       		.uleb128 0x24
 2187 0818 0F000000 		.4byte	.LASF86
 2188 081c 01       		.byte	0x1
 2189 081d 0C01     		.2byte	0x10c
 2190 081f 45       		.byte	0x45
 2191 0820 22050000 		.4byte	0x522
 2192 0824 01       		.uleb128 0x1
 2193 0825 53       		.byte	0x53
 2194 0826 24       		.uleb128 0x24
 2195 0827 7D010000 		.4byte	.LASF87
 2196 082b 01       		.byte	0x1
 2197 082c 0D01     		.2byte	0x10d
 2198 082e 15       		.byte	0x15
 2199 082f 50020000 		.4byte	0x250
 2200 0833 02       		.uleb128 0x2
 2201 0834 91       		.byte	0x91
 2202 0835 00       		.sleb128 0
 2203 0836 00       		.byte	0
 2204 0837 25       		.uleb128 0x25
 2205 0838 48000000 		.4byte	.LASF88
 2206 083c 01       		.byte	0x1
 2207 083d DB       		.byte	0xdb
 2208 083e 08       		.byte	0x8
 2209 083f 2C000000 		.4byte	0x2c
 2210 0843 00000000 		.4byte	.LFB12
 2211 0847 A8000000 		.4byte	.LFE12-.LFB12
 2212 084b 01       		.uleb128 0x1
 2213 084c 9C       		.byte	0x9c
 2214 084d EE080000 		.4byte	0x8ee
 2215 0851 26       		.uleb128 0x26
 2216 0852 69717000 		.ascii	"iqp\000"
 2217 0856 01       		.byte	0x1
 2218 0857 DB       		.byte	0xdb
 2219 0858 24       		.byte	0x24
 2220 0859 EE080000 		.4byte	0x8ee
 2221 085d 5E020000 		.4byte	.LLST16
 2222 0861 5A020000 		.4byte	.LVUS16
 2223 0865 26       		.uleb128 0x26
ARM GAS  /var/folders/l5/0x54b2c10074c8bt31ycjvl80000gp/T//ccvkVa4l.s 			page 40


 2224 0866 627000   		.ascii	"bp\000"
 2225 0869 01       		.byte	0x1
 2226 086a DB       		.byte	0xdb
 2227 086b 32       		.byte	0x32
 2228 086c 45050000 		.4byte	0x545
 2229 0870 84020000 		.4byte	.LLST17
 2230 0874 7C020000 		.4byte	.LVUS17
 2231 0878 26       		.uleb128 0x26
 2232 0879 6E00     		.ascii	"n\000"
 2233 087b 01       		.byte	0x1
 2234 087c DC       		.byte	0xdc
 2235 087d 1F       		.byte	0x1f
 2236 087e 2C000000 		.4byte	0x2c
 2237 0882 BE020000 		.4byte	.LLST18
 2238 0886 BA020000 		.4byte	.LVUS18
 2239 088a 27       		.uleb128 0x27
 2240 088b 55030000 		.4byte	.LASF79
 2241 088f 01       		.byte	0x1
 2242 0890 DC       		.byte	0xdc
 2243 0891 2C       		.byte	0x2c
 2244 0892 18010000 		.4byte	0x118
 2245 0896 E5020000 		.4byte	.LLST19
 2246 089a E1020000 		.4byte	.LVUS19
 2247 089e 28       		.uleb128 0x28
 2248 089f 6E667900 		.ascii	"nfy\000"
 2249 08a3 01       		.byte	0x1
 2250 08a4 DD       		.byte	0xdd
 2251 08a5 0D       		.byte	0xd
 2252 08a6 22050000 		.4byte	0x522
 2253 08aa 05030000 		.4byte	.LLST20
 2254 08ae 03030000 		.4byte	.LVUS20
 2255 08b2 28       		.uleb128 0x28
 2256 08b3 7200     		.ascii	"r\000"
 2257 08b5 01       		.byte	0x1
 2258 08b6 DE       		.byte	0xde
 2259 08b7 0A       		.byte	0xa
 2260 08b8 2C000000 		.4byte	0x2c
 2261 08bc 1C030000 		.4byte	.LLST21
 2262 08c0 18030000 		.4byte	.LVUS21
 2263 08c4 18       		.uleb128 0x18
 2264 08c5 30000000 		.4byte	.LVL31
 2265 08c9 02       		.uleb128 0x2
 2266 08ca 77       		.byte	0x77
 2267 08cb 00       		.sleb128 0
 2268 08cc D7080000 		.4byte	0x8d7
 2269 08d0 19       		.uleb128 0x19
 2270 08d1 01       		.uleb128 0x1
 2271 08d2 50       		.byte	0x50
 2272 08d3 02       		.uleb128 0x2
 2273 08d4 74       		.byte	0x74
 2274 08d5 00       		.sleb128 0
 2275 08d6 00       		.byte	0
 2276 08d7 1A       		.uleb128 0x1a
 2277 08d8 40000000 		.4byte	.LVL32
 2278 08dc DA0A0000 		.4byte	0xada
 2279 08e0 19       		.uleb128 0x19
 2280 08e1 01       		.uleb128 0x1
ARM GAS  /var/folders/l5/0x54b2c10074c8bt31ycjvl80000gp/T//ccvkVa4l.s 			page 41


 2281 08e2 50       		.byte	0x50
 2282 08e3 02       		.uleb128 0x2
 2283 08e4 74       		.byte	0x74
 2284 08e5 00       		.sleb128 0
 2285 08e6 19       		.uleb128 0x19
 2286 08e7 01       		.uleb128 0x1
 2287 08e8 51       		.byte	0x51
 2288 08e9 02       		.uleb128 0x2
 2289 08ea 75       		.byte	0x75
 2290 08eb 00       		.sleb128 0
 2291 08ec 00       		.byte	0
 2292 08ed 00       		.byte	0
 2293 08ee 0B       		.uleb128 0xb
 2294 08ef 04       		.byte	0x4
 2295 08f0 4B050000 		.4byte	0x54b
 2296 08f4 25       		.uleb128 0x25
 2297 08f5 01050000 		.4byte	.LASF89
 2298 08f9 01       		.byte	0x1
 2299 08fa AB       		.byte	0xab
 2300 08fb 07       		.byte	0x7
 2301 08fc 00010000 		.4byte	0x100
 2302 0900 00000000 		.4byte	.LFB11
 2303 0904 74000000 		.4byte	.LFE11-.LFB11
 2304 0908 01       		.uleb128 0x1
 2305 0909 9C       		.byte	0x9c
 2306 090a 8D090000 		.4byte	0x98d
 2307 090e 26       		.uleb128 0x26
 2308 090f 69717000 		.ascii	"iqp\000"
 2309 0913 01       		.byte	0x1
 2310 0914 AB       		.byte	0xab
 2311 0915 22       		.byte	0x22
 2312 0916 EE080000 		.4byte	0x8ee
 2313 091a 3F030000 		.4byte	.LLST12
 2314 091e 3B030000 		.4byte	.LVUS12
 2315 0922 27       		.uleb128 0x27
 2316 0923 55030000 		.4byte	.LASF79
 2317 0927 01       		.byte	0x1
 2318 0928 AB       		.byte	0xab
 2319 0929 31       		.byte	0x31
 2320 092a 18010000 		.4byte	0x118
 2321 092e 61030000 		.4byte	.LLST13
 2322 0932 5D030000 		.4byte	.LVUS13
 2323 0936 28       		.uleb128 0x28
 2324 0937 6200     		.ascii	"b\000"
 2325 0939 01       		.byte	0x1
 2326 093a AC       		.byte	0xac
 2327 093b 0B       		.byte	0xb
 2328 093c 8D000000 		.4byte	0x8d
 2329 0940 81030000 		.4byte	.LLST14
 2330 0944 7F030000 		.4byte	.LVUS14
 2331 0948 29       		.uleb128 0x29
 2332 0949 24000000 		.4byte	.LBB24
 2333 094d 14000000 		.4byte	.LBE24-.LBB24
 2334 0951 80090000 		.4byte	0x980
 2335 0955 28       		.uleb128 0x28
 2336 0956 6D736700 		.ascii	"msg\000"
 2337 095a 01       		.byte	0x1
ARM GAS  /var/folders/l5/0x54b2c10074c8bt31ycjvl80000gp/T//ccvkVa4l.s 			page 42


 2338 095b B3       		.byte	0xb3
 2339 095c 0B       		.byte	0xb
 2340 095d 00010000 		.4byte	0x100
 2341 0961 96030000 		.4byte	.LLST15
 2342 0965 94030000 		.4byte	.LVUS15
 2343 0969 1A       		.uleb128 0x1a
 2344 096a 30000000 		.4byte	.LVL24
 2345 096e DA0A0000 		.4byte	0xada
 2346 0972 19       		.uleb128 0x19
 2347 0973 01       		.uleb128 0x1
 2348 0974 50       		.byte	0x50
 2349 0975 02       		.uleb128 0x2
 2350 0976 74       		.byte	0x74
 2351 0977 00       		.sleb128 0
 2352 0978 19       		.uleb128 0x19
 2353 0979 01       		.uleb128 0x1
 2354 097a 51       		.byte	0x51
 2355 097b 02       		.uleb128 0x2
 2356 097c 75       		.byte	0x75
 2357 097d 00       		.sleb128 0
 2358 097e 00       		.byte	0
 2359 097f 00       		.byte	0
 2360 0980 21       		.uleb128 0x21
 2361 0981 20000000 		.4byte	.LVL23
 2362 0985 19       		.uleb128 0x19
 2363 0986 01       		.uleb128 0x1
 2364 0987 50       		.byte	0x50
 2365 0988 02       		.uleb128 0x2
 2366 0989 74       		.byte	0x74
 2367 098a 00       		.sleb128 0
 2368 098b 00       		.byte	0
 2369 098c 00       		.byte	0
 2370 098d 25       		.uleb128 0x25
 2371 098e 58010000 		.4byte	.LASF90
 2372 0992 01       		.byte	0x1
 2373 0993 85       		.byte	0x85
 2374 0994 07       		.byte	0x7
 2375 0995 00010000 		.4byte	0x100
 2376 0999 00000000 		.4byte	.LFB10
 2377 099d 90000000 		.4byte	.LFE10-.LFB10
 2378 09a1 01       		.uleb128 0x1
 2379 09a2 9C       		.byte	0x9c
 2380 09a3 0D0A0000 		.4byte	0xa0d
 2381 09a7 26       		.uleb128 0x26
 2382 09a8 69717000 		.ascii	"iqp\000"
 2383 09ac 01       		.byte	0x1
 2384 09ad 85       		.byte	0x85
 2385 09ae 1C       		.byte	0x1c
 2386 09af EE080000 		.4byte	0x8ee
 2387 09b3 B7030000 		.4byte	.LLST8
 2388 09b7 A9030000 		.4byte	.LVUS8
 2389 09bb 26       		.uleb128 0x26
 2390 09bc 6200     		.ascii	"b\000"
 2391 09be 01       		.byte	0x1
 2392 09bf 85       		.byte	0x85
 2393 09c0 29       		.byte	0x29
 2394 09c1 8D000000 		.4byte	0x8d
ARM GAS  /var/folders/l5/0x54b2c10074c8bt31ycjvl80000gp/T//ccvkVa4l.s 			page 43


 2395 09c5 19040000 		.4byte	.LLST9
 2396 09c9 15040000 		.4byte	.LVUS9
 2397 09cd 2A       		.uleb128 0x2a
 2398 09ce 620B0000 		.4byte	0xb62
 2399 09d2 50000000 		.4byte	.LBI20
 2400 09d6 01       		.byte	.LVU96
 2401 09d7 30000000 		.4byte	.Ldebug_ranges0+0x30
 2402 09db 01       		.byte	0x1
 2403 09dc 92       		.byte	0x92
 2404 09dd 05       		.byte	0x5
 2405 09de 030A0000 		.4byte	0xa03
 2406 09e2 1C       		.uleb128 0x1c
 2407 09e3 730B0000 		.4byte	0xb73
 2408 09e7 3C040000 		.4byte	.LLST10
 2409 09eb 3A040000 		.4byte	.LVUS10
 2410 09ef 1D       		.uleb128 0x1d
 2411 09f0 30000000 		.4byte	.Ldebug_ranges0+0x30
 2412 09f4 1E       		.uleb128 0x1e
 2413 09f5 7F0B0000 		.4byte	0xb7f
 2414 09f9 51040000 		.4byte	.LLST11
 2415 09fd 4F040000 		.4byte	.LVUS11
 2416 0a01 00       		.byte	0
 2417 0a02 00       		.byte	0
 2418 0a03 1F       		.uleb128 0x1f
 2419 0a04 68000000 		.4byte	.LVL17
 2420 0a08 B60B0000 		.4byte	0xbb6
 2421 0a0c 00       		.byte	0
 2422 0a0d 2B       		.uleb128 0x2b
 2423 0a0e 76020000 		.4byte	.LASF91
 2424 0a12 01       		.byte	0x1
 2425 0a13 6E       		.byte	0x6e
 2426 0a14 06       		.byte	0x6
 2427 0a15 00000000 		.4byte	.LFB9
 2428 0a19 54000000 		.4byte	.LFE9-.LFB9
 2429 0a1d 01       		.uleb128 0x1
 2430 0a1e 9C       		.byte	0x9c
 2431 0a1f 770A0000 		.4byte	0xa77
 2432 0a23 26       		.uleb128 0x26
 2433 0a24 69717000 		.ascii	"iqp\000"
 2434 0a28 01       		.byte	0x1
 2435 0a29 6E       		.byte	0x6e
 2436 0a2a 1D       		.byte	0x1d
 2437 0a2b EE080000 		.4byte	0x8ee
 2438 0a2f 68040000 		.4byte	.LLST5
 2439 0a33 64040000 		.4byte	.LVUS5
 2440 0a37 2A       		.uleb128 0x2a
 2441 0a38 620B0000 		.4byte	0xb62
 2442 0a3c 2C000000 		.4byte	.LBI16
 2443 0a40 01       		.byte	.LVU60
 2444 0a41 18000000 		.4byte	.Ldebug_ranges0+0x18
 2445 0a45 01       		.byte	0x1
 2446 0a46 75       		.byte	0x75
 2447 0a47 05       		.byte	0x5
 2448 0a48 6D0A0000 		.4byte	0xa6d
 2449 0a4c 1C       		.uleb128 0x1c
 2450 0a4d 730B0000 		.4byte	0xb73
 2451 0a51 88040000 		.4byte	.LLST6
ARM GAS  /var/folders/l5/0x54b2c10074c8bt31ycjvl80000gp/T//ccvkVa4l.s 			page 44


 2452 0a55 86040000 		.4byte	.LVUS6
 2453 0a59 1D       		.uleb128 0x1d
 2454 0a5a 18000000 		.4byte	.Ldebug_ranges0+0x18
 2455 0a5e 1E       		.uleb128 0x1e
 2456 0a5f 7F0B0000 		.4byte	0xb7f
 2457 0a63 9D040000 		.4byte	.LLST7
 2458 0a67 9B040000 		.4byte	.LVUS7
 2459 0a6b 00       		.byte	0
 2460 0a6c 00       		.byte	0
 2461 0a6d 1F       		.uleb128 0x1f
 2462 0a6e 40000000 		.4byte	.LVL11
 2463 0a72 B60B0000 		.4byte	0xbb6
 2464 0a76 00       		.byte	0
 2465 0a77 2B       		.uleb128 0x2b
 2466 0a78 22000000 		.4byte	.LASF92
 2467 0a7c 01       		.byte	0x1
 2468 0a7d 58       		.byte	0x58
 2469 0a7e 06       		.byte	0x6
 2470 0a7f 00000000 		.4byte	.LFB8
 2471 0a83 38000000 		.4byte	.LFE8-.LFB8
 2472 0a87 01       		.uleb128 0x1
 2473 0a88 9C       		.byte	0x9c
 2474 0a89 DA0A0000 		.4byte	0xada
 2475 0a8d 2C       		.uleb128 0x2c
 2476 0a8e 69717000 		.ascii	"iqp\000"
 2477 0a92 01       		.byte	0x1
 2478 0a93 58       		.byte	0x58
 2479 0a94 1B       		.byte	0x1b
 2480 0a95 EE080000 		.4byte	0x8ee
 2481 0a99 01       		.uleb128 0x1
 2482 0a9a 50       		.byte	0x50
 2483 0a9b 2C       		.uleb128 0x2c
 2484 0a9c 627000   		.ascii	"bp\000"
 2485 0a9f 01       		.byte	0x1
 2486 0aa0 58       		.byte	0x58
 2487 0aa1 29       		.byte	0x29
 2488 0aa2 45050000 		.4byte	0x545
 2489 0aa6 01       		.uleb128 0x1
 2490 0aa7 51       		.byte	0x51
 2491 0aa8 27       		.uleb128 0x27
 2492 0aa9 9C020000 		.4byte	.LASF85
 2493 0aad 01       		.byte	0x1
 2494 0aae 58       		.byte	0x58
 2495 0aaf 34       		.byte	0x34
 2496 0ab0 2C000000 		.4byte	0x2c
 2497 0ab4 B4040000 		.4byte	.LLST4
 2498 0ab8 B0040000 		.4byte	.LVUS4
 2499 0abc 2D       		.uleb128 0x2d
 2500 0abd D6030000 		.4byte	.LASF93
 2501 0ac1 01       		.byte	0x1
 2502 0ac2 58       		.byte	0x58
 2503 0ac3 44       		.byte	0x44
 2504 0ac4 22050000 		.4byte	0x522
 2505 0ac8 01       		.uleb128 0x1
 2506 0ac9 53       		.byte	0x53
 2507 0aca 2D       		.uleb128 0x2d
 2508 0acb 7D010000 		.4byte	.LASF87
ARM GAS  /var/folders/l5/0x54b2c10074c8bt31ycjvl80000gp/T//ccvkVa4l.s 			page 45


 2509 0acf 01       		.byte	0x1
 2510 0ad0 59       		.byte	0x59
 2511 0ad1 15       		.byte	0x15
 2512 0ad2 50020000 		.4byte	0x250
 2513 0ad6 02       		.uleb128 0x2
 2514 0ad7 91       		.byte	0x91
 2515 0ad8 00       		.sleb128 0
 2516 0ad9 00       		.byte	0
 2517 0ada 2E       		.uleb128 0x2e
 2518 0adb C5000000 		.4byte	.LASF99
 2519 0adf 01       		.byte	0x1
 2520 0ae0 3F       		.byte	0x3f
 2521 0ae1 0E       		.byte	0xe
 2522 0ae2 00010000 		.4byte	0x100
 2523 0ae6 00000000 		.4byte	.LFB7
 2524 0aea 3C000000 		.4byte	.LFE7-.LFB7
 2525 0aee 01       		.uleb128 0x1
 2526 0aef 9C       		.byte	0x9c
 2527 0af0 620B0000 		.4byte	0xb62
 2528 0af4 26       		.uleb128 0x26
 2529 0af5 717000   		.ascii	"qp\000"
 2530 0af8 01       		.byte	0x1
 2531 0af9 3F       		.byte	0x3f
 2532 0afa 22       		.byte	0x22
 2533 0afb 3F050000 		.4byte	0x53f
 2534 0aff DF040000 		.4byte	.LLST0
 2535 0b03 D5040000 		.4byte	.LVUS0
 2536 0b07 27       		.uleb128 0x27
 2537 0b08 55030000 		.4byte	.LASF79
 2538 0b0c 01       		.byte	0x1
 2539 0b0d 3F       		.byte	0x3f
 2540 0b0e 30       		.byte	0x30
 2541 0b0f 18010000 		.4byte	0x118
 2542 0b13 27050000 		.4byte	.LLST1
 2543 0b17 21050000 		.4byte	.LVUS1
 2544 0b1b 2A       		.uleb128 0x2a
 2545 0b1c 910B0000 		.4byte	0xb91
 2546 0b20 20000000 		.4byte	.LBI12
 2547 0b24 01       		.byte	.LVU11
 2548 0b25 00000000 		.4byte	.Ldebug_ranges0+0
 2549 0b29 01       		.byte	0x1
 2550 0b2a 44       		.byte	0x44
 2551 0b2b 03       		.byte	0x3
 2552 0b2c 4B0B0000 		.4byte	0xb4b
 2553 0b30 1C       		.uleb128 0x1c
 2554 0b31 A90B0000 		.4byte	0xba9
 2555 0b35 55050000 		.4byte	.LLST2
 2556 0b39 53050000 		.4byte	.LVUS2
 2557 0b3d 1C       		.uleb128 0x1c
 2558 0b3e 9E0B0000 		.4byte	0xb9e
 2559 0b42 6A050000 		.4byte	.LLST3
 2560 0b46 68050000 		.4byte	.LVUS3
 2561 0b4a 00       		.byte	0
 2562 0b4b 2F       		.uleb128 0x2f
 2563 0b4c 30000000 		.4byte	.LVL4
 2564 0b50 C20B0000 		.4byte	0xbc2
 2565 0b54 19       		.uleb128 0x19
ARM GAS  /var/folders/l5/0x54b2c10074c8bt31ycjvl80000gp/T//ccvkVa4l.s 			page 46


 2566 0b55 01       		.uleb128 0x1
 2567 0b56 50       		.byte	0x50
 2568 0b57 01       		.uleb128 0x1
 2569 0b58 3D       		.byte	0x3d
 2570 0b59 19       		.uleb128 0x19
 2571 0b5a 01       		.uleb128 0x1
 2572 0b5b 51       		.byte	0x51
 2573 0b5c 03       		.uleb128 0x3
 2574 0b5d F3       		.byte	0xf3
 2575 0b5e 01       		.uleb128 0x1
 2576 0b5f 51       		.byte	0x51
 2577 0b60 00       		.byte	0
 2578 0b61 00       		.byte	0
 2579 0b62 30       		.uleb128 0x30
 2580 0b63 1F040000 		.4byte	.LASF100
 2581 0b67 02       		.byte	0x2
 2582 0b68 34       		.byte	0x34
 2583 0b69 17       		.byte	0x17
 2584 0b6a 03020000 		.4byte	0x203
 2585 0b6e 03       		.byte	0x3
 2586 0b6f 8B0B0000 		.4byte	0xb8b
 2587 0b73 31       		.uleb128 0x31
 2588 0b74 74717000 		.ascii	"tqp\000"
 2589 0b78 02       		.byte	0x2
 2590 0b79 34       		.byte	0x34
 2591 0b7a 31       		.byte	0x31
 2592 0b7b 8B0B0000 		.4byte	0xb8b
 2593 0b7f 32       		.uleb128 0x32
 2594 0b80 747000   		.ascii	"tp\000"
 2595 0b83 02       		.byte	0x2
 2596 0b84 35       		.byte	0x35
 2597 0b85 0B       		.byte	0xb
 2598 0b86 03020000 		.4byte	0x203
 2599 0b8a 00       		.byte	0
 2600 0b8b 0B       		.uleb128 0xb
 2601 0b8c 04       		.byte	0x4
 2602 0b8d 09020000 		.4byte	0x209
 2603 0b91 33       		.uleb128 0x33
 2604 0b92 BA020000 		.4byte	.LASF101
 2605 0b96 02       		.byte	0x2
 2606 0b97 2D       		.byte	0x2d
 2607 0b98 14       		.byte	0x14
 2608 0b99 03       		.byte	0x3
 2609 0b9a B60B0000 		.4byte	0xbb6
 2610 0b9e 31       		.uleb128 0x31
 2611 0b9f 747000   		.ascii	"tp\000"
 2612 0ba2 02       		.byte	0x2
 2613 0ba3 2D       		.byte	0x2d
 2614 0ba4 29       		.byte	0x29
 2615 0ba5 03020000 		.4byte	0x203
 2616 0ba9 31       		.uleb128 0x31
 2617 0baa 74717000 		.ascii	"tqp\000"
 2618 0bae 02       		.byte	0x2
 2619 0baf 2D       		.byte	0x2d
 2620 0bb0 3B       		.byte	0x3b
 2621 0bb1 8B0B0000 		.4byte	0xb8b
 2622 0bb5 00       		.byte	0
ARM GAS  /var/folders/l5/0x54b2c10074c8bt31ycjvl80000gp/T//ccvkVa4l.s 			page 47


 2623 0bb6 34       		.uleb128 0x34
 2624 0bb7 13040000 		.4byte	.LASF94
 2625 0bbb 13040000 		.4byte	.LASF94
 2626 0bbf 0B       		.byte	0xb
 2627 0bc0 89       		.byte	0x89
 2628 0bc1 0B       		.byte	0xb
 2629 0bc2 34       		.uleb128 0x34
 2630 0bc3 CD040000 		.4byte	.LASF95
 2631 0bc7 CD040000 		.4byte	.LASF95
 2632 0bcb 0B       		.byte	0xb
 2633 0bcc 8F       		.byte	0x8f
 2634 0bcd 09       		.byte	0x9
 2635 0bce 00       		.byte	0
 2636              		.section	.debug_abbrev,"",%progbits
 2637              	.Ldebug_abbrev0:
 2638 0000 01       		.uleb128 0x1
 2639 0001 11       		.uleb128 0x11
 2640 0002 01       		.byte	0x1
 2641 0003 25       		.uleb128 0x25
 2642 0004 0E       		.uleb128 0xe
 2643 0005 13       		.uleb128 0x13
 2644 0006 0B       		.uleb128 0xb
 2645 0007 03       		.uleb128 0x3
 2646 0008 0E       		.uleb128 0xe
 2647 0009 1B       		.uleb128 0x1b
 2648 000a 0E       		.uleb128 0xe
 2649 000b 55       		.uleb128 0x55
 2650 000c 17       		.uleb128 0x17
 2651 000d 11       		.uleb128 0x11
 2652 000e 01       		.uleb128 0x1
 2653 000f 10       		.uleb128 0x10
 2654 0010 17       		.uleb128 0x17
 2655 0011 00       		.byte	0
 2656 0012 00       		.byte	0
 2657 0013 02       		.uleb128 0x2
 2658 0014 24       		.uleb128 0x24
 2659 0015 00       		.byte	0
 2660 0016 0B       		.uleb128 0xb
 2661 0017 0B       		.uleb128 0xb
 2662 0018 3E       		.uleb128 0x3e
 2663 0019 0B       		.uleb128 0xb
 2664 001a 03       		.uleb128 0x3
 2665 001b 0E       		.uleb128 0xe
 2666 001c 00       		.byte	0
 2667 001d 00       		.byte	0
 2668 001e 03       		.uleb128 0x3
 2669 001f 16       		.uleb128 0x16
 2670 0020 00       		.byte	0
 2671 0021 03       		.uleb128 0x3
 2672 0022 0E       		.uleb128 0xe
 2673 0023 3A       		.uleb128 0x3a
 2674 0024 0B       		.uleb128 0xb
 2675 0025 3B       		.uleb128 0x3b
 2676 0026 0B       		.uleb128 0xb
 2677 0027 39       		.uleb128 0x39
 2678 0028 0B       		.uleb128 0xb
 2679 0029 49       		.uleb128 0x49
ARM GAS  /var/folders/l5/0x54b2c10074c8bt31ycjvl80000gp/T//ccvkVa4l.s 			page 48


 2680 002a 13       		.uleb128 0x13
 2681 002b 00       		.byte	0
 2682 002c 00       		.byte	0
 2683 002d 04       		.uleb128 0x4
 2684 002e 26       		.uleb128 0x26
 2685 002f 00       		.byte	0
 2686 0030 49       		.uleb128 0x49
 2687 0031 13       		.uleb128 0x13
 2688 0032 00       		.byte	0
 2689 0033 00       		.byte	0
 2690 0034 05       		.uleb128 0x5
 2691 0035 24       		.uleb128 0x24
 2692 0036 00       		.byte	0
 2693 0037 0B       		.uleb128 0xb
 2694 0038 0B       		.uleb128 0xb
 2695 0039 3E       		.uleb128 0x3e
 2696 003a 0B       		.uleb128 0xb
 2697 003b 03       		.uleb128 0x3
 2698 003c 08       		.uleb128 0x8
 2699 003d 00       		.byte	0
 2700 003e 00       		.byte	0
 2701 003f 06       		.uleb128 0x6
 2702 0040 35       		.uleb128 0x35
 2703 0041 00       		.byte	0
 2704 0042 49       		.uleb128 0x49
 2705 0043 13       		.uleb128 0x13
 2706 0044 00       		.byte	0
 2707 0045 00       		.byte	0
 2708 0046 07       		.uleb128 0x7
 2709 0047 13       		.uleb128 0x13
 2710 0048 01       		.byte	0x1
 2711 0049 03       		.uleb128 0x3
 2712 004a 0E       		.uleb128 0xe
 2713 004b 0B       		.uleb128 0xb
 2714 004c 0B       		.uleb128 0xb
 2715 004d 3A       		.uleb128 0x3a
 2716 004e 0B       		.uleb128 0xb
 2717 004f 3B       		.uleb128 0x3b
 2718 0050 0B       		.uleb128 0xb
 2719 0051 39       		.uleb128 0x39
 2720 0052 0B       		.uleb128 0xb
 2721 0053 01       		.uleb128 0x1
 2722 0054 13       		.uleb128 0x13
 2723 0055 00       		.byte	0
 2724 0056 00       		.byte	0
 2725 0057 08       		.uleb128 0x8
 2726 0058 0D       		.uleb128 0xd
 2727 0059 00       		.byte	0
 2728 005a 03       		.uleb128 0x3
 2729 005b 0E       		.uleb128 0xe
 2730 005c 3A       		.uleb128 0x3a
 2731 005d 0B       		.uleb128 0xb
 2732 005e 3B       		.uleb128 0x3b
 2733 005f 0B       		.uleb128 0xb
 2734 0060 39       		.uleb128 0x39
 2735 0061 0B       		.uleb128 0xb
 2736 0062 49       		.uleb128 0x49
ARM GAS  /var/folders/l5/0x54b2c10074c8bt31ycjvl80000gp/T//ccvkVa4l.s 			page 49


 2737 0063 13       		.uleb128 0x13
 2738 0064 38       		.uleb128 0x38
 2739 0065 0B       		.uleb128 0xb
 2740 0066 00       		.byte	0
 2741 0067 00       		.byte	0
 2742 0068 09       		.uleb128 0x9
 2743 0069 0D       		.uleb128 0xd
 2744 006a 00       		.byte	0
 2745 006b 03       		.uleb128 0x3
 2746 006c 08       		.uleb128 0x8
 2747 006d 3A       		.uleb128 0x3a
 2748 006e 0B       		.uleb128 0xb
 2749 006f 3B       		.uleb128 0x3b
 2750 0070 0B       		.uleb128 0xb
 2751 0071 39       		.uleb128 0x39
 2752 0072 0B       		.uleb128 0xb
 2753 0073 49       		.uleb128 0x49
 2754 0074 13       		.uleb128 0x13
 2755 0075 38       		.uleb128 0x38
 2756 0076 0B       		.uleb128 0xb
 2757 0077 00       		.byte	0
 2758 0078 00       		.byte	0
 2759 0079 0A       		.uleb128 0xa
 2760 007a 13       		.uleb128 0x13
 2761 007b 01       		.byte	0x1
 2762 007c 0B       		.uleb128 0xb
 2763 007d 0B       		.uleb128 0xb
 2764 007e 3A       		.uleb128 0x3a
 2765 007f 0B       		.uleb128 0xb
 2766 0080 3B       		.uleb128 0x3b
 2767 0081 0B       		.uleb128 0xb
 2768 0082 39       		.uleb128 0x39
 2769 0083 0B       		.uleb128 0xb
 2770 0084 01       		.uleb128 0x1
 2771 0085 13       		.uleb128 0x13
 2772 0086 00       		.byte	0
 2773 0087 00       		.byte	0
 2774 0088 0B       		.uleb128 0xb
 2775 0089 0F       		.uleb128 0xf
 2776 008a 00       		.byte	0
 2777 008b 0B       		.uleb128 0xb
 2778 008c 0B       		.uleb128 0xb
 2779 008d 49       		.uleb128 0x49
 2780 008e 13       		.uleb128 0x13
 2781 008f 00       		.byte	0
 2782 0090 00       		.byte	0
 2783 0091 0C       		.uleb128 0xc
 2784 0092 0F       		.uleb128 0xf
 2785 0093 00       		.byte	0
 2786 0094 0B       		.uleb128 0xb
 2787 0095 0B       		.uleb128 0xb
 2788 0096 00       		.byte	0
 2789 0097 00       		.byte	0
 2790 0098 0D       		.uleb128 0xd
 2791 0099 15       		.uleb128 0x15
 2792 009a 01       		.byte	0x1
 2793 009b 27       		.uleb128 0x27
ARM GAS  /var/folders/l5/0x54b2c10074c8bt31ycjvl80000gp/T//ccvkVa4l.s 			page 50


 2794 009c 19       		.uleb128 0x19
 2795 009d 01       		.uleb128 0x1
 2796 009e 13       		.uleb128 0x13
 2797 009f 00       		.byte	0
 2798 00a0 00       		.byte	0
 2799 00a1 0E       		.uleb128 0xe
 2800 00a2 05       		.uleb128 0x5
 2801 00a3 00       		.byte	0
 2802 00a4 49       		.uleb128 0x49
 2803 00a5 13       		.uleb128 0x13
 2804 00a6 00       		.byte	0
 2805 00a7 00       		.byte	0
 2806 00a8 0F       		.uleb128 0xf
 2807 00a9 34       		.uleb128 0x34
 2808 00aa 00       		.byte	0
 2809 00ab 03       		.uleb128 0x3
 2810 00ac 0E       		.uleb128 0xe
 2811 00ad 3A       		.uleb128 0x3a
 2812 00ae 0B       		.uleb128 0xb
 2813 00af 3B       		.uleb128 0x3b
 2814 00b0 0B       		.uleb128 0xb
 2815 00b1 39       		.uleb128 0x39
 2816 00b2 0B       		.uleb128 0xb
 2817 00b3 49       		.uleb128 0x49
 2818 00b4 13       		.uleb128 0x13
 2819 00b5 3F       		.uleb128 0x3f
 2820 00b6 19       		.uleb128 0x19
 2821 00b7 3C       		.uleb128 0x3c
 2822 00b8 19       		.uleb128 0x19
 2823 00b9 00       		.byte	0
 2824 00ba 00       		.byte	0
 2825 00bb 10       		.uleb128 0x10
 2826 00bc 17       		.uleb128 0x17
 2827 00bd 01       		.byte	0x1
 2828 00be 0B       		.uleb128 0xb
 2829 00bf 0B       		.uleb128 0xb
 2830 00c0 3A       		.uleb128 0x3a
 2831 00c1 0B       		.uleb128 0xb
 2832 00c2 3B       		.uleb128 0x3b
 2833 00c3 0B       		.uleb128 0xb
 2834 00c4 39       		.uleb128 0x39
 2835 00c5 0B       		.uleb128 0xb
 2836 00c6 01       		.uleb128 0x1
 2837 00c7 13       		.uleb128 0x13
 2838 00c8 00       		.byte	0
 2839 00c9 00       		.byte	0
 2840 00ca 11       		.uleb128 0x11
 2841 00cb 0D       		.uleb128 0xd
 2842 00cc 00       		.byte	0
 2843 00cd 03       		.uleb128 0x3
 2844 00ce 0E       		.uleb128 0xe
 2845 00cf 3A       		.uleb128 0x3a
 2846 00d0 0B       		.uleb128 0xb
 2847 00d1 3B       		.uleb128 0x3b
 2848 00d2 0B       		.uleb128 0xb
 2849 00d3 39       		.uleb128 0x39
 2850 00d4 0B       		.uleb128 0xb
ARM GAS  /var/folders/l5/0x54b2c10074c8bt31ycjvl80000gp/T//ccvkVa4l.s 			page 51


 2851 00d5 49       		.uleb128 0x49
 2852 00d6 13       		.uleb128 0x13
 2853 00d7 00       		.byte	0
 2854 00d8 00       		.byte	0
 2855 00d9 12       		.uleb128 0x12
 2856 00da 01       		.uleb128 0x1
 2857 00db 01       		.byte	0x1
 2858 00dc 49       		.uleb128 0x49
 2859 00dd 13       		.uleb128 0x13
 2860 00de 01       		.uleb128 0x1
 2861 00df 13       		.uleb128 0x13
 2862 00e0 00       		.byte	0
 2863 00e1 00       		.byte	0
 2864 00e2 13       		.uleb128 0x13
 2865 00e3 21       		.uleb128 0x21
 2866 00e4 00       		.byte	0
 2867 00e5 49       		.uleb128 0x49
 2868 00e6 13       		.uleb128 0x13
 2869 00e7 2F       		.uleb128 0x2f
 2870 00e8 0B       		.uleb128 0xb
 2871 00e9 00       		.byte	0
 2872 00ea 00       		.byte	0
 2873 00eb 14       		.uleb128 0x14
 2874 00ec 2E       		.uleb128 0x2e
 2875 00ed 01       		.byte	0x1
 2876 00ee 3F       		.uleb128 0x3f
 2877 00ef 19       		.uleb128 0x19
 2878 00f0 03       		.uleb128 0x3
 2879 00f1 0E       		.uleb128 0xe
 2880 00f2 3A       		.uleb128 0x3a
 2881 00f3 0B       		.uleb128 0xb
 2882 00f4 3B       		.uleb128 0x3b
 2883 00f5 05       		.uleb128 0x5
 2884 00f6 39       		.uleb128 0x39
 2885 00f7 0B       		.uleb128 0xb
 2886 00f8 27       		.uleb128 0x27
 2887 00f9 19       		.uleb128 0x19
 2888 00fa 49       		.uleb128 0x49
 2889 00fb 13       		.uleb128 0x13
 2890 00fc 11       		.uleb128 0x11
 2891 00fd 01       		.uleb128 0x1
 2892 00fe 12       		.uleb128 0x12
 2893 00ff 06       		.uleb128 0x6
 2894 0100 40       		.uleb128 0x40
 2895 0101 18       		.uleb128 0x18
 2896 0102 9742     		.uleb128 0x2117
 2897 0104 19       		.uleb128 0x19
 2898 0105 01       		.uleb128 0x1
 2899 0106 13       		.uleb128 0x13
 2900 0107 00       		.byte	0
 2901 0108 00       		.byte	0
 2902 0109 15       		.uleb128 0x15
 2903 010a 05       		.uleb128 0x5
 2904 010b 00       		.byte	0
 2905 010c 03       		.uleb128 0x3
 2906 010d 08       		.uleb128 0x8
 2907 010e 3A       		.uleb128 0x3a
ARM GAS  /var/folders/l5/0x54b2c10074c8bt31ycjvl80000gp/T//ccvkVa4l.s 			page 52


 2908 010f 0B       		.uleb128 0xb
 2909 0110 3B       		.uleb128 0x3b
 2910 0111 05       		.uleb128 0x5
 2911 0112 39       		.uleb128 0x39
 2912 0113 0B       		.uleb128 0xb
 2913 0114 49       		.uleb128 0x49
 2914 0115 13       		.uleb128 0x13
 2915 0116 02       		.uleb128 0x2
 2916 0117 17       		.uleb128 0x17
 2917 0118 B742     		.uleb128 0x2137
 2918 011a 17       		.uleb128 0x17
 2919 011b 00       		.byte	0
 2920 011c 00       		.byte	0
 2921 011d 16       		.uleb128 0x16
 2922 011e 05       		.uleb128 0x5
 2923 011f 00       		.byte	0
 2924 0120 03       		.uleb128 0x3
 2925 0121 0E       		.uleb128 0xe
 2926 0122 3A       		.uleb128 0x3a
 2927 0123 0B       		.uleb128 0xb
 2928 0124 3B       		.uleb128 0x3b
 2929 0125 05       		.uleb128 0x5
 2930 0126 39       		.uleb128 0x39
 2931 0127 0B       		.uleb128 0xb
 2932 0128 49       		.uleb128 0x49
 2933 0129 13       		.uleb128 0x13
 2934 012a 02       		.uleb128 0x2
 2935 012b 17       		.uleb128 0x17
 2936 012c B742     		.uleb128 0x2137
 2937 012e 17       		.uleb128 0x17
 2938 012f 00       		.byte	0
 2939 0130 00       		.byte	0
 2940 0131 17       		.uleb128 0x17
 2941 0132 34       		.uleb128 0x34
 2942 0133 00       		.byte	0
 2943 0134 03       		.uleb128 0x3
 2944 0135 08       		.uleb128 0x8
 2945 0136 3A       		.uleb128 0x3a
 2946 0137 0B       		.uleb128 0xb
 2947 0138 3B       		.uleb128 0x3b
 2948 0139 05       		.uleb128 0x5
 2949 013a 39       		.uleb128 0x39
 2950 013b 0B       		.uleb128 0xb
 2951 013c 49       		.uleb128 0x49
 2952 013d 13       		.uleb128 0x13
 2953 013e 02       		.uleb128 0x2
 2954 013f 17       		.uleb128 0x17
 2955 0140 B742     		.uleb128 0x2137
 2956 0142 17       		.uleb128 0x17
 2957 0143 00       		.byte	0
 2958 0144 00       		.byte	0
 2959 0145 18       		.uleb128 0x18
 2960 0146 898201   		.uleb128 0x4109
 2961 0149 01       		.byte	0x1
 2962 014a 11       		.uleb128 0x11
 2963 014b 01       		.uleb128 0x1
 2964 014c 9342     		.uleb128 0x2113
ARM GAS  /var/folders/l5/0x54b2c10074c8bt31ycjvl80000gp/T//ccvkVa4l.s 			page 53


 2965 014e 18       		.uleb128 0x18
 2966 014f 01       		.uleb128 0x1
 2967 0150 13       		.uleb128 0x13
 2968 0151 00       		.byte	0
 2969 0152 00       		.byte	0
 2970 0153 19       		.uleb128 0x19
 2971 0154 8A8201   		.uleb128 0x410a
 2972 0157 00       		.byte	0
 2973 0158 02       		.uleb128 0x2
 2974 0159 18       		.uleb128 0x18
 2975 015a 9142     		.uleb128 0x2111
 2976 015c 18       		.uleb128 0x18
 2977 015d 00       		.byte	0
 2978 015e 00       		.byte	0
 2979 015f 1A       		.uleb128 0x1a
 2980 0160 898201   		.uleb128 0x4109
 2981 0163 01       		.byte	0x1
 2982 0164 11       		.uleb128 0x11
 2983 0165 01       		.uleb128 0x1
 2984 0166 31       		.uleb128 0x31
 2985 0167 13       		.uleb128 0x13
 2986 0168 00       		.byte	0
 2987 0169 00       		.byte	0
 2988 016a 1B       		.uleb128 0x1b
 2989 016b 1D       		.uleb128 0x1d
 2990 016c 01       		.byte	0x1
 2991 016d 31       		.uleb128 0x31
 2992 016e 13       		.uleb128 0x13
 2993 016f 52       		.uleb128 0x52
 2994 0170 01       		.uleb128 0x1
 2995 0171 B842     		.uleb128 0x2138
 2996 0173 0B       		.uleb128 0xb
 2997 0174 55       		.uleb128 0x55
 2998 0175 17       		.uleb128 0x17
 2999 0176 58       		.uleb128 0x58
 3000 0177 0B       		.uleb128 0xb
 3001 0178 59       		.uleb128 0x59
 3002 0179 05       		.uleb128 0x5
 3003 017a 57       		.uleb128 0x57
 3004 017b 0B       		.uleb128 0xb
 3005 017c 01       		.uleb128 0x1
 3006 017d 13       		.uleb128 0x13
 3007 017e 00       		.byte	0
 3008 017f 00       		.byte	0
 3009 0180 1C       		.uleb128 0x1c
 3010 0181 05       		.uleb128 0x5
 3011 0182 00       		.byte	0
 3012 0183 31       		.uleb128 0x31
 3013 0184 13       		.uleb128 0x13
 3014 0185 02       		.uleb128 0x2
 3015 0186 17       		.uleb128 0x17
 3016 0187 B742     		.uleb128 0x2137
 3017 0189 17       		.uleb128 0x17
 3018 018a 00       		.byte	0
 3019 018b 00       		.byte	0
 3020 018c 1D       		.uleb128 0x1d
 3021 018d 0B       		.uleb128 0xb
ARM GAS  /var/folders/l5/0x54b2c10074c8bt31ycjvl80000gp/T//ccvkVa4l.s 			page 54


 3022 018e 01       		.byte	0x1
 3023 018f 55       		.uleb128 0x55
 3024 0190 17       		.uleb128 0x17
 3025 0191 00       		.byte	0
 3026 0192 00       		.byte	0
 3027 0193 1E       		.uleb128 0x1e
 3028 0194 34       		.uleb128 0x34
 3029 0195 00       		.byte	0
 3030 0196 31       		.uleb128 0x31
 3031 0197 13       		.uleb128 0x13
 3032 0198 02       		.uleb128 0x2
 3033 0199 17       		.uleb128 0x17
 3034 019a B742     		.uleb128 0x2137
 3035 019c 17       		.uleb128 0x17
 3036 019d 00       		.byte	0
 3037 019e 00       		.byte	0
 3038 019f 1F       		.uleb128 0x1f
 3039 01a0 898201   		.uleb128 0x4109
 3040 01a3 00       		.byte	0
 3041 01a4 11       		.uleb128 0x11
 3042 01a5 01       		.uleb128 0x1
 3043 01a6 31       		.uleb128 0x31
 3044 01a7 13       		.uleb128 0x13
 3045 01a8 00       		.byte	0
 3046 01a9 00       		.byte	0
 3047 01aa 20       		.uleb128 0x20
 3048 01ab 0B       		.uleb128 0xb
 3049 01ac 01       		.byte	0x1
 3050 01ad 55       		.uleb128 0x55
 3051 01ae 17       		.uleb128 0x17
 3052 01af 01       		.uleb128 0x1
 3053 01b0 13       		.uleb128 0x13
 3054 01b1 00       		.byte	0
 3055 01b2 00       		.byte	0
 3056 01b3 21       		.uleb128 0x21
 3057 01b4 898201   		.uleb128 0x4109
 3058 01b7 01       		.byte	0x1
 3059 01b8 11       		.uleb128 0x11
 3060 01b9 01       		.uleb128 0x1
 3061 01ba 00       		.byte	0
 3062 01bb 00       		.byte	0
 3063 01bc 22       		.uleb128 0x22
 3064 01bd 2E       		.uleb128 0x2e
 3065 01be 01       		.byte	0x1
 3066 01bf 3F       		.uleb128 0x3f
 3067 01c0 19       		.uleb128 0x19
 3068 01c1 03       		.uleb128 0x3
 3069 01c2 0E       		.uleb128 0xe
 3070 01c3 3A       		.uleb128 0x3a
 3071 01c4 0B       		.uleb128 0xb
 3072 01c5 3B       		.uleb128 0x3b
 3073 01c6 05       		.uleb128 0x5
 3074 01c7 39       		.uleb128 0x39
 3075 01c8 0B       		.uleb128 0xb
 3076 01c9 27       		.uleb128 0x27
 3077 01ca 19       		.uleb128 0x19
 3078 01cb 11       		.uleb128 0x11
ARM GAS  /var/folders/l5/0x54b2c10074c8bt31ycjvl80000gp/T//ccvkVa4l.s 			page 55


 3079 01cc 01       		.uleb128 0x1
 3080 01cd 12       		.uleb128 0x12
 3081 01ce 06       		.uleb128 0x6
 3082 01cf 40       		.uleb128 0x40
 3083 01d0 18       		.uleb128 0x18
 3084 01d1 9742     		.uleb128 0x2117
 3085 01d3 19       		.uleb128 0x19
 3086 01d4 01       		.uleb128 0x1
 3087 01d5 13       		.uleb128 0x13
 3088 01d6 00       		.byte	0
 3089 01d7 00       		.byte	0
 3090 01d8 23       		.uleb128 0x23
 3091 01d9 05       		.uleb128 0x5
 3092 01da 00       		.byte	0
 3093 01db 03       		.uleb128 0x3
 3094 01dc 08       		.uleb128 0x8
 3095 01dd 3A       		.uleb128 0x3a
 3096 01de 0B       		.uleb128 0xb
 3097 01df 3B       		.uleb128 0x3b
 3098 01e0 05       		.uleb128 0x5
 3099 01e1 39       		.uleb128 0x39
 3100 01e2 0B       		.uleb128 0xb
 3101 01e3 49       		.uleb128 0x49
 3102 01e4 13       		.uleb128 0x13
 3103 01e5 02       		.uleb128 0x2
 3104 01e6 18       		.uleb128 0x18
 3105 01e7 00       		.byte	0
 3106 01e8 00       		.byte	0
 3107 01e9 24       		.uleb128 0x24
 3108 01ea 05       		.uleb128 0x5
 3109 01eb 00       		.byte	0
 3110 01ec 03       		.uleb128 0x3
 3111 01ed 0E       		.uleb128 0xe
 3112 01ee 3A       		.uleb128 0x3a
 3113 01ef 0B       		.uleb128 0xb
 3114 01f0 3B       		.uleb128 0x3b
 3115 01f1 05       		.uleb128 0x5
 3116 01f2 39       		.uleb128 0x39
 3117 01f3 0B       		.uleb128 0xb
 3118 01f4 49       		.uleb128 0x49
 3119 01f5 13       		.uleb128 0x13
 3120 01f6 02       		.uleb128 0x2
 3121 01f7 18       		.uleb128 0x18
 3122 01f8 00       		.byte	0
 3123 01f9 00       		.byte	0
 3124 01fa 25       		.uleb128 0x25
 3125 01fb 2E       		.uleb128 0x2e
 3126 01fc 01       		.byte	0x1
 3127 01fd 3F       		.uleb128 0x3f
 3128 01fe 19       		.uleb128 0x19
 3129 01ff 03       		.uleb128 0x3
 3130 0200 0E       		.uleb128 0xe
 3131 0201 3A       		.uleb128 0x3a
 3132 0202 0B       		.uleb128 0xb
 3133 0203 3B       		.uleb128 0x3b
 3134 0204 0B       		.uleb128 0xb
 3135 0205 39       		.uleb128 0x39
ARM GAS  /var/folders/l5/0x54b2c10074c8bt31ycjvl80000gp/T//ccvkVa4l.s 			page 56


 3136 0206 0B       		.uleb128 0xb
 3137 0207 27       		.uleb128 0x27
 3138 0208 19       		.uleb128 0x19
 3139 0209 49       		.uleb128 0x49
 3140 020a 13       		.uleb128 0x13
 3141 020b 11       		.uleb128 0x11
 3142 020c 01       		.uleb128 0x1
 3143 020d 12       		.uleb128 0x12
 3144 020e 06       		.uleb128 0x6
 3145 020f 40       		.uleb128 0x40
 3146 0210 18       		.uleb128 0x18
 3147 0211 9742     		.uleb128 0x2117
 3148 0213 19       		.uleb128 0x19
 3149 0214 01       		.uleb128 0x1
 3150 0215 13       		.uleb128 0x13
 3151 0216 00       		.byte	0
 3152 0217 00       		.byte	0
 3153 0218 26       		.uleb128 0x26
 3154 0219 05       		.uleb128 0x5
 3155 021a 00       		.byte	0
 3156 021b 03       		.uleb128 0x3
 3157 021c 08       		.uleb128 0x8
 3158 021d 3A       		.uleb128 0x3a
 3159 021e 0B       		.uleb128 0xb
 3160 021f 3B       		.uleb128 0x3b
 3161 0220 0B       		.uleb128 0xb
 3162 0221 39       		.uleb128 0x39
 3163 0222 0B       		.uleb128 0xb
 3164 0223 49       		.uleb128 0x49
 3165 0224 13       		.uleb128 0x13
 3166 0225 02       		.uleb128 0x2
 3167 0226 17       		.uleb128 0x17
 3168 0227 B742     		.uleb128 0x2137
 3169 0229 17       		.uleb128 0x17
 3170 022a 00       		.byte	0
 3171 022b 00       		.byte	0
 3172 022c 27       		.uleb128 0x27
 3173 022d 05       		.uleb128 0x5
 3174 022e 00       		.byte	0
 3175 022f 03       		.uleb128 0x3
 3176 0230 0E       		.uleb128 0xe
 3177 0231 3A       		.uleb128 0x3a
 3178 0232 0B       		.uleb128 0xb
 3179 0233 3B       		.uleb128 0x3b
 3180 0234 0B       		.uleb128 0xb
 3181 0235 39       		.uleb128 0x39
 3182 0236 0B       		.uleb128 0xb
 3183 0237 49       		.uleb128 0x49
 3184 0238 13       		.uleb128 0x13
 3185 0239 02       		.uleb128 0x2
 3186 023a 17       		.uleb128 0x17
 3187 023b B742     		.uleb128 0x2137
 3188 023d 17       		.uleb128 0x17
 3189 023e 00       		.byte	0
 3190 023f 00       		.byte	0
 3191 0240 28       		.uleb128 0x28
 3192 0241 34       		.uleb128 0x34
ARM GAS  /var/folders/l5/0x54b2c10074c8bt31ycjvl80000gp/T//ccvkVa4l.s 			page 57


 3193 0242 00       		.byte	0
 3194 0243 03       		.uleb128 0x3
 3195 0244 08       		.uleb128 0x8
 3196 0245 3A       		.uleb128 0x3a
 3197 0246 0B       		.uleb128 0xb
 3198 0247 3B       		.uleb128 0x3b
 3199 0248 0B       		.uleb128 0xb
 3200 0249 39       		.uleb128 0x39
 3201 024a 0B       		.uleb128 0xb
 3202 024b 49       		.uleb128 0x49
 3203 024c 13       		.uleb128 0x13
 3204 024d 02       		.uleb128 0x2
 3205 024e 17       		.uleb128 0x17
 3206 024f B742     		.uleb128 0x2137
 3207 0251 17       		.uleb128 0x17
 3208 0252 00       		.byte	0
 3209 0253 00       		.byte	0
 3210 0254 29       		.uleb128 0x29
 3211 0255 0B       		.uleb128 0xb
 3212 0256 01       		.byte	0x1
 3213 0257 11       		.uleb128 0x11
 3214 0258 01       		.uleb128 0x1
 3215 0259 12       		.uleb128 0x12
 3216 025a 06       		.uleb128 0x6
 3217 025b 01       		.uleb128 0x1
 3218 025c 13       		.uleb128 0x13
 3219 025d 00       		.byte	0
 3220 025e 00       		.byte	0
 3221 025f 2A       		.uleb128 0x2a
 3222 0260 1D       		.uleb128 0x1d
 3223 0261 01       		.byte	0x1
 3224 0262 31       		.uleb128 0x31
 3225 0263 13       		.uleb128 0x13
 3226 0264 52       		.uleb128 0x52
 3227 0265 01       		.uleb128 0x1
 3228 0266 B842     		.uleb128 0x2138
 3229 0268 0B       		.uleb128 0xb
 3230 0269 55       		.uleb128 0x55
 3231 026a 17       		.uleb128 0x17
 3232 026b 58       		.uleb128 0x58
 3233 026c 0B       		.uleb128 0xb
 3234 026d 59       		.uleb128 0x59
 3235 026e 0B       		.uleb128 0xb
 3236 026f 57       		.uleb128 0x57
 3237 0270 0B       		.uleb128 0xb
 3238 0271 01       		.uleb128 0x1
 3239 0272 13       		.uleb128 0x13
 3240 0273 00       		.byte	0
 3241 0274 00       		.byte	0
 3242 0275 2B       		.uleb128 0x2b
 3243 0276 2E       		.uleb128 0x2e
 3244 0277 01       		.byte	0x1
 3245 0278 3F       		.uleb128 0x3f
 3246 0279 19       		.uleb128 0x19
 3247 027a 03       		.uleb128 0x3
 3248 027b 0E       		.uleb128 0xe
 3249 027c 3A       		.uleb128 0x3a
ARM GAS  /var/folders/l5/0x54b2c10074c8bt31ycjvl80000gp/T//ccvkVa4l.s 			page 58


 3250 027d 0B       		.uleb128 0xb
 3251 027e 3B       		.uleb128 0x3b
 3252 027f 0B       		.uleb128 0xb
 3253 0280 39       		.uleb128 0x39
 3254 0281 0B       		.uleb128 0xb
 3255 0282 27       		.uleb128 0x27
 3256 0283 19       		.uleb128 0x19
 3257 0284 11       		.uleb128 0x11
 3258 0285 01       		.uleb128 0x1
 3259 0286 12       		.uleb128 0x12
 3260 0287 06       		.uleb128 0x6
 3261 0288 40       		.uleb128 0x40
 3262 0289 18       		.uleb128 0x18
 3263 028a 9742     		.uleb128 0x2117
 3264 028c 19       		.uleb128 0x19
 3265 028d 01       		.uleb128 0x1
 3266 028e 13       		.uleb128 0x13
 3267 028f 00       		.byte	0
 3268 0290 00       		.byte	0
 3269 0291 2C       		.uleb128 0x2c
 3270 0292 05       		.uleb128 0x5
 3271 0293 00       		.byte	0
 3272 0294 03       		.uleb128 0x3
 3273 0295 08       		.uleb128 0x8
 3274 0296 3A       		.uleb128 0x3a
 3275 0297 0B       		.uleb128 0xb
 3276 0298 3B       		.uleb128 0x3b
 3277 0299 0B       		.uleb128 0xb
 3278 029a 39       		.uleb128 0x39
 3279 029b 0B       		.uleb128 0xb
 3280 029c 49       		.uleb128 0x49
 3281 029d 13       		.uleb128 0x13
 3282 029e 02       		.uleb128 0x2
 3283 029f 18       		.uleb128 0x18
 3284 02a0 00       		.byte	0
 3285 02a1 00       		.byte	0
 3286 02a2 2D       		.uleb128 0x2d
 3287 02a3 05       		.uleb128 0x5
 3288 02a4 00       		.byte	0
 3289 02a5 03       		.uleb128 0x3
 3290 02a6 0E       		.uleb128 0xe
 3291 02a7 3A       		.uleb128 0x3a
 3292 02a8 0B       		.uleb128 0xb
 3293 02a9 3B       		.uleb128 0x3b
 3294 02aa 0B       		.uleb128 0xb
 3295 02ab 39       		.uleb128 0x39
 3296 02ac 0B       		.uleb128 0xb
 3297 02ad 49       		.uleb128 0x49
 3298 02ae 13       		.uleb128 0x13
 3299 02af 02       		.uleb128 0x2
 3300 02b0 18       		.uleb128 0x18
 3301 02b1 00       		.byte	0
 3302 02b2 00       		.byte	0
 3303 02b3 2E       		.uleb128 0x2e
 3304 02b4 2E       		.uleb128 0x2e
 3305 02b5 01       		.byte	0x1
 3306 02b6 03       		.uleb128 0x3
ARM GAS  /var/folders/l5/0x54b2c10074c8bt31ycjvl80000gp/T//ccvkVa4l.s 			page 59


 3307 02b7 0E       		.uleb128 0xe
 3308 02b8 3A       		.uleb128 0x3a
 3309 02b9 0B       		.uleb128 0xb
 3310 02ba 3B       		.uleb128 0x3b
 3311 02bb 0B       		.uleb128 0xb
 3312 02bc 39       		.uleb128 0x39
 3313 02bd 0B       		.uleb128 0xb
 3314 02be 27       		.uleb128 0x27
 3315 02bf 19       		.uleb128 0x19
 3316 02c0 49       		.uleb128 0x49
 3317 02c1 13       		.uleb128 0x13
 3318 02c2 11       		.uleb128 0x11
 3319 02c3 01       		.uleb128 0x1
 3320 02c4 12       		.uleb128 0x12
 3321 02c5 06       		.uleb128 0x6
 3322 02c6 40       		.uleb128 0x40
 3323 02c7 18       		.uleb128 0x18
 3324 02c8 9742     		.uleb128 0x2117
 3325 02ca 19       		.uleb128 0x19
 3326 02cb 01       		.uleb128 0x1
 3327 02cc 13       		.uleb128 0x13
 3328 02cd 00       		.byte	0
 3329 02ce 00       		.byte	0
 3330 02cf 2F       		.uleb128 0x2f
 3331 02d0 898201   		.uleb128 0x4109
 3332 02d3 01       		.byte	0x1
 3333 02d4 11       		.uleb128 0x11
 3334 02d5 01       		.uleb128 0x1
 3335 02d6 9542     		.uleb128 0x2115
 3336 02d8 19       		.uleb128 0x19
 3337 02d9 31       		.uleb128 0x31
 3338 02da 13       		.uleb128 0x13
 3339 02db 00       		.byte	0
 3340 02dc 00       		.byte	0
 3341 02dd 30       		.uleb128 0x30
 3342 02de 2E       		.uleb128 0x2e
 3343 02df 01       		.byte	0x1
 3344 02e0 03       		.uleb128 0x3
 3345 02e1 0E       		.uleb128 0xe
 3346 02e2 3A       		.uleb128 0x3a
 3347 02e3 0B       		.uleb128 0xb
 3348 02e4 3B       		.uleb128 0x3b
 3349 02e5 0B       		.uleb128 0xb
 3350 02e6 39       		.uleb128 0x39
 3351 02e7 0B       		.uleb128 0xb
 3352 02e8 27       		.uleb128 0x27
 3353 02e9 19       		.uleb128 0x19
 3354 02ea 49       		.uleb128 0x49
 3355 02eb 13       		.uleb128 0x13
 3356 02ec 20       		.uleb128 0x20
 3357 02ed 0B       		.uleb128 0xb
 3358 02ee 01       		.uleb128 0x1
 3359 02ef 13       		.uleb128 0x13
 3360 02f0 00       		.byte	0
 3361 02f1 00       		.byte	0
 3362 02f2 31       		.uleb128 0x31
 3363 02f3 05       		.uleb128 0x5
ARM GAS  /var/folders/l5/0x54b2c10074c8bt31ycjvl80000gp/T//ccvkVa4l.s 			page 60


 3364 02f4 00       		.byte	0
 3365 02f5 03       		.uleb128 0x3
 3366 02f6 08       		.uleb128 0x8
 3367 02f7 3A       		.uleb128 0x3a
 3368 02f8 0B       		.uleb128 0xb
 3369 02f9 3B       		.uleb128 0x3b
 3370 02fa 0B       		.uleb128 0xb
 3371 02fb 39       		.uleb128 0x39
 3372 02fc 0B       		.uleb128 0xb
 3373 02fd 49       		.uleb128 0x49
 3374 02fe 13       		.uleb128 0x13
 3375 02ff 00       		.byte	0
 3376 0300 00       		.byte	0
 3377 0301 32       		.uleb128 0x32
 3378 0302 34       		.uleb128 0x34
 3379 0303 00       		.byte	0
 3380 0304 03       		.uleb128 0x3
 3381 0305 08       		.uleb128 0x8
 3382 0306 3A       		.uleb128 0x3a
 3383 0307 0B       		.uleb128 0xb
 3384 0308 3B       		.uleb128 0x3b
 3385 0309 0B       		.uleb128 0xb
 3386 030a 39       		.uleb128 0x39
 3387 030b 0B       		.uleb128 0xb
 3388 030c 49       		.uleb128 0x49
 3389 030d 13       		.uleb128 0x13
 3390 030e 00       		.byte	0
 3391 030f 00       		.byte	0
 3392 0310 33       		.uleb128 0x33
 3393 0311 2E       		.uleb128 0x2e
 3394 0312 01       		.byte	0x1
 3395 0313 03       		.uleb128 0x3
 3396 0314 0E       		.uleb128 0xe
 3397 0315 3A       		.uleb128 0x3a
 3398 0316 0B       		.uleb128 0xb
 3399 0317 3B       		.uleb128 0x3b
 3400 0318 0B       		.uleb128 0xb
 3401 0319 39       		.uleb128 0x39
 3402 031a 0B       		.uleb128 0xb
 3403 031b 27       		.uleb128 0x27
 3404 031c 19       		.uleb128 0x19
 3405 031d 20       		.uleb128 0x20
 3406 031e 0B       		.uleb128 0xb
 3407 031f 01       		.uleb128 0x1
 3408 0320 13       		.uleb128 0x13
 3409 0321 00       		.byte	0
 3410 0322 00       		.byte	0
 3411 0323 34       		.uleb128 0x34
 3412 0324 2E       		.uleb128 0x2e
 3413 0325 00       		.byte	0
 3414 0326 3F       		.uleb128 0x3f
 3415 0327 19       		.uleb128 0x19
 3416 0328 3C       		.uleb128 0x3c
 3417 0329 19       		.uleb128 0x19
 3418 032a 6E       		.uleb128 0x6e
 3419 032b 0E       		.uleb128 0xe
 3420 032c 03       		.uleb128 0x3
ARM GAS  /var/folders/l5/0x54b2c10074c8bt31ycjvl80000gp/T//ccvkVa4l.s 			page 61


 3421 032d 0E       		.uleb128 0xe
 3422 032e 3A       		.uleb128 0x3a
 3423 032f 0B       		.uleb128 0xb
 3424 0330 3B       		.uleb128 0x3b
 3425 0331 0B       		.uleb128 0xb
 3426 0332 39       		.uleb128 0x39
 3427 0333 0B       		.uleb128 0xb
 3428 0334 00       		.byte	0
 3429 0335 00       		.byte	0
 3430 0336 00       		.byte	0
 3431              		.section	.debug_loc,"",%progbits
 3432              	.Ldebug_loc0:
 3433              	.LVUS33:
 3434 0000 00       		.uleb128 0
 3435 0001 00       		.uleb128 .LVU349
 3436 0002 00       		.uleb128 .LVU349
 3437 0003 00       		.uleb128 0
 3438              	.LLST33:
 3439 0004 00000000 		.4byte	.LVL56
 3440 0008 20000000 		.4byte	.LVL58
 3441 000c 0100     		.2byte	0x1
 3442 000e 50       		.byte	0x50
 3443 000f 20000000 		.4byte	.LVL58
 3444 0013 B0000000 		.4byte	.LFE17
 3445 0017 0100     		.2byte	0x1
 3446 0019 54       		.byte	0x54
 3447 001a 00000000 		.4byte	0
 3448 001e 00000000 		.4byte	0
 3449              	.LVUS34:
 3450 0022 00       		.uleb128 0
 3451 0023 00       		.uleb128 .LVU349
 3452 0024 00       		.uleb128 .LVU349
 3453 0025 00       		.uleb128 .LVU362
 3454 0026 00       		.uleb128 .LVU362
 3455 0027 02       		.uleb128 .LVU380
 3456 0028 02       		.uleb128 .LVU380
 3457 0029 02       		.uleb128 .LVU394
 3458              	.LLST34:
 3459 002a 00000000 		.4byte	.LVL56
 3460 002e 20000000 		.4byte	.LVL58
 3461 0032 0100     		.2byte	0x1
 3462 0034 51       		.byte	0x51
 3463 0035 20000000 		.4byte	.LVL58
 3464 0039 44000000 		.4byte	.LVL59
 3465 003d 0100     		.2byte	0x1
 3466 003f 55       		.byte	0x55
 3467 0040 44000000 		.4byte	.LVL59
 3468 0044 80000000 		.4byte	.LVL63
 3469 0048 0300     		.2byte	0x3
 3470 004a 75       		.byte	0x75
 3471 004b 7F       		.sleb128 -1
 3472 004c 9F       		.byte	0x9f
 3473 004d 80000000 		.4byte	.LVL63
 3474 0051 A8000000 		.4byte	.LVL65
 3475 0055 0100     		.2byte	0x1
 3476 0057 55       		.byte	0x55
 3477 0058 00000000 		.4byte	0
ARM GAS  /var/folders/l5/0x54b2c10074c8bt31ycjvl80000gp/T//ccvkVa4l.s 			page 62


 3478 005c 00000000 		.4byte	0
 3479              	.LVUS35:
 3480 0060 00       		.uleb128 0
 3481 0061 00       		.uleb128 .LVU349
 3482 0062 00       		.uleb128 .LVU349
 3483 0063 00       		.uleb128 .LVU374
 3484 0064 00       		.uleb128 .LVU374
 3485 0065 01       		.uleb128 .LVU376
 3486 0066 02       		.uleb128 .LVU380
 3487 0067 02       		.uleb128 .LVU394
 3488              	.LLST35:
 3489 0068 00000000 		.4byte	.LVL56
 3490 006c 20000000 		.4byte	.LVL58
 3491 0070 0100     		.2byte	0x1
 3492 0072 52       		.byte	0x52
 3493 0073 20000000 		.4byte	.LVL58
 3494 0077 74000000 		.4byte	.LVL61
 3495 007b 0100     		.2byte	0x1
 3496 007d 56       		.byte	0x56
 3497 007e 74000000 		.4byte	.LVL61
 3498 0082 78000000 		.4byte	.LVL62
 3499 0086 0300     		.2byte	0x3
 3500 0088 76       		.byte	0x76
 3501 0089 01       		.sleb128 1
 3502 008a 9F       		.byte	0x9f
 3503 008b 80000000 		.4byte	.LVL63
 3504 008f A8000000 		.4byte	.LVL65
 3505 0093 0100     		.2byte	0x1
 3506 0095 56       		.byte	0x56
 3507 0096 00000000 		.4byte	0
 3508 009a 00000000 		.4byte	0
 3509              	.LVUS36:
 3510 009e 00       		.uleb128 0
 3511 009f 00       		.uleb128 .LVU349
 3512 00a0 00       		.uleb128 .LVU349
 3513 00a1 00       		.uleb128 0
 3514              	.LLST36:
 3515 00a2 00000000 		.4byte	.LVL56
 3516 00a6 20000000 		.4byte	.LVL58
 3517 00aa 0100     		.2byte	0x1
 3518 00ac 53       		.byte	0x53
 3519 00ad 20000000 		.4byte	.LVL58
 3520 00b1 B0000000 		.4byte	.LFE17
 3521 00b5 0100     		.2byte	0x1
 3522 00b7 59       		.byte	0x59
 3523 00b8 00000000 		.4byte	0
 3524 00bc 00000000 		.4byte	0
 3525              	.LVUS37:
 3526 00c0 00       		.uleb128 .LVU344
 3527 00c1 00       		.uleb128 0
 3528              	.LLST37:
 3529 00c2 18000000 		.4byte	.LVL57
 3530 00c6 B0000000 		.4byte	.LFE17
 3531 00ca 0100     		.2byte	0x1
 3532 00cc 58       		.byte	0x58
 3533 00cd 00000000 		.4byte	0
 3534 00d1 00000000 		.4byte	0
ARM GAS  /var/folders/l5/0x54b2c10074c8bt31ycjvl80000gp/T//ccvkVa4l.s 			page 63


 3535              	.LVUS38:
 3536 00d5 01       		.uleb128 .LVU345
 3537 00d6 00       		.uleb128 .LVU349
 3538 00d7 00       		.uleb128 .LVU349
 3539 00d8 00       		.uleb128 0
 3540              	.LLST38:
 3541 00d9 18000000 		.4byte	.LVL57
 3542 00dd 20000000 		.4byte	.LVL58
 3543 00e1 0200     		.2byte	0x2
 3544 00e3 30       		.byte	0x30
 3545 00e4 9F       		.byte	0x9f
 3546 00e5 20000000 		.4byte	.LVL58
 3547 00e9 B0000000 		.4byte	.LFE17
 3548 00ed 0100     		.2byte	0x1
 3549 00ef 57       		.byte	0x57
 3550 00f0 00000000 		.4byte	0
 3551 00f4 00000000 		.4byte	0
 3552              	.LVUS29:
 3553 00f8 00       		.uleb128 0
 3554 00f9 00       		.uleb128 .LVU327
 3555 00fa 00       		.uleb128 .LVU327
 3556 00fb 00       		.uleb128 .LVU332
 3557 00fc 00       		.uleb128 .LVU332
 3558 00fd 00       		.uleb128 .LVU336
 3559 00fe 00       		.uleb128 .LVU336
 3560 00ff 00       		.uleb128 .LVU338
 3561 0100 00       		.uleb128 .LVU338
 3562 0101 00       		.uleb128 0
 3563              	.LLST29:
 3564 0102 00000000 		.4byte	.LVL48
 3565 0106 54000000 		.4byte	.LVL51
 3566 010a 0100     		.2byte	0x1
 3567 010c 50       		.byte	0x50
 3568 010d 54000000 		.4byte	.LVL51
 3569 0111 5F000000 		.4byte	.LVL53-1
 3570 0115 0100     		.2byte	0x1
 3571 0117 53       		.byte	0x53
 3572 0118 5F000000 		.4byte	.LVL53-1
 3573 011c 70000000 		.4byte	.LVL54
 3574 0120 0400     		.2byte	0x4
 3575 0122 F3       		.byte	0xf3
 3576 0123 01       		.uleb128 0x1
 3577 0124 50       		.byte	0x50
 3578 0125 9F       		.byte	0x9f
 3579 0126 70000000 		.4byte	.LVL54
 3580 012a 7C000000 		.4byte	.LVL55
 3581 012e 0100     		.2byte	0x1
 3582 0130 50       		.byte	0x50
 3583 0131 7C000000 		.4byte	.LVL55
 3584 0135 80000000 		.4byte	.LFE16
 3585 0139 0400     		.2byte	0x4
 3586 013b F3       		.byte	0xf3
 3587 013c 01       		.uleb128 0x1
 3588 013d 50       		.byte	0x50
 3589 013e 9F       		.byte	0x9f
 3590 013f 00000000 		.4byte	0
 3591 0143 00000000 		.4byte	0
ARM GAS  /var/folders/l5/0x54b2c10074c8bt31ycjvl80000gp/T//ccvkVa4l.s 			page 64


 3592              	.LVUS30:
 3593 0147 00       		.uleb128 .LVU314
 3594 0148 00       		.uleb128 .LVU336
 3595              	.LLST30:
 3596 0149 34000000 		.4byte	.LVL49
 3597 014d 70000000 		.4byte	.LVL54
 3598 0151 0100     		.2byte	0x1
 3599 0153 54       		.byte	0x54
 3600 0154 00000000 		.4byte	0
 3601 0158 00000000 		.4byte	0
 3602              	.LVUS31:
 3603 015c 01       		.uleb128 .LVU322
 3604 015d 01       		.uleb128 .LVU330
 3605              	.LLST31:
 3606 015e 4C000000 		.4byte	.LVL50
 3607 0162 5C000000 		.4byte	.LVL52
 3608 0166 0100     		.2byte	0x1
 3609 0168 53       		.byte	0x53
 3610 0169 00000000 		.4byte	0
 3611 016d 00000000 		.4byte	0
 3612              	.LVUS32:
 3613 0171 03       		.uleb128 .LVU324
 3614 0172 01       		.uleb128 .LVU330
 3615              	.LLST32:
 3616 0173 4C000000 		.4byte	.LVL50
 3617 0177 5C000000 		.4byte	.LVL52
 3618 017b 0100     		.2byte	0x1
 3619 017d 52       		.byte	0x52
 3620 017e 00000000 		.4byte	0
 3621 0182 00000000 		.4byte	0
 3622              	.LVUS25:
 3623 0186 00       		.uleb128 0
 3624 0187 00       		.uleb128 .LVU264
 3625 0188 00       		.uleb128 .LVU264
 3626 0189 00       		.uleb128 0
 3627              	.LLST25:
 3628 018a 00000000 		.4byte	.LVL42
 3629 018e 18000000 		.4byte	.LVL43
 3630 0192 0100     		.2byte	0x1
 3631 0194 50       		.byte	0x50
 3632 0195 18000000 		.4byte	.LVL43
 3633 0199 8C000000 		.4byte	.LFE15
 3634 019d 0100     		.2byte	0x1
 3635 019f 54       		.byte	0x54
 3636 01a0 00000000 		.4byte	0
 3637 01a4 00000000 		.4byte	0
 3638              	.LVUS26:
 3639 01a8 00       		.uleb128 0
 3640 01a9 00       		.uleb128 .LVU264
 3641 01aa 00       		.uleb128 .LVU264
 3642 01ab 00       		.uleb128 0
 3643              	.LLST26:
 3644 01ac 00000000 		.4byte	.LVL42
 3645 01b0 18000000 		.4byte	.LVL43
 3646 01b4 0100     		.2byte	0x1
 3647 01b6 51       		.byte	0x51
 3648 01b7 18000000 		.4byte	.LVL43
ARM GAS  /var/folders/l5/0x54b2c10074c8bt31ycjvl80000gp/T//ccvkVa4l.s 			page 65


 3649 01bb 8C000000 		.4byte	.LFE15
 3650 01bf 0100     		.2byte	0x1
 3651 01c1 56       		.byte	0x56
 3652 01c2 00000000 		.4byte	0
 3653 01c6 00000000 		.4byte	0
 3654              	.LVUS27:
 3655 01ca 00       		.uleb128 0
 3656 01cb 00       		.uleb128 .LVU264
 3657 01cc 00       		.uleb128 .LVU264
 3658 01cd 00       		.uleb128 0
 3659              	.LLST27:
 3660 01ce 00000000 		.4byte	.LVL42
 3661 01d2 18000000 		.4byte	.LVL43
 3662 01d6 0100     		.2byte	0x1
 3663 01d8 52       		.byte	0x52
 3664 01d9 18000000 		.4byte	.LVL43
 3665 01dd 8C000000 		.4byte	.LFE15
 3666 01e1 0100     		.2byte	0x1
 3667 01e3 55       		.byte	0x55
 3668 01e4 00000000 		.4byte	0
 3669 01e8 00000000 		.4byte	0
 3670              	.LVUS28:
 3671 01ec 00       		.uleb128 .LVU265
 3672 01ed 00       		.uleb128 .LVU267
 3673 01ee 00       		.uleb128 .LVU292
 3674 01ef 00       		.uleb128 0
 3675              	.LLST28:
 3676 01f0 24000000 		.4byte	.LVL44
 3677 01f4 2C000000 		.4byte	.LVL45
 3678 01f8 0100     		.2byte	0x1
 3679 01fa 50       		.byte	0x50
 3680 01fb 84000000 		.4byte	.LVL47
 3681 01ff 8C000000 		.4byte	.LFE15
 3682 0203 0100     		.2byte	0x1
 3683 0205 50       		.byte	0x50
 3684 0206 00000000 		.4byte	0
 3685 020a 00000000 		.4byte	0
 3686              	.LVUS22:
 3687 020e 00       		.uleb128 0
 3688 020f 00       		.uleb128 .LVU241
 3689 0210 00       		.uleb128 .LVU241
 3690 0211 00       		.uleb128 0
 3691              	.LLST22:
 3692 0212 00000000 		.4byte	.LVL38
 3693 0216 30000000 		.4byte	.LVL39
 3694 021a 0100     		.2byte	0x1
 3695 021c 50       		.byte	0x50
 3696 021d 30000000 		.4byte	.LVL39
 3697 0221 58000000 		.4byte	.LFE14
 3698 0225 0100     		.2byte	0x1
 3699 0227 54       		.byte	0x54
 3700 0228 00000000 		.4byte	0
 3701 022c 00000000 		.4byte	0
 3702              	.LVUS23:
 3703 0230 01       		.uleb128 .LVU242
 3704 0231 01       		.uleb128 .LVU250
 3705              	.LLST23:
ARM GAS  /var/folders/l5/0x54b2c10074c8bt31ycjvl80000gp/T//ccvkVa4l.s 			page 66


 3706 0232 30000000 		.4byte	.LVL39
 3707 0236 40000000 		.4byte	.LVL40
 3708 023a 0100     		.2byte	0x1
 3709 023c 54       		.byte	0x54
 3710 023d 00000000 		.4byte	0
 3711 0241 00000000 		.4byte	0
 3712              	.LVUS24:
 3713 0245 03       		.uleb128 .LVU244
 3714 0246 01       		.uleb128 .LVU250
 3715              	.LLST24:
 3716 0247 30000000 		.4byte	.LVL39
 3717 024b 40000000 		.4byte	.LVL40
 3718 024f 0100     		.2byte	0x1
 3719 0251 53       		.byte	0x53
 3720 0252 00000000 		.4byte	0
 3721 0256 00000000 		.4byte	0
 3722              	.LVUS16:
 3723 025a 00       		.uleb128 0
 3724 025b 00       		.uleb128 .LVU165
 3725 025c 00       		.uleb128 .LVU165
 3726 025d 00       		.uleb128 0
 3727              	.LLST16:
 3728 025e 00000000 		.4byte	.LVL28
 3729 0262 20000000 		.4byte	.LVL30
 3730 0266 0100     		.2byte	0x1
 3731 0268 50       		.byte	0x50
 3732 0269 20000000 		.4byte	.LVL30
 3733 026d A8000000 		.4byte	.LFE12
 3734 0271 0100     		.2byte	0x1
 3735 0273 54       		.byte	0x54
 3736 0274 00000000 		.4byte	0
 3737 0278 00000000 		.4byte	0
 3738              	.LVUS17:
 3739 027c 00       		.uleb128 0
 3740 027d 00       		.uleb128 .LVU165
 3741 027e 00       		.uleb128 .LVU165
 3742 027f 00       		.uleb128 .LVU184
 3743 0280 00       		.uleb128 .LVU184
 3744 0281 00       		.uleb128 .LVU199
 3745 0282 00       		.uleb128 .LVU199
 3746 0283 02       		.uleb128 .LVU203
 3747              	.LLST17:
 3748 0284 00000000 		.4byte	.LVL28
 3749 0288 20000000 		.4byte	.LVL30
 3750 028c 0100     		.2byte	0x1
 3751 028e 51       		.byte	0x51
 3752 028f 20000000 		.4byte	.LVL30
 3753 0293 70000000 		.4byte	.LVL33
 3754 0297 0100     		.2byte	0x1
 3755 0299 58       		.byte	0x58
 3756 029a 70000000 		.4byte	.LVL33
 3757 029e 9C000000 		.4byte	.LVL35
 3758 02a2 0300     		.2byte	0x3
 3759 02a4 78       		.byte	0x78
 3760 02a5 7F       		.sleb128 -1
 3761 02a6 9F       		.byte	0x9f
 3762 02a7 9C000000 		.4byte	.LVL35
ARM GAS  /var/folders/l5/0x54b2c10074c8bt31ycjvl80000gp/T//ccvkVa4l.s 			page 67


 3763 02ab A0000000 		.4byte	.LVL36
 3764 02af 0100     		.2byte	0x1
 3765 02b1 58       		.byte	0x58
 3766 02b2 00000000 		.4byte	0
 3767 02b6 00000000 		.4byte	0
 3768              	.LVUS18:
 3769 02ba 00       		.uleb128 0
 3770 02bb 00       		.uleb128 .LVU165
 3771 02bc 01       		.uleb128 .LVU194
 3772 02bd 00       		.uleb128 .LVU199
 3773              	.LLST18:
 3774 02be 00000000 		.4byte	.LVL28
 3775 02c2 20000000 		.4byte	.LVL30
 3776 02c6 0100     		.2byte	0x1
 3777 02c8 52       		.byte	0x52
 3778 02c9 8C000000 		.4byte	.LVL34
 3779 02cd 9C000000 		.4byte	.LVL35
 3780 02d1 0600     		.2byte	0x6
 3781 02d3 79       		.byte	0x79
 3782 02d4 00       		.sleb128 0
 3783 02d5 76       		.byte	0x76
 3784 02d6 00       		.sleb128 0
 3785 02d7 1C       		.byte	0x1c
 3786 02d8 9F       		.byte	0x9f
 3787 02d9 00000000 		.4byte	0
 3788 02dd 00000000 		.4byte	0
 3789              	.LVUS19:
 3790 02e1 00       		.uleb128 0
 3791 02e2 00       		.uleb128 .LVU165
 3792 02e3 00       		.uleb128 .LVU165
 3793 02e4 00       		.uleb128 0
 3794              	.LLST19:
 3795 02e5 00000000 		.4byte	.LVL28
 3796 02e9 20000000 		.4byte	.LVL30
 3797 02ed 0100     		.2byte	0x1
 3798 02ef 53       		.byte	0x53
 3799 02f0 20000000 		.4byte	.LVL30
 3800 02f4 A8000000 		.4byte	.LFE12
 3801 02f8 0100     		.2byte	0x1
 3802 02fa 55       		.byte	0x55
 3803 02fb 00000000 		.4byte	0
 3804 02ff 00000000 		.4byte	0
 3805              	.LVUS20:
 3806 0303 00       		.uleb128 .LVU160
 3807 0304 00       		.uleb128 0
 3808              	.LLST20:
 3809 0305 18000000 		.4byte	.LVL29
 3810 0309 A8000000 		.4byte	.LFE12
 3811 030d 0100     		.2byte	0x1
 3812 030f 57       		.byte	0x57
 3813 0310 00000000 		.4byte	0
 3814 0314 00000000 		.4byte	0
 3815              	.LVUS21:
 3816 0318 01       		.uleb128 .LVU161
 3817 0319 00       		.uleb128 .LVU165
 3818 031a 00       		.uleb128 .LVU165
 3819 031b 00       		.uleb128 0
ARM GAS  /var/folders/l5/0x54b2c10074c8bt31ycjvl80000gp/T//ccvkVa4l.s 			page 68


 3820              	.LLST21:
 3821 031c 18000000 		.4byte	.LVL29
 3822 0320 20000000 		.4byte	.LVL30
 3823 0324 0200     		.2byte	0x2
 3824 0326 30       		.byte	0x30
 3825 0327 9F       		.byte	0x9f
 3826 0328 20000000 		.4byte	.LVL30
 3827 032c A8000000 		.4byte	.LFE12
 3828 0330 0100     		.2byte	0x1
 3829 0332 56       		.byte	0x56
 3830 0333 00000000 		.4byte	0
 3831 0337 00000000 		.4byte	0
 3832              	.LVUS12:
 3833 033b 00       		.uleb128 0
 3834 033c 00       		.uleb128 .LVU128
 3835 033d 00       		.uleb128 .LVU128
 3836 033e 00       		.uleb128 0
 3837              	.LLST12:
 3838 033f 00000000 		.4byte	.LVL22
 3839 0343 1F000000 		.4byte	.LVL23-1
 3840 0347 0100     		.2byte	0x1
 3841 0349 50       		.byte	0x50
 3842 034a 1F000000 		.4byte	.LVL23-1
 3843 034e 74000000 		.4byte	.LFE11
 3844 0352 0100     		.2byte	0x1
 3845 0354 54       		.byte	0x54
 3846 0355 00000000 		.4byte	0
 3847 0359 00000000 		.4byte	0
 3848              	.LVUS13:
 3849 035d 00       		.uleb128 0
 3850 035e 00       		.uleb128 .LVU128
 3851 035f 00       		.uleb128 .LVU128
 3852 0360 00       		.uleb128 0
 3853              	.LLST13:
 3854 0361 00000000 		.4byte	.LVL22
 3855 0365 1F000000 		.4byte	.LVL23-1
 3856 0369 0100     		.2byte	0x1
 3857 036b 51       		.byte	0x51
 3858 036c 1F000000 		.4byte	.LVL23-1
 3859 0370 74000000 		.4byte	.LFE11
 3860 0374 0100     		.2byte	0x1
 3861 0376 55       		.byte	0x55
 3862 0377 00000000 		.4byte	0
 3863 037b 00000000 		.4byte	0
 3864              	.LVUS14:
 3865 037f 00       		.uleb128 .LVU147
 3866 0380 00       		.uleb128 .LVU150
 3867              	.LLST14:
 3868 0381 68000000 		.4byte	.LVL26
 3869 0385 6C000000 		.4byte	.LVL27
 3870 0389 0100     		.2byte	0x1
 3871 038b 50       		.byte	0x50
 3872 038c 00000000 		.4byte	0
 3873 0390 00000000 		.4byte	0
 3874              	.LVUS15:
 3875 0394 00       		.uleb128 .LVU130
 3876 0395 00       		.uleb128 .LVU132
ARM GAS  /var/folders/l5/0x54b2c10074c8bt31ycjvl80000gp/T//ccvkVa4l.s 			page 69


 3877              	.LLST15:
 3878 0396 30000000 		.4byte	.LVL24
 3879 039a 38000000 		.4byte	.LVL25
 3880 039e 0100     		.2byte	0x1
 3881 03a0 50       		.byte	0x50
 3882 03a1 00000000 		.4byte	0
 3883 03a5 00000000 		.4byte	0
 3884              	.LVUS8:
 3885 03a9 00       		.uleb128 0
 3886 03aa 00       		.uleb128 .LVU103
 3887 03ab 00       		.uleb128 .LVU103
 3888 03ac 00       		.uleb128 .LVU108
 3889 03ad 00       		.uleb128 .LVU108
 3890 03ae 00       		.uleb128 .LVU111
 3891 03af 00       		.uleb128 .LVU111
 3892 03b0 00       		.uleb128 .LVU112
 3893 03b1 00       		.uleb128 .LVU112
 3894 03b2 00       		.uleb128 .LVU113
 3895 03b3 00       		.uleb128 .LVU113
 3896 03b4 00       		.uleb128 .LVU115
 3897 03b5 00       		.uleb128 .LVU115
 3898 03b6 00       		.uleb128 0
 3899              	.LLST8:
 3900 03b7 00000000 		.4byte	.LVL12
 3901 03bb 5C000000 		.4byte	.LVL15
 3902 03bf 0100     		.2byte	0x1
 3903 03c1 50       		.byte	0x50
 3904 03c2 5C000000 		.4byte	.LVL15
 3905 03c6 67000000 		.4byte	.LVL17-1
 3906 03ca 0100     		.2byte	0x1
 3907 03cc 53       		.byte	0x53
 3908 03cd 67000000 		.4byte	.LVL17-1
 3909 03d1 78000000 		.4byte	.LVL18
 3910 03d5 0400     		.2byte	0x4
 3911 03d7 F3       		.byte	0xf3
 3912 03d8 01       		.uleb128 0x1
 3913 03d9 50       		.byte	0x50
 3914 03da 9F       		.byte	0x9f
 3915 03db 78000000 		.4byte	.LVL18
 3916 03df 7C000000 		.4byte	.LVL19
 3917 03e3 0100     		.2byte	0x1
 3918 03e5 50       		.byte	0x50
 3919 03e6 7C000000 		.4byte	.LVL19
 3920 03ea 80000000 		.4byte	.LVL20
 3921 03ee 0400     		.2byte	0x4
 3922 03f0 F3       		.byte	0xf3
 3923 03f1 01       		.uleb128 0x1
 3924 03f2 50       		.byte	0x50
 3925 03f3 9F       		.byte	0x9f
 3926 03f4 80000000 		.4byte	.LVL20
 3927 03f8 8C000000 		.4byte	.LVL21
 3928 03fc 0100     		.2byte	0x1
 3929 03fe 50       		.byte	0x50
 3930 03ff 8C000000 		.4byte	.LVL21
 3931 0403 90000000 		.4byte	.LFE10
 3932 0407 0400     		.2byte	0x4
 3933 0409 F3       		.byte	0xf3
ARM GAS  /var/folders/l5/0x54b2c10074c8bt31ycjvl80000gp/T//ccvkVa4l.s 			page 70


 3934 040a 01       		.uleb128 0x1
 3935 040b 50       		.byte	0x50
 3936 040c 9F       		.byte	0x9f
 3937 040d 00000000 		.4byte	0
 3938 0411 00000000 		.4byte	0
 3939              	.LVUS9:
 3940 0415 00       		.uleb128 0
 3941 0416 00       		.uleb128 .LVU100
 3942 0417 00       		.uleb128 .LVU100
 3943 0418 00       		.uleb128 0
 3944              	.LLST9:
 3945 0419 00000000 		.4byte	.LVL12
 3946 041d 54000000 		.4byte	.LVL14
 3947 0421 0100     		.2byte	0x1
 3948 0423 51       		.byte	0x51
 3949 0424 54000000 		.4byte	.LVL14
 3950 0428 90000000 		.4byte	.LFE10
 3951 042c 0400     		.2byte	0x4
 3952 042e F3       		.byte	0xf3
 3953 042f 01       		.uleb128 0x1
 3954 0430 51       		.byte	0x51
 3955 0431 9F       		.byte	0x9f
 3956 0432 00000000 		.4byte	0
 3957 0436 00000000 		.4byte	0
 3958              	.LVUS10:
 3959 043a 01       		.uleb128 .LVU96
 3960 043b 01       		.uleb128 .LVU106
 3961              	.LLST10:
 3962 043c 50000000 		.4byte	.LVL13
 3963 0440 64000000 		.4byte	.LVL16
 3964 0444 0100     		.2byte	0x1
 3965 0446 53       		.byte	0x53
 3966 0447 00000000 		.4byte	0
 3967 044b 00000000 		.4byte	0
 3968              	.LVUS11:
 3969 044f 03       		.uleb128 .LVU98
 3970 0450 01       		.uleb128 .LVU106
 3971              	.LLST11:
 3972 0451 50000000 		.4byte	.LVL13
 3973 0455 64000000 		.4byte	.LVL16
 3974 0459 0100     		.2byte	0x1
 3975 045b 52       		.byte	0x52
 3976 045c 00000000 		.4byte	0
 3977 0460 00000000 		.4byte	0
 3978              	.LVUS5:
 3979 0464 00       		.uleb128 0
 3980 0465 00       		.uleb128 .LVU59
 3981 0466 00       		.uleb128 .LVU59
 3982 0467 00       		.uleb128 0
 3983              	.LLST5:
 3984 0468 00000000 		.4byte	.LVL8
 3985 046c 2C000000 		.4byte	.LVL9
 3986 0470 0100     		.2byte	0x1
 3987 0472 50       		.byte	0x50
 3988 0473 2C000000 		.4byte	.LVL9
 3989 0477 54000000 		.4byte	.LFE9
 3990 047b 0100     		.2byte	0x1
ARM GAS  /var/folders/l5/0x54b2c10074c8bt31ycjvl80000gp/T//ccvkVa4l.s 			page 71


 3991 047d 54       		.byte	0x54
 3992 047e 00000000 		.4byte	0
 3993 0482 00000000 		.4byte	0
 3994              	.LVUS6:
 3995 0486 01       		.uleb128 .LVU60
 3996 0487 01       		.uleb128 .LVU68
 3997              	.LLST6:
 3998 0488 2C000000 		.4byte	.LVL9
 3999 048c 3C000000 		.4byte	.LVL10
 4000 0490 0100     		.2byte	0x1
 4001 0492 54       		.byte	0x54
 4002 0493 00000000 		.4byte	0
 4003 0497 00000000 		.4byte	0
 4004              	.LVUS7:
 4005 049b 03       		.uleb128 .LVU62
 4006 049c 01       		.uleb128 .LVU68
 4007              	.LLST7:
 4008 049d 2C000000 		.4byte	.LVL9
 4009 04a1 3C000000 		.4byte	.LVL10
 4010 04a5 0100     		.2byte	0x1
 4011 04a7 53       		.byte	0x53
 4012 04a8 00000000 		.4byte	0
 4013 04ac 00000000 		.4byte	0
 4014              	.LVUS4:
 4015 04b0 00       		.uleb128 0
 4016 04b1 00       		.uleb128 .LVU28
 4017 04b2 00       		.uleb128 .LVU28
 4018 04b3 00       		.uleb128 0
 4019              	.LLST4:
 4020 04b4 00000000 		.4byte	.LVL6
 4021 04b8 10000000 		.4byte	.LVL7
 4022 04bc 0100     		.2byte	0x1
 4023 04be 52       		.byte	0x52
 4024 04bf 10000000 		.4byte	.LVL7
 4025 04c3 38000000 		.4byte	.LFE8
 4026 04c7 0400     		.2byte	0x4
 4027 04c9 F3       		.byte	0xf3
 4028 04ca 01       		.uleb128 0x1
 4029 04cb 52       		.byte	0x52
 4030 04cc 9F       		.byte	0x9f
 4031 04cd 00000000 		.4byte	0
 4032 04d1 00000000 		.4byte	0
 4033              	.LVUS0:
 4034 04d5 00       		.uleb128 0
 4035 04d6 00       		.uleb128 .LVU9
 4036 04d7 00       		.uleb128 .LVU9
 4037 04d8 00       		.uleb128 .LVU20
 4038 04d9 00       		.uleb128 .LVU20
 4039 04da 00       		.uleb128 .LVU20
 4040 04db 00       		.uleb128 .LVU20
 4041 04dc 00       		.uleb128 .LVU21
 4042 04dd 00       		.uleb128 .LVU21
 4043 04de 00       		.uleb128 0
 4044              	.LLST0:
 4045 04df 00000000 		.4byte	.LVL0
 4046 04e3 1C000000 		.4byte	.LVL1
 4047 04e7 0100     		.2byte	0x1
ARM GAS  /var/folders/l5/0x54b2c10074c8bt31ycjvl80000gp/T//ccvkVa4l.s 			page 72


 4048 04e9 50       		.byte	0x50
 4049 04ea 1C000000 		.4byte	.LVL1
 4050 04ee 2F000000 		.4byte	.LVL4-1
 4051 04f2 0100     		.2byte	0x1
 4052 04f4 52       		.byte	0x52
 4053 04f5 2F000000 		.4byte	.LVL4-1
 4054 04f9 30000000 		.4byte	.LVL4
 4055 04fd 0400     		.2byte	0x4
 4056 04ff F3       		.byte	0xf3
 4057 0500 01       		.uleb128 0x1
 4058 0501 50       		.byte	0x50
 4059 0502 9F       		.byte	0x9f
 4060 0503 30000000 		.4byte	.LVL4
 4061 0507 34000000 		.4byte	.LVL5
 4062 050b 0100     		.2byte	0x1
 4063 050d 50       		.byte	0x50
 4064 050e 34000000 		.4byte	.LVL5
 4065 0512 3C000000 		.4byte	.LFE7
 4066 0516 0100     		.2byte	0x1
 4067 0518 52       		.byte	0x52
 4068 0519 00000000 		.4byte	0
 4069 051d 00000000 		.4byte	0
 4070              	.LVUS1:
 4071 0521 00       		.uleb128 0
 4072 0522 00       		.uleb128 .LVU20
 4073 0523 00       		.uleb128 .LVU20
 4074 0524 00       		.uleb128 .LVU20
 4075 0525 00       		.uleb128 .LVU20
 4076 0526 00       		.uleb128 0
 4077              	.LLST1:
 4078 0527 00000000 		.4byte	.LVL0
 4079 052b 2F000000 		.4byte	.LVL4-1
 4080 052f 0100     		.2byte	0x1
 4081 0531 51       		.byte	0x51
 4082 0532 2F000000 		.4byte	.LVL4-1
 4083 0536 30000000 		.4byte	.LVL4
 4084 053a 0400     		.2byte	0x4
 4085 053c F3       		.byte	0xf3
 4086 053d 01       		.uleb128 0x1
 4087 053e 51       		.byte	0x51
 4088 053f 9F       		.byte	0x9f
 4089 0540 30000000 		.4byte	.LVL4
 4090 0544 3C000000 		.4byte	.LFE7
 4091 0548 0100     		.2byte	0x1
 4092 054a 51       		.byte	0x51
 4093 054b 00000000 		.4byte	0
 4094 054f 00000000 		.4byte	0
 4095              	.LVUS2:
 4096 0553 01       		.uleb128 .LVU11
 4097 0554 00       		.uleb128 .LVU17
 4098              	.LLST2:
 4099 0555 20000000 		.4byte	.LVL2
 4100 0559 2C000000 		.4byte	.LVL3
 4101 055d 0100     		.2byte	0x1
 4102 055f 52       		.byte	0x52
 4103 0560 00000000 		.4byte	0
 4104 0564 00000000 		.4byte	0
ARM GAS  /var/folders/l5/0x54b2c10074c8bt31ycjvl80000gp/T//ccvkVa4l.s 			page 73


 4105              	.LVUS3:
 4106 0568 01       		.uleb128 .LVU11
 4107 0569 00       		.uleb128 .LVU17
 4108              	.LLST3:
 4109 056a 20000000 		.4byte	.LVL2
 4110 056e 2C000000 		.4byte	.LVL3
 4111 0572 0100     		.2byte	0x1
 4112 0574 53       		.byte	0x53
 4113 0575 00000000 		.4byte	0
 4114 0579 00000000 		.4byte	0
 4115              		.section	.debug_aranges,"",%progbits
 4116 0000 6C000000 		.4byte	0x6c
 4117 0004 0200     		.2byte	0x2
 4118 0006 00000000 		.4byte	.Ldebug_info0
 4119 000a 04       		.byte	0x4
 4120 000b 00       		.byte	0
 4121 000c 0000     		.2byte	0
 4122 000e 0000     		.2byte	0
 4123 0010 00000000 		.4byte	.LFB7
 4124 0014 3C000000 		.4byte	.LFE7-.LFB7
 4125 0018 00000000 		.4byte	.LFB8
 4126 001c 38000000 		.4byte	.LFE8-.LFB8
 4127 0020 00000000 		.4byte	.LFB9
 4128 0024 54000000 		.4byte	.LFE9-.LFB9
 4129 0028 00000000 		.4byte	.LFB10
 4130 002c 90000000 		.4byte	.LFE10-.LFB10
 4131 0030 00000000 		.4byte	.LFB11
 4132 0034 74000000 		.4byte	.LFE11-.LFB11
 4133 0038 00000000 		.4byte	.LFB12
 4134 003c A8000000 		.4byte	.LFE12-.LFB12
 4135 0040 00000000 		.4byte	.LFB13
 4136 0044 34000000 		.4byte	.LFE13-.LFB13
 4137 0048 00000000 		.4byte	.LFB14
 4138 004c 58000000 		.4byte	.LFE14-.LFB14
 4139 0050 00000000 		.4byte	.LFB15
 4140 0054 8C000000 		.4byte	.LFE15-.LFB15
 4141 0058 00000000 		.4byte	.LFB16
 4142 005c 80000000 		.4byte	.LFE16-.LFB16
 4143 0060 00000000 		.4byte	.LFB17
 4144 0064 B0000000 		.4byte	.LFE17-.LFB17
 4145 0068 00000000 		.4byte	0
 4146 006c 00000000 		.4byte	0
 4147              		.section	.debug_ranges,"",%progbits
 4148              	.Ldebug_ranges0:
 4149 0000 10000000 		.4byte	.LBB12
 4150 0004 14000000 		.4byte	.LBE12
 4151 0008 20000000 		.4byte	.LBB15
 4152 000c 2C000000 		.4byte	.LBE15
 4153 0010 00000000 		.4byte	0
 4154 0014 00000000 		.4byte	0
 4155 0018 2C000000 		.4byte	.LBB16
 4156 001c 30000000 		.4byte	.LBE16
 4157 0020 34000000 		.4byte	.LBB19
 4158 0024 3C000000 		.4byte	.LBE19
 4159 0028 00000000 		.4byte	0
 4160 002c 00000000 		.4byte	0
 4161 0030 50000000 		.4byte	.LBB20
ARM GAS  /var/folders/l5/0x54b2c10074c8bt31ycjvl80000gp/T//ccvkVa4l.s 			page 74


 4162 0034 54000000 		.4byte	.LBE20
 4163 0038 5C000000 		.4byte	.LBB23
 4164 003c 64000000 		.4byte	.LBE23
 4165 0040 00000000 		.4byte	0
 4166 0044 00000000 		.4byte	0
 4167 0048 30000000 		.4byte	.LBB25
 4168 004c 34000000 		.4byte	.LBE25
 4169 0050 38000000 		.4byte	.LBB28
 4170 0054 40000000 		.4byte	.LBE28
 4171 0058 00000000 		.4byte	0
 4172 005c 00000000 		.4byte	0
 4173 0060 18000000 		.4byte	.LBB29
 4174 0064 2C000000 		.4byte	.LBE29
 4175 0068 84000000 		.4byte	.LBB30
 4176 006c 8C000000 		.4byte	.LBE30
 4177 0070 00000000 		.4byte	0
 4178 0074 00000000 		.4byte	0
 4179 0078 4C000000 		.4byte	.LBB31
 4180 007c 50000000 		.4byte	.LBE31
 4181 0080 54000000 		.4byte	.LBB34
 4182 0084 5C000000 		.4byte	.LBE34
 4183 0088 00000000 		.4byte	0
 4184 008c 00000000 		.4byte	0
 4185 0090 00000000 		.4byte	.LFB7
 4186 0094 3C000000 		.4byte	.LFE7
 4187 0098 00000000 		.4byte	.LFB8
 4188 009c 38000000 		.4byte	.LFE8
 4189 00a0 00000000 		.4byte	.LFB9
 4190 00a4 54000000 		.4byte	.LFE9
 4191 00a8 00000000 		.4byte	.LFB10
 4192 00ac 90000000 		.4byte	.LFE10
 4193 00b0 00000000 		.4byte	.LFB11
 4194 00b4 74000000 		.4byte	.LFE11
 4195 00b8 00000000 		.4byte	.LFB12
 4196 00bc A8000000 		.4byte	.LFE12
 4197 00c0 00000000 		.4byte	.LFB13
 4198 00c4 34000000 		.4byte	.LFE13
 4199 00c8 00000000 		.4byte	.LFB14
 4200 00cc 58000000 		.4byte	.LFE14
 4201 00d0 00000000 		.4byte	.LFB15
 4202 00d4 8C000000 		.4byte	.LFE15
 4203 00d8 00000000 		.4byte	.LFB16
 4204 00dc 80000000 		.4byte	.LFE16
 4205 00e0 00000000 		.4byte	.LFB17
 4206 00e4 B0000000 		.4byte	.LFE17
 4207 00e8 00000000 		.4byte	0
 4208 00ec 00000000 		.4byte	0
 4209              		.section	.debug_line,"",%progbits
 4210              	.Ldebug_line0:
 4211 0000 22080000 		.section	.debug_str,"MS",%progbits,1
 4211      0300FD01 
 4211      00000201 
 4211      FB0E0D00 
 4211      01010101 
 4212              	.LASF82:
 4213 0000 63684F51 		.ascii	"chOQPutTimeout\000"
 4213      50757454 
ARM GAS  /var/folders/l5/0x54b2c10074c8bt31ycjvl80000gp/T//ccvkVa4l.s 			page 75


 4213      696D656F 
 4213      757400
 4214              	.LASF86:
 4215 000f 6F6E6679 		.ascii	"onfy\000"
 4215      00
 4216              	.LASF3:
 4217 0014 73697A65 		.ascii	"size_t\000"
 4217      5F7400
 4218              	.LASF62:
 4219 001b 7264796D 		.ascii	"rdymsg\000"
 4219      736700
 4220              	.LASF92:
 4221 0022 63684951 		.ascii	"chIQInit\000"
 4221      496E6974 
 4221      00
 4222              	.LASF77:
 4223 002b 4F757470 		.ascii	"OutputQueue\000"
 4223      75745175 
 4223      65756500 
 4224              	.LASF4:
 4225 0037 5F5F7569 		.ascii	"__uint8_t\000"
 4225      6E74385F 
 4225      7400
 4226              	.LASF56:
 4227 0041 76746C69 		.ascii	"vtlist\000"
 4227      737400
 4228              	.LASF88:
 4229 0048 63684951 		.ascii	"chIQReadTimeout\000"
 4229      52656164 
 4229      54696D65 
 4229      6F757400 
 4230              	.LASF11:
 4231 0058 6C6F6E67 		.ascii	"long long unsigned int\000"
 4231      206C6F6E 
 4231      6720756E 
 4231      7369676E 
 4231      65642069 
 4232              	.LASF84:
 4233 006f 63684F51 		.ascii	"chOQInit\000"
 4233      496E6974 
 4233      00
 4234              	.LASF63:
 4235 0078 65786974 		.ascii	"exitcode\000"
 4235      636F6465 
 4235      00
 4236              	.LASF27:
 4237 0081 705F7072 		.ascii	"p_prio\000"
 4237      696F00
 4238              	.LASF67:
 4239 0088 715F7761 		.ascii	"q_waiting\000"
 4239      6974696E 
 4239      6700
 4240              	.LASF10:
 4241 0092 6C6F6E67 		.ascii	"long long int\000"
 4241      206C6F6E 
 4241      6720696E 
 4241      7400
ARM GAS  /var/folders/l5/0x54b2c10074c8bt31ycjvl80000gp/T//ccvkVa4l.s 			page 76


 4242              	.LASF2:
 4243 00a0 7369676E 		.ascii	"signed char\000"
 4243      65642063 
 4243      68617200 
 4244              	.LASF16:
 4245 00ac 626F6F6C 		.ascii	"bool_t\000"
 4245      5F7400
 4246              	.LASF59:
 4247 00b3 6D5F7175 		.ascii	"m_queue\000"
 4247      65756500 
 4248              	.LASF19:
 4249 00bb 74736C69 		.ascii	"tslices_t\000"
 4249      6365735F 
 4249      7400
 4250              	.LASF99:
 4251 00c5 71776169 		.ascii	"qwait\000"
 4251      7400
 4252              	.LASF0:
 4253 00cb 6C6F6E67 		.ascii	"long int\000"
 4253      20696E74 
 4253      00
 4254              	.LASF18:
 4255 00d4 74737461 		.ascii	"tstate_t\000"
 4255      74655F74 
 4255      00
 4256              	.LASF98:
 4257 00dd 2F557365 		.ascii	"/Users/fernandoguirado/eclipse-workspace/ChibiOS-RP"
 4257      72732F66 
 4257      65726E61 
 4257      6E646F67 
 4257      75697261 
 4258 0110 692D6D61 		.ascii	"i-master/testhal/BCM2835/GPIO\000"
 4258      73746572 
 4258      2F746573 
 4258      7468616C 
 4258      2F42434D 
 4259              	.LASF81:
 4260 012e 63684F51 		.ascii	"chOQGetI\000"
 4260      47657449 
 4260      00
 4261              	.LASF69:
 4262 0137 715F6275 		.ascii	"q_buffer\000"
 4262      66666572 
 4262      00
 4263              	.LASF71:
 4264 0140 715F7772 		.ascii	"q_wrptr\000"
 4264      70747200 
 4265              	.LASF78:
 4266 0148 5F69646C 		.ascii	"_idle_thread_wa\000"
 4266      655F7468 
 4266      72656164 
 4266      5F776100 
 4267              	.LASF90:
 4268 0158 63684951 		.ascii	"chIQPutI\000"
 4268      50757449 
 4268      00
 4269              	.LASF9:
ARM GAS  /var/folders/l5/0x54b2c10074c8bt31ycjvl80000gp/T//ccvkVa4l.s 			page 77


 4270 0161 5F5F7569 		.ascii	"__uint32_t\000"
 4270      6E743332 
 4270      5F7400
 4271              	.LASF39:
 4272 016c 72656761 		.ascii	"regarm_t\000"
 4272      726D5F74 
 4272      00
 4273              	.LASF45:
 4274 0175 76745F70 		.ascii	"vt_prev\000"
 4274      72657600 
 4275              	.LASF87:
 4276 017d 6C696E6B 		.ascii	"link\000"
 4276      00
 4277              	.LASF96:
 4278 0182 474E5520 		.ascii	"GNU C17 8.3.1 20190703 (release) [gcc-8-branch revi"
 4278      43313720 
 4278      382E332E 
 4278      31203230 
 4278      31393037 
 4279 01b5 73696F6E 		.ascii	"sion 273027] -mcpu=arm1176jz-s -mabi=apcs-gnu -mno-"
 4279      20323733 
 4279      3032375D 
 4279      202D6D63 
 4279      70753D61 
 4280 01e8 7468756D 		.ascii	"thumb-interwork -mfloat-abi=soft -marm -march=armv6"
 4280      622D696E 
 4280      74657277 
 4280      6F726B20 
 4280      2D6D666C 
 4281 021b 6B7A202D 		.ascii	"kz -ggdb -O2 -fomit-frame-pointer -ffunction-sectio"
 4281      67676462 
 4281      202D4F32 
 4281      202D666F 
 4281      6D69742D 
 4282 024e 6E73202D 		.ascii	"ns -fdata-sections\000"
 4282      66646174 
 4282      612D7365 
 4282      6374696F 
 4282      6E7300
 4283              	.LASF15:
 4284 0261 756E7369 		.ascii	"unsigned int\000"
 4284      676E6564 
 4284      20696E74 
 4284      00
 4285              	.LASF44:
 4286 026e 76745F6E 		.ascii	"vt_next\000"
 4286      65787400 
 4287              	.LASF91:
 4288 0276 63684951 		.ascii	"chIQResetI\000"
 4288      52657365 
 4288      744900
 4289              	.LASF1:
 4290 0281 6C6F6E67 		.ascii	"long unsigned int\000"
 4290      20756E73 
 4290      69676E65 
 4290      6420696E 
 4290      7400
ARM GAS  /var/folders/l5/0x54b2c10074c8bt31ycjvl80000gp/T//ccvkVa4l.s 			page 78


 4291              	.LASF42:
 4292 0293 76746675 		.ascii	"vtfunc_t\000"
 4292      6E635F74 
 4292      00
 4293              	.LASF85:
 4294 029c 73697A65 		.ascii	"size\000"
 4294      00
 4295              	.LASF7:
 4296 02a1 73686F72 		.ascii	"short unsigned int\000"
 4296      7420756E 
 4296      7369676E 
 4296      65642069 
 4296      6E7400
 4297              	.LASF21:
 4298 02b4 6D73675F 		.ascii	"msg_t\000"
 4298      7400
 4299              	.LASF101:
 4300 02ba 71756575 		.ascii	"queue_insert\000"
 4300      655F696E 
 4300      73657274 
 4300      00
 4301              	.LASF17:
 4302 02c7 746D6F64 		.ascii	"tmode_t\000"
 4302      655F7400 
 4303              	.LASF37:
 4304 02cf 54687265 		.ascii	"ThreadsList\000"
 4304      6164734C 
 4304      69737400 
 4305              	.LASF22:
 4306 02db 6576656E 		.ascii	"eventmask_t\000"
 4306      746D6173 
 4306      6B5F7400 
 4307              	.LASF76:
 4308 02e7 496E7075 		.ascii	"InputQueue\000"
 4308      74517565 
 4308      756500
 4309              	.LASF58:
 4310 02f2 4D757465 		.ascii	"Mutex\000"
 4310      7800
 4311              	.LASF66:
 4312 02f8 47656E65 		.ascii	"GenericQueue\000"
 4312      72696351 
 4312      75657565 
 4312      00
 4313              	.LASF38:
 4314 0305 73746B61 		.ascii	"stkalign_t\000"
 4314      6C69676E 
 4314      5F7400
 4315              	.LASF80:
 4316 0310 63684F51 		.ascii	"chOQWriteTimeout\000"
 4316      57726974 
 4316      6554696D 
 4316      656F7574 
 4316      00
 4317              	.LASF46:
 4318 0321 76745F74 		.ascii	"vt_time\000"
 4318      696D6500 
ARM GAS  /var/folders/l5/0x54b2c10074c8bt31ycjvl80000gp/T//ccvkVa4l.s 			page 79


 4319              	.LASF68:
 4320 0329 715F636F 		.ascii	"q_counter\000"
 4320      756E7465 
 4320      7200
 4321              	.LASF47:
 4322 0333 76745F66 		.ascii	"vt_func\000"
 4322      756E6300 
 4323              	.LASF50:
 4324 033b 56544C69 		.ascii	"VTList\000"
 4324      737400
 4325              	.LASF53:
 4326 0342 725F6374 		.ascii	"r_ctx\000"
 4326      7800
 4327              	.LASF36:
 4328 0348 54687265 		.ascii	"ThreadsQueue\000"
 4328      61647351 
 4328      75657565 
 4328      00
 4329              	.LASF79:
 4330 0355 74696D65 		.ascii	"time\000"
 4330      00
 4331              	.LASF54:
 4332 035a 725F6375 		.ascii	"r_current\000"
 4332      7272656E 
 4332      7400
 4333              	.LASF75:
 4334 0364 716E6F74 		.ascii	"qnotify_t\000"
 4334      6966795F 
 4334      7400
 4335              	.LASF26:
 4336 036e 705F7072 		.ascii	"p_prev\000"
 4336      657600
 4337              	.LASF20:
 4338 0375 74707269 		.ascii	"tprio_t\000"
 4338      6F5F7400 
 4339              	.LASF72:
 4340 037d 715F7264 		.ascii	"q_rdptr\000"
 4340      70747200 
 4341              	.LASF13:
 4342 0385 696E7433 		.ascii	"int32_t\000"
 4342      325F7400 
 4343              	.LASF5:
 4344 038d 756E7369 		.ascii	"unsigned char\000"
 4344      676E6564 
 4344      20636861 
 4344      7200
 4345              	.LASF34:
 4346 039b 705F6D74 		.ascii	"p_mtxlist\000"
 4346      786C6973 
 4346      7400
 4347              	.LASF6:
 4348 03a5 73686F72 		.ascii	"short int\000"
 4348      7420696E 
 4348      7400
 4349              	.LASF29:
 4350 03af 705F7374 		.ascii	"p_state\000"
 4350      61746500 
ARM GAS  /var/folders/l5/0x54b2c10074c8bt31ycjvl80000gp/T//ccvkVa4l.s 			page 80


 4351              	.LASF31:
 4352 03b7 705F7072 		.ascii	"p_preempt\000"
 4352      65656D70 
 4352      7400
 4353              	.LASF52:
 4354 03c1 725F7072 		.ascii	"r_prio\000"
 4354      696F00
 4355              	.LASF65:
 4356 03c8 65776D61 		.ascii	"ewmask\000"
 4356      736B00
 4357              	.LASF25:
 4358 03cf 705F6E65 		.ascii	"p_next\000"
 4358      787400
 4359              	.LASF93:
 4360 03d6 696E6679 		.ascii	"infy\000"
 4360      00
 4361              	.LASF30:
 4362 03db 705F666C 		.ascii	"p_flags\000"
 4362      61677300 
 4363              	.LASF24:
 4364 03e3 54687265 		.ascii	"Thread\000"
 4364      616400
 4365              	.LASF33:
 4366 03ea 705F6570 		.ascii	"p_epending\000"
 4366      656E6469 
 4366      6E6700
 4367              	.LASF14:
 4368 03f5 75696E74 		.ascii	"uint32_t\000"
 4368      33325F74 
 4368      00
 4369              	.LASF51:
 4370 03fe 725F7175 		.ascii	"r_queue\000"
 4370      65756500 
 4371              	.LASF43:
 4372 0406 56697274 		.ascii	"VirtualTimer\000"
 4372      75616C54 
 4372      696D6572 
 4372      00
 4373              	.LASF94:
 4374 0413 63685363 		.ascii	"chSchReadyI\000"
 4374      68526561 
 4374      64794900 
 4375              	.LASF100:
 4376 041f 6669666F 		.ascii	"fifo_remove\000"
 4376      5F72656D 
 4376      6F766500 
 4377              	.LASF61:
 4378 042b 6D5F6E65 		.ascii	"m_next\000"
 4378      787400
 4379              	.LASF23:
 4380 0432 73797374 		.ascii	"systime_t\000"
 4380      696D655F 
 4380      7400
 4381              	.LASF35:
 4382 043c 705F7265 		.ascii	"p_realprio\000"
 4382      616C7072 
 4382      696F00
ARM GAS  /var/folders/l5/0x54b2c10074c8bt31ycjvl80000gp/T//ccvkVa4l.s 			page 81


 4383              	.LASF8:
 4384 0447 5F5F696E 		.ascii	"__int32_t\000"
 4384      7433325F 
 4384      7400
 4385              	.LASF83:
 4386 0451 63684F51 		.ascii	"chOQResetI\000"
 4386      52657365 
 4386      744900
 4387              	.LASF41:
 4388 045c 636F6E74 		.ascii	"context\000"
 4388      65787400 
 4389              	.LASF40:
 4390 0464 696E7463 		.ascii	"intctx\000"
 4390      747800
 4391              	.LASF48:
 4392 046b 76745F70 		.ascii	"vt_par\000"
 4392      617200
 4393              	.LASF97:
 4394 0472 2E2E2F2E 		.ascii	"../../../os/kernel/src/chqueues.c\000"
 4394      2E2F2E2E 
 4394      2F6F732F 
 4394      6B65726E 
 4394      656C2F73 
 4395              	.LASF70:
 4396 0494 715F746F 		.ascii	"q_top\000"
 4396      7000
 4397              	.LASF55:
 4398 049a 52656164 		.ascii	"ReadyList\000"
 4398      794C6973 
 4398      7400
 4399              	.LASF73:
 4400 04a4 715F6E6F 		.ascii	"q_notify\000"
 4400      74696679 
 4400      00
 4401              	.LASF57:
 4402 04ad 726C6973 		.ascii	"rlist\000"
 4402      7400
 4403              	.LASF12:
 4404 04b3 75696E74 		.ascii	"uint8_t\000"
 4404      385F7400 
 4405              	.LASF64:
 4406 04bb 77746F62 		.ascii	"wtobjp\000"
 4406      6A7000
 4407              	.LASF49:
 4408 04c2 76745F73 		.ascii	"vt_systime\000"
 4408      79737469 
 4408      6D6500
 4409              	.LASF95:
 4410 04cd 63685363 		.ascii	"chSchGoSleepTimeoutS\000"
 4410      68476F53 
 4410      6C656570 
 4410      54696D65 
 4410      6F757453 
 4411              	.LASF74:
 4412 04e2 715F6C69 		.ascii	"q_link\000"
 4412      6E6B00
 4413              	.LASF60:
ARM GAS  /var/folders/l5/0x54b2c10074c8bt31ycjvl80000gp/T//ccvkVa4l.s 			page 82


 4414 04e9 6D5F6F77 		.ascii	"m_owner\000"
 4414      6E657200 
 4415              	.LASF28:
 4416 04f1 705F6374 		.ascii	"p_ctx\000"
 4416      7800
 4417              	.LASF32:
 4418 04f7 705F7761 		.ascii	"p_waiting\000"
 4418      6974696E 
 4418      6700
 4419              	.LASF89:
 4420 0501 63684951 		.ascii	"chIQGetTimeout\000"
 4420      47657454 
 4420      696D656F 
 4420      757400
 4421              		.ident	"GCC: (GNU Tools for Arm Embedded Processors 8-2019-q3-update) 8.3.1 20190703 (release) [gc
ARM GAS  /var/folders/l5/0x54b2c10074c8bt31ycjvl80000gp/T//ccvkVa4l.s 			page 83


DEFINED SYMBOLS
                            *ABS*:0000000000000000 chqueues.c
/var/folders/l5/0x54b2c10074c8bt31ycjvl80000gp/T//ccvkVa4l.s:6      .text.qwait:0000000000000000 $a
/var/folders/l5/0x54b2c10074c8bt31ycjvl80000gp/T//ccvkVa4l.s:12     .text.qwait:0000000000000000 qwait
/var/folders/l5/0x54b2c10074c8bt31ycjvl80000gp/T//ccvkVa4l.s:75     .text.qwait:0000000000000038 $d
/var/folders/l5/0x54b2c10074c8bt31ycjvl80000gp/T//ccvkVa4l.s:80     .text.chIQInit:0000000000000000 $a
/var/folders/l5/0x54b2c10074c8bt31ycjvl80000gp/T//ccvkVa4l.s:86     .text.chIQInit:0000000000000000 chIQInit
/var/folders/l5/0x54b2c10074c8bt31ycjvl80000gp/T//ccvkVa4l.s:134    .text.chIQResetI:0000000000000000 $a
/var/folders/l5/0x54b2c10074c8bt31ycjvl80000gp/T//ccvkVa4l.s:140    .text.chIQResetI:0000000000000000 chIQResetI
/var/folders/l5/0x54b2c10074c8bt31ycjvl80000gp/T//ccvkVa4l.s:218    .text.chIQPutI:0000000000000000 $a
/var/folders/l5/0x54b2c10074c8bt31ycjvl80000gp/T//ccvkVa4l.s:224    .text.chIQPutI:0000000000000000 chIQPutI
/var/folders/l5/0x54b2c10074c8bt31ycjvl80000gp/T//ccvkVa4l.s:338    .text.chIQGetTimeout:0000000000000000 $a
/var/folders/l5/0x54b2c10074c8bt31ycjvl80000gp/T//ccvkVa4l.s:344    .text.chIQGetTimeout:0000000000000000 chIQGetTimeout
/var/folders/l5/0x54b2c10074c8bt31ycjvl80000gp/T//ccvkVa4l.s:446    .text.chIQReadTimeout:0000000000000000 $a
/var/folders/l5/0x54b2c10074c8bt31ycjvl80000gp/T//ccvkVa4l.s:452    .text.chIQReadTimeout:0000000000000000 chIQReadTimeout
/var/folders/l5/0x54b2c10074c8bt31ycjvl80000gp/T//ccvkVa4l.s:594    .text.chOQInit:0000000000000000 $a
/var/folders/l5/0x54b2c10074c8bt31ycjvl80000gp/T//ccvkVa4l.s:600    .text.chOQInit:0000000000000000 chOQInit
/var/folders/l5/0x54b2c10074c8bt31ycjvl80000gp/T//ccvkVa4l.s:645    .text.chOQResetI:0000000000000000 $a
/var/folders/l5/0x54b2c10074c8bt31ycjvl80000gp/T//ccvkVa4l.s:651    .text.chOQResetI:0000000000000000 chOQResetI
/var/folders/l5/0x54b2c10074c8bt31ycjvl80000gp/T//ccvkVa4l.s:731    .text.chOQPutTimeout:0000000000000000 $a
/var/folders/l5/0x54b2c10074c8bt31ycjvl80000gp/T//ccvkVa4l.s:737    .text.chOQPutTimeout:0000000000000000 chOQPutTimeout
/var/folders/l5/0x54b2c10074c8bt31ycjvl80000gp/T//ccvkVa4l.s:857    .text.chOQGetI:0000000000000000 $a
/var/folders/l5/0x54b2c10074c8bt31ycjvl80000gp/T//ccvkVa4l.s:863    .text.chOQGetI:0000000000000000 chOQGetI
/var/folders/l5/0x54b2c10074c8bt31ycjvl80000gp/T//ccvkVa4l.s:972    .text.chOQWriteTimeout:0000000000000000 $a
/var/folders/l5/0x54b2c10074c8bt31ycjvl80000gp/T//ccvkVa4l.s:978    .text.chOQWriteTimeout:0000000000000000 chOQWriteTimeout

UNDEFINED SYMBOLS
chSchGoSleepTimeoutS
rlist
chSchReadyI
