ARM GAS  /var/folders/l5/0x54b2c10074c8bt31ycjvl80000gp/T//ccE2J0wy.s 			page 1


   1              		.file	"chschd.c"
   2              		.text
   3              	.Ltext0:
   4              		.cfi_sections	.debug_frame
   5              		.section	.text.wakeup,"ax",%progbits
   6              		.align	2
   7              		.arch armv6kz
   8              		.syntax unified
   9              		.arm
  10              		.fpu softvfp
  11              		.type	wakeup, %function
  12              	wakeup:
  13              	.LVL0:
  14              	.LFB10:
  15              		.file 1 "../../../os/kernel/src/chschd.c"
  16              		.loc 1 129 29 view -0
  17              		.cfi_startproc
  18              		@ args = 0, pretend = 0, frame = 0
  19              		@ frame_needed = 0, uses_anonymous_args = 0
  20              		@ link register save eliminated.
  21              		.loc 1 130 3 view .LVU1
  22              		.loc 1 132 3 view .LVU2
  23              		.loc 1 132 3 view .LVU3
  24              		.loc 1 132 21 view .LVU4
  25              		.loc 1 133 3 view .LVU5
  26              		.loc 1 133 13 is_stmt 0 view .LVU6
  27 0000 1030D0E5 		ldrb	r3, [r0, #16]	@ zero_extendqisi2
  28              		.loc 1 133 3 view .LVU7
  29 0004 000053E3 		cmp	r3, #0
  30 0008 1EFF2F01 		bxeq	lr
  31 000c 0D0053E3 		cmp	r3, #13
  32              		.loc 1 153 5 is_stmt 1 view .LVU8
  33              	.LVL1:
  34              	.LBB33:
  35              	.LBI33:
  36              		.file 2 "../../../os/kernel/include/chinline.h"
  37              		.loc 2 66 23 view .LVU9
  38              	.LBB34:
  39              		.loc 2 68 3 view .LVU10
  40              		.loc 2 68 5 is_stmt 0 view .LVU11
  41 0010 04209005 		ldreq	r2, [r0, #4]
  42              		.loc 2 68 26 view .LVU12
  43 0014 00309005 		ldreq	r3, [r0]
  44              	.LBE34:
  45              	.LBE33:
  46              		.loc 1 156 18 view .LVU13
  47 0018 00C0E0E3 		mvn	ip, #0
  48              	.LBB36:
  49              	.LBB35:
  50              		.loc 2 68 22 view .LVU14
  51 001c 00308205 		streq	r3, [r2]
  52              		.loc 2 69 3 is_stmt 1 view .LVU15
  53              		.loc 2 69 22 is_stmt 0 view .LVU16
  54 0020 04208305 		streq	r2, [r3, #4]
  55              		.loc 2 70 3 is_stmt 1 view .LVU17
  56              	.LBE35:
  57              	.LBE36:
ARM GAS  /var/folders/l5/0x54b2c10074c8bt31ycjvl80000gp/T//ccE2J0wy.s 			page 2


  58              		.loc 1 156 3 view .LVU18
  59              	.LBB37:
  60              	.LBB38:
  61              		.loc 1 85 15 is_stmt 0 view .LVU19
  62 0024 0020A0E3 		mov	r2, #0
  63              	.LBE38:
  64              	.LBE37:
  65              	.LBB40:
  66              	.LBB41:
  67              	.LBB42:
  68              	.LBB43:
  69              		.loc 1 89 28 view .LVU20
  70 0028 081090E5 		ldr	r1, [r0, #8]
  71              		.loc 1 86 6 view .LVU21
  72 002c 30309FE5 		ldr	r3, .L10
  73              	.LBE43:
  74              	.LBE42:
  75              	.LBE41:
  76              	.LBE40:
  77              		.loc 1 156 18 view .LVU22
  78 0030 14C080E5 		str	ip, [r0, #20]
  79              		.loc 1 157 3 is_stmt 1 view .LVU23
  80              	.LVL2:
  81              	.LBB47:
  82              	.LBI37:
  83              		.loc 1 74 9 view .LVU24
  84              	.LBB39:
  85              		.loc 1 75 3 view .LVU25
  86              		.loc 1 77 3 view .LVU26
  87              		.loc 1 77 21 view .LVU27
  88              		.loc 1 80 3 view .LVU28
  89              		.loc 1 83 31 view .LVU29
  90              		.loc 1 85 3 view .LVU30
  91              		.loc 1 85 15 is_stmt 0 view .LVU31
  92 0034 1020C0E5 		strb	r2, [r0, #16]
  93              		.loc 1 86 3 is_stmt 1 view .LVU32
  94              	.LVL3:
  95              		.loc 1 86 3 is_stmt 0 view .LVU33
  96              	.LBE39:
  97              	.LBE47:
  98              	.LBB48:
  99              	.LBI40:
 100              		.loc 1 129 13 is_stmt 1 view .LVU34
 101              	.L4:
 102              	.LBB46:
 103              	.LBB45:
 104              	.LBB44:
 105              		.loc 1 87 3 view .LVU35
 106              		.loc 1 88 5 view .LVU36
 107              		.loc 1 88 8 is_stmt 0 view .LVU37
 108 0038 003093E5 		ldr	r3, [r3]
 109              	.LVL4:
 110              		.loc 1 89 3 view .LVU38
 111 003c 082093E5 		ldr	r2, [r3, #8]
 112 0040 010052E1 		cmp	r2, r1
 113 0044 FBFFFF2A 		bcs	.L4
 114              		.loc 1 91 3 is_stmt 1 view .LVU39
ARM GAS  /var/folders/l5/0x54b2c10074c8bt31ycjvl80000gp/T//ccE2J0wy.s 			page 3


 115              		.loc 1 92 18 is_stmt 0 view .LVU40
 116 0048 042093E5 		ldr	r2, [r3, #4]
 117              		.loc 1 91 14 view .LVU41
 118 004c 003080E5 		str	r3, [r0]
 119              		.loc 1 92 3 is_stmt 1 view .LVU42
 120              		.loc 1 92 14 is_stmt 0 view .LVU43
 121 0050 042080E5 		str	r2, [r0, #4]
 122              		.loc 1 93 3 is_stmt 1 view .LVU44
 123              		.loc 1 93 35 is_stmt 0 view .LVU45
 124 0054 040083E5 		str	r0, [r3, #4]
 125              		.loc 1 93 22 view .LVU46
 126 0058 043090E5 		ldr	r3, [r0, #4]
 127              	.LVL5:
 128              		.loc 1 93 22 view .LVU47
 129 005c 000083E5 		str	r0, [r3]
 130              	.LVL6:
 131              		.loc 1 94 3 is_stmt 1 view .LVU48
 132              	.LBE44:
 133              	.LBE45:
 134              		.loc 1 158 3 view .LVU49
 135              		.loc 1 158 3 view .LVU50
 136              		.loc 1 158 23 view .LVU51
 137              	.LBE46:
 138              	.LBE48:
 139              		.loc 1 158 3 view .LVU52
 140              		.loc 1 158 3 view .LVU53
 141              		.loc 1 158 23 view .LVU54
 142              		.loc 1 159 1 is_stmt 0 view .LVU55
 143 0060 1EFF2FE1 		bx	lr
 144              	.L11:
 145              		.align	2
 146              	.L10:
 147 0064 00000000 		.word	rlist
 148              		.cfi_endproc
 149              	.LFE10:
 150              		.size	wakeup, .-wakeup
 151              		.section	.text._scheduler_init,"ax",%progbits
 152              		.align	2
 153              		.global	_scheduler_init
 154              		.syntax unified
 155              		.arm
 156              		.fpu softvfp
 157              		.type	_scheduler_init, %function
 158              	_scheduler_init:
 159              	.LFB7:
 160              		.loc 1 48 28 is_stmt 1 view -0
 161              		.cfi_startproc
 162              		@ args = 0, pretend = 0, frame = 0
 163              		@ frame_needed = 0, uses_anonymous_args = 0
 164              		@ link register save eliminated.
 165              		.loc 1 50 3 view .LVU57
 166              		.loc 1 51 16 is_stmt 0 view .LVU58
 167 0000 0020A0E3 		mov	r2, #0
 168              		.loc 1 50 3 view .LVU59
 169 0004 0C309FE5 		ldr	r3, .L13
 170              		.loc 1 51 16 view .LVU60
 171 0008 082083E5 		str	r2, [r3, #8]
ARM GAS  /var/folders/l5/0x54b2c10074c8bt31ycjvl80000gp/T//ccE2J0wy.s 			page 4


 172              		.loc 1 50 3 view .LVU61
 173 000c 043083E5 		str	r3, [r3, #4]
 174 0010 003083E5 		str	r3, [r3]
 175              		.loc 1 50 29 is_stmt 1 view .LVU62
 176              		.loc 1 51 3 view .LVU63
 177              		.loc 1 55 1 is_stmt 0 view .LVU64
 178 0014 1EFF2FE1 		bx	lr
 179              	.L14:
 180              		.align	2
 181              	.L13:
 182 0018 00000000 		.word	rlist
 183              		.cfi_endproc
 184              	.LFE7:
 185              		.size	_scheduler_init, .-_scheduler_init
 186              		.section	.text.chSchReadyI,"ax",%progbits
 187              		.align	2
 188              		.global	chSchReadyI
 189              		.syntax unified
 190              		.arm
 191              		.fpu softvfp
 192              		.type	chSchReadyI, %function
 193              	chSchReadyI:
 194              	.LVL7:
 195              	.LFB8:
 196              		.loc 1 74 33 is_stmt 1 view -0
 197              		.cfi_startproc
 198              		@ args = 0, pretend = 0, frame = 0
 199              		@ frame_needed = 0, uses_anonymous_args = 0
 200              		@ link register save eliminated.
 201              		.loc 1 75 3 view .LVU66
 202              		.loc 1 77 3 view .LVU67
 203              		.loc 1 77 21 view .LVU68
 204              		.loc 1 80 3 view .LVU69
 205              		.loc 1 83 31 view .LVU70
 206              		.loc 1 85 3 view .LVU71
 207              		.loc 1 85 15 is_stmt 0 view .LVU72
 208 0000 0020A0E3 		mov	r2, #0
 209              		.loc 1 74 33 view .LVU73
 210 0004 00C0A0E1 		mov	ip, r0
 211              		.loc 1 89 28 view .LVU74
 212 0008 081090E5 		ldr	r1, [r0, #8]
 213              		.loc 1 86 6 view .LVU75
 214 000c 30309FE5 		ldr	r3, .L18
 215              		.loc 1 85 15 view .LVU76
 216 0010 1020C0E5 		strb	r2, [r0, #16]
 217              		.loc 1 86 3 is_stmt 1 view .LVU77
 218              	.LVL8:
 219              	.L16:
 220              		.loc 1 87 3 discriminator 1 view .LVU78
 221              		.loc 1 88 5 discriminator 1 view .LVU79
 222              		.loc 1 88 8 is_stmt 0 discriminator 1 view .LVU80
 223 0014 003093E5 		ldr	r3, [r3]
 224              	.LVL9:
 225              		.loc 1 89 3 discriminator 1 view .LVU81
 226 0018 082093E5 		ldr	r2, [r3, #8]
 227 001c 010052E1 		cmp	r2, r1
 228 0020 FBFFFF2A 		bcs	.L16
ARM GAS  /var/folders/l5/0x54b2c10074c8bt31ycjvl80000gp/T//ccE2J0wy.s 			page 5


 229              		.loc 1 91 3 is_stmt 1 view .LVU82
 230              		.loc 1 92 18 is_stmt 0 view .LVU83
 231 0024 042093E5 		ldr	r2, [r3, #4]
 232              		.loc 1 91 14 view .LVU84
 233 0028 00308CE5 		str	r3, [ip]
 234              		.loc 1 92 3 is_stmt 1 view .LVU85
 235              		.loc 1 92 14 is_stmt 0 view .LVU86
 236 002c 04208CE5 		str	r2, [ip, #4]
 237              		.loc 1 93 3 is_stmt 1 view .LVU87
 238              		.loc 1 93 35 is_stmt 0 view .LVU88
 239 0030 04C083E5 		str	ip, [r3, #4]
 240              		.loc 1 93 22 view .LVU89
 241 0034 04309CE5 		ldr	r3, [ip, #4]
 242              	.LVL10:
 243              		.loc 1 95 1 view .LVU90
 244 0038 0C00A0E1 		mov	r0, ip
 245              	.LVL11:
 246              		.loc 1 93 22 view .LVU91
 247 003c 00C083E5 		str	ip, [r3]
 248              	.LVL12:
 249              		.loc 1 94 3 is_stmt 1 view .LVU92
 250              		.loc 1 95 1 is_stmt 0 view .LVU93
 251 0040 1EFF2FE1 		bx	lr
 252              	.L19:
 253              		.align	2
 254              	.L18:
 255 0044 00000000 		.word	rlist
 256              		.cfi_endproc
 257              	.LFE8:
 258              		.size	chSchReadyI, .-chSchReadyI
 259              		.section	.text.chSchGoSleepS,"ax",%progbits
 260              		.align	2
 261              		.global	chSchGoSleepS
 262              		.syntax unified
 263              		.arm
 264              		.fpu softvfp
 265              		.type	chSchGoSleepS, %function
 266              	chSchGoSleepS:
 267              	.LVL13:
 268              	.LFB9:
 269              		.loc 1 108 39 is_stmt 1 view -0
 270              		.cfi_startproc
 271              		@ args = 0, pretend = 0, frame = 0
 272              		@ frame_needed = 0, uses_anonymous_args = 0
 273              		.loc 1 109 3 view .LVU95
 274              		.loc 1 111 3 view .LVU96
 275              		.loc 1 111 21 view .LVU97
 276              		.loc 1 113 3 view .LVU98
 277              		.loc 1 117 18 is_stmt 0 view .LVU99
 278 0000 14C0A0E3 		mov	ip, #20
 279              		.loc 1 108 39 view .LVU100
 280 0004 04E02DE5 		str	lr, [sp, #-4]!
 281              		.cfi_def_cfa_offset 4
 282              		.cfi_offset 14, -4
 283              		.loc 1 120 18 view .LVU101
 284 0008 01E0A0E3 		mov	lr, #1
 285              		.loc 1 113 8 view .LVU102
ARM GAS  /var/folders/l5/0x54b2c10074c8bt31ycjvl80000gp/T//ccE2J0wy.s 			page 6


 286 000c 2C309FE5 		ldr	r3, .L22
 287 0010 101093E5 		ldr	r1, [r3, #16]
 288              	.LVL14:
 289              	.LBB49:
 290              	.LBB50:
 291              		.loc 2 53 11 view .LVU103
 292 0014 002093E5 		ldr	r2, [r3]
 293              	.LBE50:
 294              	.LBE49:
 295              		.loc 1 113 26 view .LVU104
 296 0018 1000C1E5 		strb	r0, [r1, #16]
 297              		.loc 1 117 3 is_stmt 1 view .LVU105
 298              		.loc 1 117 18 is_stmt 0 view .LVU106
 299 001c 12C0C1E5 		strb	ip, [r1, #18]
 300              		.loc 1 119 3 is_stmt 1 view .LVU107
 301              	.LVL15:
 302              	.LBB54:
 303              	.LBI49:
 304              		.loc 2 52 23 view .LVU108
 305              	.LBB51:
 306              		.loc 2 53 3 view .LVU109
 307              		.loc 2 55 3 view .LVU110
 308              		.loc 2 55 20 is_stmt 0 view .LVU111
 309 0020 00C092E5 		ldr	ip, [r2]
 310              	.LBE51:
 311              	.LBE54:
 312              		.loc 1 121 3 view .LVU112
 313 0024 0200A0E1 		mov	r0, r2
 314              	.LVL16:
 315              	.LBB55:
 316              	.LBB52:
 317              		.loc 2 55 38 view .LVU113
 318 0028 04308CE5 		str	r3, [ip, #4]
 319              	.LVL17:
 320              		.loc 2 56 3 is_stmt 1 view .LVU114
 321              		.loc 2 56 3 is_stmt 0 view .LVU115
 322              	.LBE52:
 323              	.LBE55:
 324              		.loc 1 119 3 view .LVU116
 325 002c 102083E5 		str	r2, [r3, #16]
 326              		.loc 1 120 3 is_stmt 1 view .LVU117
 327              		.loc 1 120 18 is_stmt 0 view .LVU118
 328 0030 10E0C2E5 		strb	lr, [r2, #16]
 329              		.loc 1 121 3 is_stmt 1 view .LVU119
 330              		.loc 1 121 3 view .LVU120
 331              		.loc 1 121 3 view .LVU121
 332              		.loc 1 121 3 view .LVU122
 333              	.LBB56:
 334              	.LBB53:
 335              		.loc 2 55 16 is_stmt 0 view .LVU123
 336 0034 00C083E5 		str	ip, [r3]
 337              	.LBE53:
 338              	.LBE56:
 339              		.loc 1 122 1 view .LVU124
 340 0038 04E09DE4 		ldr	lr, [sp], #4
 341              		.cfi_restore 14
 342              		.cfi_def_cfa_offset 0
ARM GAS  /var/folders/l5/0x54b2c10074c8bt31ycjvl80000gp/T//ccE2J0wy.s 			page 7


 343              		.loc 1 121 3 view .LVU125
 344 003c FEFFFFEA 		b	_port_switch_arm
 345              	.LVL18:
 346              	.L23:
 347              		.loc 1 121 3 view .LVU126
 348              		.align	2
 349              	.L22:
 350 0040 00000000 		.word	rlist
 351              		.cfi_endproc
 352              	.LFE9:
 353              		.size	chSchGoSleepS, .-chSchGoSleepS
 354              		.section	.text.chSchGoSleepTimeoutS,"ax",%progbits
 355              		.align	2
 356              		.global	chSchGoSleepTimeoutS
 357              		.syntax unified
 358              		.arm
 359              		.fpu softvfp
 360              		.type	chSchGoSleepTimeoutS, %function
 361              	chSchGoSleepTimeoutS:
 362              	.LVL19:
 363              	.LFB11:
 364              		.loc 1 182 63 is_stmt 1 view -0
 365              		.cfi_startproc
 366              		@ args = 0, pretend = 0, frame = 20
 367              		@ frame_needed = 0, uses_anonymous_args = 0
 368              		.loc 1 184 3 view .LVU128
 369              		.loc 1 184 21 view .LVU129
 370              		.loc 1 186 3 view .LVU130
 371              		.loc 1 182 63 is_stmt 0 view .LVU131
 372 0000 30402DE9 		push	{r4, r5, lr}
 373              		.cfi_def_cfa_offset 12
 374              		.cfi_offset 4, -12
 375              		.cfi_offset 5, -8
 376              		.cfi_offset 14, -4
 377              		.loc 1 186 6 view .LVU132
 378 0004 010071E3 		cmn	r1, #1
 379              		.loc 1 182 63 view .LVU133
 380 0008 14D04DE2 		sub	sp, sp, #20
 381              		.cfi_def_cfa_offset 32
 382              		.loc 1 182 63 view .LVU134
 383 000c 7050EFE6 		uxtb	r5, r0
 384              		.loc 1 186 6 view .LVU135
 385 0010 0F00000A 		beq	.L25
 386              	.LBB57:
 387              		.loc 1 187 5 is_stmt 1 view .LVU136
 388              		.loc 1 189 5 view .LVU137
 389              		.loc 1 189 33 is_stmt 0 view .LVU138
 390 0014 54409FE5 		ldr	r4, .L32
 391              		.loc 1 189 5 view .LVU139
 392 0018 0D00A0E1 		mov	r0, sp
 393              	.LVL20:
 394              		.loc 1 189 5 view .LVU140
 395 001c 103094E5 		ldr	r3, [r4, #16]
 396 0020 4C209FE5 		ldr	r2, .L32+4
 397 0024 FEFFFFEB 		bl	chVTSetI
 398              	.LVL21:
 399              		.loc 1 190 5 is_stmt 1 view .LVU141
ARM GAS  /var/folders/l5/0x54b2c10074c8bt31ycjvl80000gp/T//ccE2J0wy.s 			page 8


 400 0028 0500A0E1 		mov	r0, r5
 401 002c FEFFFFEB 		bl	chSchGoSleepS
 402              	.LVL22:
 403              		.loc 1 191 5 view .LVU142
 404              		.loc 1 191 8 is_stmt 0 view .LVU143
 405 0030 0C309DE5 		ldr	r3, [sp, #12]
 406 0034 000053E3 		cmp	r3, #0
 407 0038 0100000A 		beq	.L27
 408              		.loc 1 192 7 is_stmt 1 view .LVU144
 409 003c 0D00A0E1 		mov	r0, sp
 410 0040 FEFFFFEB 		bl	chVTResetI
 411              	.LVL23:
 412              	.L27:
 413              	.LBE57:
 414              		.loc 1 196 3 view .LVU145
 415              		.loc 1 196 20 is_stmt 0 view .LVU146
 416 0044 103094E5 		ldr	r3, [r4, #16]
 417              		.loc 1 197 1 view .LVU147
 418 0048 140093E5 		ldr	r0, [r3, #20]
 419 004c 14D08DE2 		add	sp, sp, #20
 420              		.cfi_remember_state
 421              		.cfi_def_cfa_offset 12
 422              		@ sp needed
 423 0050 3080BDE8 		pop	{r4, r5, pc}
 424              	.LVL24:
 425              	.L25:
 426              		.cfi_restore_state
 427              		.loc 1 195 5 is_stmt 1 view .LVU148
 428 0054 0500A0E1 		mov	r0, r5
 429              	.LVL25:
 430              		.loc 1 195 5 is_stmt 0 view .LVU149
 431 0058 FEFFFFEB 		bl	chSchGoSleepS
 432              	.LVL26:
 433              		.loc 1 195 5 view .LVU150
 434 005c 0C409FE5 		ldr	r4, .L32
 435              		.loc 1 196 3 is_stmt 1 view .LVU151
 436              		.loc 1 196 20 is_stmt 0 view .LVU152
 437 0060 103094E5 		ldr	r3, [r4, #16]
 438              		.loc 1 197 1 view .LVU153
 439 0064 140093E5 		ldr	r0, [r3, #20]
 440 0068 14D08DE2 		add	sp, sp, #20
 441              		.cfi_def_cfa_offset 12
 442              		@ sp needed
 443 006c 3080BDE8 		pop	{r4, r5, pc}
 444              	.LVL27:
 445              	.L33:
 446              		.loc 1 197 1 view .LVU154
 447              		.align	2
 448              	.L32:
 449 0070 00000000 		.word	rlist
 450 0074 00000000 		.word	wakeup
 451              		.cfi_endproc
 452              	.LFE11:
 453              		.size	chSchGoSleepTimeoutS, .-chSchGoSleepTimeoutS
 454              		.section	.text.chSchWakeupS,"ax",%progbits
 455              		.align	2
 456              		.global	chSchWakeupS
ARM GAS  /var/folders/l5/0x54b2c10074c8bt31ycjvl80000gp/T//ccE2J0wy.s 			page 9


 457              		.syntax unified
 458              		.arm
 459              		.fpu softvfp
 460              		.type	chSchWakeupS, %function
 461              	chSchWakeupS:
 462              	.LVL28:
 463              	.LFB12:
 464              		.loc 1 218 43 is_stmt 1 view -0
 465              		.cfi_startproc
 466              		@ args = 0, pretend = 0, frame = 0
 467              		@ frame_needed = 0, uses_anonymous_args = 0
 468              		.loc 1 220 3 view .LVU156
 469              		.loc 1 220 21 view .LVU157
 470              		.loc 1 222 3 view .LVU158
 471              		.loc 1 227 22 is_stmt 0 view .LVU159
 472 0000 A0309FE5 		ldr	r3, .L43
 473              		.loc 1 218 43 view .LVU160
 474 0004 10402DE9 		push	{r4, lr}
 475              		.cfi_def_cfa_offset 8
 476              		.cfi_offset 4, -8
 477              		.cfi_offset 14, -4
 478              		.loc 1 227 22 view .LVU161
 479 0008 104093E5 		ldr	r4, [r3, #16]
 480              		.loc 1 227 10 view .LVU162
 481 000c 08E090E5 		ldr	lr, [r0, #8]
 482              		.loc 1 218 43 view .LVU163
 483 0010 00C0A0E1 		mov	ip, r0
 484              		.loc 1 222 19 view .LVU164
 485 0014 141080E5 		str	r1, [r0, #20]
 486              		.loc 1 227 3 is_stmt 1 view .LVU165
 487              		.loc 1 227 27 is_stmt 0 view .LVU166
 488 0018 080094E5 		ldr	r0, [r4, #8]
 489              	.LVL29:
 490              		.loc 1 227 6 view .LVU167
 491 001c 00005EE1 		cmp	lr, r0
 492 0020 0C00008A 		bhi	.L35
 493              		.loc 1 228 5 is_stmt 1 view .LVU168
 494              	.LVL30:
 495              	.LBB58:
 496              	.LBI58:
 497              		.loc 1 74 9 view .LVU169
 498              	.LBB59:
 499              		.loc 1 75 3 view .LVU170
 500              		.loc 1 77 3 view .LVU171
 501              		.loc 1 77 21 view .LVU172
 502              		.loc 1 80 3 view .LVU173
 503              		.loc 1 83 31 view .LVU174
 504              		.loc 1 85 3 view .LVU175
 505              		.loc 1 85 15 is_stmt 0 view .LVU176
 506 0024 0020A0E3 		mov	r2, #0
 507 0028 1020CCE5 		strb	r2, [ip, #16]
 508              		.loc 1 86 3 is_stmt 1 view .LVU177
 509              	.LVL31:
 510              	.L36:
 511              		.loc 1 87 3 view .LVU178
 512              		.loc 1 88 5 view .LVU179
 513              		.loc 1 88 8 is_stmt 0 view .LVU180
ARM GAS  /var/folders/l5/0x54b2c10074c8bt31ycjvl80000gp/T//ccE2J0wy.s 			page 10


 514 002c 003093E5 		ldr	r3, [r3]
 515              	.LVL32:
 516              		.loc 1 89 3 view .LVU181
 517 0030 082093E5 		ldr	r2, [r3, #8]
 518 0034 02005EE1 		cmp	lr, r2
 519 0038 FBFFFF9A 		bls	.L36
 520              		.loc 1 91 3 is_stmt 1 view .LVU182
 521              		.loc 1 92 18 is_stmt 0 view .LVU183
 522 003c 042093E5 		ldr	r2, [r3, #4]
 523              		.loc 1 91 14 view .LVU184
 524 0040 00308CE5 		str	r3, [ip]
 525              		.loc 1 92 3 is_stmt 1 view .LVU185
 526              		.loc 1 92 14 is_stmt 0 view .LVU186
 527 0044 04208CE5 		str	r2, [ip, #4]
 528              		.loc 1 93 3 is_stmt 1 view .LVU187
 529              		.loc 1 93 35 is_stmt 0 view .LVU188
 530 0048 04C083E5 		str	ip, [r3, #4]
 531              		.loc 1 93 22 view .LVU189
 532 004c 04309CE5 		ldr	r3, [ip, #4]
 533              	.LVL33:
 534              		.loc 1 93 22 view .LVU190
 535 0050 00C083E5 		str	ip, [r3]
 536              	.LVL34:
 537              		.loc 1 94 3 is_stmt 1 view .LVU191
 538              	.LBE59:
 539              	.LBE58:
 540              		.loc 1 235 1 is_stmt 0 view .LVU192
 541 0054 1080BDE8 		pop	{r4, pc}
 542              	.LVL35:
 543              	.L35:
 544              	.LBB60:
 545              		.loc 1 230 5 is_stmt 1 view .LVU193
 546              	.LBB61:
 547              	.LBI61:
 548              		.loc 1 74 9 view .LVU194
 549              	.LBB62:
 550              		.loc 1 75 3 view .LVU195
 551              		.loc 1 77 3 view .LVU196
 552              		.loc 1 77 21 view .LVU197
 553              		.loc 1 80 3 view .LVU198
 554              		.loc 1 83 31 view .LVU199
 555              		.loc 1 85 3 view .LVU200
 556              		.loc 1 85 15 is_stmt 0 view .LVU201
 557 0058 0010A0E3 		mov	r1, #0
 558              	.LVL36:
 559              		.loc 1 86 6 view .LVU202
 560 005c 0320A0E1 		mov	r2, r3
 561              		.loc 1 85 15 view .LVU203
 562 0060 1010C4E5 		strb	r1, [r4, #16]
 563              	.LVL37:
 564              		.loc 1 86 3 is_stmt 1 view .LVU204
 565              	.L38:
 566              		.loc 1 87 3 view .LVU205
 567              		.loc 1 88 5 view .LVU206
 568              		.loc 1 88 8 is_stmt 0 view .LVU207
 569 0064 002092E5 		ldr	r2, [r2]
 570              	.LVL38:
ARM GAS  /var/folders/l5/0x54b2c10074c8bt31ycjvl80000gp/T//ccE2J0wy.s 			page 11


 571              		.loc 1 89 3 view .LVU208
 572 0068 081092E5 		ldr	r1, [r2, #8]
 573 006c 010050E1 		cmp	r0, r1
 574 0070 FBFFFF9A 		bls	.L38
 575              		.loc 1 91 3 is_stmt 1 view .LVU209
 576              	.LBE62:
 577              	.LBE61:
 578              		.loc 1 232 18 is_stmt 0 view .LVU210
 579 0074 01E0A0E3 		mov	lr, #1
 580              	.LBB65:
 581              	.LBB63:
 582              		.loc 1 92 18 view .LVU211
 583 0078 041092E5 		ldr	r1, [r2, #4]
 584              		.loc 1 91 14 view .LVU212
 585 007c 002084E5 		str	r2, [r4]
 586              		.loc 1 92 3 is_stmt 1 view .LVU213
 587              		.loc 1 92 14 is_stmt 0 view .LVU214
 588 0080 041084E5 		str	r1, [r4, #4]
 589              		.loc 1 93 3 is_stmt 1 view .LVU215
 590              		.loc 1 93 35 is_stmt 0 view .LVU216
 591 0084 044082E5 		str	r4, [r2, #4]
 592              		.loc 1 93 22 view .LVU217
 593 0088 042094E5 		ldr	r2, [r4, #4]
 594              	.LVL39:
 595              		.loc 1 93 22 view .LVU218
 596              	.LBE63:
 597              	.LBE65:
 598              		.loc 1 233 5 view .LVU219
 599 008c 0410A0E1 		mov	r1, r4
 600              	.LBB66:
 601              	.LBB64:
 602              		.loc 1 93 22 view .LVU220
 603 0090 004082E5 		str	r4, [r2]
 604              	.LVL40:
 605              		.loc 1 94 3 is_stmt 1 view .LVU221
 606              		.loc 1 94 3 is_stmt 0 view .LVU222
 607              	.LBE64:
 608              	.LBE66:
 609              		.loc 1 231 5 is_stmt 1 view .LVU223
 610 0094 10C083E5 		str	ip, [r3, #16]
 611              		.loc 1 232 5 view .LVU224
 612              		.loc 1 232 18 is_stmt 0 view .LVU225
 613 0098 10E0CCE5 		strb	lr, [ip, #16]
 614              		.loc 1 233 5 is_stmt 1 view .LVU226
 615              		.loc 1 233 5 view .LVU227
 616              		.loc 1 233 5 view .LVU228
 617              		.loc 1 233 5 view .LVU229
 618 009c 0C00A0E1 		mov	r0, ip
 619              	.LBE60:
 620              		.loc 1 235 1 is_stmt 0 view .LVU230
 621 00a0 1040BDE8 		pop	{r4, lr}
 622              		.cfi_restore 14
 623              		.cfi_restore 4
 624              		.cfi_def_cfa_offset 0
 625              	.LVL41:
 626              	.LBB67:
 627              		.loc 1 233 5 view .LVU231
ARM GAS  /var/folders/l5/0x54b2c10074c8bt31ycjvl80000gp/T//ccE2J0wy.s 			page 12


 628 00a4 FEFFFFEA 		b	_port_switch_arm
 629              	.LVL42:
 630              	.L44:
 631              		.loc 1 233 5 view .LVU232
 632              		.align	2
 633              	.L43:
 634 00a8 00000000 		.word	rlist
 635              	.LBE67:
 636              		.cfi_endproc
 637              	.LFE12:
 638              		.size	chSchWakeupS, .-chSchWakeupS
 639              		.section	.text.chSchIsPreemptionRequired,"ax",%progbits
 640              		.align	2
 641              		.global	chSchIsPreemptionRequired
 642              		.syntax unified
 643              		.arm
 644              		.fpu softvfp
 645              		.type	chSchIsPreemptionRequired, %function
 646              	chSchIsPreemptionRequired:
 647              	.LFB14:
 648              		.loc 1 269 40 is_stmt 1 view -0
 649              		.cfi_startproc
 650              		@ args = 0, pretend = 0, frame = 0
 651              		@ frame_needed = 0, uses_anonymous_args = 0
 652              		@ link register save eliminated.
 653              		.loc 1 270 3 view .LVU234
 654              		.loc 1 270 16 is_stmt 0 view .LVU235
 655 0000 38209FE5 		ldr	r2, .L48
 656              		.loc 1 271 16 view .LVU236
 657 0004 103092E5 		ldr	r3, [r2, #16]
 658              		.loc 1 270 11 view .LVU237
 659 0008 001092E5 		ldr	r1, [r2]
 660              		.loc 1 277 37 view .LVU238
 661 000c 1220D3E5 		ldrb	r2, [r3, #18]	@ zero_extendqisi2
 662              		.loc 1 270 11 view .LVU239
 663 0010 080091E5 		ldr	r0, [r1, #8]
 664              	.LVL43:
 665              		.loc 1 271 3 is_stmt 1 view .LVU240
 666              		.loc 1 277 37 is_stmt 0 view .LVU241
 667 0014 000052E3 		cmp	r2, #0
 668              		.loc 1 271 11 view .LVU242
 669 0018 083093E5 		ldr	r3, [r3, #8]
 670              	.LVL44:
 671              		.loc 1 277 3 is_stmt 1 view .LVU243
 672              		.loc 1 277 37 is_stmt 0 view .LVU244
 673 001c 0300000A 		beq	.L46
 674              		.loc 1 277 32 discriminator 1 view .LVU245
 675 0020 030050E1 		cmp	r0, r3
 676 0024 0000A093 		movls	r0, #0
 677              	.LVL45:
 678              		.loc 1 277 32 discriminator 1 view .LVU246
 679 0028 0100A083 		movhi	r0, #1
 680 002c 1EFF2FE1 		bx	lr
 681              	.LVL46:
 682              	.L46:
 683              		.loc 1 277 42 discriminator 2 view .LVU247
 684 0030 030050E1 		cmp	r0, r3
ARM GAS  /var/folders/l5/0x54b2c10074c8bt31ycjvl80000gp/T//ccE2J0wy.s 			page 13


 685 0034 0000A033 		movcc	r0, #0
 686              	.LVL47:
 687              		.loc 1 277 42 discriminator 2 view .LVU248
 688 0038 0100A023 		movcs	r0, #1
 689              		.loc 1 283 1 discriminator 2 view .LVU249
 690 003c 1EFF2FE1 		bx	lr
 691              	.L49:
 692              		.align	2
 693              	.L48:
 694 0040 00000000 		.word	rlist
 695              		.cfi_endproc
 696              	.LFE14:
 697              		.size	chSchIsPreemptionRequired, .-chSchIsPreemptionRequired
 698              		.section	.text.chSchDoRescheduleBehind,"ax",%progbits
 699              		.align	2
 700              		.global	chSchDoRescheduleBehind
 701              		.syntax unified
 702              		.arm
 703              		.fpu softvfp
 704              		.type	chSchDoRescheduleBehind, %function
 705              	chSchDoRescheduleBehind:
 706              	.LFB15:
 707              		.loc 1 297 36 is_stmt 1 view -0
 708              		.cfi_startproc
 709              		@ args = 0, pretend = 0, frame = 0
 710              		@ frame_needed = 0, uses_anonymous_args = 0
 711              		.loc 1 298 3 view .LVU251
 712              		.loc 1 300 3 view .LVU252
 713              		.loc 1 297 36 is_stmt 0 view .LVU253
 714 0000 30402DE9 		push	{r4, r5, lr}
 715              		.cfi_def_cfa_offset 12
 716              		.cfi_offset 4, -12
 717              		.cfi_offset 5, -8
 718              		.cfi_offset 14, -4
 719              		.loc 1 303 18 view .LVU254
 720 0004 0150A0E3 		mov	r5, #1
 721              		.loc 1 305 18 view .LVU255
 722 0008 1440A0E3 		mov	r4, #20
 723              	.LBB68:
 724              	.LBB69:
 725              		.loc 1 85 15 view .LVU256
 726 000c 00E0A0E3 		mov	lr, #0
 727              	.LBE69:
 728              	.LBE68:
 729              		.loc 1 300 7 view .LVU257
 730 0010 5C209FE5 		ldr	r2, .L55
 731              	.LBB73:
 732              	.LBB74:
 733              		.loc 2 53 11 view .LVU258
 734 0014 000092E5 		ldr	r0, [r2]
 735              	.LBE74:
 736              	.LBE73:
 737              		.loc 1 300 7 view .LVU259
 738 0018 101092E5 		ldr	r1, [r2, #16]
 739              	.LVL48:
 740              		.loc 1 302 3 is_stmt 1 view .LVU260
 741              	.LBB78:
ARM GAS  /var/folders/l5/0x54b2c10074c8bt31ycjvl80000gp/T//ccE2J0wy.s 			page 14


 742              	.LBI73:
 743              		.loc 2 52 23 view .LVU261
 744              	.LBB75:
 745              		.loc 2 53 3 view .LVU262
 746              		.loc 2 55 3 view .LVU263
 747              		.loc 2 55 20 is_stmt 0 view .LVU264
 748 001c 00C090E5 		ldr	ip, [r0]
 749              	.LBE75:
 750              	.LBE78:
 751              	.LBB79:
 752              	.LBB70:
 753              		.loc 1 89 28 view .LVU265
 754 0020 0030A0E1 		mov	r3, r0
 755              	.LBE70:
 756              	.LBE79:
 757              	.LBB80:
 758              	.LBB76:
 759              		.loc 2 55 38 view .LVU266
 760 0024 04208CE5 		str	r2, [ip, #4]
 761              		.loc 2 56 3 is_stmt 1 view .LVU267
 762              	.LVL49:
 763              		.loc 2 56 3 is_stmt 0 view .LVU268
 764              	.LBE76:
 765              	.LBE80:
 766              		.loc 1 302 3 view .LVU269
 767 0028 100082E5 		str	r0, [r2, #16]
 768              		.loc 1 303 3 is_stmt 1 view .LVU270
 769              		.loc 1 303 18 is_stmt 0 view .LVU271
 770 002c 1050C0E5 		strb	r5, [r0, #16]
 771              		.loc 1 305 3 is_stmt 1 view .LVU272
 772              	.LBB81:
 773              	.LBB77:
 774              		.loc 2 55 16 is_stmt 0 view .LVU273
 775 0030 00C082E5 		str	ip, [r2]
 776              	.LBE77:
 777              	.LBE81:
 778              		.loc 1 305 18 view .LVU274
 779 0034 1240C1E5 		strb	r4, [r1, #18]
 780              		.loc 1 307 3 is_stmt 1 view .LVU275
 781              	.LVL50:
 782              	.LBB82:
 783              	.LBI68:
 784              		.loc 1 74 9 view .LVU276
 785              	.LBB71:
 786              		.loc 1 75 3 view .LVU277
 787              		.loc 1 77 3 view .LVU278
 788              		.loc 1 77 21 view .LVU279
 789              		.loc 1 80 3 view .LVU280
 790              		.loc 1 83 31 view .LVU281
 791              		.loc 1 85 3 view .LVU282
 792              		.loc 1 89 28 is_stmt 0 view .LVU283
 793 0038 08C091E5 		ldr	ip, [r1, #8]
 794              		.loc 1 85 15 view .LVU284
 795 003c 10E0C1E5 		strb	lr, [r1, #16]
 796              		.loc 1 86 3 is_stmt 1 view .LVU285
 797              	.LVL51:
 798              		.loc 1 86 3 is_stmt 0 view .LVU286
ARM GAS  /var/folders/l5/0x54b2c10074c8bt31ycjvl80000gp/T//ccE2J0wy.s 			page 15


 799 0040 000000EA 		b	.L52
 800              	.LVL52:
 801              	.L54:
 802              		.loc 1 86 3 view .LVU287
 803 0044 003093E5 		ldr	r3, [r3]
 804              	.L52:
 805              		.loc 1 87 3 is_stmt 1 view .LVU288
 806              		.loc 1 88 5 view .LVU289
 807              		.loc 1 89 3 is_stmt 0 view .LVU290
 808 0048 082093E5 		ldr	r2, [r3, #8]
 809 004c 0C0052E1 		cmp	r2, ip
 810 0050 FBFFFF2A 		bcs	.L54
 811              		.loc 1 91 3 is_stmt 1 view .LVU291
 812              	.LBE71:
 813              	.LBE82:
 814              		.loc 1 309 1 is_stmt 0 view .LVU292
 815 0054 3040BDE8 		pop	{r4, r5, lr}
 816              		.cfi_restore 14
 817              		.cfi_restore 5
 818              		.cfi_restore 4
 819              		.cfi_def_cfa_offset 0
 820              	.LBB83:
 821              	.LBB72:
 822              		.loc 1 92 18 view .LVU293
 823 0058 042093E5 		ldr	r2, [r3, #4]
 824              		.loc 1 91 14 view .LVU294
 825 005c 003081E5 		str	r3, [r1]
 826              		.loc 1 92 3 is_stmt 1 view .LVU295
 827              		.loc 1 92 14 is_stmt 0 view .LVU296
 828 0060 042081E5 		str	r2, [r1, #4]
 829              		.loc 1 93 3 is_stmt 1 view .LVU297
 830              		.loc 1 93 35 is_stmt 0 view .LVU298
 831 0064 041083E5 		str	r1, [r3, #4]
 832              		.loc 1 93 22 view .LVU299
 833 0068 043091E5 		ldr	r3, [r1, #4]
 834 006c 001083E5 		str	r1, [r3]
 835              		.loc 1 94 3 is_stmt 1 view .LVU300
 836              	.LVL53:
 837              		.loc 1 94 3 is_stmt 0 view .LVU301
 838              	.LBE72:
 839              	.LBE83:
 840              		.loc 1 308 3 is_stmt 1 view .LVU302
 841              		.loc 1 308 3 view .LVU303
 842              		.loc 1 308 3 view .LVU304
 843              		.loc 1 308 3 view .LVU305
 844 0070 FEFFFFEA 		b	_port_switch_arm
 845              	.LVL54:
 846              	.L56:
 847              		.loc 1 308 3 is_stmt 0 view .LVU306
 848              		.align	2
 849              	.L55:
 850 0074 00000000 		.word	rlist
 851              		.cfi_endproc
 852              	.LFE15:
 853              		.size	chSchDoRescheduleBehind, .-chSchDoRescheduleBehind
 854              		.section	.text.chSchDoRescheduleAhead,"ax",%progbits
 855              		.align	2
ARM GAS  /var/folders/l5/0x54b2c10074c8bt31ycjvl80000gp/T//ccE2J0wy.s 			page 16


 856              		.global	chSchDoRescheduleAhead
 857              		.syntax unified
 858              		.arm
 859              		.fpu softvfp
 860              		.type	chSchDoRescheduleAhead, %function
 861              	chSchDoRescheduleAhead:
 862              	.LFB16:
 863              		.loc 1 322 35 is_stmt 1 view -0
 864              		.cfi_startproc
 865              		@ args = 0, pretend = 0, frame = 0
 866              		@ frame_needed = 0, uses_anonymous_args = 0
 867              		.loc 1 323 3 view .LVU308
 868              		.loc 1 325 3 view .LVU309
 869              		.loc 1 322 35 is_stmt 0 view .LVU310
 870 0000 10402DE9 		push	{r4, lr}
 871              		.cfi_def_cfa_offset 8
 872              		.cfi_offset 4, -8
 873              		.cfi_offset 14, -4
 874              		.loc 1 328 18 view .LVU311
 875 0004 0140A0E3 		mov	r4, #1
 876              		.loc 1 330 16 view .LVU312
 877 0008 00E0A0E3 		mov	lr, #0
 878              		.loc 1 325 7 view .LVU313
 879 000c 58209FE5 		ldr	r2, .L62
 880              	.LBB84:
 881              	.LBB85:
 882              		.loc 2 53 11 view .LVU314
 883 0010 000092E5 		ldr	r0, [r2]
 884              	.LBE85:
 885              	.LBE84:
 886              		.loc 1 325 7 view .LVU315
 887 0014 101092E5 		ldr	r1, [r2, #16]
 888              	.LVL55:
 889              		.loc 1 327 3 is_stmt 1 view .LVU316
 890              	.LBB89:
 891              	.LBI84:
 892              		.loc 2 52 23 view .LVU317
 893              	.LBB86:
 894              		.loc 2 53 3 view .LVU318
 895              		.loc 2 55 3 view .LVU319
 896              		.loc 2 55 20 is_stmt 0 view .LVU320
 897 0018 00C090E5 		ldr	ip, [r0]
 898              	.LBE86:
 899              	.LBE89:
 900              		.loc 1 334 28 view .LVU321
 901 001c 0030A0E1 		mov	r3, r0
 902              	.LBB90:
 903              	.LBB87:
 904              		.loc 2 55 38 view .LVU322
 905 0020 04208CE5 		str	r2, [ip, #4]
 906              		.loc 2 56 3 is_stmt 1 view .LVU323
 907              	.LVL56:
 908              		.loc 2 56 3 is_stmt 0 view .LVU324
 909              	.LBE87:
 910              	.LBE90:
 911              		.loc 1 327 3 view .LVU325
 912 0024 100082E5 		str	r0, [r2, #16]
ARM GAS  /var/folders/l5/0x54b2c10074c8bt31ycjvl80000gp/T//ccE2J0wy.s 			page 17


 913              		.loc 1 328 3 is_stmt 1 view .LVU326
 914              		.loc 1 328 18 is_stmt 0 view .LVU327
 915 0028 1040C0E5 		strb	r4, [r0, #16]
 916              		.loc 1 330 3 is_stmt 1 view .LVU328
 917              	.LBB91:
 918              	.LBB88:
 919              		.loc 2 55 16 is_stmt 0 view .LVU329
 920 002c 00C082E5 		str	ip, [r2]
 921              	.LBE88:
 922              	.LBE91:
 923              		.loc 1 330 16 view .LVU330
 924 0030 10E0C1E5 		strb	lr, [r1, #16]
 925              		.loc 1 331 3 is_stmt 1 view .LVU331
 926              	.LVL57:
 927              		.loc 1 334 28 is_stmt 0 view .LVU332
 928 0034 08C091E5 		ldr	ip, [r1, #8]
 929 0038 000000EA 		b	.L59
 930              	.LVL58:
 931              	.L61:
 932              		.loc 1 334 28 view .LVU333
 933 003c 003093E5 		ldr	r3, [r3]
 934              	.L59:
 935              		.loc 1 332 3 is_stmt 1 discriminator 1 view .LVU334
 936              		.loc 1 333 5 discriminator 1 view .LVU335
 937              		.loc 1 334 3 is_stmt 0 discriminator 1 view .LVU336
 938 0040 082093E5 		ldr	r2, [r3, #8]
 939 0044 0C0052E1 		cmp	r2, ip
 940 0048 FBFFFF8A 		bhi	.L61
 941              		.loc 1 336 3 is_stmt 1 view .LVU337
 942              		.loc 1 341 1 is_stmt 0 view .LVU338
 943 004c 1040BDE8 		pop	{r4, lr}
 944              		.cfi_restore 14
 945              		.cfi_restore 4
 946              		.cfi_def_cfa_offset 0
 947              		.loc 1 337 19 view .LVU339
 948 0050 042093E5 		ldr	r2, [r3, #4]
 949              		.loc 1 336 15 view .LVU340
 950 0054 003081E5 		str	r3, [r1]
 951              		.loc 1 337 3 is_stmt 1 view .LVU341
 952              		.loc 1 337 15 is_stmt 0 view .LVU342
 953 0058 042081E5 		str	r2, [r1, #4]
 954              		.loc 1 338 3 is_stmt 1 view .LVU343
 955              		.loc 1 338 36 is_stmt 0 view .LVU344
 956 005c 041083E5 		str	r1, [r3, #4]
 957              		.loc 1 338 23 view .LVU345
 958 0060 043091E5 		ldr	r3, [r1, #4]
 959 0064 001083E5 		str	r1, [r3]
 960              		.loc 1 340 3 is_stmt 1 view .LVU346
 961              		.loc 1 340 3 view .LVU347
 962              		.loc 1 340 3 view .LVU348
 963              		.loc 1 340 3 view .LVU349
 964 0068 FEFFFFEA 		b	_port_switch_arm
 965              	.LVL59:
 966              	.L63:
 967              		.loc 1 340 3 is_stmt 0 view .LVU350
 968              		.align	2
 969              	.L62:
ARM GAS  /var/folders/l5/0x54b2c10074c8bt31ycjvl80000gp/T//ccE2J0wy.s 			page 18


 970 006c 00000000 		.word	rlist
 971              		.cfi_endproc
 972              	.LFE16:
 973              		.size	chSchDoRescheduleAhead, .-chSchDoRescheduleAhead
 974              		.section	.text.chSchRescheduleS,"ax",%progbits
 975              		.align	2
 976              		.global	chSchRescheduleS
 977              		.syntax unified
 978              		.arm
 979              		.fpu softvfp
 980              		.type	chSchRescheduleS, %function
 981              	chSchRescheduleS:
 982              	.LFB13:
 983              		.loc 1 246 29 is_stmt 1 view -0
 984              		.cfi_startproc
 985              		@ args = 0, pretend = 0, frame = 0
 986              		@ frame_needed = 0, uses_anonymous_args = 0
 987              		@ link register save eliminated.
 988              		.loc 1 248 3 view .LVU352
 989              		.loc 1 248 21 view .LVU353
 990              		.loc 1 250 3 view .LVU354
 991              		.loc 1 250 7 is_stmt 0 view .LVU355
 992 0000 18309FE5 		ldr	r3, .L66
 993 0004 002093E5 		ldr	r2, [r3]
 994 0008 103093E5 		ldr	r3, [r3, #16]
 995              		.loc 1 250 6 view .LVU356
 996 000c 082092E5 		ldr	r2, [r2, #8]
 997 0010 083093E5 		ldr	r3, [r3, #8]
 998 0014 030052E1 		cmp	r2, r3
 999 0018 1EFF2F91 		bxls	lr
 1000              		.loc 1 251 5 is_stmt 1 view .LVU357
 1001 001c FEFFFFEA 		b	chSchDoRescheduleAhead
 1002              	.LVL60:
 1003              	.L67:
 1004              		.align	2
 1005              	.L66:
 1006 0020 00000000 		.word	rlist
 1007              		.cfi_endproc
 1008              	.LFE13:
 1009              		.size	chSchRescheduleS, .-chSchRescheduleS
 1010              		.section	.text.chSchDoReschedule,"ax",%progbits
 1011              		.align	2
 1012              		.global	chSchDoReschedule
 1013              		.syntax unified
 1014              		.arm
 1015              		.fpu softvfp
 1016              		.type	chSchDoReschedule, %function
 1017              	chSchDoReschedule:
 1018              	.LFB17:
 1019              		.loc 1 355 30 view -0
 1020              		.cfi_startproc
 1021              		@ args = 0, pretend = 0, frame = 0
 1022              		@ frame_needed = 0, uses_anonymous_args = 0
 1023              		@ link register save eliminated.
 1024              		.loc 1 360 3 view .LVU359
 1025              		.loc 1 360 7 is_stmt 0 view .LVU360
 1026 0000 14309FE5 		ldr	r3, .L70
ARM GAS  /var/folders/l5/0x54b2c10074c8bt31ycjvl80000gp/T//ccE2J0wy.s 			page 19


 1027              		.loc 1 360 12 view .LVU361
 1028 0004 103093E5 		ldr	r3, [r3, #16]
 1029              		.loc 1 360 6 view .LVU362
 1030 0008 1230D3E5 		ldrb	r3, [r3, #18]	@ zero_extendqisi2
 1031 000c 000053E3 		cmp	r3, #0
 1032 0010 0000001A 		bne	.L69
 1033              		.loc 1 363 5 is_stmt 1 view .LVU363
 1034 0014 FEFFFFEA 		b	chSchDoRescheduleBehind
 1035              	.LVL61:
 1036              	.L69:
 1037              		.loc 1 368 5 view .LVU364
 1038 0018 FEFFFFEA 		b	chSchDoRescheduleAhead
 1039              	.LVL62:
 1040              	.L71:
 1041              		.align	2
 1042              	.L70:
 1043 001c 00000000 		.word	rlist
 1044              		.cfi_endproc
 1045              	.LFE17:
 1046              		.size	chSchDoReschedule, .-chSchDoReschedule
 1047              		.comm	rlist,20,4
 1048              		.text
 1049              	.Letext0:
 1050              		.file 3 "/usr/local/Cellar/arm-gcc-bin/8-2019-q3-update/arm-none-eabi/include/machine/_default_typ
 1051              		.file 4 "/usr/local/Cellar/arm-gcc-bin/8-2019-q3-update/arm-none-eabi/include/sys/_stdint.h"
 1052              		.file 5 "../../../os/ports/GCC/ARM/chtypes.h"
 1053              		.file 6 "../../../os/kernel/include/chlists.h"
 1054              		.file 7 "../../../os/kernel/include/chthreads.h"
 1055              		.file 8 "../../../os/ports/GCC/ARM/chcore.h"
 1056              		.file 9 "../../../os/kernel/include/chvt.h"
 1057              		.file 10 "../../../os/kernel/include/chschd.h"
 1058              		.file 11 "../../../os/kernel/include/chmtx.h"
 1059              		.file 12 "../../../os/kernel/include/ch.h"