ARM GAS  /var/folders/l5/0x54b2c10074c8bt31ycjvl80000gp/T//ccE2J0wy.s 			page 1


   1              		.file	"chschd.c"
   2              		.text
   3              	.Ltext0:
   4              		.cfi_sections	.debug_frame
   5              		.section	.text.wakeup,"ax",%progbits
   6              		.align	2
   7              		.arch armv6kz
   8              		.syntax unified
   9              		.arm
  10              		.fpu softvfp
  11              		.type	wakeup, %function
  12              	wakeup:
  13              	.LVL0:
  14              	.LFB10:
  15              		.file 1 "../../../os/kernel/src/chschd.c"
  16              		.loc 1 129 29 view -0
  17              		.cfi_startproc
  18              		@ args = 0, pretend = 0, frame = 0
  19              		@ frame_needed = 0, uses_anonymous_args = 0
  20              		@ link register save eliminated.
  21              		.loc 1 130 3 view .LVU1
  22              		.loc 1 132 3 view .LVU2
  23              		.loc 1 132 3 view .LVU3
  24              		.loc 1 132 21 view .LVU4
  25              		.loc 1 133 3 view .LVU5
  26              		.loc 1 133 13 is_stmt 0 view .LVU6
  27 0000 1030D0E5 		ldrb	r3, [r0, #16]	@ zero_extendqisi2
  28              		.loc 1 133 3 view .LVU7
  29 0004 000053E3 		cmp	r3, #0
  30 0008 1EFF2F01 		bxeq	lr
  31 000c 0D0053E3 		cmp	r3, #13
  32              		.loc 1 153 5 is_stmt 1 view .LVU8
  33              	.LVL1:
  34              	.LBB33:
  35              	.LBI33:
  36              		.file 2 "../../../os/kernel/include/chinline.h"
  37              		.loc 2 66 23 view .LVU9
  38              	.LBB34:
  39              		.loc 2 68 3 view .LVU10
  40              		.loc 2 68 5 is_stmt 0 view .LVU11
  41 0010 04209005 		ldreq	r2, [r0, #4]
  42              		.loc 2 68 26 view .LVU12
  43 0014 00309005 		ldreq	r3, [r0]
  44              	.LBE34:
  45              	.LBE33:
  46              		.loc 1 156 18 view .LVU13
  47 0018 00C0E0E3 		mvn	ip, #0
  48              	.LBB36:
  49              	.LBB35:
  50              		.loc 2 68 22 view .LVU14
  51 001c 00308205 		streq	r3, [r2]
  52              		.loc 2 69 3 is_stmt 1 view .LVU15
  53              		.loc 2 69 22 is_stmt 0 view .LVU16
  54 0020 04208305 		streq	r2, [r3, #4]
  55              		.loc 2 70 3 is_stmt 1 view .LVU17
  56              	.LBE35:
  57              	.LBE36:
ARM GAS  /var/folders/l5/0x54b2c10074c8bt31ycjvl80000gp/T//ccE2J0wy.s 			page 2


  58              		.loc 1 156 3 view .LVU18
  59              	.LBB37:
  60              	.LBB38:
  61              		.loc 1 85 15 is_stmt 0 view .LVU19
  62 0024 0020A0E3 		mov	r2, #0
  63              	.LBE38:
  64              	.LBE37:
  65              	.LBB40:
  66              	.LBB41:
  67              	.LBB42:
  68              	.LBB43:
  69              		.loc 1 89 28 view .LVU20
  70 0028 081090E5 		ldr	r1, [r0, #8]
  71              		.loc 1 86 6 view .LVU21
  72 002c 30309FE5 		ldr	r3, .L10
  73              	.LBE43:
  74              	.LBE42:
  75              	.LBE41:
  76              	.LBE40:
  77              		.loc 1 156 18 view .LVU22
  78 0030 14C080E5 		str	ip, [r0, #20]
  79              		.loc 1 157 3 is_stmt 1 view .LVU23
  80              	.LVL2:
  81              	.LBB47:
  82              	.LBI37:
  83              		.loc 1 74 9 view .LVU24
  84              	.LBB39:
  85              		.loc 1 75 3 view .LVU25
  86              		.loc 1 77 3 view .LVU26
  87              		.loc 1 77 21 view .LVU27
  88              		.loc 1 80 3 view .LVU28
  89              		.loc 1 83 31 view .LVU29
  90              		.loc 1 85 3 view .LVU30
  91              		.loc 1 85 15 is_stmt 0 view .LVU31
  92 0034 1020C0E5 		strb	r2, [r0, #16]
  93              		.loc 1 86 3 is_stmt 1 view .LVU32
  94              	.LVL3:
  95              		.loc 1 86 3 is_stmt 0 view .LVU33
  96              	.LBE39:
  97              	.LBE47:
  98              	.LBB48:
  99              	.LBI40:
 100              		.loc 1 129 13 is_stmt 1 view .LVU34
 101              	.L4:
 102              	.LBB46:
 103              	.LBB45:
 104              	.LBB44:
 105              		.loc 1 87 3 view .LVU35
 106              		.loc 1 88 5 view .LVU36
 107              		.loc 1 88 8 is_stmt 0 view .LVU37
 108 0038 003093E5 		ldr	r3, [r3]
 109              	.LVL4:
 110              		.loc 1 89 3 view .LVU38
 111 003c 082093E5 		ldr	r2, [r3, #8]
 112 0040 010052E1 		cmp	r2, r1
 113 0044 FBFFFF2A 		bcs	.L4
 114              		.loc 1 91 3 is_stmt 1 view .LVU39
ARM GAS  /var/folders/l5/0x54b2c10074c8bt31ycjvl80000gp/T//ccE2J0wy.s 			page 3


 115              		.loc 1 92 18 is_stmt 0 view .LVU40
 116 0048 042093E5 		ldr	r2, [r3, #4]
 117              		.loc 1 91 14 view .LVU41
 118 004c 003080E5 		str	r3, [r0]
 119              		.loc 1 92 3 is_stmt 1 view .LVU42
 120              		.loc 1 92 14 is_stmt 0 view .LVU43
 121 0050 042080E5 		str	r2, [r0, #4]
 122              		.loc 1 93 3 is_stmt 1 view .LVU44
 123              		.loc 1 93 35 is_stmt 0 view .LVU45
 124 0054 040083E5 		str	r0, [r3, #4]
 125              		.loc 1 93 22 view .LVU46
 126 0058 043090E5 		ldr	r3, [r0, #4]
 127              	.LVL5:
 128              		.loc 1 93 22 view .LVU47
 129 005c 000083E5 		str	r0, [r3]
 130              	.LVL6:
 131              		.loc 1 94 3 is_stmt 1 view .LVU48
 132              	.LBE44:
 133              	.LBE45:
 134              		.loc 1 158 3 view .LVU49
 135              		.loc 1 158 3 view .LVU50
 136              		.loc 1 158 23 view .LVU51
 137              	.LBE46:
 138              	.LBE48:
 139              		.loc 1 158 3 view .LVU52
 140              		.loc 1 158 3 view .LVU53
 141              		.loc 1 158 23 view .LVU54
 142              		.loc 1 159 1 is_stmt 0 view .LVU55
 143 0060 1EFF2FE1 		bx	lr
 144              	.L11:
 145              		.align	2
 146              	.L10:
 147 0064 00000000 		.word	rlist
 148              		.cfi_endproc
 149              	.LFE10:
 150              		.size	wakeup, .-wakeup
 151              		.section	.text._scheduler_init,"ax",%progbits
 152              		.align	2
 153              		.global	_scheduler_init
 154              		.syntax unified
 155              		.arm
 156              		.fpu softvfp
 157              		.type	_scheduler_init, %function
 158              	_scheduler_init:
 159              	.LFB7:
 160              		.loc 1 48 28 is_stmt 1 view -0
 161              		.cfi_startproc
 162              		@ args = 0, pretend = 0, frame = 0
 163              		@ frame_needed = 0, uses_anonymous_args = 0
 164              		@ link register save eliminated.
 165              		.loc 1 50 3 view .LVU57
 166              		.loc 1 51 16 is_stmt 0 view .LVU58
 167 0000 0020A0E3 		mov	r2, #0
 168              		.loc 1 50 3 view .LVU59
 169 0004 0C309FE5 		ldr	r3, .L13
 170              		.loc 1 51 16 view .LVU60
 171 0008 082083E5 		str	r2, [r3, #8]
ARM GAS  /var/folders/l5/0x54b2c10074c8bt31ycjvl80000gp/T//ccE2J0wy.s 			page 4


 172              		.loc 1 50 3 view .LVU61
 173 000c 043083E5 		str	r3, [r3, #4]
 174 0010 003083E5 		str	r3, [r3]
 175              		.loc 1 50 29 is_stmt 1 view .LVU62
 176              		.loc 1 51 3 view .LVU63
 177              		.loc 1 55 1 is_stmt 0 view .LVU64
 178 0014 1EFF2FE1 		bx	lr
 179              	.L14:
 180              		.align	2
 181              	.L13:
 182 0018 00000000 		.word	rlist
 183              		.cfi_endproc
 184              	.LFE7:
 185              		.size	_scheduler_init, .-_scheduler_init
 186              		.section	.text.chSchReadyI,"ax",%progbits
 187              		.align	2
 188              		.global	chSchReadyI
 189              		.syntax unified
 190              		.arm
 191              		.fpu softvfp
 192              		.type	chSchReadyI, %function
 193              	chSchReadyI:
 194              	.LVL7:
 195              	.LFB8:
 196              		.loc 1 74 33 is_stmt 1 view -0
 197              		.cfi_startproc
 198              		@ args = 0, pretend = 0, frame = 0
 199              		@ frame_needed = 0, uses_anonymous_args = 0
 200              		@ link register save eliminated.
 201              		.loc 1 75 3 view .LVU66
 202              		.loc 1 77 3 view .LVU67
 203              		.loc 1 77 21 view .LVU68
 204              		.loc 1 80 3 view .LVU69
 205              		.loc 1 83 31 view .LVU70
 206              		.loc 1 85 3 view .LVU71
 207              		.loc 1 85 15 is_stmt 0 view .LVU72
 208 0000 0020A0E3 		mov	r2, #0
 209              		.loc 1 74 33 view .LVU73
 210 0004 00C0A0E1 		mov	ip, r0
 211              		.loc 1 89 28 view .LVU74
 212 0008 081090E5 		ldr	r1, [r0, #8]
 213              		.loc 1 86 6 view .LVU75
 214 000c 30309FE5 		ldr	r3, .L18
 215              		.loc 1 85 15 view .LVU76
 216 0010 1020C0E5 		strb	r2, [r0, #16]
 217              		.loc 1 86 3 is_stmt 1 view .LVU77
 218              	.LVL8:
 219              	.L16:
 220              		.loc 1 87 3 discriminator 1 view .LVU78
 221              		.loc 1 88 5 discriminator 1 view .LVU79
 222              		.loc 1 88 8 is_stmt 0 discriminator 1 view .LVU80
 223 0014 003093E5 		ldr	r3, [r3]
 224              	.LVL9:
 225              		.loc 1 89 3 discriminator 1 view .LVU81
 226 0018 082093E5 		ldr	r2, [r3, #8]
 227 001c 010052E1 		cmp	r2, r1
 228 0020 FBFFFF2A 		bcs	.L16
ARM GAS  /var/folders/l5/0x54b2c10074c8bt31ycjvl80000gp/T//ccE2J0wy.s 			page 5


 229              		.loc 1 91 3 is_stmt 1 view .LVU82
 230              		.loc 1 92 18 is_stmt 0 view .LVU83
 231 0024 042093E5 		ldr	r2, [r3, #4]
 232              		.loc 1 91 14 view .LVU84
 233 0028 00308CE5 		str	r3, [ip]
 234              		.loc 1 92 3 is_stmt 1 view .LVU85
 235              		.loc 1 92 14 is_stmt 0 view .LVU86
 236 002c 04208CE5 		str	r2, [ip, #4]
 237              		.loc 1 93 3 is_stmt 1 view .LVU87
 238              		.loc 1 93 35 is_stmt 0 view .LVU88
 239 0030 04C083E5 		str	ip, [r3, #4]
 240              		.loc 1 93 22 view .LVU89
 241 0034 04309CE5 		ldr	r3, [ip, #4]
 242              	.LVL10:
 243              		.loc 1 95 1 view .LVU90
 244 0038 0C00A0E1 		mov	r0, ip
 245              	.LVL11:
 246              		.loc 1 93 22 view .LVU91
 247 003c 00C083E5 		str	ip, [r3]
 248              	.LVL12:
 249              		.loc 1 94 3 is_stmt 1 view .LVU92
 250              		.loc 1 95 1 is_stmt 0 view .LVU93
 251 0040 1EFF2FE1 		bx	lr
 252              	.L19:
 253              		.align	2
 254              	.L18:
 255 0044 00000000 		.word	rlist
 256              		.cfi_endproc
 257              	.LFE8:
 258              		.size	chSchReadyI, .-chSchReadyI
 259              		.section	.text.chSchGoSleepS,"ax",%progbits
 260              		.align	2
 261              		.global	chSchGoSleepS
 262              		.syntax unified
 263              		.arm
 264              		.fpu softvfp
 265              		.type	chSchGoSleepS, %function
 266              	chSchGoSleepS:
 267              	.LVL13:
 268              	.LFB9:
 269              		.loc 1 108 39 is_stmt 1 view -0
 270              		.cfi_startproc
 271              		@ args = 0, pretend = 0, frame = 0
 272              		@ frame_needed = 0, uses_anonymous_args = 0
 273              		.loc 1 109 3 view .LVU95
 274              		.loc 1 111 3 view .LVU96
 275              		.loc 1 111 21 view .LVU97
 276              		.loc 1 113 3 view .LVU98
 277              		.loc 1 117 18 is_stmt 0 view .LVU99
 278 0000 14C0A0E3 		mov	ip, #20
 279              		.loc 1 108 39 view .LVU100
 280 0004 04E02DE5 		str	lr, [sp, #-4]!
 281              		.cfi_def_cfa_offset 4
 282              		.cfi_offset 14, -4
 283              		.loc 1 120 18 view .LVU101
 284 0008 01E0A0E3 		mov	lr, #1
 285              		.loc 1 113 8 view .LVU102
ARM GAS  /var/folders/l5/0x54b2c10074c8bt31ycjvl80000gp/T//ccE2J0wy.s 			page 6


 286 000c 2C309FE5 		ldr	r3, .L22
 287 0010 101093E5 		ldr	r1, [r3, #16]
 288              	.LVL14:
 289              	.LBB49:
 290              	.LBB50:
 291              		.loc 2 53 11 view .LVU103
 292 0014 002093E5 		ldr	r2, [r3]
 293              	.LBE50:
 294              	.LBE49:
 295              		.loc 1 113 26 view .LVU104
 296 0018 1000C1E5 		strb	r0, [r1, #16]
 297              		.loc 1 117 3 is_stmt 1 view .LVU105
 298              		.loc 1 117 18 is_stmt 0 view .LVU106
 299 001c 12C0C1E5 		strb	ip, [r1, #18]
 300              		.loc 1 119 3 is_stmt 1 view .LVU107
 301              	.LVL15:
 302              	.LBB54:
 303              	.LBI49:
 304              		.loc 2 52 23 view .LVU108
 305              	.LBB51:
 306              		.loc 2 53 3 view .LVU109
 307              		.loc 2 55 3 view .LVU110
 308              		.loc 2 55 20 is_stmt 0 view .LVU111
 309 0020 00C092E5 		ldr	ip, [r2]
 310              	.LBE51:
 311              	.LBE54:
 312              		.loc 1 121 3 view .LVU112
 313 0024 0200A0E1 		mov	r0, r2
 314              	.LVL16:
 315              	.LBB55:
 316              	.LBB52:
 317              		.loc 2 55 38 view .LVU113
 318 0028 04308CE5 		str	r3, [ip, #4]
 319              	.LVL17:
 320              		.loc 2 56 3 is_stmt 1 view .LVU114
 321              		.loc 2 56 3 is_stmt 0 view .LVU115
 322              	.LBE52:
 323              	.LBE55:
 324              		.loc 1 119 3 view .LVU116
 325 002c 102083E5 		str	r2, [r3, #16]
 326              		.loc 1 120 3 is_stmt 1 view .LVU117
 327              		.loc 1 120 18 is_stmt 0 view .LVU118
 328 0030 10E0C2E5 		strb	lr, [r2, #16]
 329              		.loc 1 121 3 is_stmt 1 view .LVU119
 330              		.loc 1 121 3 view .LVU120
 331              		.loc 1 121 3 view .LVU121
 332              		.loc 1 121 3 view .LVU122
 333              	.LBB56:
 334              	.LBB53:
 335              		.loc 2 55 16 is_stmt 0 view .LVU123
 336 0034 00C083E5 		str	ip, [r3]
 337              	.LBE53:
 338              	.LBE56:
 339              		.loc 1 122 1 view .LVU124
 340 0038 04E09DE4 		ldr	lr, [sp], #4
 341              		.cfi_restore 14
 342              		.cfi_def_cfa_offset 0
ARM GAS  /var/folders/l5/0x54b2c10074c8bt31ycjvl80000gp/T//ccE2J0wy.s 			page 7


 343              		.loc 1 121 3 view .LVU125
 344 003c FEFFFFEA 		b	_port_switch_arm
 345              	.LVL18:
 346              	.L23:
 347              		.loc 1 121 3 view .LVU126
 348              		.align	2
 349              	.L22:
 350 0040 00000000 		.word	rlist
 351              		.cfi_endproc
 352              	.LFE9:
 353              		.size	chSchGoSleepS, .-chSchGoSleepS
 354              		.section	.text.chSchGoSleepTimeoutS,"ax",%progbits
 355              		.align	2
 356              		.global	chSchGoSleepTimeoutS
 357              		.syntax unified
 358              		.arm
 359              		.fpu softvfp
 360              		.type	chSchGoSleepTimeoutS, %function
 361              	chSchGoSleepTimeoutS:
 362              	.LVL19:
 363              	.LFB11:
 364              		.loc 1 182 63 is_stmt 1 view -0
 365              		.cfi_startproc
 366              		@ args = 0, pretend = 0, frame = 20
 367              		@ frame_needed = 0, uses_anonymous_args = 0
 368              		.loc 1 184 3 view .LVU128
 369              		.loc 1 184 21 view .LVU129
 370              		.loc 1 186 3 view .LVU130
 371              		.loc 1 182 63 is_stmt 0 view .LVU131
 372 0000 30402DE9 		push	{r4, r5, lr}
 373              		.cfi_def_cfa_offset 12
 374              		.cfi_offset 4, -12
 375              		.cfi_offset 5, -8
 376              		.cfi_offset 14, -4
 377              		.loc 1 186 6 view .LVU132
 378 0004 010071E3 		cmn	r1, #1
 379              		.loc 1 182 63 view .LVU133
 380 0008 14D04DE2 		sub	sp, sp, #20
 381              		.cfi_def_cfa_offset 32
 382              		.loc 1 182 63 view .LVU134
 383 000c 7050EFE6 		uxtb	r5, r0
 384              		.loc 1 186 6 view .LVU135
 385 0010 0F00000A 		beq	.L25
 386              	.LBB57:
 387              		.loc 1 187 5 is_stmt 1 view .LVU136
 388              		.loc 1 189 5 view .LVU137
 389              		.loc 1 189 33 is_stmt 0 view .LVU138
 390 0014 54409FE5 		ldr	r4, .L32
 391              		.loc 1 189 5 view .LVU139
 392 0018 0D00A0E1 		mov	r0, sp
 393              	.LVL20:
 394              		.loc 1 189 5 view .LVU140
 395 001c 103094E5 		ldr	r3, [r4, #16]
 396 0020 4C209FE5 		ldr	r2, .L32+4
 397 0024 FEFFFFEB 		bl	chVTSetI
 398              	.LVL21:
 399              		.loc 1 190 5 is_stmt 1 view .LVU141
ARM GAS  /var/folders/l5/0x54b2c10074c8bt31ycjvl80000gp/T//ccE2J0wy.s 			page 8


 400 0028 0500A0E1 		mov	r0, r5
 401 002c FEFFFFEB 		bl	chSchGoSleepS
 402              	.LVL22:
 403              		.loc 1 191 5 view .LVU142
 404              		.loc 1 191 8 is_stmt 0 view .LVU143
 405 0030 0C309DE5 		ldr	r3, [sp, #12]
 406 0034 000053E3 		cmp	r3, #0
 407 0038 0100000A 		beq	.L27
 408              		.loc 1 192 7 is_stmt 1 view .LVU144
 409 003c 0D00A0E1 		mov	r0, sp
 410 0040 FEFFFFEB 		bl	chVTResetI
 411              	.LVL23:
 412              	.L27:
 413              	.LBE57:
 414              		.loc 1 196 3 view .LVU145
 415              		.loc 1 196 20 is_stmt 0 view .LVU146
 416 0044 103094E5 		ldr	r3, [r4, #16]
 417              		.loc 1 197 1 view .LVU147
 418 0048 140093E5 		ldr	r0, [r3, #20]
 419 004c 14D08DE2 		add	sp, sp, #20
 420              		.cfi_remember_state
 421              		.cfi_def_cfa_offset 12
 422              		@ sp needed
 423 0050 3080BDE8 		pop	{r4, r5, pc}
 424              	.LVL24:
 425              	.L25:
 426              		.cfi_restore_state
 427              		.loc 1 195 5 is_stmt 1 view .LVU148
 428 0054 0500A0E1 		mov	r0, r5
 429              	.LVL25:
 430              		.loc 1 195 5 is_stmt 0 view .LVU149
 431 0058 FEFFFFEB 		bl	chSchGoSleepS
 432              	.LVL26:
 433              		.loc 1 195 5 view .LVU150
 434 005c 0C409FE5 		ldr	r4, .L32
 435              		.loc 1 196 3 is_stmt 1 view .LVU151
 436              		.loc 1 196 20 is_stmt 0 view .LVU152
 437 0060 103094E5 		ldr	r3, [r4, #16]
 438              		.loc 1 197 1 view .LVU153
 439 0064 140093E5 		ldr	r0, [r3, #20]
 440 0068 14D08DE2 		add	sp, sp, #20
 441              		.cfi_def_cfa_offset 12
 442              		@ sp needed
 443 006c 3080BDE8 		pop	{r4, r5, pc}
 444              	.LVL27:
 445              	.L33:
 446              		.loc 1 197 1 view .LVU154
 447              		.align	2
 448              	.L32:
 449 0070 00000000 		.word	rlist
 450 0074 00000000 		.word	wakeup
 451              		.cfi_endproc
 452              	.LFE11:
 453              		.size	chSchGoSleepTimeoutS, .-chSchGoSleepTimeoutS
 454              		.section	.text.chSchWakeupS,"ax",%progbits
 455              		.align	2
 456              		.global	chSchWakeupS
ARM GAS  /var/folders/l5/0x54b2c10074c8bt31ycjvl80000gp/T//ccE2J0wy.s 			page 9


 457              		.syntax unified
 458              		.arm
 459              		.fpu softvfp
 460              		.type	chSchWakeupS, %function
 461              	chSchWakeupS:
 462              	.LVL28:
 463              	.LFB12:
 464              		.loc 1 218 43 is_stmt 1 view -0
 465              		.cfi_startproc
 466              		@ args = 0, pretend = 0, frame = 0
 467              		@ frame_needed = 0, uses_anonymous_args = 0
 468              		.loc 1 220 3 view .LVU156
 469              		.loc 1 220 21 view .LVU157
 470              		.loc 1 222 3 view .LVU158
 471              		.loc 1 227 22 is_stmt 0 view .LVU159
 472 0000 A0309FE5 		ldr	r3, .L43
 473              		.loc 1 218 43 view .LVU160
 474 0004 10402DE9 		push	{r4, lr}
 475              		.cfi_def_cfa_offset 8
 476              		.cfi_offset 4, -8
 477              		.cfi_offset 14, -4
 478              		.loc 1 227 22 view .LVU161
 479 0008 104093E5 		ldr	r4, [r3, #16]
 480              		.loc 1 227 10 view .LVU162
 481 000c 08E090E5 		ldr	lr, [r0, #8]
 482              		.loc 1 218 43 view .LVU163
 483 0010 00C0A0E1 		mov	ip, r0
 484              		.loc 1 222 19 view .LVU164
 485 0014 141080E5 		str	r1, [r0, #20]
 486              		.loc 1 227 3 is_stmt 1 view .LVU165
 487              		.loc 1 227 27 is_stmt 0 view .LVU166
 488 0018 080094E5 		ldr	r0, [r4, #8]
 489              	.LVL29:
 490              		.loc 1 227 6 view .LVU167
 491 001c 00005EE1 		cmp	lr, r0
 492 0020 0C00008A 		bhi	.L35
 493              		.loc 1 228 5 is_stmt 1 view .LVU168
 494              	.LVL30:
 495              	.LBB58:
 496              	.LBI58:
 497              		.loc 1 74 9 view .LVU169
 498              	.LBB59:
 499              		.loc 1 75 3 view .LVU170
 500              		.loc 1 77 3 view .LVU171
 501              		.loc 1 77 21 view .LVU172
 502              		.loc 1 80 3 view .LVU173
 503              		.loc 1 83 31 view .LVU174
 504              		.loc 1 85 3 view .LVU175
 505              		.loc 1 85 15 is_stmt 0 view .LVU176
 506 0024 0020A0E3 		mov	r2, #0
 507 0028 1020CCE5 		strb	r2, [ip, #16]
 508              		.loc 1 86 3 is_stmt 1 view .LVU177
 509              	.LVL31:
 510              	.L36:
 511              		.loc 1 87 3 view .LVU178
 512              		.loc 1 88 5 view .LVU179
 513              		.loc 1 88 8 is_stmt 0 view .LVU180
ARM GAS  /var/folders/l5/0x54b2c10074c8bt31ycjvl80000gp/T//ccE2J0wy.s 			page 10


 514 002c 003093E5 		ldr	r3, [r3]
 515              	.LVL32:
 516              		.loc 1 89 3 view .LVU181
 517 0030 082093E5 		ldr	r2, [r3, #8]
 518 0034 02005EE1 		cmp	lr, r2
 519 0038 FBFFFF9A 		bls	.L36
 520              		.loc 1 91 3 is_stmt 1 view .LVU182
 521              		.loc 1 92 18 is_stmt 0 view .LVU183
 522 003c 042093E5 		ldr	r2, [r3, #4]
 523              		.loc 1 91 14 view .LVU184
 524 0040 00308CE5 		str	r3, [ip]
 525              		.loc 1 92 3 is_stmt 1 view .LVU185
 526              		.loc 1 92 14 is_stmt 0 view .LVU186
 527 0044 04208CE5 		str	r2, [ip, #4]
 528              		.loc 1 93 3 is_stmt 1 view .LVU187
 529              		.loc 1 93 35 is_stmt 0 view .LVU188
 530 0048 04C083E5 		str	ip, [r3, #4]
 531              		.loc 1 93 22 view .LVU189
 532 004c 04309CE5 		ldr	r3, [ip, #4]
 533              	.LVL33:
 534              		.loc 1 93 22 view .LVU190
 535 0050 00C083E5 		str	ip, [r3]
 536              	.LVL34:
 537              		.loc 1 94 3 is_stmt 1 view .LVU191
 538              	.LBE59:
 539              	.LBE58:
 540              		.loc 1 235 1 is_stmt 0 view .LVU192
 541 0054 1080BDE8 		pop	{r4, pc}
 542              	.LVL35:
 543              	.L35:
 544              	.LBB60:
 545              		.loc 1 230 5 is_stmt 1 view .LVU193
 546              	.LBB61:
 547              	.LBI61:
 548              		.loc 1 74 9 view .LVU194
 549              	.LBB62:
 550              		.loc 1 75 3 view .LVU195
 551              		.loc 1 77 3 view .LVU196
 552              		.loc 1 77 21 view .LVU197
 553              		.loc 1 80 3 view .LVU198
 554              		.loc 1 83 31 view .LVU199
 555              		.loc 1 85 3 view .LVU200
 556              		.loc 1 85 15 is_stmt 0 view .LVU201
 557 0058 0010A0E3 		mov	r1, #0
 558              	.LVL36:
 559              		.loc 1 86 6 view .LVU202
 560 005c 0320A0E1 		mov	r2, r3
 561              		.loc 1 85 15 view .LVU203
 562 0060 1010C4E5 		strb	r1, [r4, #16]
 563              	.LVL37:
 564              		.loc 1 86 3 is_stmt 1 view .LVU204
 565              	.L38:
 566              		.loc 1 87 3 view .LVU205
 567              		.loc 1 88 5 view .LVU206
 568              		.loc 1 88 8 is_stmt 0 view .LVU207
 569 0064 002092E5 		ldr	r2, [r2]
 570              	.LVL38:
ARM GAS  /var/folders/l5/0x54b2c10074c8bt31ycjvl80000gp/T//ccE2J0wy.s 			page 11


 571              		.loc 1 89 3 view .LVU208
 572 0068 081092E5 		ldr	r1, [r2, #8]
 573 006c 010050E1 		cmp	r0, r1
 574 0070 FBFFFF9A 		bls	.L38
 575              		.loc 1 91 3 is_stmt 1 view .LVU209
 576              	.LBE62:
 577              	.LBE61:
 578              		.loc 1 232 18 is_stmt 0 view .LVU210
 579 0074 01E0A0E3 		mov	lr, #1
 580              	.LBB65:
 581              	.LBB63:
 582              		.loc 1 92 18 view .LVU211
 583 0078 041092E5 		ldr	r1, [r2, #4]
 584              		.loc 1 91 14 view .LVU212
 585 007c 002084E5 		str	r2, [r4]
 586              		.loc 1 92 3 is_stmt 1 view .LVU213
 587              		.loc 1 92 14 is_stmt 0 view .LVU214
 588 0080 041084E5 		str	r1, [r4, #4]
 589              		.loc 1 93 3 is_stmt 1 view .LVU215
 590              		.loc 1 93 35 is_stmt 0 view .LVU216
 591 0084 044082E5 		str	r4, [r2, #4]
 592              		.loc 1 93 22 view .LVU217
 593 0088 042094E5 		ldr	r2, [r4, #4]
 594              	.LVL39:
 595              		.loc 1 93 22 view .LVU218
 596              	.LBE63:
 597              	.LBE65:
 598              		.loc 1 233 5 view .LVU219
 599 008c 0410A0E1 		mov	r1, r4
 600              	.LBB66:
 601              	.LBB64:
 602              		.loc 1 93 22 view .LVU220
 603 0090 004082E5 		str	r4, [r2]
 604              	.LVL40:
 605              		.loc 1 94 3 is_stmt 1 view .LVU221
 606              		.loc 1 94 3 is_stmt 0 view .LVU222
 607              	.LBE64:
 608              	.LBE66:
 609              		.loc 1 231 5 is_stmt 1 view .LVU223
 610 0094 10C083E5 		str	ip, [r3, #16]
 611              		.loc 1 232 5 view .LVU224
 612              		.loc 1 232 18 is_stmt 0 view .LVU225
 613 0098 10E0CCE5 		strb	lr, [ip, #16]
 614              		.loc 1 233 5 is_stmt 1 view .LVU226
 615              		.loc 1 233 5 view .LVU227
 616              		.loc 1 233 5 view .LVU228
 617              		.loc 1 233 5 view .LVU229
 618 009c 0C00A0E1 		mov	r0, ip
 619              	.LBE60:
 620              		.loc 1 235 1 is_stmt 0 view .LVU230
 621 00a0 1040BDE8 		pop	{r4, lr}
 622              		.cfi_restore 14
 623              		.cfi_restore 4
 624              		.cfi_def_cfa_offset 0
 625              	.LVL41:
 626              	.LBB67:
 627              		.loc 1 233 5 view .LVU231
ARM GAS  /var/folders/l5/0x54b2c10074c8bt31ycjvl80000gp/T//ccE2J0wy.s 			page 12


 628 00a4 FEFFFFEA 		b	_port_switch_arm
 629              	.LVL42:
 630              	.L44:
 631              		.loc 1 233 5 view .LVU232
 632              		.align	2
 633              	.L43:
 634 00a8 00000000 		.word	rlist
 635              	.LBE67:
 636              		.cfi_endproc
 637              	.LFE12:
 638              		.size	chSchWakeupS, .-chSchWakeupS
 639              		.section	.text.chSchIsPreemptionRequired,"ax",%progbits
 640              		.align	2
 641              		.global	chSchIsPreemptionRequired
 642              		.syntax unified
 643              		.arm
 644              		.fpu softvfp
 645              		.type	chSchIsPreemptionRequired, %function
 646              	chSchIsPreemptionRequired:
 647              	.LFB14:
 648              		.loc 1 269 40 is_stmt 1 view -0
 649              		.cfi_startproc
 650              		@ args = 0, pretend = 0, frame = 0
 651              		@ frame_needed = 0, uses_anonymous_args = 0
 652              		@ link register save eliminated.
 653              		.loc 1 270 3 view .LVU234
 654              		.loc 1 270 16 is_stmt 0 view .LVU235
 655 0000 38209FE5 		ldr	r2, .L48
 656              		.loc 1 271 16 view .LVU236
 657 0004 103092E5 		ldr	r3, [r2, #16]
 658              		.loc 1 270 11 view .LVU237
 659 0008 001092E5 		ldr	r1, [r2]
 660              		.loc 1 277 37 view .LVU238
 661 000c 1220D3E5 		ldrb	r2, [r3, #18]	@ zero_extendqisi2
 662              		.loc 1 270 11 view .LVU239
 663 0010 080091E5 		ldr	r0, [r1, #8]
 664              	.LVL43:
 665              		.loc 1 271 3 is_stmt 1 view .LVU240
 666              		.loc 1 277 37 is_stmt 0 view .LVU241
 667 0014 000052E3 		cmp	r2, #0
 668              		.loc 1 271 11 view .LVU242
 669 0018 083093E5 		ldr	r3, [r3, #8]
 670              	.LVL44:
 671              		.loc 1 277 3 is_stmt 1 view .LVU243
 672              		.loc 1 277 37 is_stmt 0 view .LVU244
 673 001c 0300000A 		beq	.L46
 674              		.loc 1 277 32 discriminator 1 view .LVU245
 675 0020 030050E1 		cmp	r0, r3
 676 0024 0000A093 		movls	r0, #0
 677              	.LVL45:
 678              		.loc 1 277 32 discriminator 1 view .LVU246
 679 0028 0100A083 		movhi	r0, #1
 680 002c 1EFF2FE1 		bx	lr
 681              	.LVL46:
 682              	.L46:
 683              		.loc 1 277 42 discriminator 2 view .LVU247
 684 0030 030050E1 		cmp	r0, r3
ARM GAS  /var/folders/l5/0x54b2c10074c8bt31ycjvl80000gp/T//ccE2J0wy.s 			page 13


 685 0034 0000A033 		movcc	r0, #0
 686              	.LVL47:
 687              		.loc 1 277 42 discriminator 2 view .LVU248
 688 0038 0100A023 		movcs	r0, #1
 689              		.loc 1 283 1 discriminator 2 view .LVU249
 690 003c 1EFF2FE1 		bx	lr
 691              	.L49:
 692              		.align	2
 693              	.L48:
 694 0040 00000000 		.word	rlist
 695              		.cfi_endproc
 696              	.LFE14:
 697              		.size	chSchIsPreemptionRequired, .-chSchIsPreemptionRequired
 698              		.section	.text.chSchDoRescheduleBehind,"ax",%progbits
 699              		.align	2
 700              		.global	chSchDoRescheduleBehind
 701              		.syntax unified
 702              		.arm
 703              		.fpu softvfp
 704              		.type	chSchDoRescheduleBehind, %function
 705              	chSchDoRescheduleBehind:
 706              	.LFB15:
 707              		.loc 1 297 36 is_stmt 1 view -0
 708              		.cfi_startproc
 709              		@ args = 0, pretend = 0, frame = 0
 710              		@ frame_needed = 0, uses_anonymous_args = 0
 711              		.loc 1 298 3 view .LVU251
 712              		.loc 1 300 3 view .LVU252
 713              		.loc 1 297 36 is_stmt 0 view .LVU253
 714 0000 30402DE9 		push	{r4, r5, lr}
 715              		.cfi_def_cfa_offset 12
 716              		.cfi_offset 4, -12
 717              		.cfi_offset 5, -8
 718              		.cfi_offset 14, -4
 719              		.loc 1 303 18 view .LVU254
 720 0004 0150A0E3 		mov	r5, #1
 721              		.loc 1 305 18 view .LVU255
 722 0008 1440A0E3 		mov	r4, #20
 723              	.LBB68:
 724              	.LBB69:
 725              		.loc 1 85 15 view .LVU256
 726 000c 00E0A0E3 		mov	lr, #0
 727              	.LBE69:
 728              	.LBE68:
 729              		.loc 1 300 7 view .LVU257
 730 0010 5C209FE5 		ldr	r2, .L55
 731              	.LBB73:
 732              	.LBB74:
 733              		.loc 2 53 11 view .LVU258
 734 0014 000092E5 		ldr	r0, [r2]
 735              	.LBE74:
 736              	.LBE73:
 737              		.loc 1 300 7 view .LVU259
 738 0018 101092E5 		ldr	r1, [r2, #16]
 739              	.LVL48:
 740              		.loc 1 302 3 is_stmt 1 view .LVU260
 741              	.LBB78:
ARM GAS  /var/folders/l5/0x54b2c10074c8bt31ycjvl80000gp/T//ccE2J0wy.s 			page 14


 742              	.LBI73:
 743              		.loc 2 52 23 view .LVU261
 744              	.LBB75:
 745              		.loc 2 53 3 view .LVU262
 746              		.loc 2 55 3 view .LVU263
 747              		.loc 2 55 20 is_stmt 0 view .LVU264
 748 001c 00C090E5 		ldr	ip, [r0]
 749              	.LBE75:
 750              	.LBE78:
 751              	.LBB79:
 752              	.LBB70:
 753              		.loc 1 89 28 view .LVU265
 754 0020 0030A0E1 		mov	r3, r0
 755              	.LBE70:
 756              	.LBE79:
 757              	.LBB80:
 758              	.LBB76:
 759              		.loc 2 55 38 view .LVU266
 760 0024 04208CE5 		str	r2, [ip, #4]
 761              		.loc 2 56 3 is_stmt 1 view .LVU267
 762              	.LVL49:
 763              		.loc 2 56 3 is_stmt 0 view .LVU268
 764              	.LBE76:
 765              	.LBE80:
 766              		.loc 1 302 3 view .LVU269
 767 0028 100082E5 		str	r0, [r2, #16]
 768              		.loc 1 303 3 is_stmt 1 view .LVU270
 769              		.loc 1 303 18 is_stmt 0 view .LVU271
 770 002c 1050C0E5 		strb	r5, [r0, #16]
 771              		.loc 1 305 3 is_stmt 1 view .LVU272
 772              	.LBB81:
 773              	.LBB77:
 774              		.loc 2 55 16 is_stmt 0 view .LVU273
 775 0030 00C082E5 		str	ip, [r2]
 776              	.LBE77:
 777              	.LBE81:
 778              		.loc 1 305 18 view .LVU274
 779 0034 1240C1E5 		strb	r4, [r1, #18]
 780              		.loc 1 307 3 is_stmt 1 view .LVU275
 781              	.LVL50:
 782              	.LBB82:
 783              	.LBI68:
 784              		.loc 1 74 9 view .LVU276
 785              	.LBB71:
 786              		.loc 1 75 3 view .LVU277
 787              		.loc 1 77 3 view .LVU278
 788              		.loc 1 77 21 view .LVU279
 789              		.loc 1 80 3 view .LVU280
 790              		.loc 1 83 31 view .LVU281
 791              		.loc 1 85 3 view .LVU282
 792              		.loc 1 89 28 is_stmt 0 view .LVU283
 793 0038 08C091E5 		ldr	ip, [r1, #8]
 794              		.loc 1 85 15 view .LVU284
 795 003c 10E0C1E5 		strb	lr, [r1, #16]
 796              		.loc 1 86 3 is_stmt 1 view .LVU285
 797              	.LVL51:
 798              		.loc 1 86 3 is_stmt 0 view .LVU286
ARM GAS  /var/folders/l5/0x54b2c10074c8bt31ycjvl80000gp/T//ccE2J0wy.s 			page 15


 799 0040 000000EA 		b	.L52
 800              	.LVL52:
 801              	.L54:
 802              		.loc 1 86 3 view .LVU287
 803 0044 003093E5 		ldr	r3, [r3]
 804              	.L52:
 805              		.loc 1 87 3 is_stmt 1 view .LVU288
 806              		.loc 1 88 5 view .LVU289
 807              		.loc 1 89 3 is_stmt 0 view .LVU290
 808 0048 082093E5 		ldr	r2, [r3, #8]
 809 004c 0C0052E1 		cmp	r2, ip
 810 0050 FBFFFF2A 		bcs	.L54
 811              		.loc 1 91 3 is_stmt 1 view .LVU291
 812              	.LBE71:
 813              	.LBE82:
 814              		.loc 1 309 1 is_stmt 0 view .LVU292
 815 0054 3040BDE8 		pop	{r4, r5, lr}
 816              		.cfi_restore 14
 817              		.cfi_restore 5
 818              		.cfi_restore 4
 819              		.cfi_def_cfa_offset 0
 820              	.LBB83:
 821              	.LBB72:
 822              		.loc 1 92 18 view .LVU293
 823 0058 042093E5 		ldr	r2, [r3, #4]
 824              		.loc 1 91 14 view .LVU294
 825 005c 003081E5 		str	r3, [r1]
 826              		.loc 1 92 3 is_stmt 1 view .LVU295
 827              		.loc 1 92 14 is_stmt 0 view .LVU296
 828 0060 042081E5 		str	r2, [r1, #4]
 829              		.loc 1 93 3 is_stmt 1 view .LVU297
 830              		.loc 1 93 35 is_stmt 0 view .LVU298
 831 0064 041083E5 		str	r1, [r3, #4]
 832              		.loc 1 93 22 view .LVU299
 833 0068 043091E5 		ldr	r3, [r1, #4]
 834 006c 001083E5 		str	r1, [r3]
 835              		.loc 1 94 3 is_stmt 1 view .LVU300
 836              	.LVL53:
 837              		.loc 1 94 3 is_stmt 0 view .LVU301
 838              	.LBE72:
 839              	.LBE83:
 840              		.loc 1 308 3 is_stmt 1 view .LVU302
 841              		.loc 1 308 3 view .LVU303
 842              		.loc 1 308 3 view .LVU304
 843              		.loc 1 308 3 view .LVU305
 844 0070 FEFFFFEA 		b	_port_switch_arm
 845              	.LVL54:
 846              	.L56:
 847              		.loc 1 308 3 is_stmt 0 view .LVU306
 848              		.align	2
 849              	.L55:
 850 0074 00000000 		.word	rlist
 851              		.cfi_endproc
 852              	.LFE15:
 853              		.size	chSchDoRescheduleBehind, .-chSchDoRescheduleBehind
 854              		.section	.text.chSchDoRescheduleAhead,"ax",%progbits
 855              		.align	2
ARM GAS  /var/folders/l5/0x54b2c10074c8bt31ycjvl80000gp/T//ccE2J0wy.s 			page 16


 856              		.global	chSchDoRescheduleAhead
 857              		.syntax unified
 858              		.arm
 859              		.fpu softvfp
 860              		.type	chSchDoRescheduleAhead, %function
 861              	chSchDoRescheduleAhead:
 862              	.LFB16:
 863              		.loc 1 322 35 is_stmt 1 view -0
 864              		.cfi_startproc
 865              		@ args = 0, pretend = 0, frame = 0
 866              		@ frame_needed = 0, uses_anonymous_args = 0
 867              		.loc 1 323 3 view .LVU308
 868              		.loc 1 325 3 view .LVU309
 869              		.loc 1 322 35 is_stmt 0 view .LVU310
 870 0000 10402DE9 		push	{r4, lr}
 871              		.cfi_def_cfa_offset 8
 872              		.cfi_offset 4, -8
 873              		.cfi_offset 14, -4
 874              		.loc 1 328 18 view .LVU311
 875 0004 0140A0E3 		mov	r4, #1
 876              		.loc 1 330 16 view .LVU312
 877 0008 00E0A0E3 		mov	lr, #0
 878              		.loc 1 325 7 view .LVU313
 879 000c 58209FE5 		ldr	r2, .L62
 880              	.LBB84:
 881              	.LBB85:
 882              		.loc 2 53 11 view .LVU314
 883 0010 000092E5 		ldr	r0, [r2]
 884              	.LBE85:
 885              	.LBE84:
 886              		.loc 1 325 7 view .LVU315
 887 0014 101092E5 		ldr	r1, [r2, #16]
 888              	.LVL55:
 889              		.loc 1 327 3 is_stmt 1 view .LVU316
 890              	.LBB89:
 891              	.LBI84:
 892              		.loc 2 52 23 view .LVU317
 893              	.LBB86:
 894              		.loc 2 53 3 view .LVU318
 895              		.loc 2 55 3 view .LVU319
 896              		.loc 2 55 20 is_stmt 0 view .LVU320
 897 0018 00C090E5 		ldr	ip, [r0]
 898              	.LBE86:
 899              	.LBE89:
 900              		.loc 1 334 28 view .LVU321
 901 001c 0030A0E1 		mov	r3, r0
 902              	.LBB90:
 903              	.LBB87:
 904              		.loc 2 55 38 view .LVU322
 905 0020 04208CE5 		str	r2, [ip, #4]
 906              		.loc 2 56 3 is_stmt 1 view .LVU323
 907              	.LVL56:
 908              		.loc 2 56 3 is_stmt 0 view .LVU324
 909              	.LBE87:
 910              	.LBE90:
 911              		.loc 1 327 3 view .LVU325
 912 0024 100082E5 		str	r0, [r2, #16]
ARM GAS  /var/folders/l5/0x54b2c10074c8bt31ycjvl80000gp/T//ccE2J0wy.s 			page 17


 913              		.loc 1 328 3 is_stmt 1 view .LVU326
 914              		.loc 1 328 18 is_stmt 0 view .LVU327
 915 0028 1040C0E5 		strb	r4, [r0, #16]
 916              		.loc 1 330 3 is_stmt 1 view .LVU328
 917              	.LBB91:
 918              	.LBB88:
 919              		.loc 2 55 16 is_stmt 0 view .LVU329
 920 002c 00C082E5 		str	ip, [r2]
 921              	.LBE88:
 922              	.LBE91:
 923              		.loc 1 330 16 view .LVU330
 924 0030 10E0C1E5 		strb	lr, [r1, #16]
 925              		.loc 1 331 3 is_stmt 1 view .LVU331
 926              	.LVL57:
 927              		.loc 1 334 28 is_stmt 0 view .LVU332
 928 0034 08C091E5 		ldr	ip, [r1, #8]
 929 0038 000000EA 		b	.L59
 930              	.LVL58:
 931              	.L61:
 932              		.loc 1 334 28 view .LVU333
 933 003c 003093E5 		ldr	r3, [r3]
 934              	.L59:
 935              		.loc 1 332 3 is_stmt 1 discriminator 1 view .LVU334
 936              		.loc 1 333 5 discriminator 1 view .LVU335
 937              		.loc 1 334 3 is_stmt 0 discriminator 1 view .LVU336
 938 0040 082093E5 		ldr	r2, [r3, #8]
 939 0044 0C0052E1 		cmp	r2, ip
 940 0048 FBFFFF8A 		bhi	.L61
 941              		.loc 1 336 3 is_stmt 1 view .LVU337
 942              		.loc 1 341 1 is_stmt 0 view .LVU338
 943 004c 1040BDE8 		pop	{r4, lr}
 944              		.cfi_restore 14
 945              		.cfi_restore 4
 946              		.cfi_def_cfa_offset 0
 947              		.loc 1 337 19 view .LVU339
 948 0050 042093E5 		ldr	r2, [r3, #4]
 949              		.loc 1 336 15 view .LVU340
 950 0054 003081E5 		str	r3, [r1]
 951              		.loc 1 337 3 is_stmt 1 view .LVU341
 952              		.loc 1 337 15 is_stmt 0 view .LVU342
 953 0058 042081E5 		str	r2, [r1, #4]
 954              		.loc 1 338 3 is_stmt 1 view .LVU343
 955              		.loc 1 338 36 is_stmt 0 view .LVU344
 956 005c 041083E5 		str	r1, [r3, #4]
 957              		.loc 1 338 23 view .LVU345
 958 0060 043091E5 		ldr	r3, [r1, #4]
 959 0064 001083E5 		str	r1, [r3]
 960              		.loc 1 340 3 is_stmt 1 view .LVU346
 961              		.loc 1 340 3 view .LVU347
 962              		.loc 1 340 3 view .LVU348
 963              		.loc 1 340 3 view .LVU349
 964 0068 FEFFFFEA 		b	_port_switch_arm
 965              	.LVL59:
 966              	.L63:
 967              		.loc 1 340 3 is_stmt 0 view .LVU350
 968              		.align	2
 969              	.L62:
ARM GAS  /var/folders/l5/0x54b2c10074c8bt31ycjvl80000gp/T//ccE2J0wy.s 			page 18


 970 006c 00000000 		.word	rlist
 971              		.cfi_endproc
 972              	.LFE16:
 973              		.size	chSchDoRescheduleAhead, .-chSchDoRescheduleAhead
 974              		.section	.text.chSchRescheduleS,"ax",%progbits
 975              		.align	2
 976              		.global	chSchRescheduleS
 977              		.syntax unified
 978              		.arm
 979              		.fpu softvfp
 980              		.type	chSchRescheduleS, %function
 981              	chSchRescheduleS:
 982              	.LFB13:
 983              		.loc 1 246 29 is_stmt 1 view -0
 984              		.cfi_startproc
 985              		@ args = 0, pretend = 0, frame = 0
 986              		@ frame_needed = 0, uses_anonymous_args = 0
 987              		@ link register save eliminated.
 988              		.loc 1 248 3 view .LVU352
 989              		.loc 1 248 21 view .LVU353
 990              		.loc 1 250 3 view .LVU354
 991              		.loc 1 250 7 is_stmt 0 view .LVU355
 992 0000 18309FE5 		ldr	r3, .L66
 993 0004 002093E5 		ldr	r2, [r3]
 994 0008 103093E5 		ldr	r3, [r3, #16]
 995              		.loc 1 250 6 view .LVU356
 996 000c 082092E5 		ldr	r2, [r2, #8]
 997 0010 083093E5 		ldr	r3, [r3, #8]
 998 0014 030052E1 		cmp	r2, r3
 999 0018 1EFF2F91 		bxls	lr
 1000              		.loc 1 251 5 is_stmt 1 view .LVU357
 1001 001c FEFFFFEA 		b	chSchDoRescheduleAhead
 1002              	.LVL60:
 1003              	.L67:
 1004              		.align	2
 1005              	.L66:
 1006 0020 00000000 		.word	rlist
 1007              		.cfi_endproc
 1008              	.LFE13:
 1009              		.size	chSchRescheduleS, .-chSchRescheduleS
 1010              		.section	.text.chSchDoReschedule,"ax",%progbits
 1011              		.align	2
 1012              		.global	chSchDoReschedule
 1013              		.syntax unified
 1014              		.arm
 1015              		.fpu softvfp
 1016              		.type	chSchDoReschedule, %function
 1017              	chSchDoReschedule:
 1018              	.LFB17:
 1019              		.loc 1 355 30 view -0
 1020              		.cfi_startproc
 1021              		@ args = 0, pretend = 0, frame = 0
 1022              		@ frame_needed = 0, uses_anonymous_args = 0
 1023              		@ link register save eliminated.
 1024              		.loc 1 360 3 view .LVU359
 1025              		.loc 1 360 7 is_stmt 0 view .LVU360
 1026 0000 14309FE5 		ldr	r3, .L70
ARM GAS  /var/folders/l5/0x54b2c10074c8bt31ycjvl80000gp/T//ccE2J0wy.s 			page 19


 1027              		.loc 1 360 12 view .LVU361
 1028 0004 103093E5 		ldr	r3, [r3, #16]
 1029              		.loc 1 360 6 view .LVU362
 1030 0008 1230D3E5 		ldrb	r3, [r3, #18]	@ zero_extendqisi2
 1031 000c 000053E3 		cmp	r3, #0
 1032 0010 0000001A 		bne	.L69
 1033              		.loc 1 363 5 is_stmt 1 view .LVU363
 1034 0014 FEFFFFEA 		b	chSchDoRescheduleBehind
 1035              	.LVL61:
 1036              	.L69:
 1037              		.loc 1 368 5 view .LVU364
 1038 0018 FEFFFFEA 		b	chSchDoRescheduleAhead
 1039              	.LVL62:
 1040              	.L71:
 1041              		.align	2
 1042              	.L70:
 1043 001c 00000000 		.word	rlist
 1044              		.cfi_endproc
 1045              	.LFE17:
 1046              		.size	chSchDoReschedule, .-chSchDoReschedule
 1047              		.comm	rlist,20,4
 1048              		.text
 1049              	.Letext0:
 1050              		.file 3 "/usr/local/Cellar/arm-gcc-bin/8-2019-q3-update/arm-none-eabi/include/machine/_default_typ
 1051              		.file 4 "/usr/local/Cellar/arm-gcc-bin/8-2019-q3-update/arm-none-eabi/include/sys/_stdint.h"
 1052              		.file 5 "../../../os/ports/GCC/ARM/chtypes.h"
 1053              		.file 6 "../../../os/kernel/include/chlists.h"
 1054              		.file 7 "../../../os/kernel/include/chthreads.h"
 1055              		.file 8 "../../../os/ports/GCC/ARM/chcore.h"
 1056              		.file 9 "../../../os/kernel/include/chvt.h"
 1057              		.file 10 "../../../os/kernel/include/chschd.h"
 1058              		.file 11 "../../../os/kernel/include/chmtx.h"
 1059              		.file 12 "../../../os/kernel/include/ch.h"
 1060              		.section	.debug_info,"",%progbits
 1061              	.Ldebug_info0:
 1062 0000 470A0000 		.4byte	0xa47
 1063 0004 0400     		.2byte	0x4
 1064 0006 00000000 		.4byte	.Ldebug_abbrev0
 1065 000a 04       		.byte	0x4
 1066 000b 01       		.uleb128 0x1
 1067 000c 69010000 		.4byte	.LASF81
 1068 0010 0C       		.byte	0xc
 1069 0011 8F000000 		.4byte	.LASF82
 1070 0015 C1000000 		.4byte	.LASF83
 1071 0019 38010000 		.4byte	.Ldebug_ranges0+0x138
 1072 001d 00000000 		.4byte	0
 1073 0021 00000000 		.4byte	.Ldebug_line0
 1074 0025 02       		.uleb128 0x2
 1075 0026 04       		.byte	0x4
 1076 0027 05       		.byte	0x5
 1077 0028 AF000000 		.4byte	.LASF0
 1078 002c 02       		.uleb128 0x2
 1079 002d 04       		.byte	0x4
 1080 002e 07       		.byte	0x7
 1081 002f 87020000 		.4byte	.LASF1
 1082 0033 02       		.uleb128 0x2
 1083 0034 01       		.byte	0x1
ARM GAS  /var/folders/l5/0x54b2c10074c8bt31ycjvl80000gp/T//ccE2J0wy.s 			page 20


 1084 0035 06       		.byte	0x6
 1085 0036 74000000 		.4byte	.LASF2
 1086 003a 03       		.uleb128 0x3
 1087 003b 1E000000 		.4byte	.LASF6
 1088 003f 03       		.byte	0x3
 1089 0040 2B       		.byte	0x2b
 1090 0041 18       		.byte	0x18
 1091 0042 46000000 		.4byte	0x46
 1092 0046 02       		.uleb128 0x2
 1093 0047 01       		.byte	0x1
 1094 0048 08       		.byte	0x8
 1095 0049 72030000 		.4byte	.LASF3
 1096 004d 02       		.uleb128 0x2
 1097 004e 02       		.byte	0x2
 1098 004f 05       		.byte	0x5
 1099 0050 93030000 		.4byte	.LASF4
 1100 0054 02       		.uleb128 0x2
 1101 0055 02       		.byte	0x2
 1102 0056 07       		.byte	0x7
 1103 0057 A2020000 		.4byte	.LASF5
 1104 005b 03       		.uleb128 0x3
 1105 005c 53040000 		.4byte	.LASF7
 1106 0060 03       		.byte	0x3
 1107 0061 4D       		.byte	0x4d
 1108 0062 18       		.byte	0x18
 1109 0063 25000000 		.4byte	0x25
 1110 0067 03       		.uleb128 0x3
 1111 0068 4D010000 		.4byte	.LASF8
 1112 006c 03       		.byte	0x3
 1113 006d 4F       		.byte	0x4f
 1114 006e 19       		.byte	0x19
 1115 006f 2C000000 		.4byte	0x2c
 1116 0073 02       		.uleb128 0x2
 1117 0074 08       		.byte	0x8
 1118 0075 05       		.byte	0x5
 1119 0076 66000000 		.4byte	.LASF9
 1120 007a 02       		.uleb128 0x2
 1121 007b 08       		.byte	0x8
 1122 007c 07       		.byte	0x7
 1123 007d 2F000000 		.4byte	.LASF10
 1124 0081 03       		.uleb128 0x3
 1125 0082 83040000 		.4byte	.LASF11
 1126 0086 04       		.byte	0x4
 1127 0087 18       		.byte	0x18
 1128 0088 13       		.byte	0x13
 1129 0089 3A000000 		.4byte	0x3a
 1130 008d 03       		.uleb128 0x3
 1131 008e 6A030000 		.4byte	.LASF12
 1132 0092 04       		.byte	0x4
 1133 0093 2C       		.byte	0x2c
 1134 0094 13       		.byte	0x13
 1135 0095 5B000000 		.4byte	0x5b
 1136 0099 03       		.uleb128 0x3
 1137 009a F7030000 		.4byte	.LASF13
 1138 009e 04       		.byte	0x4
 1139 009f 30       		.byte	0x30
 1140 00a0 14       		.byte	0x14
ARM GAS  /var/folders/l5/0x54b2c10074c8bt31ycjvl80000gp/T//ccE2J0wy.s 			page 21


 1141 00a1 67000000 		.4byte	0x67
 1142 00a5 04       		.uleb128 0x4
 1143 00a6 04       		.byte	0x4
 1144 00a7 05       		.byte	0x5
 1145 00a8 696E7400 		.ascii	"int\000"
 1146 00ac 02       		.uleb128 0x2
 1147 00ad 04       		.byte	0x4
 1148 00ae 07       		.byte	0x7
 1149 00af 5A020000 		.4byte	.LASF14
 1150 00b3 03       		.uleb128 0x3
 1151 00b4 80000000 		.4byte	.LASF15
 1152 00b8 05       		.byte	0x5
 1153 00b9 29       		.byte	0x29
 1154 00ba 19       		.byte	0x19
 1155 00bb 8D000000 		.4byte	0x8d
 1156 00bf 03       		.uleb128 0x3
 1157 00c0 C8020000 		.4byte	.LASF16
 1158 00c4 05       		.byte	0x5
 1159 00c5 2A       		.byte	0x2a
 1160 00c6 19       		.byte	0x19
 1161 00c7 81000000 		.4byte	0x81
 1162 00cb 03       		.uleb128 0x3
 1163 00cc B8000000 		.4byte	.LASF17
 1164 00d0 05       		.byte	0x5
 1165 00d1 2B       		.byte	0x2b
 1166 00d2 19       		.byte	0x19
 1167 00d3 81000000 		.4byte	0x81
 1168 00d7 03       		.uleb128 0x3
 1169 00d8 15040000 		.4byte	.LASF18
 1170 00dc 05       		.byte	0x5
 1171 00dd 2D       		.byte	0x2d
 1172 00de 19       		.byte	0x19
 1173 00df 81000000 		.4byte	0x81
 1174 00e3 03       		.uleb128 0x3
 1175 00e4 62030000 		.4byte	.LASF19
 1176 00e8 05       		.byte	0x5
 1177 00e9 2E       		.byte	0x2e
 1178 00ea 19       		.byte	0x19
 1179 00eb 99000000 		.4byte	0x99
 1180 00ef 03       		.uleb128 0x3
 1181 00f0 C2020000 		.4byte	.LASF20
 1182 00f4 05       		.byte	0x5
 1183 00f5 2F       		.byte	0x2f
 1184 00f6 19       		.byte	0x19
 1185 00f7 8D000000 		.4byte	0x8d
 1186 00fb 03       		.uleb128 0x3
 1187 00fc DC020000 		.4byte	.LASF21
 1188 0100 05       		.byte	0x5
 1189 0101 31       		.byte	0x31
 1190 0102 19       		.byte	0x19
 1191 0103 99000000 		.4byte	0x99
 1192 0107 03       		.uleb128 0x3
 1193 0108 3E040000 		.4byte	.LASF22
 1194 010c 05       		.byte	0x5
 1195 010d 33       		.byte	0x33
 1196 010e 19       		.byte	0x19
 1197 010f 99000000 		.4byte	0x99
ARM GAS  /var/folders/l5/0x54b2c10074c8bt31ycjvl80000gp/T//ccE2J0wy.s 			page 22


 1198 0113 05       		.uleb128 0x5
 1199 0114 07010000 		.4byte	0x107
 1200 0118 03       		.uleb128 0x3
 1201 0119 CC030000 		.4byte	.LASF23
 1202 011d 06       		.byte	0x6
 1203 011e 23       		.byte	0x23
 1204 011f 17       		.byte	0x17
 1205 0120 24010000 		.4byte	0x124
 1206 0124 06       		.uleb128 0x6
 1207 0125 CC030000 		.4byte	.LASF23
 1208 0129 28       		.byte	0x28
 1209 012a 07       		.byte	0x7
 1210 012b 57       		.byte	0x57
 1211 012c 08       		.byte	0x8
 1212 012d CE010000 		.4byte	0x1ce
 1213 0131 07       		.uleb128 0x7
 1214 0132 BD030000 		.4byte	.LASF24
 1215 0136 07       		.byte	0x7
 1216 0137 58       		.byte	0x58
 1217 0138 1A       		.byte	0x1a
 1218 0139 F2010000 		.4byte	0x1f2
 1219 013d 00       		.byte	0
 1220 013e 07       		.uleb128 0x7
 1221 013f 5B030000 		.4byte	.LASF25
 1222 0143 07       		.byte	0x7
 1223 0144 5A       		.byte	0x5a
 1224 0145 1A       		.byte	0x1a
 1225 0146 F2010000 		.4byte	0x1f2
 1226 014a 04       		.byte	0x4
 1227 014b 07       		.uleb128 0x7
 1228 014c 4F000000 		.4byte	.LASF26
 1229 0150 07       		.byte	0x7
 1230 0151 5C       		.byte	0x5c
 1231 0152 19       		.byte	0x19
 1232 0153 E3000000 		.4byte	0xe3
 1233 0157 08       		.byte	0x8
 1234 0158 07       		.uleb128 0x7
 1235 0159 BA040000 		.4byte	.LASF27
 1236 015d 07       		.byte	0x7
 1237 015e 5D       		.byte	0x5d
 1238 015f 19       		.byte	0x19
 1239 0160 BD020000 		.4byte	0x2bd
 1240 0164 0C       		.byte	0xc
 1241 0165 07       		.uleb128 0x7
 1242 0166 9D030000 		.4byte	.LASF28
 1243 016a 07       		.byte	0x7
 1244 016b 72       		.byte	0x72
 1245 016c 19       		.byte	0x19
 1246 016d CB000000 		.4byte	0xcb
 1247 0171 10       		.byte	0x10
 1248 0172 07       		.uleb128 0x7
 1249 0173 C4030000 		.4byte	.LASF29
 1250 0177 07       		.byte	0x7
 1251 0178 76       		.byte	0x76
 1252 0179 19       		.byte	0x19
 1253 017a BF000000 		.4byte	0xbf
 1254 017e 11       		.byte	0x11
ARM GAS  /var/folders/l5/0x54b2c10074c8bt31ycjvl80000gp/T//ccE2J0wy.s 			page 23


 1255 017f 07       		.uleb128 0x7
 1256 0180 A5030000 		.4byte	.LASF30
 1257 0184 07       		.byte	0x7
 1258 0185 81       		.byte	0x81
 1259 0186 19       		.byte	0x19
 1260 0187 D7000000 		.4byte	0xd7
 1261 018b 12       		.byte	0x12
 1262 018c 08       		.uleb128 0x8
 1263 018d 705F7500 		.ascii	"p_u\000"
 1264 0191 07       		.byte	0x7
 1265 0192 AD       		.byte	0xad
 1266 0193 19       		.byte	0x19
 1267 0194 4F040000 		.4byte	0x44f
 1268 0198 14       		.byte	0x14
 1269 0199 07       		.uleb128 0x7
 1270 019a C0040000 		.4byte	.LASF31
 1271 019e 07       		.byte	0x7
 1272 019f B2       		.byte	0xb2
 1273 01a0 19       		.byte	0x19
 1274 01a1 1B020000 		.4byte	0x21b
 1275 01a5 18       		.byte	0x18
 1276 01a6 07       		.uleb128 0x7
 1277 01a7 EC030000 		.4byte	.LASF32
 1278 01ab 07       		.byte	0x7
 1279 01ac C2       		.byte	0xc2
 1280 01ad 19       		.byte	0x19
 1281 01ae FB000000 		.4byte	0xfb
 1282 01b2 1C       		.byte	0x1c
 1283 01b3 07       		.uleb128 0x7
 1284 01b4 89030000 		.4byte	.LASF33
 1285 01b8 07       		.byte	0x7
 1286 01b9 C9       		.byte	0xc9
 1287 01ba 1A       		.byte	0x1a
 1288 01bb 89040000 		.4byte	0x489
 1289 01bf 20       		.byte	0x20
 1290 01c0 07       		.uleb128 0x7
 1291 01c1 48040000 		.4byte	.LASF34
 1292 01c5 07       		.byte	0x7
 1293 01c6 CD       		.byte	0xcd
 1294 01c7 19       		.byte	0x19
 1295 01c8 E3000000 		.4byte	0xe3
 1296 01cc 24       		.byte	0x24
 1297 01cd 00       		.byte	0
 1298 01ce 09       		.uleb128 0x9
 1299 01cf 08       		.byte	0x8
 1300 01d0 06       		.byte	0x6
 1301 01d1 5A       		.byte	0x5a
 1302 01d2 09       		.byte	0x9
 1303 01d3 F2010000 		.4byte	0x1f2
 1304 01d7 07       		.uleb128 0x7
 1305 01d8 BD030000 		.4byte	.LASF24
 1306 01dc 06       		.byte	0x6
 1307 01dd 5B       		.byte	0x5b
 1308 01de 1A       		.byte	0x1a
 1309 01df F2010000 		.4byte	0x1f2
 1310 01e3 00       		.byte	0
 1311 01e4 07       		.uleb128 0x7
ARM GAS  /var/folders/l5/0x54b2c10074c8bt31ycjvl80000gp/T//ccE2J0wy.s 			page 24


 1312 01e5 5B030000 		.4byte	.LASF25
 1313 01e9 06       		.byte	0x6
 1314 01ea 5D       		.byte	0x5d
 1315 01eb 1A       		.byte	0x1a
 1316 01ec F2010000 		.4byte	0x1f2
 1317 01f0 04       		.byte	0x4
 1318 01f1 00       		.byte	0
 1319 01f2 0A       		.uleb128 0xa
 1320 01f3 04       		.byte	0x4
 1321 01f4 18010000 		.4byte	0x118
 1322 01f8 03       		.uleb128 0x3
 1323 01f9 3F030000 		.4byte	.LASF35
 1324 01fd 06       		.byte	0x6
 1325 01fe 5F       		.byte	0x5f
 1326 01ff 03       		.byte	0x3
 1327 0200 CE010000 		.4byte	0x1ce
 1328 0204 09       		.uleb128 0x9
 1329 0205 04       		.byte	0x4
 1330 0206 06       		.byte	0x6
 1331 0207 64       		.byte	0x64
 1332 0208 09       		.byte	0x9
 1333 0209 1B020000 		.4byte	0x21b
 1334 020d 07       		.uleb128 0x7
 1335 020e BD030000 		.4byte	.LASF24
 1336 0212 06       		.byte	0x6
 1337 0213 66       		.byte	0x66
 1338 0214 16       		.byte	0x16
 1339 0215 F2010000 		.4byte	0x1f2
 1340 0219 00       		.byte	0
 1341 021a 00       		.byte	0
 1342 021b 03       		.uleb128 0x3
 1343 021c D0020000 		.4byte	.LASF36
 1344 0220 06       		.byte	0x6
 1345 0221 69       		.byte	0x69
 1346 0222 03       		.byte	0x3
 1347 0223 04020000 		.4byte	0x204
 1348 0227 03       		.uleb128 0x3
 1349 0228 EE020000 		.4byte	.LASF37
 1350 022c 08       		.byte	0x8
 1351 022d 9D       		.byte	0x9d
 1352 022e 12       		.byte	0x12
 1353 022f 99000000 		.4byte	0x99
 1354 0233 03       		.uleb128 0x3
 1355 0234 58010000 		.4byte	.LASF38
 1356 0238 08       		.byte	0x8
 1357 0239 A2       		.byte	0xa2
 1358 023a 0F       		.byte	0xf
 1359 023b 3F020000 		.4byte	0x23f
 1360 023f 0B       		.uleb128 0xb
 1361 0240 04       		.byte	0x4
 1362 0241 06       		.uleb128 0x6
 1363 0242 65040000 		.4byte	.LASF39
 1364 0246 24       		.byte	0x24
 1365 0247 08       		.byte	0x8
 1366 0248 B9       		.byte	0xb9
 1367 0249 08       		.byte	0x8
 1368 024a BD020000 		.4byte	0x2bd
ARM GAS  /var/folders/l5/0x54b2c10074c8bt31ycjvl80000gp/T//ccE2J0wy.s 			page 25


 1369 024e 08       		.uleb128 0x8
 1370 024f 723400   		.ascii	"r4\000"
 1371 0252 08       		.byte	0x8
 1372 0253 BA       		.byte	0xba
 1373 0254 11       		.byte	0x11
 1374 0255 33020000 		.4byte	0x233
 1375 0259 00       		.byte	0
 1376 025a 08       		.uleb128 0x8
 1377 025b 723500   		.ascii	"r5\000"
 1378 025e 08       		.byte	0x8
 1379 025f BB       		.byte	0xbb
 1380 0260 11       		.byte	0x11
 1381 0261 33020000 		.4byte	0x233
 1382 0265 04       		.byte	0x4
 1383 0266 08       		.uleb128 0x8
 1384 0267 723600   		.ascii	"r6\000"
 1385 026a 08       		.byte	0x8
 1386 026b BC       		.byte	0xbc
 1387 026c 11       		.byte	0x11
 1388 026d 33020000 		.4byte	0x233
 1389 0271 08       		.byte	0x8
 1390 0272 08       		.uleb128 0x8
 1391 0273 723700   		.ascii	"r7\000"
 1392 0276 08       		.byte	0x8
 1393 0277 BD       		.byte	0xbd
 1394 0278 11       		.byte	0x11
 1395 0279 33020000 		.4byte	0x233
 1396 027d 0C       		.byte	0xc
 1397 027e 08       		.uleb128 0x8
 1398 027f 723800   		.ascii	"r8\000"
 1399 0282 08       		.byte	0x8
 1400 0283 BE       		.byte	0xbe
 1401 0284 11       		.byte	0x11
 1402 0285 33020000 		.4byte	0x233
 1403 0289 10       		.byte	0x10
 1404 028a 08       		.uleb128 0x8
 1405 028b 723900   		.ascii	"r9\000"
 1406 028e 08       		.byte	0x8
 1407 028f BF       		.byte	0xbf
 1408 0290 11       		.byte	0x11
 1409 0291 33020000 		.4byte	0x233
 1410 0295 14       		.byte	0x14
 1411 0296 08       		.uleb128 0x8
 1412 0297 72313000 		.ascii	"r10\000"
 1413 029b 08       		.byte	0x8
 1414 029c C0       		.byte	0xc0
 1415 029d 11       		.byte	0x11
 1416 029e 33020000 		.4byte	0x233
 1417 02a2 18       		.byte	0x18
 1418 02a3 08       		.uleb128 0x8
 1419 02a4 72313100 		.ascii	"r11\000"
 1420 02a8 08       		.byte	0x8
 1421 02a9 C1       		.byte	0xc1
 1422 02aa 11       		.byte	0x11
 1423 02ab 33020000 		.4byte	0x233
 1424 02af 1C       		.byte	0x1c
 1425 02b0 08       		.uleb128 0x8
ARM GAS  /var/folders/l5/0x54b2c10074c8bt31ycjvl80000gp/T//ccE2J0wy.s 			page 26


 1426 02b1 6C7200   		.ascii	"lr\000"
 1427 02b4 08       		.byte	0x8
 1428 02b5 C2       		.byte	0xc2
 1429 02b6 11       		.byte	0x11
 1430 02b7 33020000 		.4byte	0x233
 1431 02bb 20       		.byte	0x20
 1432 02bc 00       		.byte	0
 1433 02bd 06       		.uleb128 0x6
 1434 02be 5D040000 		.4byte	.LASF40
 1435 02c2 04       		.byte	0x4
 1436 02c3 08       		.byte	0x8
 1437 02c4 CA       		.byte	0xca
 1438 02c5 08       		.byte	0x8
 1439 02c6 D8020000 		.4byte	0x2d8
 1440 02ca 08       		.uleb128 0x8
 1441 02cb 72313300 		.ascii	"r13\000"
 1442 02cf 08       		.byte	0x8
 1443 02d0 CB       		.byte	0xcb
 1444 02d1 12       		.byte	0x12
 1445 02d2 D8020000 		.4byte	0x2d8
 1446 02d6 00       		.byte	0
 1447 02d7 00       		.byte	0
 1448 02d8 0A       		.uleb128 0xa
 1449 02d9 04       		.byte	0x4
 1450 02da 41020000 		.4byte	0x241
 1451 02de 03       		.uleb128 0x3
 1452 02df 99020000 		.4byte	.LASF41
 1453 02e3 09       		.byte	0x9
 1454 02e4 4E       		.byte	0x4e
 1455 02e5 10       		.byte	0x10
 1456 02e6 EA020000 		.4byte	0x2ea
 1457 02ea 0A       		.uleb128 0xa
 1458 02eb 04       		.byte	0x4
 1459 02ec F0020000 		.4byte	0x2f0
 1460 02f0 0C       		.uleb128 0xc
 1461 02f1 FB020000 		.4byte	0x2fb
 1462 02f5 0D       		.uleb128 0xd
 1463 02f6 3F020000 		.4byte	0x23f
 1464 02fa 00       		.byte	0
 1465 02fb 03       		.uleb128 0x3
 1466 02fc 08040000 		.4byte	.LASF42
 1467 0300 09       		.byte	0x9
 1468 0301 53       		.byte	0x53
 1469 0302 1D       		.byte	0x1d
 1470 0303 07030000 		.4byte	0x307
 1471 0307 06       		.uleb128 0x6
 1472 0308 08040000 		.4byte	.LASF42
 1473 030c 14       		.byte	0x14
 1474 030d 09       		.byte	0x9
 1475 030e 5A       		.byte	0x5a
 1476 030f 08       		.byte	0x8
 1477 0310 56030000 		.4byte	0x356
 1478 0314 07       		.uleb128 0x7
 1479 0315 6E020000 		.4byte	.LASF43
 1480 0319 09       		.byte	0x9
 1481 031a 5B       		.byte	0x5b
 1482 031b 1A       		.byte	0x1a
ARM GAS  /var/folders/l5/0x54b2c10074c8bt31ycjvl80000gp/T//ccE2J0wy.s 			page 27


 1483 031c 56030000 		.4byte	0x356
 1484 0320 00       		.byte	0
 1485 0321 07       		.uleb128 0x7
 1486 0322 61010000 		.4byte	.LASF44
 1487 0326 09       		.byte	0x9
 1488 0327 5D       		.byte	0x5d
 1489 0328 1A       		.byte	0x1a
 1490 0329 56030000 		.4byte	0x356
 1491 032d 04       		.byte	0x4
 1492 032e 07       		.uleb128 0x7
 1493 032f F9020000 		.4byte	.LASF45
 1494 0333 09       		.byte	0x9
 1495 0334 5F       		.byte	0x5f
 1496 0335 19       		.byte	0x19
 1497 0336 07010000 		.4byte	0x107
 1498 033a 08       		.byte	0x8
 1499 033b 07       		.uleb128 0x7
 1500 033c 01030000 		.4byte	.LASF46
 1501 0340 09       		.byte	0x9
 1502 0341 60       		.byte	0x60
 1503 0342 19       		.byte	0x19
 1504 0343 DE020000 		.4byte	0x2de
 1505 0347 0C       		.byte	0xc
 1506 0348 07       		.uleb128 0x7
 1507 0349 6C040000 		.4byte	.LASF47
 1508 034d 09       		.byte	0x9
 1509 034e 62       		.byte	0x62
 1510 034f 1A       		.byte	0x1a
 1511 0350 3F020000 		.4byte	0x23f
 1512 0354 10       		.byte	0x10
 1513 0355 00       		.byte	0
 1514 0356 0A       		.uleb128 0xa
 1515 0357 04       		.byte	0x4
 1516 0358 FB020000 		.4byte	0x2fb
 1517 035c 09       		.uleb128 0x9
 1518 035d 10       		.byte	0x10
 1519 035e 09       		.byte	0x9
 1520 035f 6C       		.byte	0x6c
 1521 0360 09       		.byte	0x9
 1522 0361 9A030000 		.4byte	0x39a
 1523 0365 07       		.uleb128 0x7
 1524 0366 6E020000 		.4byte	.LASF43
 1525 036a 09       		.byte	0x9
 1526 036b 6D       		.byte	0x6d
 1527 036c 1A       		.byte	0x1a
 1528 036d 56030000 		.4byte	0x356
 1529 0371 00       		.byte	0
 1530 0372 07       		.uleb128 0x7
 1531 0373 61010000 		.4byte	.LASF44
 1532 0377 09       		.byte	0x9
 1533 0378 6F       		.byte	0x6f
 1534 0379 1A       		.byte	0x1a
 1535 037a 56030000 		.4byte	0x356
 1536 037e 04       		.byte	0x4
 1537 037f 07       		.uleb128 0x7
 1538 0380 F9020000 		.4byte	.LASF45
 1539 0384 09       		.byte	0x9
ARM GAS  /var/folders/l5/0x54b2c10074c8bt31ycjvl80000gp/T//ccE2J0wy.s 			page 28


 1540 0385 71       		.byte	0x71
 1541 0386 19       		.byte	0x19
 1542 0387 07010000 		.4byte	0x107
 1543 038b 08       		.byte	0x8
 1544 038c 07       		.uleb128 0x7
 1545 038d 92040000 		.4byte	.LASF48
 1546 0391 09       		.byte	0x9
 1547 0392 72       		.byte	0x72
 1548 0393 19       		.byte	0x19
 1549 0394 13010000 		.4byte	0x113
 1550 0398 0C       		.byte	0xc
 1551 0399 00       		.byte	0
 1552 039a 03       		.uleb128 0x3
 1553 039b 32030000 		.4byte	.LASF49
 1554 039f 09       		.byte	0x9
 1555 03a0 73       		.byte	0x73
 1556 03a1 03       		.byte	0x3
 1557 03a2 5C030000 		.4byte	0x35c
 1558 03a6 0E       		.uleb128 0xe
 1559 03a7 28000000 		.4byte	.LASF55
 1560 03ab 09       		.byte	0x9
 1561 03ac D1       		.byte	0xd1
 1562 03ad 0F       		.byte	0xf
 1563 03ae 9A030000 		.4byte	0x39a
 1564 03b2 09       		.uleb128 0x9
 1565 03b3 14       		.byte	0x14
 1566 03b4 0A       		.byte	0xa
 1567 03b5 57       		.byte	0x57
 1568 03b6 09       		.byte	0x9
 1569 03b7 F0030000 		.4byte	0x3f0
 1570 03bb 07       		.uleb128 0x7
 1571 03bc 00040000 		.4byte	.LASF50
 1572 03c0 0A       		.byte	0xa
 1573 03c1 58       		.byte	0x58
 1574 03c2 19       		.byte	0x19
 1575 03c3 F8010000 		.4byte	0x1f8
 1576 03c7 00       		.byte	0
 1577 03c8 07       		.uleb128 0x7
 1578 03c9 AF030000 		.4byte	.LASF51
 1579 03cd 0A       		.byte	0xa
 1580 03ce 59       		.byte	0x59
 1581 03cf 19       		.byte	0x19
 1582 03d0 E3000000 		.4byte	0xe3
 1583 03d4 08       		.byte	0x8
 1584 03d5 07       		.uleb128 0x7
 1585 03d6 39030000 		.4byte	.LASF52
 1586 03da 0A       		.byte	0xa
 1587 03db 5B       		.byte	0x5b
 1588 03dc 19       		.byte	0x19
 1589 03dd BD020000 		.4byte	0x2bd
 1590 03e1 0C       		.byte	0xc
 1591 03e2 07       		.uleb128 0x7
 1592 03e3 51030000 		.4byte	.LASF53
 1593 03e7 0A       		.byte	0xa
 1594 03e8 62       		.byte	0x62
 1595 03e9 1A       		.byte	0x1a
 1596 03ea F2010000 		.4byte	0x1f2
ARM GAS  /var/folders/l5/0x54b2c10074c8bt31ycjvl80000gp/T//ccE2J0wy.s 			page 29


 1597 03ee 10       		.byte	0x10
 1598 03ef 00       		.byte	0
 1599 03f0 03       		.uleb128 0x3
 1600 03f1 73040000 		.4byte	.LASF54
 1601 03f5 0A       		.byte	0xa
 1602 03f6 64       		.byte	0x64
 1603 03f7 03       		.byte	0x3
 1604 03f8 B2030000 		.4byte	0x3b2
 1605 03fc 0E       		.uleb128 0xe
 1606 03fd 7D040000 		.4byte	.LASF56
 1607 0401 0A       		.byte	0xa
 1608 0402 68       		.byte	0x68
 1609 0403 12       		.byte	0x12
 1610 0404 F0030000 		.4byte	0x3f0
 1611 0408 06       		.uleb128 0x6
 1612 0409 E8020000 		.4byte	.LASF57
 1613 040d 10       		.byte	0x10
 1614 040e 0B       		.byte	0xb
 1615 040f 25       		.byte	0x25
 1616 0410 10       		.byte	0x10
 1617 0411 3D040000 		.4byte	0x43d
 1618 0415 07       		.uleb128 0x7
 1619 0416 87000000 		.4byte	.LASF58
 1620 041a 0B       		.byte	0xb
 1621 041b 26       		.byte	0x26
 1622 041c 19       		.byte	0x19
 1623 041d F8010000 		.4byte	0x1f8
 1624 0421 00       		.byte	0
 1625 0422 07       		.uleb128 0x7
 1626 0423 B2040000 		.4byte	.LASF59
 1627 0427 0B       		.byte	0xb
 1628 0428 28       		.byte	0x28
 1629 0429 1A       		.byte	0x1a
 1630 042a F2010000 		.4byte	0x1f2
 1631 042e 08       		.byte	0x8
 1632 042f 07       		.uleb128 0x7
 1633 0430 37040000 		.4byte	.LASF60
 1634 0434 0B       		.byte	0xb
 1635 0435 2A       		.byte	0x2a
 1636 0436 1A       		.byte	0x1a
 1637 0437 3D040000 		.4byte	0x43d
 1638 043b 0C       		.byte	0xc
 1639 043c 00       		.byte	0
 1640 043d 0A       		.uleb128 0xa
 1641 043e 04       		.byte	0x4
 1642 043f 08040000 		.4byte	0x408
 1643 0443 03       		.uleb128 0x3
 1644 0444 E8020000 		.4byte	.LASF57
 1645 0448 0B       		.byte	0xb
 1646 0449 2C       		.byte	0x2c
 1647 044a 03       		.byte	0x3
 1648 044b 08040000 		.4byte	0x408
 1649 044f 0F       		.uleb128 0xf
 1650 0450 04       		.byte	0x4
 1651 0451 07       		.byte	0x7
 1652 0452 8F       		.byte	0x8f
 1653 0453 03       		.byte	0x3
ARM GAS  /var/folders/l5/0x54b2c10074c8bt31ycjvl80000gp/T//ccE2J0wy.s 			page 30


 1654 0454 89040000 		.4byte	0x489
 1655 0458 10       		.uleb128 0x10
 1656 0459 00000000 		.4byte	.LASF61
 1657 045d 07       		.byte	0x7
 1658 045e 96       		.byte	0x96
 1659 045f 19       		.byte	0x19
 1660 0460 EF000000 		.4byte	0xef
 1661 0464 10       		.uleb128 0x10
 1662 0465 46000000 		.4byte	.LASF62
 1663 0469 07       		.byte	0x7
 1664 046a 9D       		.byte	0x9d
 1665 046b 19       		.byte	0x19
 1666 046c EF000000 		.4byte	0xef
 1667 0470 10       		.uleb128 0x10
 1668 0471 8B040000 		.4byte	.LASF63
 1669 0475 07       		.byte	0x7
 1670 0476 A4       		.byte	0xa4
 1671 0477 1A       		.byte	0x1a
 1672 0478 3F020000 		.4byte	0x23f
 1673 047c 10       		.uleb128 0x10
 1674 047d B6030000 		.4byte	.LASF64
 1675 0481 07       		.byte	0x7
 1676 0482 AB       		.byte	0xab
 1677 0483 19       		.byte	0x19
 1678 0484 FB000000 		.4byte	0xfb
 1679 0488 00       		.byte	0
 1680 0489 0A       		.uleb128 0xa
 1681 048a 04       		.byte	0x4
 1682 048b 43040000 		.4byte	0x443
 1683 048f 11       		.uleb128 0x11
 1684 0490 27020000 		.4byte	0x227
 1685 0494 9F040000 		.4byte	0x49f
 1686 0498 12       		.uleb128 0x12
 1687 0499 2C000000 		.4byte	0x2c
 1688 049d 1F       		.byte	0x1f
 1689 049e 00       		.byte	0
 1690 049f 0E       		.uleb128 0xe
 1691 04a0 2C010000 		.4byte	.LASF65
 1692 04a4 0C       		.byte	0xc
 1693 04a5 82       		.byte	0x82
 1694 04a6 08       		.byte	0x8
 1695 04a7 8F040000 		.4byte	0x48f
 1696 04ab 13       		.uleb128 0x13
 1697 04ac FC030000 		.4byte	0x3fc
 1698 04b0 01       		.byte	0x1
 1699 04b1 28       		.byte	0x28
 1700 04b2 0B       		.byte	0xb
 1701 04b3 05       		.uleb128 0x5
 1702 04b4 03       		.byte	0x3
 1703 04b5 00000000 		.4byte	rlist
 1704 04b9 14       		.uleb128 0x14
 1705 04ba 48020000 		.4byte	.LASF66
 1706 04be 01       		.byte	0x1
 1707 04bf 6301     		.2byte	0x163
 1708 04c1 06       		.byte	0x6
 1709 04c2 00000000 		.4byte	.LFB17
 1710 04c6 20000000 		.4byte	.LFE17-.LFB17
ARM GAS  /var/folders/l5/0x54b2c10074c8bt31ycjvl80000gp/T//ccE2J0wy.s 			page 31


 1711 04ca 01       		.uleb128 0x1
 1712 04cb 9C       		.byte	0x9c
 1713 04cc E3040000 		.4byte	0x4e3
 1714 04d0 15       		.uleb128 0x15
 1715 04d1 18000000 		.4byte	.LVL61
 1716 04d5 64050000 		.4byte	0x564
 1717 04d9 15       		.uleb128 0x15
 1718 04da 1C000000 		.4byte	.LVL62
 1719 04de E3040000 		.4byte	0x4e3
 1720 04e2 00       		.byte	0
 1721 04e3 14       		.uleb128 0x14
 1722 04e4 07000000 		.4byte	.LASF67
 1723 04e8 01       		.byte	0x1
 1724 04e9 4201     		.2byte	0x142
 1725 04eb 06       		.byte	0x6
 1726 04ec 00000000 		.4byte	.LFB16
 1727 04f0 70000000 		.4byte	.LFE16-.LFB16
 1728 04f4 01       		.uleb128 0x1
 1729 04f5 9C       		.byte	0x9c
 1730 04f6 64050000 		.4byte	0x564
 1731 04fa 16       		.uleb128 0x16
 1732 04fb 6F747000 		.ascii	"otp\000"
 1733 04ff 01       		.byte	0x1
 1734 0500 4301     		.2byte	0x143
 1735 0502 0B       		.byte	0xb
 1736 0503 F2010000 		.4byte	0x1f2
 1737 0507 02000000 		.4byte	.LLST27
 1738 050b 00000000 		.4byte	.LVUS27
 1739 050f 16       		.uleb128 0x16
 1740 0510 637000   		.ascii	"cp\000"
 1741 0513 01       		.byte	0x1
 1742 0514 4301     		.2byte	0x143
 1743 0516 11       		.byte	0x11
 1744 0517 F2010000 		.4byte	0x1f2
 1745 051b 17000000 		.4byte	.LLST28
 1746 051f 15000000 		.4byte	.LVUS28
 1747 0523 17       		.uleb128 0x17
 1748 0524 F9080000 		.4byte	0x8f9
 1749 0528 18000000 		.4byte	.LBI84
 1750 052c 01       		.byte	.LVU317
 1751 052d 10010000 		.4byte	.Ldebug_ranges0+0x110
 1752 0531 01       		.byte	0x1
 1753 0532 4701     		.2byte	0x147
 1754 0534 03       		.byte	0x3
 1755 0535 5A050000 		.4byte	0x55a
 1756 0539 18       		.uleb128 0x18
 1757 053a 0A090000 		.4byte	0x90a
 1758 053e 31000000 		.4byte	.LLST29
 1759 0542 2F000000 		.4byte	.LVUS29
 1760 0546 19       		.uleb128 0x19
 1761 0547 10010000 		.4byte	.Ldebug_ranges0+0x110
 1762 054b 1A       		.uleb128 0x1a
 1763 054c 16090000 		.4byte	0x916
 1764 0550 4B000000 		.4byte	.LLST30
 1765 0554 49000000 		.4byte	.LVUS30
 1766 0558 00       		.byte	0
 1767 0559 00       		.byte	0
ARM GAS  /var/folders/l5/0x54b2c10074c8bt31ycjvl80000gp/T//ccE2J0wy.s 			page 32


 1768 055a 15       		.uleb128 0x15
 1769 055b 6C000000 		.4byte	.LVL59
 1770 055f 250A0000 		.4byte	0xa25
 1771 0563 00       		.byte	0
 1772 0564 14       		.uleb128 0x14
 1773 0565 11030000 		.4byte	.LASF68
 1774 0569 01       		.byte	0x1
 1775 056a 2901     		.2byte	0x129
 1776 056c 06       		.byte	0x6
 1777 056d 00000000 		.4byte	.LFB15
 1778 0571 78000000 		.4byte	.LFE15-.LFB15
 1779 0575 01       		.uleb128 0x1
 1780 0576 9C       		.byte	0x9c
 1781 0577 08060000 		.4byte	0x608
 1782 057b 16       		.uleb128 0x16
 1783 057c 6F747000 		.ascii	"otp\000"
 1784 0580 01       		.byte	0x1
 1785 0581 2A01     		.2byte	0x12a
 1786 0583 0B       		.byte	0xb
 1787 0584 F2010000 		.4byte	0x1f2
 1788 0588 60000000 		.4byte	.LLST22
 1789 058c 5E000000 		.4byte	.LVUS22
 1790 0590 17       		.uleb128 0x17
 1791 0591 A2080000 		.4byte	0x8a2
 1792 0595 38000000 		.4byte	.LBI68
 1793 0599 01       		.byte	.LVU276
 1794 059a C0000000 		.4byte	.Ldebug_ranges0+0xc0
 1795 059e 01       		.byte	0x1
 1796 059f 3301     		.2byte	0x133
 1797 05a1 03       		.byte	0x3
 1798 05a2 C7050000 		.4byte	0x5c7
 1799 05a6 18       		.uleb128 0x18
 1800 05a7 B3080000 		.4byte	0x8b3
 1801 05ab 75000000 		.4byte	.LLST23
 1802 05af 73000000 		.4byte	.LVUS23
 1803 05b3 19       		.uleb128 0x19
 1804 05b4 C0000000 		.4byte	.Ldebug_ranges0+0xc0
 1805 05b8 1A       		.uleb128 0x1a
 1806 05b9 BE080000 		.4byte	0x8be
 1807 05bd 8A000000 		.4byte	.LLST24
 1808 05c1 88000000 		.4byte	.LVUS24
 1809 05c5 00       		.byte	0
 1810 05c6 00       		.byte	0
 1811 05c7 17       		.uleb128 0x17
 1812 05c8 F9080000 		.4byte	0x8f9
 1813 05cc 1C000000 		.4byte	.LBI73
 1814 05d0 01       		.byte	.LVU261
 1815 05d1 E8000000 		.4byte	.Ldebug_ranges0+0xe8
 1816 05d5 01       		.byte	0x1
 1817 05d6 2E01     		.2byte	0x12e
 1818 05d8 03       		.byte	0x3
 1819 05d9 FE050000 		.4byte	0x5fe
 1820 05dd 18       		.uleb128 0x18
 1821 05de 0A090000 		.4byte	0x90a
 1822 05e2 A4000000 		.4byte	.LLST25
 1823 05e6 A2000000 		.4byte	.LVUS25
 1824 05ea 19       		.uleb128 0x19
ARM GAS  /var/folders/l5/0x54b2c10074c8bt31ycjvl80000gp/T//ccE2J0wy.s 			page 33


 1825 05eb E8000000 		.4byte	.Ldebug_ranges0+0xe8
 1826 05ef 1A       		.uleb128 0x1a
 1827 05f0 16090000 		.4byte	0x916
 1828 05f4 BE000000 		.4byte	.LLST26
 1829 05f8 BC000000 		.4byte	.LVUS26
 1830 05fc 00       		.byte	0
 1831 05fd 00       		.byte	0
 1832 05fe 15       		.uleb128 0x15
 1833 05ff 74000000 		.4byte	.LVL54
 1834 0603 250A0000 		.4byte	0xa25
 1835 0607 00       		.byte	0
 1836 0608 1B       		.uleb128 0x1b
 1837 0609 12010000 		.4byte	.LASF71
 1838 060d 01       		.byte	0x1
 1839 060e 0D01     		.2byte	0x10d
 1840 0610 08       		.byte	0x8
 1841 0611 B3000000 		.4byte	0xb3
 1842 0615 00000000 		.4byte	.LFB14
 1843 0619 44000000 		.4byte	.LFE14-.LFB14
 1844 061d 01       		.uleb128 0x1
 1845 061e 9C       		.byte	0x9c
 1846 061f 4C060000 		.4byte	0x64c
 1847 0623 16       		.uleb128 0x16
 1848 0624 703100   		.ascii	"p1\000"
 1849 0627 01       		.byte	0x1
 1850 0628 0E01     		.2byte	0x10e
 1851 062a 0B       		.byte	0xb
 1852 062b E3000000 		.4byte	0xe3
 1853 062f D9000000 		.4byte	.LLST20
 1854 0633 D1000000 		.4byte	.LVUS20
 1855 0637 16       		.uleb128 0x16
 1856 0638 703200   		.ascii	"p2\000"
 1857 063b 01       		.byte	0x1
 1858 063c 0F01     		.2byte	0x10f
 1859 063e 0B       		.byte	0xb
 1860 063f E3000000 		.4byte	0xe3
 1861 0643 11010000 		.4byte	.LLST21
 1862 0647 0F010000 		.4byte	.LVUS21
 1863 064b 00       		.byte	0
 1864 064c 1C       		.uleb128 0x1c
 1865 064d 3C010000 		.4byte	.LASF69
 1866 0651 01       		.byte	0x1
 1867 0652 F6       		.byte	0xf6
 1868 0653 06       		.byte	0x6
 1869 0654 00000000 		.4byte	.LFB13
 1870 0658 24000000 		.4byte	.LFE13-.LFB13
 1871 065c 01       		.uleb128 0x1
 1872 065d 9C       		.byte	0x9c
 1873 065e 6C060000 		.4byte	0x66c
 1874 0662 15       		.uleb128 0x15
 1875 0663 20000000 		.4byte	.LVL60
 1876 0667 E3040000 		.4byte	0x4e3
 1877 066b 00       		.byte	0
 1878 066c 1C       		.uleb128 0x1c
 1879 066d B5020000 		.4byte	.LASF70
 1880 0671 01       		.byte	0x1
 1881 0672 DA       		.byte	0xda
ARM GAS  /var/folders/l5/0x54b2c10074c8bt31ycjvl80000gp/T//ccE2J0wy.s 			page 34


 1882 0673 06       		.byte	0x6
 1883 0674 00000000 		.4byte	.LFB12
 1884 0678 AC000000 		.4byte	.LFE12-.LFB12
 1885 067c 01       		.uleb128 0x1
 1886 067d 9C       		.byte	0x9c
 1887 067e 4A070000 		.4byte	0x74a
 1888 0682 1D       		.uleb128 0x1d
 1889 0683 6E747000 		.ascii	"ntp\000"
 1890 0687 01       		.byte	0x1
 1891 0688 DA       		.byte	0xda
 1892 0689 1B       		.byte	0x1b
 1893 068a F2010000 		.4byte	0x1f2
 1894 068e 2A010000 		.4byte	.LLST13
 1895 0692 24010000 		.4byte	.LVUS13
 1896 0696 1D       		.uleb128 0x1d
 1897 0697 6D736700 		.ascii	"msg\000"
 1898 069b 01       		.byte	0x1
 1899 069c DA       		.byte	0xda
 1900 069d 26       		.byte	0x26
 1901 069e EF000000 		.4byte	0xef
 1902 06a2 5C010000 		.4byte	.LLST14
 1903 06a6 56010000 		.4byte	.LVUS14
 1904 06aa 1E       		.uleb128 0x1e
 1905 06ab 88000000 		.4byte	.Ldebug_ranges0+0x88
 1906 06af 0F070000 		.4byte	0x70f
 1907 06b3 1F       		.uleb128 0x1f
 1908 06b4 6F747000 		.ascii	"otp\000"
 1909 06b8 01       		.byte	0x1
 1910 06b9 E6       		.byte	0xe6
 1911 06ba 0D       		.byte	0xd
 1912 06bb F2010000 		.4byte	0x1f2
 1913 06bf 8D010000 		.4byte	.LLST17
 1914 06c3 89010000 		.4byte	.LVUS17
 1915 06c7 20       		.uleb128 0x20
 1916 06c8 A2080000 		.4byte	0x8a2
 1917 06cc 58000000 		.4byte	.LBI61
 1918 06d0 01       		.byte	.LVU194
 1919 06d1 A0000000 		.4byte	.Ldebug_ranges0+0xa0
 1920 06d5 01       		.byte	0x1
 1921 06d6 E6       		.byte	0xe6
 1922 06d7 13       		.byte	0x13
 1923 06d8 FD060000 		.4byte	0x6fd
 1924 06dc 18       		.uleb128 0x18
 1925 06dd B3080000 		.4byte	0x8b3
 1926 06e1 AD010000 		.4byte	.LLST18
 1927 06e5 AB010000 		.4byte	.LVUS18
 1928 06e9 19       		.uleb128 0x19
 1929 06ea A0000000 		.4byte	.Ldebug_ranges0+0xa0
 1930 06ee 1A       		.uleb128 0x1a
 1931 06ef BE080000 		.4byte	0x8be
 1932 06f3 C4010000 		.4byte	.LLST19
 1933 06f7 C0010000 		.4byte	.LVUS19
 1934 06fb 00       		.byte	0
 1935 06fc 00       		.byte	0
 1936 06fd 21       		.uleb128 0x21
 1937 06fe A8000000 		.4byte	.LVL42
 1938 0702 250A0000 		.4byte	0xa25
ARM GAS  /var/folders/l5/0x54b2c10074c8bt31ycjvl80000gp/T//ccE2J0wy.s 			page 35


 1939 0706 22       		.uleb128 0x22
 1940 0707 01       		.uleb128 0x1
 1941 0708 50       		.byte	0x50
 1942 0709 03       		.uleb128 0x3
 1943 070a F3       		.byte	0xf3
 1944 070b 01       		.uleb128 0x1
 1945 070c 50       		.byte	0x50
 1946 070d 00       		.byte	0
 1947 070e 00       		.byte	0
 1948 070f 23       		.uleb128 0x23
 1949 0710 A2080000 		.4byte	0x8a2
 1950 0714 24000000 		.4byte	.LBI58
 1951 0718 01       		.byte	.LVU169
 1952 0719 24000000 		.4byte	.LBB58
 1953 071d 30000000 		.4byte	.LBE58-.LBB58
 1954 0721 01       		.byte	0x1
 1955 0722 E4       		.byte	0xe4
 1956 0723 05       		.byte	0x5
 1957 0724 18       		.uleb128 0x18
 1958 0725 B3080000 		.4byte	0x8b3
 1959 0729 E5010000 		.4byte	.LLST15
 1960 072d E3010000 		.4byte	.LVUS15
 1961 0731 24       		.uleb128 0x24
 1962 0732 24000000 		.4byte	.LBB59
 1963 0736 30000000 		.4byte	.LBE59-.LBB59
 1964 073a 1A       		.uleb128 0x1a
 1965 073b BE080000 		.4byte	0x8be
 1966 073f FC010000 		.4byte	.LLST16
 1967 0743 F8010000 		.4byte	.LVUS16
 1968 0747 00       		.byte	0
 1969 0748 00       		.byte	0
 1970 0749 00       		.byte	0
 1971 074a 25       		.uleb128 0x25
 1972 074b 9D040000 		.4byte	.LASF72
 1973 074f 01       		.byte	0x1
 1974 0750 B6       		.byte	0xb6
 1975 0751 07       		.byte	0x7
 1976 0752 EF000000 		.4byte	0xef
 1977 0756 00000000 		.4byte	.LFB11
 1978 075a 78000000 		.4byte	.LFE11-.LFB11
 1979 075e 01       		.uleb128 0x1
 1980 075f 9C       		.byte	0x9c
 1981 0760 01080000 		.4byte	0x801
 1982 0764 26       		.uleb128 0x26
 1983 0765 80030000 		.4byte	.LASF73
 1984 0769 01       		.byte	0x1
 1985 076a B6       		.byte	0xb6
 1986 076b 25       		.byte	0x25
 1987 076c CB000000 		.4byte	0xcb
 1988 0770 25020000 		.4byte	.LLST11
 1989 0774 1B020000 		.4byte	.LVUS11
 1990 0778 26       		.uleb128 0x26
 1991 0779 4C030000 		.4byte	.LASF74
 1992 077d 01       		.byte	0x1
 1993 077e B6       		.byte	0xb6
 1994 077f 39       		.byte	0x39
 1995 0780 07010000 		.4byte	0x107
ARM GAS  /var/folders/l5/0x54b2c10074c8bt31ycjvl80000gp/T//ccE2J0wy.s 			page 36


 1996 0784 6F020000 		.4byte	.LLST12
 1997 0788 67020000 		.4byte	.LVUS12
 1998 078c 27       		.uleb128 0x27
 1999 078d 14000000 		.4byte	.LBB57
 2000 0791 30000000 		.4byte	.LBE57-.LBB57
 2001 0795 F0070000 		.4byte	0x7f0
 2002 0799 28       		.uleb128 0x28
 2003 079a 767400   		.ascii	"vt\000"
 2004 079d 01       		.byte	0x1
 2005 079e BB       		.byte	0xbb
 2006 079f 12       		.byte	0x12
 2007 07a0 FB020000 		.4byte	0x2fb
 2008 07a4 02       		.uleb128 0x2
 2009 07a5 91       		.byte	0x91
 2010 07a6 60       		.sleb128 -32
 2011 07a7 29       		.uleb128 0x29
 2012 07a8 28000000 		.4byte	.LVL21
 2013 07ac 320A0000 		.4byte	0xa32
 2014 07b0 CB070000 		.4byte	0x7cb
 2015 07b4 22       		.uleb128 0x22
 2016 07b5 01       		.uleb128 0x1
 2017 07b6 50       		.byte	0x50
 2018 07b7 02       		.uleb128 0x2
 2019 07b8 7D       		.byte	0x7d
 2020 07b9 00       		.sleb128 0
 2021 07ba 22       		.uleb128 0x22
 2022 07bb 01       		.uleb128 0x1
 2023 07bc 51       		.byte	0x51
 2024 07bd 03       		.uleb128 0x3
 2025 07be F3       		.byte	0xf3
 2026 07bf 01       		.uleb128 0x1
 2027 07c0 51       		.byte	0x51
 2028 07c1 22       		.uleb128 0x22
 2029 07c2 01       		.uleb128 0x1
 2030 07c3 52       		.byte	0x52
 2031 07c4 05       		.uleb128 0x5
 2032 07c5 03       		.byte	0x3
 2033 07c6 00000000 		.4byte	wakeup
 2034 07ca 00       		.byte	0
 2035 07cb 29       		.uleb128 0x29
 2036 07cc 30000000 		.4byte	.LVL22
 2037 07d0 24080000 		.4byte	0x824
 2038 07d4 DF070000 		.4byte	0x7df
 2039 07d8 22       		.uleb128 0x22
 2040 07d9 01       		.uleb128 0x1
 2041 07da 50       		.byte	0x50
 2042 07db 02       		.uleb128 0x2
 2043 07dc 75       		.byte	0x75
 2044 07dd 00       		.sleb128 0
 2045 07de 00       		.byte	0
 2046 07df 2A       		.uleb128 0x2a
 2047 07e0 44000000 		.4byte	.LVL23
 2048 07e4 3E0A0000 		.4byte	0xa3e
 2049 07e8 22       		.uleb128 0x22
 2050 07e9 01       		.uleb128 0x1
 2051 07ea 50       		.byte	0x50
 2052 07eb 02       		.uleb128 0x2
ARM GAS  /var/folders/l5/0x54b2c10074c8bt31ycjvl80000gp/T//ccE2J0wy.s 			page 37


 2053 07ec 7D       		.byte	0x7d
 2054 07ed 00       		.sleb128 0
 2055 07ee 00       		.byte	0
 2056 07ef 00       		.byte	0
 2057 07f0 2A       		.uleb128 0x2a
 2058 07f1 5C000000 		.4byte	.LVL26
 2059 07f5 24080000 		.4byte	0x824
 2060 07f9 22       		.uleb128 0x22
 2061 07fa 01       		.uleb128 0x1
 2062 07fb 50       		.byte	0x50
 2063 07fc 02       		.uleb128 0x2
 2064 07fd 75       		.byte	0x75
 2065 07fe 00       		.sleb128 0
 2066 07ff 00       		.byte	0
 2067 0800 00       		.byte	0
 2068 0801 2B       		.uleb128 0x2b
 2069 0802 67020000 		.4byte	.LASF84
 2070 0806 01       		.byte	0x1
 2071 0807 81       		.byte	0x81
 2072 0808 0D       		.byte	0xd
 2073 0809 01       		.byte	0x1
 2074 080a 24080000 		.4byte	0x824
 2075 080e 2C       		.uleb128 0x2c
 2076 080f 7000     		.ascii	"p\000"
 2077 0811 01       		.byte	0x1
 2078 0812 81       		.byte	0x81
 2079 0813 1A       		.byte	0x1a
 2080 0814 3F020000 		.4byte	0x23f
 2081 0818 2D       		.uleb128 0x2d
 2082 0819 747000   		.ascii	"tp\000"
 2083 081c 01       		.byte	0x1
 2084 081d 82       		.byte	0x82
 2085 081e 0B       		.byte	0xb
 2086 081f F2010000 		.4byte	0x1f2
 2087 0823 00       		.byte	0
 2088 0824 1C       		.uleb128 0x1c
 2089 0825 DE030000 		.4byte	.LASF75
 2090 0829 01       		.byte	0x1
 2091 082a 6C       		.byte	0x6c
 2092 082b 06       		.byte	0x6
 2093 082c 00000000 		.4byte	.LFB9
 2094 0830 44000000 		.4byte	.LFE9-.LFB9
 2095 0834 01       		.uleb128 0x1
 2096 0835 9C       		.byte	0x9c
 2097 0836 A2080000 		.4byte	0x8a2
 2098 083a 26       		.uleb128 0x26
 2099 083b 80030000 		.4byte	.LASF73
 2100 083f 01       		.byte	0x1
 2101 0840 6C       		.byte	0x6c
 2102 0841 1D       		.byte	0x1d
 2103 0842 CB000000 		.4byte	0xcb
 2104 0846 AF020000 		.4byte	.LLST7
 2105 084a A9020000 		.4byte	.LVUS7
 2106 084e 1F       		.uleb128 0x1f
 2107 084f 6F747000 		.ascii	"otp\000"
 2108 0853 01       		.byte	0x1
 2109 0854 6D       		.byte	0x6d
ARM GAS  /var/folders/l5/0x54b2c10074c8bt31ycjvl80000gp/T//ccE2J0wy.s 			page 38


 2110 0855 0B       		.byte	0xb
 2111 0856 F2010000 		.4byte	0x1f2
 2112 085a DE020000 		.4byte	.LLST8
 2113 085e DC020000 		.4byte	.LVUS8
 2114 0862 20       		.uleb128 0x20
 2115 0863 F9080000 		.4byte	0x8f9
 2116 0867 20000000 		.4byte	.LBI49
 2117 086b 01       		.byte	.LVU108
 2118 086c 60000000 		.4byte	.Ldebug_ranges0+0x60
 2119 0870 01       		.byte	0x1
 2120 0871 77       		.byte	0x77
 2121 0872 03       		.byte	0x3
 2122 0873 98080000 		.4byte	0x898
 2123 0877 18       		.uleb128 0x18
 2124 0878 0A090000 		.4byte	0x90a
 2125 087c F3020000 		.4byte	.LLST9
 2126 0880 F1020000 		.4byte	.LVUS9
 2127 0884 19       		.uleb128 0x19
 2128 0885 60000000 		.4byte	.Ldebug_ranges0+0x60
 2129 0889 1A       		.uleb128 0x1a
 2130 088a 16090000 		.4byte	0x916
 2131 088e 0D030000 		.4byte	.LLST10
 2132 0892 0B030000 		.4byte	.LVUS10
 2133 0896 00       		.byte	0
 2134 0897 00       		.byte	0
 2135 0898 15       		.uleb128 0x15
 2136 0899 40000000 		.4byte	.LVL18
 2137 089d 250A0000 		.4byte	0xa25
 2138 08a1 00       		.byte	0
 2139 08a2 2E       		.uleb128 0x2e
 2140 08a3 1F040000 		.4byte	.LASF85
 2141 08a7 01       		.byte	0x1
 2142 08a8 4A       		.byte	0x4a
 2143 08a9 09       		.byte	0x9
 2144 08aa F2010000 		.4byte	0x1f2
 2145 08ae 01       		.byte	0x1
 2146 08af CA080000 		.4byte	0x8ca
 2147 08b3 2C       		.uleb128 0x2c
 2148 08b4 747000   		.ascii	"tp\000"
 2149 08b7 01       		.byte	0x1
 2150 08b8 4A       		.byte	0x4a
 2151 08b9 1D       		.byte	0x1d
 2152 08ba F2010000 		.4byte	0x1f2
 2153 08be 2D       		.uleb128 0x2d
 2154 08bf 637000   		.ascii	"cp\000"
 2155 08c2 01       		.byte	0x1
 2156 08c3 4B       		.byte	0x4b
 2157 08c4 0B       		.byte	0xb
 2158 08c5 F2010000 		.4byte	0x1f2
 2159 08c9 00       		.byte	0
 2160 08ca 2F       		.uleb128 0x2f
 2161 08cb 56000000 		.4byte	.LASF86
 2162 08cf 01       		.byte	0x1
 2163 08d0 30       		.byte	0x30
 2164 08d1 06       		.byte	0x6
 2165 08d2 00000000 		.4byte	.LFB7
 2166 08d6 1C000000 		.4byte	.LFE7-.LFB7
ARM GAS  /var/folders/l5/0x54b2c10074c8bt31ycjvl80000gp/T//ccE2J0wy.s 			page 39


 2167 08da 01       		.uleb128 0x1
 2168 08db 9C       		.byte	0x9c
 2169 08dc 30       		.uleb128 0x30
 2170 08dd 09030000 		.4byte	.LASF76
 2171 08e1 02       		.byte	0x2
 2172 08e2 42       		.byte	0x42
 2173 08e3 17       		.byte	0x17
 2174 08e4 F2010000 		.4byte	0x1f2
 2175 08e8 03       		.byte	0x3
 2176 08e9 F9080000 		.4byte	0x8f9
 2177 08ed 2C       		.uleb128 0x2c
 2178 08ee 747000   		.ascii	"tp\000"
 2179 08f1 02       		.byte	0x2
 2180 08f2 42       		.byte	0x42
 2181 08f3 27       		.byte	0x27
 2182 08f4 F2010000 		.4byte	0x1f2
 2183 08f8 00       		.byte	0
 2184 08f9 30       		.uleb128 0x30
 2185 08fa 2B040000 		.4byte	.LASF77
 2186 08fe 02       		.byte	0x2
 2187 08ff 34       		.byte	0x34
 2188 0900 17       		.byte	0x17
 2189 0901 F2010000 		.4byte	0x1f2
 2190 0905 03       		.byte	0x3
 2191 0906 22090000 		.4byte	0x922
 2192 090a 2C       		.uleb128 0x2c
 2193 090b 74717000 		.ascii	"tqp\000"
 2194 090f 02       		.byte	0x2
 2195 0910 34       		.byte	0x34
 2196 0911 31       		.byte	0x31
 2197 0912 22090000 		.4byte	0x922
 2198 0916 2D       		.uleb128 0x2d
 2199 0917 747000   		.ascii	"tp\000"
 2200 091a 02       		.byte	0x2
 2201 091b 35       		.byte	0x35
 2202 091c 0B       		.byte	0xb
 2203 091d F2010000 		.4byte	0x1f2
 2204 0921 00       		.byte	0
 2205 0922 0A       		.uleb128 0xa
 2206 0923 04       		.byte	0x4
 2207 0924 F8010000 		.4byte	0x1f8
 2208 0928 31       		.uleb128 0x31
 2209 0929 01080000 		.4byte	0x801
 2210 092d 00000000 		.4byte	.LFB10
 2211 0931 68000000 		.4byte	.LFE10-.LFB10
 2212 0935 01       		.uleb128 0x1
 2213 0936 9C       		.byte	0x9c
 2214 0937 F7090000 		.4byte	0x9f7
 2215 093b 32       		.uleb128 0x32
 2216 093c 0E080000 		.4byte	0x80e
 2217 0940 01       		.uleb128 0x1
 2218 0941 50       		.byte	0x50
 2219 0942 1A       		.uleb128 0x1a
 2220 0943 18080000 		.4byte	0x818
 2221 0947 22030000 		.4byte	.LLST0
 2222 094b 20030000 		.4byte	.LVUS0
 2223 094f 20       		.uleb128 0x20
ARM GAS  /var/folders/l5/0x54b2c10074c8bt31ycjvl80000gp/T//ccE2J0wy.s 			page 40


 2224 0950 DC080000 		.4byte	0x8dc
 2225 0954 10000000 		.4byte	.LBI33
 2226 0958 01       		.byte	.LVU9
 2227 0959 00000000 		.4byte	.Ldebug_ranges0+0
 2228 095d 01       		.byte	0x1
 2229 095e 99       		.byte	0x99
 2230 095f 05       		.byte	0x5
 2231 0960 72090000 		.4byte	0x972
 2232 0964 18       		.uleb128 0x18
 2233 0965 ED080000 		.4byte	0x8ed
 2234 0969 37030000 		.4byte	.LLST1
 2235 096d 35030000 		.4byte	.LVUS1
 2236 0971 00       		.byte	0
 2237 0972 20       		.uleb128 0x20
 2238 0973 A2080000 		.4byte	0x8a2
 2239 0977 34000000 		.4byte	.LBI37
 2240 097b 01       		.byte	.LVU24
 2241 097c 18000000 		.4byte	.Ldebug_ranges0+0x18
 2242 0980 01       		.byte	0x1
 2243 0981 9D       		.byte	0x9d
 2244 0982 03       		.byte	0x3
 2245 0983 A7090000 		.4byte	0x9a7
 2246 0987 18       		.uleb128 0x18
 2247 0988 B3080000 		.4byte	0x8b3
 2248 098c 4C030000 		.4byte	.LLST2
 2249 0990 4A030000 		.4byte	.LVUS2
 2250 0994 19       		.uleb128 0x19
 2251 0995 18000000 		.4byte	.Ldebug_ranges0+0x18
 2252 0999 33       		.uleb128 0x33
 2253 099a BE080000 		.4byte	0x8be
 2254 099e 06       		.uleb128 0x6
 2255 099f 03       		.byte	0x3
 2256 09a0 00000000 		.4byte	rlist
 2257 09a4 9F       		.byte	0x9f
 2258 09a5 00       		.byte	0
 2259 09a6 00       		.byte	0
 2260 09a7 34       		.uleb128 0x34
 2261 09a8 01080000 		.4byte	0x801
 2262 09ac 38000000 		.4byte	.LBI40
 2263 09b0 02       		.byte	.LVU34
 2264 09b1 30000000 		.4byte	.Ldebug_ranges0+0x30
 2265 09b5 01       		.byte	0x1
 2266 09b6 81       		.byte	0x81
 2267 09b7 0D       		.byte	0xd
 2268 09b8 18       		.uleb128 0x18
 2269 09b9 0E080000 		.4byte	0x80e
 2270 09bd 61030000 		.4byte	.LLST3
 2271 09c1 5F030000 		.4byte	.LVUS3
 2272 09c5 19       		.uleb128 0x19
 2273 09c6 48000000 		.4byte	.Ldebug_ranges0+0x48
 2274 09ca 35       		.uleb128 0x35
 2275 09cb 18080000 		.4byte	0x818
 2276 09cf 36       		.uleb128 0x36
 2277 09d0 A2080000 		.4byte	0x8a2
 2278 09d4 48000000 		.4byte	.Ldebug_ranges0+0x48
 2279 09d8 01       		.byte	0x1
 2280 09d9 9D       		.byte	0x9d
ARM GAS  /var/folders/l5/0x54b2c10074c8bt31ycjvl80000gp/T//ccE2J0wy.s 			page 41


 2281 09da 03       		.byte	0x3
 2282 09db 37       		.uleb128 0x37
 2283 09dc B3080000 		.4byte	0x8b3
 2284 09e0 19       		.uleb128 0x19
 2285 09e1 48000000 		.4byte	.Ldebug_ranges0+0x48
 2286 09e5 1A       		.uleb128 0x1a
 2287 09e6 BE080000 		.4byte	0x8be
 2288 09ea 78030000 		.4byte	.LLST4
 2289 09ee 74030000 		.4byte	.LVUS4
 2290 09f2 00       		.byte	0
 2291 09f3 00       		.byte	0
 2292 09f4 00       		.byte	0
 2293 09f5 00       		.byte	0
 2294 09f6 00       		.byte	0
 2295 09f7 31       		.uleb128 0x31
 2296 09f8 A2080000 		.4byte	0x8a2
 2297 09fc 00000000 		.4byte	.LFB8
 2298 0a00 48000000 		.4byte	.LFE8-.LFB8
 2299 0a04 01       		.uleb128 0x1
 2300 0a05 9C       		.byte	0x9c
 2301 0a06 250A0000 		.4byte	0xa25
 2302 0a0a 18       		.uleb128 0x18
 2303 0a0b B3080000 		.4byte	0x8b3
 2304 0a0f 9B030000 		.4byte	.LLST5
 2305 0a13 97030000 		.4byte	.LVUS5
 2306 0a17 1A       		.uleb128 0x1a
 2307 0a18 BE080000 		.4byte	0x8be
 2308 0a1c BD030000 		.4byte	.LLST6
 2309 0a20 B9030000 		.4byte	.LVUS6
 2310 0a24 00       		.byte	0
 2311 0a25 38       		.uleb128 0x38
 2312 0a26 76020000 		.4byte	.LASF78
 2313 0a2a 76020000 		.4byte	.LASF78
 2314 0a2e 08       		.byte	0x8
 2315 0a2f DA01     		.2byte	0x1da
 2316 0a31 08       		.byte	0x8
 2317 0a32 39       		.uleb128 0x39
 2318 0a33 29030000 		.4byte	.LASF79
 2319 0a37 29030000 		.4byte	.LASF79
 2320 0a3b 09       		.byte	0x9
 2321 0a3c DA       		.byte	0xda
 2322 0a3d 08       		.byte	0x8
 2323 0a3e 39       		.uleb128 0x39
 2324 0a3f D3030000 		.4byte	.LASF80
 2325 0a43 D3030000 		.4byte	.LASF80
 2326 0a47 09       		.byte	0x9
 2327 0a48 DB       		.byte	0xdb
 2328 0a49 08       		.byte	0x8
 2329 0a4a 00       		.byte	0
 2330              		.section	.debug_abbrev,"",%progbits
 2331              	.Ldebug_abbrev0:
 2332 0000 01       		.uleb128 0x1
 2333 0001 11       		.uleb128 0x11
 2334 0002 01       		.byte	0x1
 2335 0003 25       		.uleb128 0x25
 2336 0004 0E       		.uleb128 0xe
 2337 0005 13       		.uleb128 0x13
ARM GAS  /var/folders/l5/0x54b2c10074c8bt31ycjvl80000gp/T//ccE2J0wy.s 			page 42


 2338 0006 0B       		.uleb128 0xb
 2339 0007 03       		.uleb128 0x3
 2340 0008 0E       		.uleb128 0xe
 2341 0009 1B       		.uleb128 0x1b
 2342 000a 0E       		.uleb128 0xe
 2343 000b 55       		.uleb128 0x55
 2344 000c 17       		.uleb128 0x17
 2345 000d 11       		.uleb128 0x11
 2346 000e 01       		.uleb128 0x1
 2347 000f 10       		.uleb128 0x10
 2348 0010 17       		.uleb128 0x17
 2349 0011 00       		.byte	0
 2350 0012 00       		.byte	0
 2351 0013 02       		.uleb128 0x2
 2352 0014 24       		.uleb128 0x24
 2353 0015 00       		.byte	0
 2354 0016 0B       		.uleb128 0xb
 2355 0017 0B       		.uleb128 0xb
 2356 0018 3E       		.uleb128 0x3e
 2357 0019 0B       		.uleb128 0xb
 2358 001a 03       		.uleb128 0x3
 2359 001b 0E       		.uleb128 0xe
 2360 001c 00       		.byte	0
 2361 001d 00       		.byte	0
 2362 001e 03       		.uleb128 0x3
 2363 001f 16       		.uleb128 0x16
 2364 0020 00       		.byte	0
 2365 0021 03       		.uleb128 0x3
 2366 0022 0E       		.uleb128 0xe
 2367 0023 3A       		.uleb128 0x3a
 2368 0024 0B       		.uleb128 0xb
 2369 0025 3B       		.uleb128 0x3b
 2370 0026 0B       		.uleb128 0xb
 2371 0027 39       		.uleb128 0x39
 2372 0028 0B       		.uleb128 0xb
 2373 0029 49       		.uleb128 0x49
 2374 002a 13       		.uleb128 0x13
 2375 002b 00       		.byte	0
 2376 002c 00       		.byte	0
 2377 002d 04       		.uleb128 0x4
 2378 002e 24       		.uleb128 0x24
 2379 002f 00       		.byte	0
 2380 0030 0B       		.uleb128 0xb
 2381 0031 0B       		.uleb128 0xb
 2382 0032 3E       		.uleb128 0x3e
 2383 0033 0B       		.uleb128 0xb
 2384 0034 03       		.uleb128 0x3
 2385 0035 08       		.uleb128 0x8
 2386 0036 00       		.byte	0
 2387 0037 00       		.byte	0
 2388 0038 05       		.uleb128 0x5
 2389 0039 35       		.uleb128 0x35
 2390 003a 00       		.byte	0
 2391 003b 49       		.uleb128 0x49
 2392 003c 13       		.uleb128 0x13
 2393 003d 00       		.byte	0
 2394 003e 00       		.byte	0
ARM GAS  /var/folders/l5/0x54b2c10074c8bt31ycjvl80000gp/T//ccE2J0wy.s 			page 43


 2395 003f 06       		.uleb128 0x6
 2396 0040 13       		.uleb128 0x13
 2397 0041 01       		.byte	0x1
 2398 0042 03       		.uleb128 0x3
 2399 0043 0E       		.uleb128 0xe
 2400 0044 0B       		.uleb128 0xb
 2401 0045 0B       		.uleb128 0xb
 2402 0046 3A       		.uleb128 0x3a
 2403 0047 0B       		.uleb128 0xb
 2404 0048 3B       		.uleb128 0x3b
 2405 0049 0B       		.uleb128 0xb
 2406 004a 39       		.uleb128 0x39
 2407 004b 0B       		.uleb128 0xb
 2408 004c 01       		.uleb128 0x1
 2409 004d 13       		.uleb128 0x13
 2410 004e 00       		.byte	0
 2411 004f 00       		.byte	0
 2412 0050 07       		.uleb128 0x7
 2413 0051 0D       		.uleb128 0xd
 2414 0052 00       		.byte	0
 2415 0053 03       		.uleb128 0x3
 2416 0054 0E       		.uleb128 0xe
 2417 0055 3A       		.uleb128 0x3a
 2418 0056 0B       		.uleb128 0xb
 2419 0057 3B       		.uleb128 0x3b
 2420 0058 0B       		.uleb128 0xb
 2421 0059 39       		.uleb128 0x39
 2422 005a 0B       		.uleb128 0xb
 2423 005b 49       		.uleb128 0x49
 2424 005c 13       		.uleb128 0x13
 2425 005d 38       		.uleb128 0x38
 2426 005e 0B       		.uleb128 0xb
 2427 005f 00       		.byte	0
 2428 0060 00       		.byte	0
 2429 0061 08       		.uleb128 0x8
 2430 0062 0D       		.uleb128 0xd
 2431 0063 00       		.byte	0
 2432 0064 03       		.uleb128 0x3
 2433 0065 08       		.uleb128 0x8
 2434 0066 3A       		.uleb128 0x3a
 2435 0067 0B       		.uleb128 0xb
 2436 0068 3B       		.uleb128 0x3b
 2437 0069 0B       		.uleb128 0xb
 2438 006a 39       		.uleb128 0x39
 2439 006b 0B       		.uleb128 0xb
 2440 006c 49       		.uleb128 0x49
 2441 006d 13       		.uleb128 0x13
 2442 006e 38       		.uleb128 0x38
 2443 006f 0B       		.uleb128 0xb
 2444 0070 00       		.byte	0
 2445 0071 00       		.byte	0
 2446 0072 09       		.uleb128 0x9
 2447 0073 13       		.uleb128 0x13
 2448 0074 01       		.byte	0x1
 2449 0075 0B       		.uleb128 0xb
 2450 0076 0B       		.uleb128 0xb
 2451 0077 3A       		.uleb128 0x3a
ARM GAS  /var/folders/l5/0x54b2c10074c8bt31ycjvl80000gp/T//ccE2J0wy.s 			page 44


 2452 0078 0B       		.uleb128 0xb
 2453 0079 3B       		.uleb128 0x3b
 2454 007a 0B       		.uleb128 0xb
 2455 007b 39       		.uleb128 0x39
 2456 007c 0B       		.uleb128 0xb
 2457 007d 01       		.uleb128 0x1
 2458 007e 13       		.uleb128 0x13
 2459 007f 00       		.byte	0
 2460 0080 00       		.byte	0
 2461 0081 0A       		.uleb128 0xa
 2462 0082 0F       		.uleb128 0xf
 2463 0083 00       		.byte	0
 2464 0084 0B       		.uleb128 0xb
 2465 0085 0B       		.uleb128 0xb
 2466 0086 49       		.uleb128 0x49
 2467 0087 13       		.uleb128 0x13
 2468 0088 00       		.byte	0
 2469 0089 00       		.byte	0
 2470 008a 0B       		.uleb128 0xb
 2471 008b 0F       		.uleb128 0xf
 2472 008c 00       		.byte	0
 2473 008d 0B       		.uleb128 0xb
 2474 008e 0B       		.uleb128 0xb
 2475 008f 00       		.byte	0
 2476 0090 00       		.byte	0
 2477 0091 0C       		.uleb128 0xc
 2478 0092 15       		.uleb128 0x15
 2479 0093 01       		.byte	0x1
 2480 0094 27       		.uleb128 0x27
 2481 0095 19       		.uleb128 0x19
 2482 0096 01       		.uleb128 0x1
 2483 0097 13       		.uleb128 0x13
 2484 0098 00       		.byte	0
 2485 0099 00       		.byte	0
 2486 009a 0D       		.uleb128 0xd
 2487 009b 05       		.uleb128 0x5
 2488 009c 00       		.byte	0
 2489 009d 49       		.uleb128 0x49
 2490 009e 13       		.uleb128 0x13
 2491 009f 00       		.byte	0
 2492 00a0 00       		.byte	0
 2493 00a1 0E       		.uleb128 0xe
 2494 00a2 34       		.uleb128 0x34
 2495 00a3 00       		.byte	0
 2496 00a4 03       		.uleb128 0x3
 2497 00a5 0E       		.uleb128 0xe
 2498 00a6 3A       		.uleb128 0x3a
 2499 00a7 0B       		.uleb128 0xb
 2500 00a8 3B       		.uleb128 0x3b
 2501 00a9 0B       		.uleb128 0xb
 2502 00aa 39       		.uleb128 0x39
 2503 00ab 0B       		.uleb128 0xb
 2504 00ac 49       		.uleb128 0x49
 2505 00ad 13       		.uleb128 0x13
 2506 00ae 3F       		.uleb128 0x3f
 2507 00af 19       		.uleb128 0x19
 2508 00b0 3C       		.uleb128 0x3c
ARM GAS  /var/folders/l5/0x54b2c10074c8bt31ycjvl80000gp/T//ccE2J0wy.s 			page 45


 2509 00b1 19       		.uleb128 0x19
 2510 00b2 00       		.byte	0
 2511 00b3 00       		.byte	0
 2512 00b4 0F       		.uleb128 0xf
 2513 00b5 17       		.uleb128 0x17
 2514 00b6 01       		.byte	0x1
 2515 00b7 0B       		.uleb128 0xb
 2516 00b8 0B       		.uleb128 0xb
 2517 00b9 3A       		.uleb128 0x3a
 2518 00ba 0B       		.uleb128 0xb
 2519 00bb 3B       		.uleb128 0x3b
 2520 00bc 0B       		.uleb128 0xb
 2521 00bd 39       		.uleb128 0x39
 2522 00be 0B       		.uleb128 0xb
 2523 00bf 01       		.uleb128 0x1
 2524 00c0 13       		.uleb128 0x13
 2525 00c1 00       		.byte	0
 2526 00c2 00       		.byte	0
 2527 00c3 10       		.uleb128 0x10
 2528 00c4 0D       		.uleb128 0xd
 2529 00c5 00       		.byte	0
 2530 00c6 03       		.uleb128 0x3
 2531 00c7 0E       		.uleb128 0xe
 2532 00c8 3A       		.uleb128 0x3a
 2533 00c9 0B       		.uleb128 0xb
 2534 00ca 3B       		.uleb128 0x3b
 2535 00cb 0B       		.uleb128 0xb
 2536 00cc 39       		.uleb128 0x39
 2537 00cd 0B       		.uleb128 0xb
 2538 00ce 49       		.uleb128 0x49
 2539 00cf 13       		.uleb128 0x13
 2540 00d0 00       		.byte	0
 2541 00d1 00       		.byte	0
 2542 00d2 11       		.uleb128 0x11
 2543 00d3 01       		.uleb128 0x1
 2544 00d4 01       		.byte	0x1
 2545 00d5 49       		.uleb128 0x49
 2546 00d6 13       		.uleb128 0x13
 2547 00d7 01       		.uleb128 0x1
 2548 00d8 13       		.uleb128 0x13
 2549 00d9 00       		.byte	0
 2550 00da 00       		.byte	0
 2551 00db 12       		.uleb128 0x12
 2552 00dc 21       		.uleb128 0x21
 2553 00dd 00       		.byte	0
 2554 00de 49       		.uleb128 0x49
 2555 00df 13       		.uleb128 0x13
 2556 00e0 2F       		.uleb128 0x2f
 2557 00e1 0B       		.uleb128 0xb
 2558 00e2 00       		.byte	0
 2559 00e3 00       		.byte	0
 2560 00e4 13       		.uleb128 0x13
 2561 00e5 34       		.uleb128 0x34
 2562 00e6 00       		.byte	0
 2563 00e7 47       		.uleb128 0x47
 2564 00e8 13       		.uleb128 0x13
 2565 00e9 3A       		.uleb128 0x3a
ARM GAS  /var/folders/l5/0x54b2c10074c8bt31ycjvl80000gp/T//ccE2J0wy.s 			page 46


 2566 00ea 0B       		.uleb128 0xb
 2567 00eb 3B       		.uleb128 0x3b
 2568 00ec 0B       		.uleb128 0xb
 2569 00ed 39       		.uleb128 0x39
 2570 00ee 0B       		.uleb128 0xb
 2571 00ef 02       		.uleb128 0x2
 2572 00f0 18       		.uleb128 0x18
 2573 00f1 00       		.byte	0
 2574 00f2 00       		.byte	0
 2575 00f3 14       		.uleb128 0x14
 2576 00f4 2E       		.uleb128 0x2e
 2577 00f5 01       		.byte	0x1
 2578 00f6 3F       		.uleb128 0x3f
 2579 00f7 19       		.uleb128 0x19
 2580 00f8 03       		.uleb128 0x3
 2581 00f9 0E       		.uleb128 0xe
 2582 00fa 3A       		.uleb128 0x3a
 2583 00fb 0B       		.uleb128 0xb
 2584 00fc 3B       		.uleb128 0x3b
 2585 00fd 05       		.uleb128 0x5
 2586 00fe 39       		.uleb128 0x39
 2587 00ff 0B       		.uleb128 0xb
 2588 0100 27       		.uleb128 0x27
 2589 0101 19       		.uleb128 0x19
 2590 0102 11       		.uleb128 0x11
 2591 0103 01       		.uleb128 0x1
 2592 0104 12       		.uleb128 0x12
 2593 0105 06       		.uleb128 0x6
 2594 0106 40       		.uleb128 0x40
 2595 0107 18       		.uleb128 0x18
 2596 0108 9742     		.uleb128 0x2117
 2597 010a 19       		.uleb128 0x19
 2598 010b 01       		.uleb128 0x1
 2599 010c 13       		.uleb128 0x13
 2600 010d 00       		.byte	0
 2601 010e 00       		.byte	0
 2602 010f 15       		.uleb128 0x15
 2603 0110 898201   		.uleb128 0x4109
 2604 0113 00       		.byte	0
 2605 0114 11       		.uleb128 0x11
 2606 0115 01       		.uleb128 0x1
 2607 0116 9542     		.uleb128 0x2115
 2608 0118 19       		.uleb128 0x19
 2609 0119 31       		.uleb128 0x31
 2610 011a 13       		.uleb128 0x13
 2611 011b 00       		.byte	0
 2612 011c 00       		.byte	0
 2613 011d 16       		.uleb128 0x16
 2614 011e 34       		.uleb128 0x34
 2615 011f 00       		.byte	0
 2616 0120 03       		.uleb128 0x3
 2617 0121 08       		.uleb128 0x8
 2618 0122 3A       		.uleb128 0x3a
 2619 0123 0B       		.uleb128 0xb
 2620 0124 3B       		.uleb128 0x3b
 2621 0125 05       		.uleb128 0x5
 2622 0126 39       		.uleb128 0x39
ARM GAS  /var/folders/l5/0x54b2c10074c8bt31ycjvl80000gp/T//ccE2J0wy.s 			page 47


 2623 0127 0B       		.uleb128 0xb
 2624 0128 49       		.uleb128 0x49
 2625 0129 13       		.uleb128 0x13
 2626 012a 02       		.uleb128 0x2
 2627 012b 17       		.uleb128 0x17
 2628 012c B742     		.uleb128 0x2137
 2629 012e 17       		.uleb128 0x17
 2630 012f 00       		.byte	0
 2631 0130 00       		.byte	0
 2632 0131 17       		.uleb128 0x17
 2633 0132 1D       		.uleb128 0x1d
 2634 0133 01       		.byte	0x1
 2635 0134 31       		.uleb128 0x31
 2636 0135 13       		.uleb128 0x13
 2637 0136 52       		.uleb128 0x52
 2638 0137 01       		.uleb128 0x1
 2639 0138 B842     		.uleb128 0x2138
 2640 013a 0B       		.uleb128 0xb
 2641 013b 55       		.uleb128 0x55
 2642 013c 17       		.uleb128 0x17
 2643 013d 58       		.uleb128 0x58
 2644 013e 0B       		.uleb128 0xb
 2645 013f 59       		.uleb128 0x59
 2646 0140 05       		.uleb128 0x5
 2647 0141 57       		.uleb128 0x57
 2648 0142 0B       		.uleb128 0xb
 2649 0143 01       		.uleb128 0x1
 2650 0144 13       		.uleb128 0x13
 2651 0145 00       		.byte	0
 2652 0146 00       		.byte	0
 2653 0147 18       		.uleb128 0x18
 2654 0148 05       		.uleb128 0x5
 2655 0149 00       		.byte	0
 2656 014a 31       		.uleb128 0x31
 2657 014b 13       		.uleb128 0x13
 2658 014c 02       		.uleb128 0x2
 2659 014d 17       		.uleb128 0x17
 2660 014e B742     		.uleb128 0x2137
 2661 0150 17       		.uleb128 0x17
 2662 0151 00       		.byte	0
 2663 0152 00       		.byte	0
 2664 0153 19       		.uleb128 0x19
 2665 0154 0B       		.uleb128 0xb
 2666 0155 01       		.byte	0x1
 2667 0156 55       		.uleb128 0x55
 2668 0157 17       		.uleb128 0x17
 2669 0158 00       		.byte	0
 2670 0159 00       		.byte	0
 2671 015a 1A       		.uleb128 0x1a
 2672 015b 34       		.uleb128 0x34
 2673 015c 00       		.byte	0
 2674 015d 31       		.uleb128 0x31
 2675 015e 13       		.uleb128 0x13
 2676 015f 02       		.uleb128 0x2
 2677 0160 17       		.uleb128 0x17
 2678 0161 B742     		.uleb128 0x2137
 2679 0163 17       		.uleb128 0x17
ARM GAS  /var/folders/l5/0x54b2c10074c8bt31ycjvl80000gp/T//ccE2J0wy.s 			page 48


 2680 0164 00       		.byte	0
 2681 0165 00       		.byte	0
 2682 0166 1B       		.uleb128 0x1b
 2683 0167 2E       		.uleb128 0x2e
 2684 0168 01       		.byte	0x1
 2685 0169 3F       		.uleb128 0x3f
 2686 016a 19       		.uleb128 0x19
 2687 016b 03       		.uleb128 0x3
 2688 016c 0E       		.uleb128 0xe
 2689 016d 3A       		.uleb128 0x3a
 2690 016e 0B       		.uleb128 0xb
 2691 016f 3B       		.uleb128 0x3b
 2692 0170 05       		.uleb128 0x5
 2693 0171 39       		.uleb128 0x39
 2694 0172 0B       		.uleb128 0xb
 2695 0173 27       		.uleb128 0x27
 2696 0174 19       		.uleb128 0x19
 2697 0175 49       		.uleb128 0x49
 2698 0176 13       		.uleb128 0x13
 2699 0177 11       		.uleb128 0x11
 2700 0178 01       		.uleb128 0x1
 2701 0179 12       		.uleb128 0x12
 2702 017a 06       		.uleb128 0x6
 2703 017b 40       		.uleb128 0x40
 2704 017c 18       		.uleb128 0x18
 2705 017d 9742     		.uleb128 0x2117
 2706 017f 19       		.uleb128 0x19
 2707 0180 01       		.uleb128 0x1
 2708 0181 13       		.uleb128 0x13
 2709 0182 00       		.byte	0
 2710 0183 00       		.byte	0
 2711 0184 1C       		.uleb128 0x1c
 2712 0185 2E       		.uleb128 0x2e
 2713 0186 01       		.byte	0x1
 2714 0187 3F       		.uleb128 0x3f
 2715 0188 19       		.uleb128 0x19
 2716 0189 03       		.uleb128 0x3
 2717 018a 0E       		.uleb128 0xe
 2718 018b 3A       		.uleb128 0x3a
 2719 018c 0B       		.uleb128 0xb
 2720 018d 3B       		.uleb128 0x3b
 2721 018e 0B       		.uleb128 0xb
 2722 018f 39       		.uleb128 0x39
 2723 0190 0B       		.uleb128 0xb
 2724 0191 27       		.uleb128 0x27
 2725 0192 19       		.uleb128 0x19
 2726 0193 11       		.uleb128 0x11
 2727 0194 01       		.uleb128 0x1
 2728 0195 12       		.uleb128 0x12
 2729 0196 06       		.uleb128 0x6
 2730 0197 40       		.uleb128 0x40
 2731 0198 18       		.uleb128 0x18
 2732 0199 9742     		.uleb128 0x2117
 2733 019b 19       		.uleb128 0x19
 2734 019c 01       		.uleb128 0x1
 2735 019d 13       		.uleb128 0x13
 2736 019e 00       		.byte	0
ARM GAS  /var/folders/l5/0x54b2c10074c8bt31ycjvl80000gp/T//ccE2J0wy.s 			page 49


 2737 019f 00       		.byte	0
 2738 01a0 1D       		.uleb128 0x1d
 2739 01a1 05       		.uleb128 0x5
 2740 01a2 00       		.byte	0
 2741 01a3 03       		.uleb128 0x3
 2742 01a4 08       		.uleb128 0x8
 2743 01a5 3A       		.uleb128 0x3a
 2744 01a6 0B       		.uleb128 0xb
 2745 01a7 3B       		.uleb128 0x3b
 2746 01a8 0B       		.uleb128 0xb
 2747 01a9 39       		.uleb128 0x39
 2748 01aa 0B       		.uleb128 0xb
 2749 01ab 49       		.uleb128 0x49
 2750 01ac 13       		.uleb128 0x13
 2751 01ad 02       		.uleb128 0x2
 2752 01ae 17       		.uleb128 0x17
 2753 01af B742     		.uleb128 0x2137
 2754 01b1 17       		.uleb128 0x17
 2755 01b2 00       		.byte	0
 2756 01b3 00       		.byte	0
 2757 01b4 1E       		.uleb128 0x1e
 2758 01b5 0B       		.uleb128 0xb
 2759 01b6 01       		.byte	0x1
 2760 01b7 55       		.uleb128 0x55
 2761 01b8 17       		.uleb128 0x17
 2762 01b9 01       		.uleb128 0x1
 2763 01ba 13       		.uleb128 0x13
 2764 01bb 00       		.byte	0
 2765 01bc 00       		.byte	0
 2766 01bd 1F       		.uleb128 0x1f
 2767 01be 34       		.uleb128 0x34
 2768 01bf 00       		.byte	0
 2769 01c0 03       		.uleb128 0x3
 2770 01c1 08       		.uleb128 0x8
 2771 01c2 3A       		.uleb128 0x3a
 2772 01c3 0B       		.uleb128 0xb
 2773 01c4 3B       		.uleb128 0x3b
 2774 01c5 0B       		.uleb128 0xb
 2775 01c6 39       		.uleb128 0x39
 2776 01c7 0B       		.uleb128 0xb
 2777 01c8 49       		.uleb128 0x49
 2778 01c9 13       		.uleb128 0x13
 2779 01ca 02       		.uleb128 0x2
 2780 01cb 17       		.uleb128 0x17
 2781 01cc B742     		.uleb128 0x2137
 2782 01ce 17       		.uleb128 0x17
 2783 01cf 00       		.byte	0
 2784 01d0 00       		.byte	0
 2785 01d1 20       		.uleb128 0x20
 2786 01d2 1D       		.uleb128 0x1d
 2787 01d3 01       		.byte	0x1
 2788 01d4 31       		.uleb128 0x31
 2789 01d5 13       		.uleb128 0x13
 2790 01d6 52       		.uleb128 0x52
 2791 01d7 01       		.uleb128 0x1
 2792 01d8 B842     		.uleb128 0x2138
 2793 01da 0B       		.uleb128 0xb
ARM GAS  /var/folders/l5/0x54b2c10074c8bt31ycjvl80000gp/T//ccE2J0wy.s 			page 50


 2794 01db 55       		.uleb128 0x55
 2795 01dc 17       		.uleb128 0x17
 2796 01dd 58       		.uleb128 0x58
 2797 01de 0B       		.uleb128 0xb
 2798 01df 59       		.uleb128 0x59
 2799 01e0 0B       		.uleb128 0xb
 2800 01e1 57       		.uleb128 0x57
 2801 01e2 0B       		.uleb128 0xb
 2802 01e3 01       		.uleb128 0x1
 2803 01e4 13       		.uleb128 0x13
 2804 01e5 00       		.byte	0
 2805 01e6 00       		.byte	0
 2806 01e7 21       		.uleb128 0x21
 2807 01e8 898201   		.uleb128 0x4109
 2808 01eb 01       		.byte	0x1
 2809 01ec 11       		.uleb128 0x11
 2810 01ed 01       		.uleb128 0x1
 2811 01ee 9542     		.uleb128 0x2115
 2812 01f0 19       		.uleb128 0x19
 2813 01f1 31       		.uleb128 0x31
 2814 01f2 13       		.uleb128 0x13
 2815 01f3 00       		.byte	0
 2816 01f4 00       		.byte	0
 2817 01f5 22       		.uleb128 0x22
 2818 01f6 8A8201   		.uleb128 0x410a
 2819 01f9 00       		.byte	0
 2820 01fa 02       		.uleb128 0x2
 2821 01fb 18       		.uleb128 0x18
 2822 01fc 9142     		.uleb128 0x2111
 2823 01fe 18       		.uleb128 0x18
 2824 01ff 00       		.byte	0
 2825 0200 00       		.byte	0
 2826 0201 23       		.uleb128 0x23
 2827 0202 1D       		.uleb128 0x1d
 2828 0203 01       		.byte	0x1
 2829 0204 31       		.uleb128 0x31
 2830 0205 13       		.uleb128 0x13
 2831 0206 52       		.uleb128 0x52
 2832 0207 01       		.uleb128 0x1
 2833 0208 B842     		.uleb128 0x2138
 2834 020a 0B       		.uleb128 0xb
 2835 020b 11       		.uleb128 0x11
 2836 020c 01       		.uleb128 0x1
 2837 020d 12       		.uleb128 0x12
 2838 020e 06       		.uleb128 0x6
 2839 020f 58       		.uleb128 0x58
 2840 0210 0B       		.uleb128 0xb
 2841 0211 59       		.uleb128 0x59
 2842 0212 0B       		.uleb128 0xb
 2843 0213 57       		.uleb128 0x57
 2844 0214 0B       		.uleb128 0xb
 2845 0215 00       		.byte	0
 2846 0216 00       		.byte	0
 2847 0217 24       		.uleb128 0x24
 2848 0218 0B       		.uleb128 0xb
 2849 0219 01       		.byte	0x1
 2850 021a 11       		.uleb128 0x11
ARM GAS  /var/folders/l5/0x54b2c10074c8bt31ycjvl80000gp/T//ccE2J0wy.s 			page 51


 2851 021b 01       		.uleb128 0x1
 2852 021c 12       		.uleb128 0x12
 2853 021d 06       		.uleb128 0x6
 2854 021e 00       		.byte	0
 2855 021f 00       		.byte	0
 2856 0220 25       		.uleb128 0x25
 2857 0221 2E       		.uleb128 0x2e
 2858 0222 01       		.byte	0x1
 2859 0223 3F       		.uleb128 0x3f
 2860 0224 19       		.uleb128 0x19
 2861 0225 03       		.uleb128 0x3
 2862 0226 0E       		.uleb128 0xe
 2863 0227 3A       		.uleb128 0x3a
 2864 0228 0B       		.uleb128 0xb
 2865 0229 3B       		.uleb128 0x3b
 2866 022a 0B       		.uleb128 0xb
 2867 022b 39       		.uleb128 0x39
 2868 022c 0B       		.uleb128 0xb
 2869 022d 27       		.uleb128 0x27
 2870 022e 19       		.uleb128 0x19
 2871 022f 49       		.uleb128 0x49
 2872 0230 13       		.uleb128 0x13
 2873 0231 11       		.uleb128 0x11
 2874 0232 01       		.uleb128 0x1
 2875 0233 12       		.uleb128 0x12
 2876 0234 06       		.uleb128 0x6
 2877 0235 40       		.uleb128 0x40
 2878 0236 18       		.uleb128 0x18
 2879 0237 9742     		.uleb128 0x2117
 2880 0239 19       		.uleb128 0x19
 2881 023a 01       		.uleb128 0x1
 2882 023b 13       		.uleb128 0x13
 2883 023c 00       		.byte	0
 2884 023d 00       		.byte	0
 2885 023e 26       		.uleb128 0x26
 2886 023f 05       		.uleb128 0x5
 2887 0240 00       		.byte	0
 2888 0241 03       		.uleb128 0x3
 2889 0242 0E       		.uleb128 0xe
 2890 0243 3A       		.uleb128 0x3a
 2891 0244 0B       		.uleb128 0xb
 2892 0245 3B       		.uleb128 0x3b
 2893 0246 0B       		.uleb128 0xb
 2894 0247 39       		.uleb128 0x39
 2895 0248 0B       		.uleb128 0xb
 2896 0249 49       		.uleb128 0x49
 2897 024a 13       		.uleb128 0x13
 2898 024b 02       		.uleb128 0x2
 2899 024c 17       		.uleb128 0x17
 2900 024d B742     		.uleb128 0x2137
 2901 024f 17       		.uleb128 0x17
 2902 0250 00       		.byte	0
 2903 0251 00       		.byte	0
 2904 0252 27       		.uleb128 0x27
 2905 0253 0B       		.uleb128 0xb
 2906 0254 01       		.byte	0x1
 2907 0255 11       		.uleb128 0x11
ARM GAS  /var/folders/l5/0x54b2c10074c8bt31ycjvl80000gp/T//ccE2J0wy.s 			page 52


 2908 0256 01       		.uleb128 0x1
 2909 0257 12       		.uleb128 0x12
 2910 0258 06       		.uleb128 0x6
 2911 0259 01       		.uleb128 0x1
 2912 025a 13       		.uleb128 0x13
 2913 025b 00       		.byte	0
 2914 025c 00       		.byte	0
 2915 025d 28       		.uleb128 0x28
 2916 025e 34       		.uleb128 0x34
 2917 025f 00       		.byte	0
 2918 0260 03       		.uleb128 0x3
 2919 0261 08       		.uleb128 0x8
 2920 0262 3A       		.uleb128 0x3a
 2921 0263 0B       		.uleb128 0xb
 2922 0264 3B       		.uleb128 0x3b
 2923 0265 0B       		.uleb128 0xb
 2924 0266 39       		.uleb128 0x39
 2925 0267 0B       		.uleb128 0xb
 2926 0268 49       		.uleb128 0x49
 2927 0269 13       		.uleb128 0x13
 2928 026a 02       		.uleb128 0x2
 2929 026b 18       		.uleb128 0x18
 2930 026c 00       		.byte	0
 2931 026d 00       		.byte	0
 2932 026e 29       		.uleb128 0x29
 2933 026f 898201   		.uleb128 0x4109
 2934 0272 01       		.byte	0x1
 2935 0273 11       		.uleb128 0x11
 2936 0274 01       		.uleb128 0x1
 2937 0275 31       		.uleb128 0x31
 2938 0276 13       		.uleb128 0x13
 2939 0277 01       		.uleb128 0x1
 2940 0278 13       		.uleb128 0x13
 2941 0279 00       		.byte	0
 2942 027a 00       		.byte	0
 2943 027b 2A       		.uleb128 0x2a
 2944 027c 898201   		.uleb128 0x4109
 2945 027f 01       		.byte	0x1
 2946 0280 11       		.uleb128 0x11
 2947 0281 01       		.uleb128 0x1
 2948 0282 31       		.uleb128 0x31
 2949 0283 13       		.uleb128 0x13
 2950 0284 00       		.byte	0
 2951 0285 00       		.byte	0
 2952 0286 2B       		.uleb128 0x2b
 2953 0287 2E       		.uleb128 0x2e
 2954 0288 01       		.byte	0x1
 2955 0289 03       		.uleb128 0x3
 2956 028a 0E       		.uleb128 0xe
 2957 028b 3A       		.uleb128 0x3a
 2958 028c 0B       		.uleb128 0xb
 2959 028d 3B       		.uleb128 0x3b
 2960 028e 0B       		.uleb128 0xb
 2961 028f 39       		.uleb128 0x39
 2962 0290 0B       		.uleb128 0xb
 2963 0291 27       		.uleb128 0x27
 2964 0292 19       		.uleb128 0x19
ARM GAS  /var/folders/l5/0x54b2c10074c8bt31ycjvl80000gp/T//ccE2J0wy.s 			page 53


 2965 0293 20       		.uleb128 0x20
 2966 0294 0B       		.uleb128 0xb
 2967 0295 01       		.uleb128 0x1
 2968 0296 13       		.uleb128 0x13
 2969 0297 00       		.byte	0
 2970 0298 00       		.byte	0
 2971 0299 2C       		.uleb128 0x2c
 2972 029a 05       		.uleb128 0x5
 2973 029b 00       		.byte	0
 2974 029c 03       		.uleb128 0x3
 2975 029d 08       		.uleb128 0x8
 2976 029e 3A       		.uleb128 0x3a
 2977 029f 0B       		.uleb128 0xb
 2978 02a0 3B       		.uleb128 0x3b
 2979 02a1 0B       		.uleb128 0xb
 2980 02a2 39       		.uleb128 0x39
 2981 02a3 0B       		.uleb128 0xb
 2982 02a4 49       		.uleb128 0x49
 2983 02a5 13       		.uleb128 0x13
 2984 02a6 00       		.byte	0
 2985 02a7 00       		.byte	0
 2986 02a8 2D       		.uleb128 0x2d
 2987 02a9 34       		.uleb128 0x34
 2988 02aa 00       		.byte	0
 2989 02ab 03       		.uleb128 0x3
 2990 02ac 08       		.uleb128 0x8
 2991 02ad 3A       		.uleb128 0x3a
 2992 02ae 0B       		.uleb128 0xb
 2993 02af 3B       		.uleb128 0x3b
 2994 02b0 0B       		.uleb128 0xb
 2995 02b1 39       		.uleb128 0x39
 2996 02b2 0B       		.uleb128 0xb
 2997 02b3 49       		.uleb128 0x49
 2998 02b4 13       		.uleb128 0x13
 2999 02b5 00       		.byte	0
 3000 02b6 00       		.byte	0
 3001 02b7 2E       		.uleb128 0x2e
 3002 02b8 2E       		.uleb128 0x2e
 3003 02b9 01       		.byte	0x1
 3004 02ba 3F       		.uleb128 0x3f
 3005 02bb 19       		.uleb128 0x19
 3006 02bc 03       		.uleb128 0x3
 3007 02bd 0E       		.uleb128 0xe
 3008 02be 3A       		.uleb128 0x3a
 3009 02bf 0B       		.uleb128 0xb
 3010 02c0 3B       		.uleb128 0x3b
 3011 02c1 0B       		.uleb128 0xb
 3012 02c2 39       		.uleb128 0x39
 3013 02c3 0B       		.uleb128 0xb
 3014 02c4 27       		.uleb128 0x27
 3015 02c5 19       		.uleb128 0x19
 3016 02c6 49       		.uleb128 0x49
 3017 02c7 13       		.uleb128 0x13
 3018 02c8 20       		.uleb128 0x20
 3019 02c9 0B       		.uleb128 0xb
 3020 02ca 01       		.uleb128 0x1
 3021 02cb 13       		.uleb128 0x13
ARM GAS  /var/folders/l5/0x54b2c10074c8bt31ycjvl80000gp/T//ccE2J0wy.s 			page 54


 3022 02cc 00       		.byte	0
 3023 02cd 00       		.byte	0
 3024 02ce 2F       		.uleb128 0x2f
 3025 02cf 2E       		.uleb128 0x2e
 3026 02d0 00       		.byte	0
 3027 02d1 3F       		.uleb128 0x3f
 3028 02d2 19       		.uleb128 0x19
 3029 02d3 03       		.uleb128 0x3
 3030 02d4 0E       		.uleb128 0xe
 3031 02d5 3A       		.uleb128 0x3a
 3032 02d6 0B       		.uleb128 0xb
 3033 02d7 3B       		.uleb128 0x3b
 3034 02d8 0B       		.uleb128 0xb
 3035 02d9 39       		.uleb128 0x39
 3036 02da 0B       		.uleb128 0xb
 3037 02db 27       		.uleb128 0x27
 3038 02dc 19       		.uleb128 0x19
 3039 02dd 11       		.uleb128 0x11
 3040 02de 01       		.uleb128 0x1
 3041 02df 12       		.uleb128 0x12
 3042 02e0 06       		.uleb128 0x6
 3043 02e1 40       		.uleb128 0x40
 3044 02e2 18       		.uleb128 0x18
 3045 02e3 9742     		.uleb128 0x2117
 3046 02e5 19       		.uleb128 0x19
 3047 02e6 00       		.byte	0
 3048 02e7 00       		.byte	0
 3049 02e8 30       		.uleb128 0x30
 3050 02e9 2E       		.uleb128 0x2e
 3051 02ea 01       		.byte	0x1
 3052 02eb 03       		.uleb128 0x3
 3053 02ec 0E       		.uleb128 0xe
 3054 02ed 3A       		.uleb128 0x3a
 3055 02ee 0B       		.uleb128 0xb
 3056 02ef 3B       		.uleb128 0x3b
 3057 02f0 0B       		.uleb128 0xb
 3058 02f1 39       		.uleb128 0x39
 3059 02f2 0B       		.uleb128 0xb
 3060 02f3 27       		.uleb128 0x27
 3061 02f4 19       		.uleb128 0x19
 3062 02f5 49       		.uleb128 0x49
 3063 02f6 13       		.uleb128 0x13
 3064 02f7 20       		.uleb128 0x20
 3065 02f8 0B       		.uleb128 0xb
 3066 02f9 01       		.uleb128 0x1
 3067 02fa 13       		.uleb128 0x13
 3068 02fb 00       		.byte	0
 3069 02fc 00       		.byte	0
 3070 02fd 31       		.uleb128 0x31
 3071 02fe 2E       		.uleb128 0x2e
 3072 02ff 01       		.byte	0x1
 3073 0300 31       		.uleb128 0x31
 3074 0301 13       		.uleb128 0x13
 3075 0302 11       		.uleb128 0x11
 3076 0303 01       		.uleb128 0x1
 3077 0304 12       		.uleb128 0x12
 3078 0305 06       		.uleb128 0x6
ARM GAS  /var/folders/l5/0x54b2c10074c8bt31ycjvl80000gp/T//ccE2J0wy.s 			page 55


 3079 0306 40       		.uleb128 0x40
 3080 0307 18       		.uleb128 0x18
 3081 0308 9742     		.uleb128 0x2117
 3082 030a 19       		.uleb128 0x19
 3083 030b 01       		.uleb128 0x1
 3084 030c 13       		.uleb128 0x13
 3085 030d 00       		.byte	0
 3086 030e 00       		.byte	0
 3087 030f 32       		.uleb128 0x32
 3088 0310 05       		.uleb128 0x5
 3089 0311 00       		.byte	0
 3090 0312 31       		.uleb128 0x31
 3091 0313 13       		.uleb128 0x13
 3092 0314 02       		.uleb128 0x2
 3093 0315 18       		.uleb128 0x18
 3094 0316 00       		.byte	0
 3095 0317 00       		.byte	0
 3096 0318 33       		.uleb128 0x33
 3097 0319 34       		.uleb128 0x34
 3098 031a 00       		.byte	0
 3099 031b 31       		.uleb128 0x31
 3100 031c 13       		.uleb128 0x13
 3101 031d 02       		.uleb128 0x2
 3102 031e 18       		.uleb128 0x18
 3103 031f 00       		.byte	0
 3104 0320 00       		.byte	0
 3105 0321 34       		.uleb128 0x34
 3106 0322 1D       		.uleb128 0x1d
 3107 0323 01       		.byte	0x1
 3108 0324 31       		.uleb128 0x31
 3109 0325 13       		.uleb128 0x13
 3110 0326 52       		.uleb128 0x52
 3111 0327 01       		.uleb128 0x1
 3112 0328 B842     		.uleb128 0x2138
 3113 032a 0B       		.uleb128 0xb
 3114 032b 55       		.uleb128 0x55
 3115 032c 17       		.uleb128 0x17
 3116 032d 58       		.uleb128 0x58
 3117 032e 0B       		.uleb128 0xb
 3118 032f 59       		.uleb128 0x59
 3119 0330 0B       		.uleb128 0xb
 3120 0331 57       		.uleb128 0x57
 3121 0332 0B       		.uleb128 0xb
 3122 0333 00       		.byte	0
 3123 0334 00       		.byte	0
 3124 0335 35       		.uleb128 0x35
 3125 0336 34       		.uleb128 0x34
 3126 0337 00       		.byte	0
 3127 0338 31       		.uleb128 0x31
 3128 0339 13       		.uleb128 0x13
 3129 033a 00       		.byte	0
 3130 033b 00       		.byte	0
 3131 033c 36       		.uleb128 0x36
 3132 033d 1D       		.uleb128 0x1d
 3133 033e 01       		.byte	0x1
 3134 033f 31       		.uleb128 0x31
 3135 0340 13       		.uleb128 0x13
ARM GAS  /var/folders/l5/0x54b2c10074c8bt31ycjvl80000gp/T//ccE2J0wy.s 			page 56


 3136 0341 55       		.uleb128 0x55
 3137 0342 17       		.uleb128 0x17
 3138 0343 58       		.uleb128 0x58
 3139 0344 0B       		.uleb128 0xb
 3140 0345 59       		.uleb128 0x59
 3141 0346 0B       		.uleb128 0xb
 3142 0347 57       		.uleb128 0x57
 3143 0348 0B       		.uleb128 0xb
 3144 0349 00       		.byte	0
 3145 034a 00       		.byte	0
 3146 034b 37       		.uleb128 0x37
 3147 034c 05       		.uleb128 0x5
 3148 034d 00       		.byte	0
 3149 034e 31       		.uleb128 0x31
 3150 034f 13       		.uleb128 0x13
 3151 0350 00       		.byte	0
 3152 0351 00       		.byte	0
 3153 0352 38       		.uleb128 0x38
 3154 0353 2E       		.uleb128 0x2e
 3155 0354 00       		.byte	0
 3156 0355 3F       		.uleb128 0x3f
 3157 0356 19       		.uleb128 0x19
 3158 0357 3C       		.uleb128 0x3c
 3159 0358 19       		.uleb128 0x19
 3160 0359 6E       		.uleb128 0x6e
 3161 035a 0E       		.uleb128 0xe
 3162 035b 03       		.uleb128 0x3
 3163 035c 0E       		.uleb128 0xe
 3164 035d 3A       		.uleb128 0x3a
 3165 035e 0B       		.uleb128 0xb
 3166 035f 3B       		.uleb128 0x3b
 3167 0360 05       		.uleb128 0x5
 3168 0361 39       		.uleb128 0x39
 3169 0362 0B       		.uleb128 0xb
 3170 0363 00       		.byte	0
 3171 0364 00       		.byte	0
 3172 0365 39       		.uleb128 0x39
 3173 0366 2E       		.uleb128 0x2e
 3174 0367 00       		.byte	0
 3175 0368 3F       		.uleb128 0x3f
 3176 0369 19       		.uleb128 0x19
 3177 036a 3C       		.uleb128 0x3c
 3178 036b 19       		.uleb128 0x19
 3179 036c 6E       		.uleb128 0x6e
 3180 036d 0E       		.uleb128 0xe
 3181 036e 03       		.uleb128 0x3
 3182 036f 0E       		.uleb128 0xe
 3183 0370 3A       		.uleb128 0x3a
 3184 0371 0B       		.uleb128 0xb
 3185 0372 3B       		.uleb128 0x3b
 3186 0373 0B       		.uleb128 0xb
 3187 0374 39       		.uleb128 0x39
 3188 0375 0B       		.uleb128 0xb
 3189 0376 00       		.byte	0
 3190 0377 00       		.byte	0
 3191 0378 00       		.byte	0
 3192              		.section	.debug_loc,"",%progbits
ARM GAS  /var/folders/l5/0x54b2c10074c8bt31ycjvl80000gp/T//ccE2J0wy.s 			page 57


 3193              	.Ldebug_loc0:
 3194              	.LVUS27:
 3195 0000 00       		.uleb128 .LVU316
 3196 0001 00       		.uleb128 .LVU350
 3197              	.LLST27:
 3198 0002 18000000 		.4byte	.LVL55
 3199 0006 6B000000 		.4byte	.LVL59-1
 3200 000a 0100     		.2byte	0x1
 3201 000c 51       		.byte	0x51
 3202 000d 00000000 		.4byte	0
 3203 0011 00000000 		.4byte	0
 3204              	.LVUS28:
 3205 0015 01       		.uleb128 .LVU332
 3206 0016 00       		.uleb128 .LVU333
 3207              	.LLST28:
 3208 0017 34000000 		.4byte	.LVL57
 3209 001b 3C000000 		.4byte	.LVL58
 3210 001f 0600     		.2byte	0x6
 3211 0021 03       		.byte	0x3
 3212 0022 00000000 		.4byte	rlist
 3213 0026 9F       		.byte	0x9f
 3214 0027 00000000 		.4byte	0
 3215 002b 00000000 		.4byte	0
 3216              	.LVUS29:
 3217 002f 01       		.uleb128 .LVU317
 3218 0030 01       		.uleb128 .LVU324
 3219              	.LLST29:
 3220 0031 18000000 		.4byte	.LVL55
 3221 0035 24000000 		.4byte	.LVL56
 3222 0039 0600     		.2byte	0x6
 3223 003b 03       		.byte	0x3
 3224 003c 00000000 		.4byte	rlist
 3225 0040 9F       		.byte	0x9f
 3226 0041 00000000 		.4byte	0
 3227 0045 00000000 		.4byte	0
 3228              	.LVUS30:
 3229 0049 03       		.uleb128 .LVU319
 3230 004a 01       		.uleb128 .LVU324
 3231              	.LLST30:
 3232 004b 18000000 		.4byte	.LVL55
 3233 004f 24000000 		.4byte	.LVL56
 3234 0053 0100     		.2byte	0x1
 3235 0055 50       		.byte	0x50
 3236 0056 00000000 		.4byte	0
 3237 005a 00000000 		.4byte	0
 3238              	.LVUS22:
 3239 005e 00       		.uleb128 .LVU260
 3240 005f 00       		.uleb128 .LVU306
 3241              	.LLST22:
 3242 0060 1C000000 		.4byte	.LVL48
 3243 0064 73000000 		.4byte	.LVL54-1
 3244 0068 0100     		.2byte	0x1
 3245 006a 51       		.byte	0x51
 3246 006b 00000000 		.4byte	0
 3247 006f 00000000 		.4byte	0
 3248              	.LVUS23:
 3249 0073 01       		.uleb128 .LVU276
ARM GAS  /var/folders/l5/0x54b2c10074c8bt31ycjvl80000gp/T//ccE2J0wy.s 			page 58


 3250 0074 01       		.uleb128 .LVU301
 3251              	.LLST23:
 3252 0075 38000000 		.4byte	.LVL50
 3253 0079 70000000 		.4byte	.LVL53
 3254 007d 0100     		.2byte	0x1
 3255 007f 51       		.byte	0x51
 3256 0080 00000000 		.4byte	0
 3257 0084 00000000 		.4byte	0
 3258              	.LVUS24:
 3259 0088 01       		.uleb128 .LVU286
 3260 0089 00       		.uleb128 .LVU287
 3261              	.LLST24:
 3262 008a 40000000 		.4byte	.LVL51
 3263 008e 44000000 		.4byte	.LVL52
 3264 0092 0600     		.2byte	0x6
 3265 0094 03       		.byte	0x3
 3266 0095 00000000 		.4byte	rlist
 3267 0099 9F       		.byte	0x9f
 3268 009a 00000000 		.4byte	0
 3269 009e 00000000 		.4byte	0
 3270              	.LVUS25:
 3271 00a2 01       		.uleb128 .LVU261
 3272 00a3 01       		.uleb128 .LVU268
 3273              	.LLST25:
 3274 00a4 1C000000 		.4byte	.LVL48
 3275 00a8 28000000 		.4byte	.LVL49
 3276 00ac 0600     		.2byte	0x6
 3277 00ae 03       		.byte	0x3
 3278 00af 00000000 		.4byte	rlist
 3279 00b3 9F       		.byte	0x9f
 3280 00b4 00000000 		.4byte	0
 3281 00b8 00000000 		.4byte	0
 3282              	.LVUS26:
 3283 00bc 03       		.uleb128 .LVU263
 3284 00bd 01       		.uleb128 .LVU268
 3285              	.LLST26:
 3286 00be 1C000000 		.4byte	.LVL48
 3287 00c2 28000000 		.4byte	.LVL49
 3288 00c6 0100     		.2byte	0x1
 3289 00c8 50       		.byte	0x50
 3290 00c9 00000000 		.4byte	0
 3291 00cd 00000000 		.4byte	0
 3292              	.LVUS20:
 3293 00d1 00       		.uleb128 .LVU240
 3294 00d2 00       		.uleb128 .LVU246
 3295 00d3 00       		.uleb128 .LVU246
 3296 00d4 00       		.uleb128 .LVU247
 3297 00d5 00       		.uleb128 .LVU247
 3298 00d6 00       		.uleb128 .LVU248
 3299 00d7 00       		.uleb128 .LVU248
 3300 00d8 00       		.uleb128 0
 3301              	.LLST20:
 3302 00d9 14000000 		.4byte	.LVL43
 3303 00dd 28000000 		.4byte	.LVL45
 3304 00e1 0100     		.2byte	0x1
 3305 00e3 50       		.byte	0x50
 3306 00e4 28000000 		.4byte	.LVL45
ARM GAS  /var/folders/l5/0x54b2c10074c8bt31ycjvl80000gp/T//ccE2J0wy.s 			page 59


 3307 00e8 30000000 		.4byte	.LVL46
 3308 00ec 0200     		.2byte	0x2
 3309 00ee 71       		.byte	0x71
 3310 00ef 08       		.sleb128 8
 3311 00f0 30000000 		.4byte	.LVL46
 3312 00f4 38000000 		.4byte	.LVL47
 3313 00f8 0100     		.2byte	0x1
 3314 00fa 50       		.byte	0x50
 3315 00fb 38000000 		.4byte	.LVL47
 3316 00ff 44000000 		.4byte	.LFE14
 3317 0103 0200     		.2byte	0x2
 3318 0105 71       		.byte	0x71
 3319 0106 08       		.sleb128 8
 3320 0107 00000000 		.4byte	0
 3321 010b 00000000 		.4byte	0
 3322              	.LVUS21:
 3323 010f 00       		.uleb128 .LVU243
 3324 0110 00       		.uleb128 0
 3325              	.LLST21:
 3326 0111 1C000000 		.4byte	.LVL44
 3327 0115 44000000 		.4byte	.LFE14
 3328 0119 0100     		.2byte	0x1
 3329 011b 53       		.byte	0x53
 3330 011c 00000000 		.4byte	0
 3331 0120 00000000 		.4byte	0
 3332              	.LVUS13:
 3333 0124 00       		.uleb128 0
 3334 0125 00       		.uleb128 .LVU167
 3335 0126 00       		.uleb128 .LVU167
 3336 0127 00       		.uleb128 .LVU232
 3337 0128 00       		.uleb128 .LVU232
 3338 0129 00       		.uleb128 0
 3339              	.LLST13:
 3340 012a 00000000 		.4byte	.LVL28
 3341 012e 1C000000 		.4byte	.LVL29
 3342 0132 0100     		.2byte	0x1
 3343 0134 50       		.byte	0x50
 3344 0135 1C000000 		.4byte	.LVL29
 3345 0139 A7000000 		.4byte	.LVL42-1
 3346 013d 0100     		.2byte	0x1
 3347 013f 5C       		.byte	0x5c
 3348 0140 A7000000 		.4byte	.LVL42-1
 3349 0144 AC000000 		.4byte	.LFE12
 3350 0148 0400     		.2byte	0x4
 3351 014a F3       		.byte	0xf3
 3352 014b 01       		.uleb128 0x1
 3353 014c 50       		.byte	0x50
 3354 014d 9F       		.byte	0x9f
 3355 014e 00000000 		.4byte	0
 3356 0152 00000000 		.4byte	0
 3357              	.LVUS14:
 3358 0156 00       		.uleb128 0
 3359 0157 00       		.uleb128 .LVU202
 3360 0158 00       		.uleb128 .LVU202
 3361 0159 00       		.uleb128 .LVU204
 3362 015a 00       		.uleb128 .LVU204
 3363 015b 00       		.uleb128 0
ARM GAS  /var/folders/l5/0x54b2c10074c8bt31ycjvl80000gp/T//ccE2J0wy.s 			page 60


 3364              	.LLST14:
 3365 015c 00000000 		.4byte	.LVL28
 3366 0160 5C000000 		.4byte	.LVL36
 3367 0164 0100     		.2byte	0x1
 3368 0166 51       		.byte	0x51
 3369 0167 5C000000 		.4byte	.LVL36
 3370 016b 64000000 		.4byte	.LVL37
 3371 016f 0200     		.2byte	0x2
 3372 0171 7C       		.byte	0x7c
 3373 0172 14       		.sleb128 20
 3374 0173 64000000 		.4byte	.LVL37
 3375 0177 AC000000 		.4byte	.LFE12
 3376 017b 0400     		.2byte	0x4
 3377 017d F3       		.byte	0xf3
 3378 017e 01       		.uleb128 0x1
 3379 017f 51       		.byte	0x51
 3380 0180 9F       		.byte	0x9f
 3381 0181 00000000 		.4byte	0
 3382 0185 00000000 		.4byte	0
 3383              	.LVUS17:
 3384 0189 01       		.uleb128 .LVU222
 3385 018a 00       		.uleb128 .LVU231
 3386 018b 00       		.uleb128 .LVU231
 3387 018c 00       		.uleb128 .LVU232
 3388              	.LLST17:
 3389 018d 94000000 		.4byte	.LVL40
 3390 0191 A4000000 		.4byte	.LVL41
 3391 0195 0100     		.2byte	0x1
 3392 0197 54       		.byte	0x54
 3393 0198 A4000000 		.4byte	.LVL41
 3394 019c A7000000 		.4byte	.LVL42-1
 3395 01a0 0100     		.2byte	0x1
 3396 01a2 51       		.byte	0x51
 3397 01a3 00000000 		.4byte	0
 3398 01a7 00000000 		.4byte	0
 3399              	.LVUS18:
 3400 01ab 01       		.uleb128 .LVU194
 3401 01ac 01       		.uleb128 .LVU222
 3402              	.LLST18:
 3403 01ad 58000000 		.4byte	.LVL35
 3404 01b1 94000000 		.4byte	.LVL40
 3405 01b5 0100     		.2byte	0x1
 3406 01b7 54       		.byte	0x54
 3407 01b8 00000000 		.4byte	0
 3408 01bc 00000000 		.4byte	0
 3409              	.LVUS19:
 3410 01c0 01       		.uleb128 .LVU205
 3411 01c1 00       		.uleb128 .LVU218
 3412 01c2 00       		.uleb128 .LVU218
 3413 01c3 00       		.uleb128 .LVU221
 3414              	.LLST19:
 3415 01c4 64000000 		.4byte	.LVL37
 3416 01c8 8C000000 		.4byte	.LVL39
 3417 01cc 0100     		.2byte	0x1
 3418 01ce 52       		.byte	0x52
 3419 01cf 8C000000 		.4byte	.LVL39
 3420 01d3 94000000 		.4byte	.LVL40
ARM GAS  /var/folders/l5/0x54b2c10074c8bt31ycjvl80000gp/T//ccE2J0wy.s 			page 61


 3421 01d7 0200     		.2byte	0x2
 3422 01d9 74       		.byte	0x74
 3423 01da 00       		.sleb128 0
 3424 01db 00000000 		.4byte	0
 3425 01df 00000000 		.4byte	0
 3426              	.LVUS15:
 3427 01e3 01       		.uleb128 .LVU169
 3428 01e4 00       		.uleb128 .LVU193
 3429              	.LLST15:
 3430 01e5 24000000 		.4byte	.LVL30
 3431 01e9 58000000 		.4byte	.LVL35
 3432 01ed 0100     		.2byte	0x1
 3433 01ef 5C       		.byte	0x5c
 3434 01f0 00000000 		.4byte	0
 3435 01f4 00000000 		.4byte	0
 3436              	.LVUS16:
 3437 01f8 01       		.uleb128 .LVU178
 3438 01f9 00       		.uleb128 .LVU190
 3439 01fa 00       		.uleb128 .LVU190
 3440 01fb 00       		.uleb128 .LVU191
 3441              	.LLST16:
 3442 01fc 2C000000 		.4byte	.LVL31
 3443 0200 50000000 		.4byte	.LVL33
 3444 0204 0100     		.2byte	0x1
 3445 0206 53       		.byte	0x53
 3446 0207 50000000 		.4byte	.LVL33
 3447 020b 54000000 		.4byte	.LVL34
 3448 020f 0200     		.2byte	0x2
 3449 0211 7C       		.byte	0x7c
 3450 0212 00       		.sleb128 0
 3451 0213 00000000 		.4byte	0
 3452 0217 00000000 		.4byte	0
 3453              	.LVUS11:
 3454 021b 00       		.uleb128 0
 3455 021c 00       		.uleb128 .LVU140
 3456 021d 00       		.uleb128 .LVU140
 3457 021e 00       		.uleb128 .LVU148
 3458 021f 00       		.uleb128 .LVU148
 3459 0220 00       		.uleb128 .LVU149
 3460 0221 00       		.uleb128 .LVU149
 3461 0222 00       		.uleb128 .LVU154
 3462 0223 00       		.uleb128 .LVU154
 3463 0224 00       		.uleb128 0
 3464              	.LLST11:
 3465 0225 00000000 		.4byte	.LVL19
 3466 0229 1C000000 		.4byte	.LVL20
 3467 022d 0100     		.2byte	0x1
 3468 022f 50       		.byte	0x50
 3469 0230 1C000000 		.4byte	.LVL20
 3470 0234 54000000 		.4byte	.LVL24
 3471 0238 0100     		.2byte	0x1
 3472 023a 55       		.byte	0x55
 3473 023b 54000000 		.4byte	.LVL24
 3474 023f 58000000 		.4byte	.LVL25
 3475 0243 0100     		.2byte	0x1
 3476 0245 50       		.byte	0x50
 3477 0246 58000000 		.4byte	.LVL25
ARM GAS  /var/folders/l5/0x54b2c10074c8bt31ycjvl80000gp/T//ccE2J0wy.s 			page 62


 3478 024a 70000000 		.4byte	.LVL27
 3479 024e 0100     		.2byte	0x1
 3480 0250 55       		.byte	0x55
 3481 0251 70000000 		.4byte	.LVL27
 3482 0255 78000000 		.4byte	.LFE11
 3483 0259 0400     		.2byte	0x4
 3484 025b F3       		.byte	0xf3
 3485 025c 01       		.uleb128 0x1
 3486 025d 50       		.byte	0x50
 3487 025e 9F       		.byte	0x9f
 3488 025f 00000000 		.4byte	0
 3489 0263 00000000 		.4byte	0
 3490              	.LVUS12:
 3491 0267 00       		.uleb128 0
 3492 0268 00       		.uleb128 .LVU141
 3493 0269 00       		.uleb128 .LVU141
 3494 026a 00       		.uleb128 .LVU148
 3495 026b 00       		.uleb128 .LVU148
 3496 026c 00       		.uleb128 .LVU150
 3497 026d 00       		.uleb128 .LVU150
 3498 026e 00       		.uleb128 0
 3499              	.LLST12:
 3500 026f 00000000 		.4byte	.LVL19
 3501 0273 27000000 		.4byte	.LVL21-1
 3502 0277 0100     		.2byte	0x1
 3503 0279 51       		.byte	0x51
 3504 027a 27000000 		.4byte	.LVL21-1
 3505 027e 54000000 		.4byte	.LVL24
 3506 0282 0400     		.2byte	0x4
 3507 0284 F3       		.byte	0xf3
 3508 0285 01       		.uleb128 0x1
 3509 0286 51       		.byte	0x51
 3510 0287 9F       		.byte	0x9f
 3511 0288 54000000 		.4byte	.LVL24
 3512 028c 5B000000 		.4byte	.LVL26-1
 3513 0290 0100     		.2byte	0x1
 3514 0292 51       		.byte	0x51
 3515 0293 5B000000 		.4byte	.LVL26-1
 3516 0297 78000000 		.4byte	.LFE11
 3517 029b 0400     		.2byte	0x4
 3518 029d F3       		.byte	0xf3
 3519 029e 01       		.uleb128 0x1
 3520 029f 51       		.byte	0x51
 3521 02a0 9F       		.byte	0x9f
 3522 02a1 00000000 		.4byte	0
 3523 02a5 00000000 		.4byte	0
 3524              	.LVUS7:
 3525 02a9 00       		.uleb128 0
 3526 02aa 00       		.uleb128 .LVU113
 3527 02ab 00       		.uleb128 .LVU113
 3528 02ac 00       		.uleb128 .LVU114
 3529 02ad 00       		.uleb128 .LVU114
 3530 02ae 00       		.uleb128 0
 3531              	.LLST7:
 3532 02af 00000000 		.4byte	.LVL13
 3533 02b3 28000000 		.4byte	.LVL16
 3534 02b7 0100     		.2byte	0x1
ARM GAS  /var/folders/l5/0x54b2c10074c8bt31ycjvl80000gp/T//ccE2J0wy.s 			page 63


 3535 02b9 50       		.byte	0x50
 3536 02ba 28000000 		.4byte	.LVL16
 3537 02be 2C000000 		.4byte	.LVL17
 3538 02c2 0200     		.2byte	0x2
 3539 02c4 71       		.byte	0x71
 3540 02c5 10       		.sleb128 16
 3541 02c6 2C000000 		.4byte	.LVL17
 3542 02ca 44000000 		.4byte	.LFE9
 3543 02ce 0400     		.2byte	0x4
 3544 02d0 F3       		.byte	0xf3
 3545 02d1 01       		.uleb128 0x1
 3546 02d2 50       		.byte	0x50
 3547 02d3 9F       		.byte	0x9f
 3548 02d4 00000000 		.4byte	0
 3549 02d8 00000000 		.4byte	0
 3550              	.LVUS8:
 3551 02dc 00       		.uleb128 .LVU103
 3552 02dd 00       		.uleb128 .LVU126
 3553              	.LLST8:
 3554 02de 14000000 		.4byte	.LVL14
 3555 02e2 3F000000 		.4byte	.LVL18-1
 3556 02e6 0100     		.2byte	0x1
 3557 02e8 51       		.byte	0x51
 3558 02e9 00000000 		.4byte	0
 3559 02ed 00000000 		.4byte	0
 3560              	.LVUS9:
 3561 02f1 01       		.uleb128 .LVU108
 3562 02f2 01       		.uleb128 .LVU115
 3563              	.LLST9:
 3564 02f3 20000000 		.4byte	.LVL15
 3565 02f7 2C000000 		.4byte	.LVL17
 3566 02fb 0600     		.2byte	0x6
 3567 02fd 03       		.byte	0x3
 3568 02fe 00000000 		.4byte	rlist
 3569 0302 9F       		.byte	0x9f
 3570 0303 00000000 		.4byte	0
 3571 0307 00000000 		.4byte	0
 3572              	.LVUS10:
 3573 030b 03       		.uleb128 .LVU110
 3574 030c 01       		.uleb128 .LVU115
 3575              	.LLST10:
 3576 030d 20000000 		.4byte	.LVL15
 3577 0311 2C000000 		.4byte	.LVL17
 3578 0315 0100     		.2byte	0x1
 3579 0317 52       		.byte	0x52
 3580 0318 00000000 		.4byte	0
 3581 031c 00000000 		.4byte	0
 3582              	.LVUS0:
 3583 0320 02       		.uleb128 .LVU2
 3584 0321 00       		.uleb128 0
 3585              	.LLST0:
 3586 0322 00000000 		.4byte	.LVL0
 3587 0326 68000000 		.4byte	.LFE10
 3588 032a 0100     		.2byte	0x1
 3589 032c 50       		.byte	0x50
 3590 032d 00000000 		.4byte	0
 3591 0331 00000000 		.4byte	0
ARM GAS  /var/folders/l5/0x54b2c10074c8bt31ycjvl80000gp/T//ccE2J0wy.s 			page 64


 3592              	.LVUS1:
 3593 0335 01       		.uleb128 .LVU9
 3594 0336 00       		.uleb128 0
 3595              	.LLST1:
 3596 0337 10000000 		.4byte	.LVL1
 3597 033b 68000000 		.4byte	.LFE10
 3598 033f 0100     		.2byte	0x1
 3599 0341 50       		.byte	0x50
 3600 0342 00000000 		.4byte	0
 3601 0346 00000000 		.4byte	0
 3602              	.LVUS2:
 3603 034a 01       		.uleb128 .LVU24
 3604 034b 00       		.uleb128 0
 3605              	.LLST2:
 3606 034c 34000000 		.4byte	.LVL2
 3607 0350 68000000 		.4byte	.LFE10
 3608 0354 0100     		.2byte	0x1
 3609 0356 50       		.byte	0x50
 3610 0357 00000000 		.4byte	0
 3611 035b 00000000 		.4byte	0
 3612              	.LVUS3:
 3613 035f 01       		.uleb128 .LVU33
 3614 0360 00       		.uleb128 0
 3615              	.LLST3:
 3616 0361 38000000 		.4byte	.LVL3
 3617 0365 68000000 		.4byte	.LFE10
 3618 0369 0100     		.2byte	0x1
 3619 036b 50       		.byte	0x50
 3620 036c 00000000 		.4byte	0
 3621 0370 00000000 		.4byte	0
 3622              	.LVUS4:
 3623 0374 03       		.uleb128 .LVU35
 3624 0375 00       		.uleb128 .LVU47
 3625 0376 00       		.uleb128 .LVU47
 3626 0377 00       		.uleb128 .LVU48
 3627              	.LLST4:
 3628 0378 38000000 		.4byte	.LVL3
 3629 037c 5C000000 		.4byte	.LVL5
 3630 0380 0100     		.2byte	0x1
 3631 0382 53       		.byte	0x53
 3632 0383 5C000000 		.4byte	.LVL5
 3633 0387 60000000 		.4byte	.LVL6
 3634 038b 0200     		.2byte	0x2
 3635 038d 70       		.byte	0x70
 3636 038e 00       		.sleb128 0
 3637 038f 00000000 		.4byte	0
 3638 0393 00000000 		.4byte	0
 3639              	.LVUS5:
 3640 0397 00       		.uleb128 0
 3641 0398 00       		.uleb128 .LVU91
 3642 0399 00       		.uleb128 .LVU91
 3643 039a 00       		.uleb128 0
 3644              	.LLST5:
 3645 039b 00000000 		.4byte	.LVL7
 3646 039f 3C000000 		.4byte	.LVL11
 3647 03a3 0100     		.2byte	0x1
 3648 03a5 50       		.byte	0x50
ARM GAS  /var/folders/l5/0x54b2c10074c8bt31ycjvl80000gp/T//ccE2J0wy.s 			page 65


 3649 03a6 3C000000 		.4byte	.LVL11
 3650 03aa 48000000 		.4byte	.LFE8
 3651 03ae 0100     		.2byte	0x1
 3652 03b0 5C       		.byte	0x5c
 3653 03b1 00000000 		.4byte	0
 3654 03b5 00000000 		.4byte	0
 3655              	.LVUS6:
 3656 03b9 01       		.uleb128 .LVU78
 3657 03ba 00       		.uleb128 .LVU90
 3658 03bb 00       		.uleb128 .LVU90
 3659 03bc 00       		.uleb128 .LVU92
 3660              	.LLST6:
 3661 03bd 14000000 		.4byte	.LVL8
 3662 03c1 38000000 		.4byte	.LVL10
 3663 03c5 0100     		.2byte	0x1
 3664 03c7 53       		.byte	0x53
 3665 03c8 38000000 		.4byte	.LVL10
 3666 03cc 40000000 		.4byte	.LVL12
 3667 03d0 0200     		.2byte	0x2
 3668 03d2 70       		.byte	0x70
 3669 03d3 00       		.sleb128 0
 3670 03d4 00000000 		.4byte	0
 3671 03d8 00000000 		.4byte	0
 3672              		.section	.debug_aranges,"",%progbits
 3673 0000 6C000000 		.4byte	0x6c
 3674 0004 0200     		.2byte	0x2
 3675 0006 00000000 		.4byte	.Ldebug_info0
 3676 000a 04       		.byte	0x4
 3677 000b 00       		.byte	0
 3678 000c 0000     		.2byte	0
 3679 000e 0000     		.2byte	0
 3680 0010 00000000 		.4byte	.LFB10
 3681 0014 68000000 		.4byte	.LFE10-.LFB10
 3682 0018 00000000 		.4byte	.LFB7
 3683 001c 1C000000 		.4byte	.LFE7-.LFB7
 3684 0020 00000000 		.4byte	.LFB8
 3685 0024 48000000 		.4byte	.LFE8-.LFB8
 3686 0028 00000000 		.4byte	.LFB9
 3687 002c 44000000 		.4byte	.LFE9-.LFB9
 3688 0030 00000000 		.4byte	.LFB11
 3689 0034 78000000 		.4byte	.LFE11-.LFB11
 3690 0038 00000000 		.4byte	.LFB12
 3691 003c AC000000 		.4byte	.LFE12-.LFB12
 3692 0040 00000000 		.4byte	.LFB14
 3693 0044 44000000 		.4byte	.LFE14-.LFB14
 3694 0048 00000000 		.4byte	.LFB15
 3695 004c 78000000 		.4byte	.LFE15-.LFB15
 3696 0050 00000000 		.4byte	.LFB16
 3697 0054 70000000 		.4byte	.LFE16-.LFB16
 3698 0058 00000000 		.4byte	.LFB13
 3699 005c 24000000 		.4byte	.LFE13-.LFB13
 3700 0060 00000000 		.4byte	.LFB17
 3701 0064 20000000 		.4byte	.LFE17-.LFB17
 3702 0068 00000000 		.4byte	0
 3703 006c 00000000 		.4byte	0
 3704              		.section	.debug_ranges,"",%progbits
 3705              	.Ldebug_ranges0:
ARM GAS  /var/folders/l5/0x54b2c10074c8bt31ycjvl80000gp/T//ccE2J0wy.s 			page 66


 3706 0000 10000000 		.4byte	.LBB33
 3707 0004 18000000 		.4byte	.LBE33
 3708 0008 1C000000 		.4byte	.LBB36
 3709 000c 24000000 		.4byte	.LBE36
 3710 0010 00000000 		.4byte	0
 3711 0014 00000000 		.4byte	0
 3712 0018 24000000 		.4byte	.LBB37
 3713 001c 28000000 		.4byte	.LBE37
 3714 0020 34000000 		.4byte	.LBB47
 3715 0024 38000000 		.4byte	.LBE47
 3716 0028 00000000 		.4byte	0
 3717 002c 00000000 		.4byte	0
 3718 0030 28000000 		.4byte	.LBB40
 3719 0034 30000000 		.4byte	.LBE40
 3720 0038 38000000 		.4byte	.LBB48
 3721 003c 60000000 		.4byte	.LBE48
 3722 0040 00000000 		.4byte	0
 3723 0044 00000000 		.4byte	0
 3724 0048 28000000 		.4byte	.LBB41
 3725 004c 30000000 		.4byte	.LBE41
 3726 0050 38000000 		.4byte	.LBB46
 3727 0054 60000000 		.4byte	.LBE46
 3728 0058 00000000 		.4byte	0
 3729 005c 00000000 		.4byte	0
 3730 0060 14000000 		.4byte	.LBB49
 3731 0064 18000000 		.4byte	.LBE49
 3732 0068 20000000 		.4byte	.LBB54
 3733 006c 24000000 		.4byte	.LBE54
 3734 0070 28000000 		.4byte	.LBB55
 3735 0074 2C000000 		.4byte	.LBE55
 3736 0078 34000000 		.4byte	.LBB56
 3737 007c 38000000 		.4byte	.LBE56
 3738 0080 00000000 		.4byte	0
 3739 0084 00000000 		.4byte	0
 3740 0088 58000000 		.4byte	.LBB60
 3741 008c A0000000 		.4byte	.LBE60
 3742 0090 A4000000 		.4byte	.LBB67
 3743 0094 AC000000 		.4byte	.LBE67
 3744 0098 00000000 		.4byte	0
 3745 009c 00000000 		.4byte	0
 3746 00a0 58000000 		.4byte	.LBB61
 3747 00a4 74000000 		.4byte	.LBE61
 3748 00a8 78000000 		.4byte	.LBB65
 3749 00ac 8C000000 		.4byte	.LBE65
 3750 00b0 90000000 		.4byte	.LBB66
 3751 00b4 94000000 		.4byte	.LBE66
 3752 00b8 00000000 		.4byte	0
 3753 00bc 00000000 		.4byte	0
 3754 00c0 0C000000 		.4byte	.LBB68
 3755 00c4 10000000 		.4byte	.LBE68
 3756 00c8 20000000 		.4byte	.LBB79
 3757 00cc 24000000 		.4byte	.LBE79
 3758 00d0 38000000 		.4byte	.LBB82
 3759 00d4 54000000 		.4byte	.LBE82
 3760 00d8 58000000 		.4byte	.LBB83
 3761 00dc 70000000 		.4byte	.LBE83
 3762 00e0 00000000 		.4byte	0
ARM GAS  /var/folders/l5/0x54b2c10074c8bt31ycjvl80000gp/T//ccE2J0wy.s 			page 67


 3763 00e4 00000000 		.4byte	0
 3764 00e8 14000000 		.4byte	.LBB73
 3765 00ec 18000000 		.4byte	.LBE73
 3766 00f0 1C000000 		.4byte	.LBB78
 3767 00f4 20000000 		.4byte	.LBE78
 3768 00f8 24000000 		.4byte	.LBB80
 3769 00fc 28000000 		.4byte	.LBE80
 3770 0100 30000000 		.4byte	.LBB81
 3771 0104 34000000 		.4byte	.LBE81
 3772 0108 00000000 		.4byte	0
 3773 010c 00000000 		.4byte	0
 3774 0110 10000000 		.4byte	.LBB84
 3775 0114 14000000 		.4byte	.LBE84
 3776 0118 18000000 		.4byte	.LBB89
 3777 011c 1C000000 		.4byte	.LBE89
 3778 0120 20000000 		.4byte	.LBB90
 3779 0124 24000000 		.4byte	.LBE90
 3780 0128 2C000000 		.4byte	.LBB91
 3781 012c 30000000 		.4byte	.LBE91
 3782 0130 00000000 		.4byte	0
 3783 0134 00000000 		.4byte	0
 3784 0138 00000000 		.4byte	.LFB10
 3785 013c 68000000 		.4byte	.LFE10
 3786 0140 00000000 		.4byte	.LFB7
 3787 0144 1C000000 		.4byte	.LFE7
 3788 0148 00000000 		.4byte	.LFB8
 3789 014c 48000000 		.4byte	.LFE8
 3790 0150 00000000 		.4byte	.LFB9
 3791 0154 44000000 		.4byte	.LFE9
 3792 0158 00000000 		.4byte	.LFB11
 3793 015c 78000000 		.4byte	.LFE11
 3794 0160 00000000 		.4byte	.LFB12
 3795 0164 AC000000 		.4byte	.LFE12
 3796 0168 00000000 		.4byte	.LFB14
 3797 016c 44000000 		.4byte	.LFE14
 3798 0170 00000000 		.4byte	.LFB15
 3799 0174 78000000 		.4byte	.LFE15
 3800 0178 00000000 		.4byte	.LFB16
 3801 017c 70000000 		.4byte	.LFE16
 3802 0180 00000000 		.4byte	.LFB13
 3803 0184 24000000 		.4byte	.LFE13
 3804 0188 00000000 		.4byte	.LFB17
 3805 018c 20000000 		.4byte	.LFE17
 3806 0190 00000000 		.4byte	0
 3807 0194 00000000 		.4byte	0
 3808              		.section	.debug_line,"",%progbits
 3809              	.Ldebug_line0:
 3810 0000 79070000 		.section	.debug_str,"MS",%progbits,1
 3810      03008E01 
 3810      00000201 
 3810      FB0E0D00 
 3810      01010101 
 3811              	.LASF61:
 3812 0000 7264796D 		.ascii	"rdymsg\000"
 3812      736700
 3813              	.LASF67:
 3814 0007 63685363 		.ascii	"chSchDoRescheduleAhead\000"
ARM GAS  /var/folders/l5/0x54b2c10074c8bt31ycjvl80000gp/T//ccE2J0wy.s 			page 68


 3814      68446F52 
 3814      65736368 
 3814      6564756C 
 3814      65416865 
 3815              	.LASF6:
 3816 001e 5F5F7569 		.ascii	"__uint8_t\000"
 3816      6E74385F 
 3816      7400
 3817              	.LASF55:
 3818 0028 76746C69 		.ascii	"vtlist\000"
 3818      737400
 3819              	.LASF10:
 3820 002f 6C6F6E67 		.ascii	"long long unsigned int\000"
 3820      206C6F6E 
 3820      6720756E 
 3820      7369676E 
 3820      65642069 
 3821              	.LASF62:
 3822 0046 65786974 		.ascii	"exitcode\000"
 3822      636F6465 
 3822      00
 3823              	.LASF26:
 3824 004f 705F7072 		.ascii	"p_prio\000"
 3824      696F00
 3825              	.LASF86:
 3826 0056 5F736368 		.ascii	"_scheduler_init\000"
 3826      6564756C 
 3826      65725F69 
 3826      6E697400 
 3827              	.LASF9:
 3828 0066 6C6F6E67 		.ascii	"long long int\000"
 3828      206C6F6E 
 3828      6720696E 
 3828      7400
 3829              	.LASF2:
 3830 0074 7369676E 		.ascii	"signed char\000"
 3830      65642063 
 3830      68617200 
 3831              	.LASF15:
 3832 0080 626F6F6C 		.ascii	"bool_t\000"
 3832      5F7400
 3833              	.LASF58:
 3834 0087 6D5F7175 		.ascii	"m_queue\000"
 3834      65756500 
 3835              	.LASF82:
 3836 008f 2E2E2F2E 		.ascii	"../../../os/kernel/src/chschd.c\000"
 3836      2E2F2E2E 
 3836      2F6F732F 
 3836      6B65726E 
 3836      656C2F73 
 3837              	.LASF0:
 3838 00af 6C6F6E67 		.ascii	"long int\000"
 3838      20696E74 
 3838      00
 3839              	.LASF17:
 3840 00b8 74737461 		.ascii	"tstate_t\000"
 3840      74655F74 
ARM GAS  /var/folders/l5/0x54b2c10074c8bt31ycjvl80000gp/T//ccE2J0wy.s 			page 69


 3840      00
 3841              	.LASF83:
 3842 00c1 2F557365 		.ascii	"/Users/fernandoguirado/eclipse-workspace/ChibiOS-RP"
 3842      72732F66 
 3842      65726E61 
 3842      6E646F67 
 3842      75697261 
 3843 00f4 692D6D61 		.ascii	"i-master/testhal/BCM2835/GPIO\000"
 3843      73746572 
 3843      2F746573 
 3843      7468616C 
 3843      2F42434D 
 3844              	.LASF71:
 3845 0112 63685363 		.ascii	"chSchIsPreemptionRequired\000"
 3845      68497350 
 3845      7265656D 
 3845      7074696F 
 3845      6E526571 
 3846              	.LASF65:
 3847 012c 5F69646C 		.ascii	"_idle_thread_wa\000"
 3847      655F7468 
 3847      72656164 
 3847      5F776100 
 3848              	.LASF69:
 3849 013c 63685363 		.ascii	"chSchRescheduleS\000"
 3849      68526573 
 3849      63686564 
 3849      756C6553 
 3849      00
 3850              	.LASF8:
 3851 014d 5F5F7569 		.ascii	"__uint32_t\000"
 3851      6E743332 
 3851      5F7400
 3852              	.LASF38:
 3853 0158 72656761 		.ascii	"regarm_t\000"
 3853      726D5F74 
 3853      00
 3854              	.LASF44:
 3855 0161 76745F70 		.ascii	"vt_prev\000"
 3855      72657600 
 3856              	.LASF81:
 3857 0169 474E5520 		.ascii	"GNU C17 8.3.1 20190703 (release) [gcc-8-branch revi"
 3857      43313720 
 3857      382E332E 
 3857      31203230 
 3857      31393037 
 3858 019c 73696F6E 		.ascii	"sion 273027] -mcpu=arm1176jz-s -mabi=apcs-gnu -mno-"
 3858      20323733 
 3858      3032375D 
 3858      202D6D63 
 3858      70753D61 
 3859 01cf 7468756D 		.ascii	"thumb-interwork -mfloat-abi=soft -marm -march=armv6"
 3859      622D696E 
 3859      74657277 
 3859      6F726B20 
 3859      2D6D666C 
 3860 0202 6B7A202D 		.ascii	"kz -ggdb -O2 -fomit-frame-pointer -ffunction-sectio"
ARM GAS  /var/folders/l5/0x54b2c10074c8bt31ycjvl80000gp/T//ccE2J0wy.s 			page 70


 3860      67676462 
 3860      202D4F32 
 3860      202D666F 
 3860      6D69742D 
 3861 0235 6E73202D 		.ascii	"ns -fdata-sections\000"
 3861      66646174 
 3861      612D7365 
 3861      6374696F 
 3861      6E7300
 3862              	.LASF66:
 3863 0248 63685363 		.ascii	"chSchDoReschedule\000"
 3863      68446F52 
 3863      65736368 
 3863      6564756C 
 3863      6500
 3864              	.LASF14:
 3865 025a 756E7369 		.ascii	"unsigned int\000"
 3865      676E6564 
 3865      20696E74 
 3865      00
 3866              	.LASF84:
 3867 0267 77616B65 		.ascii	"wakeup\000"
 3867      757000
 3868              	.LASF43:
 3869 026e 76745F6E 		.ascii	"vt_next\000"
 3869      65787400 
 3870              	.LASF78:
 3871 0276 5F706F72 		.ascii	"_port_switch_arm\000"
 3871      745F7377 
 3871      69746368 
 3871      5F61726D 
 3871      00
 3872              	.LASF1:
 3873 0287 6C6F6E67 		.ascii	"long unsigned int\000"
 3873      20756E73 
 3873      69676E65 
 3873      6420696E 
 3873      7400
 3874              	.LASF41:
 3875 0299 76746675 		.ascii	"vtfunc_t\000"
 3875      6E635F74 
 3875      00
 3876              	.LASF5:
 3877 02a2 73686F72 		.ascii	"short unsigned int\000"
 3877      7420756E 
 3877      7369676E 
 3877      65642069 
 3877      6E7400
 3878              	.LASF70:
 3879 02b5 63685363 		.ascii	"chSchWakeupS\000"
 3879      6857616B 
 3879      65757053 
 3879      00
 3880              	.LASF20:
 3881 02c2 6D73675F 		.ascii	"msg_t\000"
 3881      7400
 3882              	.LASF16:
ARM GAS  /var/folders/l5/0x54b2c10074c8bt31ycjvl80000gp/T//ccE2J0wy.s 			page 71


 3883 02c8 746D6F64 		.ascii	"tmode_t\000"
 3883      655F7400 
 3884              	.LASF36:
 3885 02d0 54687265 		.ascii	"ThreadsList\000"
 3885      6164734C 
 3885      69737400 
 3886              	.LASF21:
 3887 02dc 6576656E 		.ascii	"eventmask_t\000"
 3887      746D6173 
 3887      6B5F7400 
 3888              	.LASF57:
 3889 02e8 4D757465 		.ascii	"Mutex\000"
 3889      7800
 3890              	.LASF37:
 3891 02ee 73746B61 		.ascii	"stkalign_t\000"
 3891      6C69676E 
 3891      5F7400
 3892              	.LASF45:
 3893 02f9 76745F74 		.ascii	"vt_time\000"
 3893      696D6500 
 3894              	.LASF46:
 3895 0301 76745F66 		.ascii	"vt_func\000"
 3895      756E6300 
 3896              	.LASF76:
 3897 0309 64657175 		.ascii	"dequeue\000"
 3897      65756500 
 3898              	.LASF68:
 3899 0311 63685363 		.ascii	"chSchDoRescheduleBehind\000"
 3899      68446F52 
 3899      65736368 
 3899      6564756C 
 3899      65426568 
 3900              	.LASF79:
 3901 0329 63685654 		.ascii	"chVTSetI\000"
 3901      53657449 
 3901      00
 3902              	.LASF49:
 3903 0332 56544C69 		.ascii	"VTList\000"
 3903      737400
 3904              	.LASF52:
 3905 0339 725F6374 		.ascii	"r_ctx\000"
 3905      7800
 3906              	.LASF35:
 3907 033f 54687265 		.ascii	"ThreadsQueue\000"
 3907      61647351 
 3907      75657565 
 3907      00
 3908              	.LASF74:
 3909 034c 74696D65 		.ascii	"time\000"
 3909      00
 3910              	.LASF53:
 3911 0351 725F6375 		.ascii	"r_current\000"
 3911      7272656E 
 3911      7400
 3912              	.LASF25:
 3913 035b 705F7072 		.ascii	"p_prev\000"
 3913      657600
ARM GAS  /var/folders/l5/0x54b2c10074c8bt31ycjvl80000gp/T//ccE2J0wy.s 			page 72


 3914              	.LASF19:
 3915 0362 74707269 		.ascii	"tprio_t\000"
 3915      6F5F7400 
 3916              	.LASF12:
 3917 036a 696E7433 		.ascii	"int32_t\000"
 3917      325F7400 
 3918              	.LASF3:
 3919 0372 756E7369 		.ascii	"unsigned char\000"
 3919      676E6564 
 3919      20636861 
 3919      7200
 3920              	.LASF73:
 3921 0380 6E657773 		.ascii	"newstate\000"
 3921      74617465 
 3921      00
 3922              	.LASF33:
 3923 0389 705F6D74 		.ascii	"p_mtxlist\000"
 3923      786C6973 
 3923      7400
 3924              	.LASF4:
 3925 0393 73686F72 		.ascii	"short int\000"
 3925      7420696E 
 3925      7400
 3926              	.LASF28:
 3927 039d 705F7374 		.ascii	"p_state\000"
 3927      61746500 
 3928              	.LASF30:
 3929 03a5 705F7072 		.ascii	"p_preempt\000"
 3929      65656D70 
 3929      7400
 3930              	.LASF51:
 3931 03af 725F7072 		.ascii	"r_prio\000"
 3931      696F00
 3932              	.LASF64:
 3933 03b6 65776D61 		.ascii	"ewmask\000"
 3933      736B00
 3934              	.LASF24:
 3935 03bd 705F6E65 		.ascii	"p_next\000"
 3935      787400
 3936              	.LASF29:
 3937 03c4 705F666C 		.ascii	"p_flags\000"
 3937      61677300 
 3938              	.LASF23:
 3939 03cc 54687265 		.ascii	"Thread\000"
 3939      616400
 3940              	.LASF80:
 3941 03d3 63685654 		.ascii	"chVTResetI\000"
 3941      52657365 
 3941      744900
 3942              	.LASF75:
 3943 03de 63685363 		.ascii	"chSchGoSleepS\000"
 3943      68476F53 
 3943      6C656570 
 3943      5300
 3944              	.LASF32:
 3945 03ec 705F6570 		.ascii	"p_epending\000"
 3945      656E6469 
ARM GAS  /var/folders/l5/0x54b2c10074c8bt31ycjvl80000gp/T//ccE2J0wy.s 			page 73


 3945      6E6700
 3946              	.LASF13:
 3947 03f7 75696E74 		.ascii	"uint32_t\000"
 3947      33325F74 
 3947      00
 3948              	.LASF50:
 3949 0400 725F7175 		.ascii	"r_queue\000"
 3949      65756500 
 3950              	.LASF42:
 3951 0408 56697274 		.ascii	"VirtualTimer\000"
 3951      75616C54 
 3951      696D6572 
 3951      00
 3952              	.LASF18:
 3953 0415 74736C69 		.ascii	"tslices_t\000"
 3953      6365735F 
 3953      7400
 3954              	.LASF85:
 3955 041f 63685363 		.ascii	"chSchReadyI\000"
 3955      68526561 
 3955      64794900 
 3956              	.LASF77:
 3957 042b 6669666F 		.ascii	"fifo_remove\000"
 3957      5F72656D 
 3957      6F766500 
 3958              	.LASF60:
 3959 0437 6D5F6E65 		.ascii	"m_next\000"
 3959      787400
 3960              	.LASF22:
 3961 043e 73797374 		.ascii	"systime_t\000"
 3961      696D655F 
 3961      7400
 3962              	.LASF34:
 3963 0448 705F7265 		.ascii	"p_realprio\000"
 3963      616C7072 
 3963      696F00
 3964              	.LASF7:
 3965 0453 5F5F696E 		.ascii	"__int32_t\000"
 3965      7433325F 
 3965      7400
 3966              	.LASF40:
 3967 045d 636F6E74 		.ascii	"context\000"
 3967      65787400 
 3968              	.LASF39:
 3969 0465 696E7463 		.ascii	"intctx\000"
 3969      747800
 3970              	.LASF47:
 3971 046c 76745F70 		.ascii	"vt_par\000"
 3971      617200
 3972              	.LASF54:
 3973 0473 52656164 		.ascii	"ReadyList\000"
 3973      794C6973 
 3973      7400
 3974              	.LASF56:
 3975 047d 726C6973 		.ascii	"rlist\000"
 3975      7400
 3976              	.LASF11:
ARM GAS  /var/folders/l5/0x54b2c10074c8bt31ycjvl80000gp/T//ccE2J0wy.s 			page 74


 3977 0483 75696E74 		.ascii	"uint8_t\000"
 3977      385F7400 
 3978              	.LASF63:
 3979 048b 77746F62 		.ascii	"wtobjp\000"
 3979      6A7000
 3980              	.LASF48:
 3981 0492 76745F73 		.ascii	"vt_systime\000"
 3981      79737469 
 3981      6D6500
 3982              	.LASF72:
 3983 049d 63685363 		.ascii	"chSchGoSleepTimeoutS\000"
 3983      68476F53 
 3983      6C656570 
 3983      54696D65 
 3983      6F757453 
 3984              	.LASF59:
 3985 04b2 6D5F6F77 		.ascii	"m_owner\000"
 3985      6E657200 
 3986              	.LASF27:
 3987 04ba 705F6374 		.ascii	"p_ctx\000"
 3987      7800
 3988              	.LASF31:
 3989 04c0 705F7761 		.ascii	"p_waiting\000"
 3989      6974696E 
 3989      6700
 3990              		.ident	"GCC: (GNU Tools for Arm Embedded Processors 8-2019-q3-update) 8.3.1 20190703 (release) [gc
ARM GAS  /var/folders/l5/0x54b2c10074c8bt31ycjvl80000gp/T//ccE2J0wy.s 			page 75


DEFINED SYMBOLS
                            *ABS*:0000000000000000 chschd.c
/var/folders/l5/0x54b2c10074c8bt31ycjvl80000gp/T//ccE2J0wy.s:6      .text.wakeup:0000000000000000 $a
/var/folders/l5/0x54b2c10074c8bt31ycjvl80000gp/T//ccE2J0wy.s:12     .text.wakeup:0000000000000000 wakeup
/var/folders/l5/0x54b2c10074c8bt31ycjvl80000gp/T//ccE2J0wy.s:147    .text.wakeup:0000000000000064 $d
                            *COM*:0000000000000014 rlist
/var/folders/l5/0x54b2c10074c8bt31ycjvl80000gp/T//ccE2J0wy.s:152    .text._scheduler_init:0000000000000000 $a
/var/folders/l5/0x54b2c10074c8bt31ycjvl80000gp/T//ccE2J0wy.s:158    .text._scheduler_init:0000000000000000 _scheduler_init
/var/folders/l5/0x54b2c10074c8bt31ycjvl80000gp/T//ccE2J0wy.s:182    .text._scheduler_init:0000000000000018 $d
/var/folders/l5/0x54b2c10074c8bt31ycjvl80000gp/T//ccE2J0wy.s:187    .text.chSchReadyI:0000000000000000 $a
/var/folders/l5/0x54b2c10074c8bt31ycjvl80000gp/T//ccE2J0wy.s:193    .text.chSchReadyI:0000000000000000 chSchReadyI
/var/folders/l5/0x54b2c10074c8bt31ycjvl80000gp/T//ccE2J0wy.s:255    .text.chSchReadyI:0000000000000044 $d
/var/folders/l5/0x54b2c10074c8bt31ycjvl80000gp/T//ccE2J0wy.s:260    .text.chSchGoSleepS:0000000000000000 $a
/var/folders/l5/0x54b2c10074c8bt31ycjvl80000gp/T//ccE2J0wy.s:266    .text.chSchGoSleepS:0000000000000000 chSchGoSleepS
/var/folders/l5/0x54b2c10074c8bt31ycjvl80000gp/T//ccE2J0wy.s:350    .text.chSchGoSleepS:0000000000000040 $d
/var/folders/l5/0x54b2c10074c8bt31ycjvl80000gp/T//ccE2J0wy.s:355    .text.chSchGoSleepTimeoutS:0000000000000000 $a
/var/folders/l5/0x54b2c10074c8bt31ycjvl80000gp/T//ccE2J0wy.s:361    .text.chSchGoSleepTimeoutS:0000000000000000 chSchGoSleepTimeoutS
/var/folders/l5/0x54b2c10074c8bt31ycjvl80000gp/T//ccE2J0wy.s:449    .text.chSchGoSleepTimeoutS:0000000000000070 $d
/var/folders/l5/0x54b2c10074c8bt31ycjvl80000gp/T//ccE2J0wy.s:455    .text.chSchWakeupS:0000000000000000 $a
/var/folders/l5/0x54b2c10074c8bt31ycjvl80000gp/T//ccE2J0wy.s:461    .text.chSchWakeupS:0000000000000000 chSchWakeupS
/var/folders/l5/0x54b2c10074c8bt31ycjvl80000gp/T//ccE2J0wy.s:634    .text.chSchWakeupS:00000000000000a8 $d
/var/folders/l5/0x54b2c10074c8bt31ycjvl80000gp/T//ccE2J0wy.s:640    .text.chSchIsPreemptionRequired:0000000000000000 $a
/var/folders/l5/0x54b2c10074c8bt31ycjvl80000gp/T//ccE2J0wy.s:646    .text.chSchIsPreemptionRequired:0000000000000000 chSchIsPreemptionRequired
/var/folders/l5/0x54b2c10074c8bt31ycjvl80000gp/T//ccE2J0wy.s:694    .text.chSchIsPreemptionRequired:0000000000000040 $d
/var/folders/l5/0x54b2c10074c8bt31ycjvl80000gp/T//ccE2J0wy.s:699    .text.chSchDoRescheduleBehind:0000000000000000 $a
/var/folders/l5/0x54b2c10074c8bt31ycjvl80000gp/T//ccE2J0wy.s:705    .text.chSchDoRescheduleBehind:0000000000000000 chSchDoRescheduleBehind
/var/folders/l5/0x54b2c10074c8bt31ycjvl80000gp/T//ccE2J0wy.s:850    .text.chSchDoRescheduleBehind:0000000000000074 $d
/var/folders/l5/0x54b2c10074c8bt31ycjvl80000gp/T//ccE2J0wy.s:855    .text.chSchDoRescheduleAhead:0000000000000000 $a
/var/folders/l5/0x54b2c10074c8bt31ycjvl80000gp/T//ccE2J0wy.s:861    .text.chSchDoRescheduleAhead:0000000000000000 chSchDoRescheduleAhead
/var/folders/l5/0x54b2c10074c8bt31ycjvl80000gp/T//ccE2J0wy.s:970    .text.chSchDoRescheduleAhead:000000000000006c $d
/var/folders/l5/0x54b2c10074c8bt31ycjvl80000gp/T//ccE2J0wy.s:975    .text.chSchRescheduleS:0000000000000000 $a
/var/folders/l5/0x54b2c10074c8bt31ycjvl80000gp/T//ccE2J0wy.s:981    .text.chSchRescheduleS:0000000000000000 chSchRescheduleS
/var/folders/l5/0x54b2c10074c8bt31ycjvl80000gp/T//ccE2J0wy.s:1006   .text.chSchRescheduleS:0000000000000020 $d
/var/folders/l5/0x54b2c10074c8bt31ycjvl80000gp/T//ccE2J0wy.s:1011   .text.chSchDoReschedule:0000000000000000 $a
/var/folders/l5/0x54b2c10074c8bt31ycjvl80000gp/T//ccE2J0wy.s:1017   .text.chSchDoReschedule:0000000000000000 chSchDoReschedule
/var/folders/l5/0x54b2c10074c8bt31ycjvl80000gp/T//ccE2J0wy.s:1043   .text.chSchDoReschedule:000000000000001c $d

UNDEFINED SYMBOLS
_port_switch_arm
chVTSetI
chVTResetI
