ARM GAS  /var/folders/l5/0x54b2c10074c8bt31ycjvl80000gp/T//cc750Zzq.s 			page 1


   1              		.file	"chsys.c"
   2              		.text
   3              	.Ltext0:
   4              		.cfi_sections	.debug_frame
   5              		.section	.text._idle_thread,"ax",%progbits
   6              		.align	2
   7              		.global	_idle_thread
   8              		.arch armv6kz
   9              		.syntax unified
  10              		.arm
  11              		.fpu softvfp
  12              		.type	_idle_thread, %function
  13              	_idle_thread:
  14              	.LFB7:
  15              		.file 1 "../../../os/kernel/src/chsys.c"
  16              		.loc 1 54 28 view -0
  17              		.cfi_startproc
  18              		@ Volatile: function does not return.
  19              		@ args = 0, pretend = 0, frame = 0
  20              		@ frame_needed = 0, uses_anonymous_args = 0
  21              		@ link register save eliminated.
  22              	.LVL0:
  23              	.L2:
  24              		.loc 1 56 3 discriminator 1 view .LVU1
  25              		.loc 1 57 29 discriminator 1 view .LVU2
  26              		.loc 1 58 3 discriminator 1 view .LVU3
  27              		.loc 1 59 5 discriminator 1 view .LVU4
  28              		.syntax divided
  29              	@ 59 "../../../os/kernel/src/chsys.c" 1
  30 0000 900F07EE 		MCR p15,0,r0,c7,c0,4
  31              	@ 0 "" 2
  32              		.loc 1 59 30 discriminator 1 view .LVU5
  33              		.loc 1 60 5 discriminator 1 view .LVU6
  34              		.loc 1 60 21 discriminator 1 view .LVU7
  35              		.arm
  36              		.syntax unified
  37 0004 FDFFFFEA 		b	.L2
  38              		.cfi_endproc
  39              	.LFE7:
  40              		.size	_idle_thread, .-_idle_thread
  41              		.section	.text.chSysInit,"ax",%progbits
  42              		.align	2
  43              		.global	chSysInit
  44              		.syntax unified
  45              		.arm
  46              		.fpu softvfp
  47              		.type	chSysInit, %function
  48              	chSysInit:
  49              	.LFB8:
  50              		.loc 1 77 22 view -0
  51              		.cfi_startproc
  52              		@ args = 0, pretend = 0, frame = 0
  53              		@ frame_needed = 0, uses_anonymous_args = 0
  54              		.loc 1 78 3 view .LVU9
  55              		.loc 1 83 14 view .LVU10
  56              		.loc 1 84 3 view .LVU11
  57              		.loc 1 77 22 is_stmt 0 view .LVU12
ARM GAS  /var/folders/l5/0x54b2c10074c8bt31ycjvl80000gp/T//cc750Zzq.s 			page 2


  58 0000 04E02DE5 		str	lr, [sp, #-4]!
  59              		.cfi_def_cfa_offset 4
  60              		.cfi_offset 14, -4
  61 0004 04D04DE2 		sub	sp, sp, #4
  62              		.cfi_def_cfa_offset 8
  63              		.loc 1 84 3 view .LVU13
  64 0008 FEFFFFEB 		bl	_scheduler_init
  65              	.LVL1:
  66              		.loc 1 85 3 is_stmt 1 view .LVU14
  67 000c FEFFFFEB 		bl	_vt_init
  68              	.LVL2:
  69              		.loc 1 97 3 view .LVU15
  70 0010 4010A0E3 		mov	r1, #64
  71 0014 34009FE5 		ldr	r0, .L6
  72 0018 FEFFFFEB 		bl	_thread_init
  73              	.LVL3:
  74              		.loc 1 98 18 is_stmt 0 view .LVU16
  75 001c 0120A0E3 		mov	r2, #1
  76              		.loc 1 97 3 view .LVU17
  77 0020 2C309FE5 		ldr	r3, .L6+4
  78 0024 100083E5 		str	r0, [r3, #16]
  79              		.loc 1 98 3 is_stmt 1 view .LVU18
  80              		.loc 1 98 18 is_stmt 0 view .LVU19
  81 0028 1020C0E5 		strb	r2, [r0, #16]
  82              		.loc 1 104 3 is_stmt 1 view .LVU20
  83              		.loc 1 104 3 view .LVU21
  84              		.syntax divided
  85              	@ 104 "../../../os/kernel/src/chsys.c" 1
  86 002c 1FF021E3 		msr     CPSR_c, #0x1F
  87              	@ 0 "" 2
  88              		.loc 1 104 16 view .LVU22
  89              		.loc 1 108 46 view .LVU23
  90              		.loc 1 114 3 view .LVU24
  91              		.arm
  92              		.syntax unified
  93 0030 0030A0E3 		mov	r3, #0
  94 0034 8010A0E3 		mov	r1, #128
  95 0038 00308DE5 		str	r3, [sp]
  96 003c 14009FE5 		ldr	r0, .L6+8
  97 0040 14309FE5 		ldr	r3, .L6+12
  98 0044 FEFFFFEB 		bl	chThdCreateStatic
  99              	.LVL4:
 100              		.loc 1 117 1 is_stmt 0 view .LVU25
 101 0048 04D08DE2 		add	sp, sp, #4
 102              		.cfi_def_cfa_offset 4
 103              		@ sp needed
 104 004c 04F09DE4 		ldr	pc, [sp], #4
 105              	.L7:
 106              		.align	2
 107              	.L6:
 108 0050 00000000 		.word	.LANCHOR0
 109 0054 00000000 		.word	rlist
 110 0058 00000000 		.word	_idle_thread_wa
 111 005c 00000000 		.word	_idle_thread
 112              		.cfi_endproc
 113              	.LFE8:
 114              		.size	chSysInit, .-chSysInit
ARM GAS  /var/folders/l5/0x54b2c10074c8bt31ycjvl80000gp/T//cc750Zzq.s 			page 3


 115              		.section	.text.chSysTimerHandlerI,"ax",%progbits
 116              		.align	2
 117              		.global	chSysTimerHandlerI
 118              		.syntax unified
 119              		.arm
 120              		.fpu softvfp
 121              		.type	chSysTimerHandlerI, %function
 122              	chSysTimerHandlerI:
 123              	.LFB9:
 124              		.loc 1 130 31 is_stmt 1 view -0
 125              		.cfi_startproc
 126              		@ args = 0, pretend = 0, frame = 0
 127              		@ frame_needed = 0, uses_anonymous_args = 0
 128              		.loc 1 132 3 view .LVU27
 129              		.loc 1 132 21 view .LVU28
 130              		.loc 1 136 3 view .LVU29
 131              		.loc 1 130 31 is_stmt 0 view .LVU30
 132 0000 30402DE9 		push	{r4, r5, lr}
 133              		.cfi_def_cfa_offset 12
 134              		.cfi_offset 4, -12
 135              		.cfi_offset 5, -8
 136              		.cfi_offset 14, -4
 137              		.loc 1 136 7 view .LVU31
 138 0004 70309FE5 		ldr	r3, .L18
 139              		.loc 1 143 3 view .LVU32
 140 0008 70409FE5 		ldr	r4, .L18+4
 141              		.loc 1 136 7 view .LVU33
 142 000c 102093E5 		ldr	r2, [r3, #16]
 143              		.loc 1 136 12 view .LVU34
 144 0010 1230D2E5 		ldrb	r3, [r2, #18]	@ zero_extendqisi2
 145              		.loc 1 136 6 view .LVU35
 146 0014 000053E3 		cmp	r3, #0
 147              		.loc 1 138 5 is_stmt 1 view .LVU36
 148              		.loc 1 138 21 is_stmt 0 view .LVU37
 149 0018 01304312 		subne	r3, r3, #1
 150 001c 1230C215 		strbne	r3, [r2, #18]
 151              		.loc 1 143 3 is_stmt 1 view .LVU38
 152 0020 0C2094E5 		ldr	r2, [r4, #12]
 153 0024 003094E5 		ldr	r3, [r4]
 154 0028 012082E2 		add	r2, r2, #1
 155 002c 040053E1 		cmp	r3, r4
 156 0030 0C2084E5 		str	r2, [r4, #12]
 157              		.loc 1 143 3 view .LVU39
 158 0034 3080BD08 		popeq	{r4, r5, pc}
 159              	.LBB2:
 160              		.loc 1 143 3 discriminator 1 view .LVU40
 161              		.loc 1 143 3 discriminator 1 view .LVU41
 162 0038 085093E5 		ldr	r5, [r3, #8]
 163 003c 015045E2 		sub	r5, r5, #1
 164 0040 000055E3 		cmp	r5, #0
 165 0044 085083E5 		str	r5, [r3, #8]
 166              		.loc 1 143 3 discriminator 1 view .LVU42
 167              	.LBB3:
 168              		.loc 1 143 3 discriminator 1 view .LVU43
 169              		.loc 1 143 3 discriminator 1 view .LVU44
 170              		.loc 1 143 3 discriminator 1 view .LVU45
 171              	.LVL5:
ARM GAS  /var/folders/l5/0x54b2c10074c8bt31ycjvl80000gp/T//cc750Zzq.s 			page 4


 172              		.loc 1 143 3 is_stmt 0 discriminator 1 view .LVU46
 173              	.LBE3:
 174 0048 3080BD18 		popne	{r4, r5, pc}
 175              	.L11:
 176              	.LBB4:
 177              		.loc 1 143 3 is_stmt 1 discriminator 5 view .LVU47
 178 004c 002093E5 		ldr	r2, [r3]
 179 0050 0C1093E5 		ldr	r1, [r3, #12]
 180              	.LVL6:
 181              		.loc 1 143 3 discriminator 5 view .LVU48
 182 0054 100093E5 		ldr	r0, [r3, #16]
 183 0058 0C5083E5 		str	r5, [r3, #12]
 184              		.loc 1 143 3 discriminator 5 view .LVU49
 185 005c 002084E5 		str	r2, [r4]
 186 0060 044082E5 		str	r4, [r2, #4]
 187              		.loc 1 143 3 discriminator 5 view .LVU50
 188              		.loc 1 143 3 discriminator 5 view .LVU51
 189              		.loc 1 143 3 discriminator 5 view .LVU52
 190              		.loc 1 143 3 discriminator 5 view .LVU53
 191              		.loc 1 143 3 discriminator 5 view .LVU54
 192 0064 31FF2FE1 		blx	r1
 193              	.LVL7:
 194              		.loc 1 143 3 discriminator 5 view .LVU55
 195              		.loc 1 143 3 discriminator 5 view .LVU56
 196              		.loc 1 143 3 discriminator 5 view .LVU57
 197              	.LBE4:
 198 0068 003094E5 		ldr	r3, [r4]
 199              	.LVL8:
 200              		.loc 1 143 3 is_stmt 0 discriminator 5 view .LVU58
 201 006c 082093E5 		ldr	r2, [r3, #8]
 202 0070 000052E3 		cmp	r2, #0
 203 0074 F4FFFF0A 		beq	.L11
 204 0078 3080BDE8 		pop	{r4, r5, pc}
 205              	.L19:
 206              		.align	2
 207              	.L18:
 208 007c 00000000 		.word	rlist
 209 0080 00000000 		.word	vtlist
 210              	.LBE2:
 211              		.cfi_endproc
 212              	.LFE9:
 213              		.size	chSysTimerHandlerI, .-chSysTimerHandlerI
 214              		.comm	_idle_thread_wa,128,4
 215              		.section	.bss.mainthread.1930,"aw",%nobits
 216              		.align	2
 217              		.set	.LANCHOR0,. + 0
 218              		.type	mainthread.1930, %object
 219              		.size	mainthread.1930, 40
 220              	mainthread.1930:
 221 0000 00000000 		.space	40
 221      00000000 
 221      00000000 
 221      00000000 
 221      00000000 
 222              		.text
 223              	.Letext0:
 224              		.file 2 "/usr/local/Cellar/arm-gcc-bin/8-2019-q3-update/arm-none-eabi/include/machine/_default_typ
ARM GAS  /var/folders/l5/0x54b2c10074c8bt31ycjvl80000gp/T//cc750Zzq.s 			page 5


 225              		.file 3 "/usr/local/Cellar/arm-gcc-bin/8-2019-q3-update/arm-none-eabi/include/sys/_stdint.h"
 226              		.file 4 "../../../os/ports/GCC/ARM/chtypes.h"
 227              		.file 5 "../../../os/kernel/include/chlists.h"
 228              		.file 6 "../../../os/kernel/include/chthreads.h"
 229              		.file 7 "../../../os/ports/GCC/ARM/chcore.h"
 230              		.file 8 "../../../os/kernel/include/chvt.h"
 231              		.file 9 "../../../os/kernel/include/chschd.h"
 232              		.file 10 "../../../os/kernel/include/chmtx.h"
 233              		.file 11 "../../../os/kernel/include/ch.h"
 234              		.section	.debug_info,"",%progbits
 235              	.Ldebug_info0:
 236 0000 F9050000 		.4byte	0x5f9
 237 0004 0400     		.2byte	0x4
 238 0006 00000000 		.4byte	.Ldebug_abbrev0
 239 000a 04       		.byte	0x4
 240 000b 01       		.uleb128 0x1
 241 000c 90010000 		.4byte	.LASF73
 242 0010 0C       		.byte	0xc
 243 0011 DC000000 		.4byte	.LASF74
 244 0015 FB000000 		.4byte	.LASF75
 245 0019 18000000 		.4byte	.Ldebug_ranges0+0x18
 246 001d 00000000 		.4byte	0
 247 0021 00000000 		.4byte	.Ldebug_line0
 248 0025 02       		.uleb128 0x2
 249 0026 04       		.byte	0x4
 250 0027 05       		.byte	0x5
 251 0028 5D010000 		.4byte	.LASF0
 252 002c 02       		.uleb128 0x2
 253 002d 04       		.byte	0x4
 254 002e 07       		.byte	0x7
 255 002f 77030000 		.4byte	.LASF1
 256 0033 02       		.uleb128 0x2
 257 0034 01       		.byte	0x1
 258 0035 06       		.byte	0x6
 259 0036 97020000 		.4byte	.LASF2
 260 003a 03       		.uleb128 0x3
 261 003b 74010000 		.4byte	.LASF6
 262 003f 02       		.byte	0x2
 263 0040 2B       		.byte	0x2b
 264 0041 18       		.byte	0x18
 265 0042 46000000 		.4byte	0x46
 266 0046 02       		.uleb128 0x2
 267 0047 01       		.byte	0x1
 268 0048 08       		.byte	0x8
 269 0049 6F020000 		.4byte	.LASF3
 270 004d 02       		.uleb128 0x2
 271 004e 02       		.byte	0x2
 272 004f 05       		.byte	0x5
 273 0050 29000000 		.4byte	.LASF4
 274 0054 02       		.uleb128 0x2
 275 0055 02       		.byte	0x2
 276 0056 07       		.byte	0x7
 277 0057 EF020000 		.4byte	.LASF5
 278 005b 03       		.uleb128 0x3
 279 005c A1030000 		.4byte	.LASF7
 280 0060 02       		.byte	0x2
 281 0061 4D       		.byte	0x4d
ARM GAS  /var/folders/l5/0x54b2c10074c8bt31ycjvl80000gp/T//cc750Zzq.s 			page 6


 282 0062 18       		.byte	0x18
 283 0063 25000000 		.4byte	0x25
 284 0067 03       		.uleb128 0x3
 285 0068 6A000000 		.4byte	.LASF8
 286 006c 02       		.byte	0x2
 287 006d 4F       		.byte	0x4f
 288 006e 19       		.byte	0x19
 289 006f 2C000000 		.4byte	0x2c
 290 0073 02       		.uleb128 0x2
 291 0074 08       		.byte	0x8
 292 0075 05       		.byte	0x5
 293 0076 5C000000 		.4byte	.LASF9
 294 007a 02       		.uleb128 0x2
 295 007b 08       		.byte	0x8
 296 007c 07       		.byte	0x7
 297 007d A9020000 		.4byte	.LASF10
 298 0081 03       		.uleb128 0x3
 299 0082 AF000000 		.4byte	.LASF11
 300 0086 03       		.byte	0x3
 301 0087 18       		.byte	0x18
 302 0088 13       		.byte	0x13
 303 0089 3A000000 		.4byte	0x3a
 304 008d 03       		.uleb128 0x3
 305 008e 41030000 		.4byte	.LASF12
 306 0092 03       		.byte	0x3
 307 0093 2C       		.byte	0x2c
 308 0094 13       		.byte	0x13
 309 0095 5B000000 		.4byte	0x5b
 310 0099 03       		.uleb128 0x3
 311 009a C0020000 		.4byte	.LASF13
 312 009e 03       		.byte	0x3
 313 009f 30       		.byte	0x30
 314 00a0 14       		.byte	0x14
 315 00a1 67000000 		.4byte	0x67
 316 00a5 04       		.uleb128 0x4
 317 00a6 04       		.byte	0x4
 318 00a7 05       		.byte	0x5
 319 00a8 696E7400 		.ascii	"int\000"
 320 00ac 02       		.uleb128 0x2
 321 00ad 04       		.byte	0x4
 322 00ae 07       		.byte	0x7
 323 00af C9020000 		.4byte	.LASF14
 324 00b3 03       		.uleb128 0x3
 325 00b4 81000000 		.4byte	.LASF15
 326 00b8 04       		.byte	0x4
 327 00b9 2A       		.byte	0x2a
 328 00ba 19       		.byte	0x19
 329 00bb 81000000 		.4byte	0x81
 330 00bf 03       		.uleb128 0x3
 331 00c0 C5030000 		.4byte	.LASF16
 332 00c4 04       		.byte	0x4
 333 00c5 2B       		.byte	0x2b
 334 00c6 19       		.byte	0x19
 335 00c7 81000000 		.4byte	0x81
 336 00cb 03       		.uleb128 0x3
 337 00cc E5020000 		.4byte	.LASF17
 338 00d0 04       		.byte	0x4
ARM GAS  /var/folders/l5/0x54b2c10074c8bt31ycjvl80000gp/T//cc750Zzq.s 			page 7


 339 00d1 2D       		.byte	0x2d
 340 00d2 19       		.byte	0x19
 341 00d3 81000000 		.4byte	0x81
 342 00d7 03       		.uleb128 0x3
 343 00d8 4C010000 		.4byte	.LASF18
 344 00dc 04       		.byte	0x4
 345 00dd 2E       		.byte	0x2e
 346 00de 19       		.byte	0x19
 347 00df 99000000 		.4byte	0x99
 348 00e3 03       		.uleb128 0x3
 349 00e4 2B040000 		.4byte	.LASF19
 350 00e8 04       		.byte	0x4
 351 00e9 2F       		.byte	0x2f
 352 00ea 19       		.byte	0x19
 353 00eb 8D000000 		.4byte	0x8d
 354 00ef 03       		.uleb128 0x3
 355 00f0 75000000 		.4byte	.LASF20
 356 00f4 04       		.byte	0x4
 357 00f5 31       		.byte	0x31
 358 00f6 19       		.byte	0x19
 359 00f7 99000000 		.4byte	0x99
 360 00fb 03       		.uleb128 0x3
 361 00fc 1F030000 		.4byte	.LASF21
 362 0100 04       		.byte	0x4
 363 0101 33       		.byte	0x33
 364 0102 19       		.byte	0x19
 365 0103 99000000 		.4byte	0x99
 366 0107 05       		.uleb128 0x5
 367 0108 FB000000 		.4byte	0xfb
 368 010c 03       		.uleb128 0x3
 369 010d CE030000 		.4byte	.LASF22
 370 0111 05       		.byte	0x5
 371 0112 23       		.byte	0x23
 372 0113 17       		.byte	0x17
 373 0114 18010000 		.4byte	0x118
 374 0118 06       		.uleb128 0x6
 375 0119 CE030000 		.4byte	.LASF22
 376 011d 28       		.byte	0x28
 377 011e 06       		.byte	0x6
 378 011f 57       		.byte	0x57
 379 0120 08       		.byte	0x8
 380 0121 C2010000 		.4byte	0x1c2
 381 0125 07       		.uleb128 0x7
 382 0126 89000000 		.4byte	.LASF23
 383 012a 06       		.byte	0x6
 384 012b 58       		.byte	0x58
 385 012c 1A       		.byte	0x1a
 386 012d E6010000 		.4byte	0x1e6
 387 0131 00       		.byte	0
 388 0132 07       		.uleb128 0x7
 389 0133 42000000 		.4byte	.LASF24
 390 0137 06       		.byte	0x6
 391 0138 5A       		.byte	0x5a
 392 0139 1A       		.byte	0x1a
 393 013a E6010000 		.4byte	0x1e6
 394 013e 04       		.byte	0x4
 395 013f 07       		.uleb128 0x7
ARM GAS  /var/folders/l5/0x54b2c10074c8bt31ycjvl80000gp/T//cc750Zzq.s 			page 8


 396 0140 0B000000 		.4byte	.LASF25
 397 0144 06       		.byte	0x6
 398 0145 5C       		.byte	0x5c
 399 0146 19       		.byte	0x19
 400 0147 D7000000 		.4byte	0xd7
 401 014b 08       		.byte	0x8
 402 014c 07       		.uleb128 0x7
 403 014d 0E040000 		.4byte	.LASF26
 404 0151 06       		.byte	0x6
 405 0152 5D       		.byte	0x5d
 406 0153 19       		.byte	0x19
 407 0154 B1020000 		.4byte	0x2b1
 408 0158 0C       		.byte	0xc
 409 0159 07       		.uleb128 0x7
 410 015a 49030000 		.4byte	.LASF27
 411 015e 06       		.byte	0x6
 412 015f 72       		.byte	0x72
 413 0160 19       		.byte	0x19
 414 0161 BF000000 		.4byte	0xbf
 415 0165 10       		.byte	0x10
 416 0166 07       		.uleb128 0x7
 417 0167 02030000 		.4byte	.LASF28
 418 016b 06       		.byte	0x6
 419 016c 76       		.byte	0x76
 420 016d 19       		.byte	0x19
 421 016e B3000000 		.4byte	0xb3
 422 0172 11       		.byte	0x11
 423 0173 07       		.uleb128 0x7
 424 0174 0A030000 		.4byte	.LASF29
 425 0178 06       		.byte	0x6
 426 0179 81       		.byte	0x81
 427 017a 19       		.byte	0x19
 428 017b CB000000 		.4byte	0xcb
 429 017f 12       		.byte	0x12
 430 0180 08       		.uleb128 0x8
 431 0181 705F7500 		.ascii	"p_u\000"
 432 0185 06       		.byte	0x6
 433 0186 AD       		.byte	0xad
 434 0187 19       		.byte	0x19
 435 0188 43040000 		.4byte	0x443
 436 018c 14       		.byte	0x14
 437 018d 07       		.uleb128 0x7
 438 018e 58030000 		.4byte	.LASF30
 439 0192 06       		.byte	0x6
 440 0193 B2       		.byte	0xb2
 441 0194 19       		.byte	0x19
 442 0195 0F020000 		.4byte	0x20f
 443 0199 18       		.byte	0x18
 444 019a 07       		.uleb128 0x7
 445 019b 00000000 		.4byte	.LASF31
 446 019f 06       		.byte	0x6
 447 01a0 C2       		.byte	0xc2
 448 01a1 19       		.byte	0x19
 449 01a2 EF000000 		.4byte	0xef
 450 01a6 1C       		.byte	0x1c
 451 01a7 07       		.uleb128 0x7
 452 01a8 62030000 		.4byte	.LASF32
ARM GAS  /var/folders/l5/0x54b2c10074c8bt31ycjvl80000gp/T//cc750Zzq.s 			page 9


 453 01ac 06       		.byte	0x6
 454 01ad C9       		.byte	0xc9
 455 01ae 1A       		.byte	0x1a
 456 01af 7D040000 		.4byte	0x47d
 457 01b3 20       		.byte	0x20
 458 01b4 07       		.uleb128 0x7
 459 01b5 14030000 		.4byte	.LASF33
 460 01b9 06       		.byte	0x6
 461 01ba CD       		.byte	0xcd
 462 01bb 19       		.byte	0x19
 463 01bc D7000000 		.4byte	0xd7
 464 01c0 24       		.byte	0x24
 465 01c1 00       		.byte	0
 466 01c2 09       		.uleb128 0x9
 467 01c3 08       		.byte	0x8
 468 01c4 05       		.byte	0x5
 469 01c5 5A       		.byte	0x5a
 470 01c6 09       		.byte	0x9
 471 01c7 E6010000 		.4byte	0x1e6
 472 01cb 07       		.uleb128 0x7
 473 01cc 89000000 		.4byte	.LASF23
 474 01d0 05       		.byte	0x5
 475 01d1 5B       		.byte	0x5b
 476 01d2 1A       		.byte	0x1a
 477 01d3 E6010000 		.4byte	0x1e6
 478 01d7 00       		.byte	0
 479 01d8 07       		.uleb128 0x7
 480 01d9 42000000 		.4byte	.LASF24
 481 01dd 05       		.byte	0x5
 482 01de 5D       		.byte	0x5d
 483 01df 1A       		.byte	0x1a
 484 01e0 E6010000 		.4byte	0x1e6
 485 01e4 04       		.byte	0x4
 486 01e5 00       		.byte	0
 487 01e6 0A       		.uleb128 0xa
 488 01e7 04       		.byte	0x4
 489 01e8 0C010000 		.4byte	0x10c
 490 01ec 03       		.uleb128 0x3
 491 01ed 7D020000 		.4byte	.LASF34
 492 01f1 05       		.byte	0x5
 493 01f2 5F       		.byte	0x5f
 494 01f3 03       		.byte	0x3
 495 01f4 C2010000 		.4byte	0x1c2
 496 01f8 09       		.uleb128 0x9
 497 01f9 04       		.byte	0x4
 498 01fa 05       		.byte	0x5
 499 01fb 64       		.byte	0x64
 500 01fc 09       		.byte	0x9
 501 01fd 0F020000 		.4byte	0x20f
 502 0201 07       		.uleb128 0x7
 503 0202 89000000 		.4byte	.LASF23
 504 0206 05       		.byte	0x5
 505 0207 66       		.byte	0x66
 506 0208 16       		.byte	0x16
 507 0209 E6010000 		.4byte	0x1e6
 508 020d 00       		.byte	0
 509 020e 00       		.byte	0
ARM GAS  /var/folders/l5/0x54b2c10074c8bt31ycjvl80000gp/T//cc750Zzq.s 			page 10


 510 020f 03       		.uleb128 0x3
 511 0210 1D000000 		.4byte	.LASF35
 512 0214 05       		.byte	0x5
 513 0215 69       		.byte	0x69
 514 0216 03       		.byte	0x3
 515 0217 F8010000 		.4byte	0x1f8
 516 021b 03       		.uleb128 0x3
 517 021c 6C030000 		.4byte	.LASF36
 518 0220 07       		.byte	0x7
 519 0221 9D       		.byte	0x9d
 520 0222 12       		.byte	0x12
 521 0223 99000000 		.4byte	0x99
 522 0227 03       		.uleb128 0x3
 523 0228 A6000000 		.4byte	.LASF37
 524 022c 07       		.byte	0x7
 525 022d A2       		.byte	0xa2
 526 022e 0F       		.byte	0xf
 527 022f 33020000 		.4byte	0x233
 528 0233 0B       		.uleb128 0xb
 529 0234 04       		.byte	0x4
 530 0235 06       		.uleb128 0x6
 531 0236 51030000 		.4byte	.LASF38
 532 023a 24       		.byte	0x24
 533 023b 07       		.byte	0x7
 534 023c B9       		.byte	0xb9
 535 023d 08       		.byte	0x8
 536 023e B1020000 		.4byte	0x2b1
 537 0242 08       		.uleb128 0x8
 538 0243 723400   		.ascii	"r4\000"
 539 0246 07       		.byte	0x7
 540 0247 BA       		.byte	0xba
 541 0248 11       		.byte	0x11
 542 0249 27020000 		.4byte	0x227
 543 024d 00       		.byte	0
 544 024e 08       		.uleb128 0x8
 545 024f 723500   		.ascii	"r5\000"
 546 0252 07       		.byte	0x7
 547 0253 BB       		.byte	0xbb
 548 0254 11       		.byte	0x11
 549 0255 27020000 		.4byte	0x227
 550 0259 04       		.byte	0x4
 551 025a 08       		.uleb128 0x8
 552 025b 723600   		.ascii	"r6\000"
 553 025e 07       		.byte	0x7
 554 025f BC       		.byte	0xbc
 555 0260 11       		.byte	0x11
 556 0261 27020000 		.4byte	0x227
 557 0265 08       		.byte	0x8
 558 0266 08       		.uleb128 0x8
 559 0267 723700   		.ascii	"r7\000"
 560 026a 07       		.byte	0x7
 561 026b BD       		.byte	0xbd
 562 026c 11       		.byte	0x11
 563 026d 27020000 		.4byte	0x227
 564 0271 0C       		.byte	0xc
 565 0272 08       		.uleb128 0x8
 566 0273 723800   		.ascii	"r8\000"
ARM GAS  /var/folders/l5/0x54b2c10074c8bt31ycjvl80000gp/T//cc750Zzq.s 			page 11


 567 0276 07       		.byte	0x7
 568 0277 BE       		.byte	0xbe
 569 0278 11       		.byte	0x11
 570 0279 27020000 		.4byte	0x227
 571 027d 10       		.byte	0x10
 572 027e 08       		.uleb128 0x8
 573 027f 723900   		.ascii	"r9\000"
 574 0282 07       		.byte	0x7
 575 0283 BF       		.byte	0xbf
 576 0284 11       		.byte	0x11
 577 0285 27020000 		.4byte	0x227
 578 0289 14       		.byte	0x14
 579 028a 08       		.uleb128 0x8
 580 028b 72313000 		.ascii	"r10\000"
 581 028f 07       		.byte	0x7
 582 0290 C0       		.byte	0xc0
 583 0291 11       		.byte	0x11
 584 0292 27020000 		.4byte	0x227
 585 0296 18       		.byte	0x18
 586 0297 08       		.uleb128 0x8
 587 0298 72313100 		.ascii	"r11\000"
 588 029c 07       		.byte	0x7
 589 029d C1       		.byte	0xc1
 590 029e 11       		.byte	0x11
 591 029f 27020000 		.4byte	0x227
 592 02a3 1C       		.byte	0x1c
 593 02a4 08       		.uleb128 0x8
 594 02a5 6C7200   		.ascii	"lr\000"
 595 02a8 07       		.byte	0x7
 596 02a9 C2       		.byte	0xc2
 597 02aa 11       		.byte	0x11
 598 02ab 27020000 		.4byte	0x227
 599 02af 20       		.byte	0x20
 600 02b0 00       		.byte	0
 601 02b1 06       		.uleb128 0x6
 602 02b2 7E010000 		.4byte	.LASF39
 603 02b6 04       		.byte	0x4
 604 02b7 07       		.byte	0x7
 605 02b8 CA       		.byte	0xca
 606 02b9 08       		.byte	0x8
 607 02ba CC020000 		.4byte	0x2cc
 608 02be 08       		.uleb128 0x8
 609 02bf 72313300 		.ascii	"r13\000"
 610 02c3 07       		.byte	0x7
 611 02c4 CB       		.byte	0xcb
 612 02c5 12       		.byte	0x12
 613 02c6 CC020000 		.4byte	0x2cc
 614 02ca 00       		.byte	0
 615 02cb 00       		.byte	0
 616 02cc 0A       		.uleb128 0xa
 617 02cd 04       		.byte	0x4
 618 02ce 35020000 		.4byte	0x235
 619 02d2 03       		.uleb128 0x3
 620 02d3 F1030000 		.4byte	.LASF40
 621 02d7 08       		.byte	0x8
 622 02d8 4E       		.byte	0x4e
 623 02d9 10       		.byte	0x10
ARM GAS  /var/folders/l5/0x54b2c10074c8bt31ycjvl80000gp/T//cc750Zzq.s 			page 12


 624 02da DE020000 		.4byte	0x2de
 625 02de 0A       		.uleb128 0xa
 626 02df 04       		.byte	0x4
 627 02e0 E4020000 		.4byte	0x2e4
 628 02e4 0C       		.uleb128 0xc
 629 02e5 EF020000 		.4byte	0x2ef
 630 02e9 0D       		.uleb128 0xd
 631 02ea 33020000 		.4byte	0x233
 632 02ee 00       		.byte	0
 633 02ef 03       		.uleb128 0x3
 634 02f0 FA030000 		.4byte	.LASF41
 635 02f4 08       		.byte	0x8
 636 02f5 53       		.byte	0x53
 637 02f6 1D       		.byte	0x1d
 638 02f7 FB020000 		.4byte	0x2fb
 639 02fb 06       		.uleb128 0x6
 640 02fc FA030000 		.4byte	.LASF41
 641 0300 14       		.byte	0x14
 642 0301 08       		.byte	0x8
 643 0302 5A       		.byte	0x5a
 644 0303 08       		.byte	0x8
 645 0304 4A030000 		.4byte	0x34a
 646 0308 07       		.uleb128 0x7
 647 0309 D6020000 		.4byte	.LASF42
 648 030d 08       		.byte	0x8
 649 030e 5B       		.byte	0x5b
 650 030f 1A       		.byte	0x1a
 651 0310 4A030000 		.4byte	0x34a
 652 0314 00       		.byte	0
 653 0315 07       		.uleb128 0x7
 654 0316 99030000 		.4byte	.LASF43
 655 031a 08       		.byte	0x8
 656 031b 5D       		.byte	0x5d
 657 031c 1A       		.byte	0x1a
 658 031d 4A030000 		.4byte	0x34a
 659 0321 04       		.byte	0x4
 660 0322 07       		.uleb128 0x7
 661 0323 23040000 		.4byte	.LASF44
 662 0327 08       		.byte	0x8
 663 0328 5F       		.byte	0x5f
 664 0329 19       		.byte	0x19
 665 032a FB000000 		.4byte	0xfb
 666 032e 08       		.byte	0x8
 667 032f 07       		.uleb128 0x7
 668 0330 9E000000 		.4byte	.LASF45
 669 0334 08       		.byte	0x8
 670 0335 60       		.byte	0x60
 671 0336 19       		.byte	0x19
 672 0337 D2020000 		.4byte	0x2d2
 673 033b 0C       		.byte	0xc
 674 033c 07       		.uleb128 0x7
 675 033d 97000000 		.4byte	.LASF46
 676 0341 08       		.byte	0x8
 677 0342 62       		.byte	0x62
 678 0343 1A       		.byte	0x1a
 679 0344 33020000 		.4byte	0x233
 680 0348 10       		.byte	0x10
ARM GAS  /var/folders/l5/0x54b2c10074c8bt31ycjvl80000gp/T//cc750Zzq.s 			page 13


 681 0349 00       		.byte	0
 682 034a 0A       		.uleb128 0xa
 683 034b 04       		.byte	0x4
 684 034c EF020000 		.4byte	0x2ef
 685 0350 09       		.uleb128 0x9
 686 0351 10       		.byte	0x10
 687 0352 08       		.byte	0x8
 688 0353 6C       		.byte	0x6c
 689 0354 09       		.byte	0x9
 690 0355 8E030000 		.4byte	0x38e
 691 0359 07       		.uleb128 0x7
 692 035a D6020000 		.4byte	.LASF42
 693 035e 08       		.byte	0x8
 694 035f 6D       		.byte	0x6d
 695 0360 1A       		.byte	0x1a
 696 0361 4A030000 		.4byte	0x34a
 697 0365 00       		.byte	0
 698 0366 07       		.uleb128 0x7
 699 0367 99030000 		.4byte	.LASF43
 700 036b 08       		.byte	0x8
 701 036c 6F       		.byte	0x6f
 702 036d 1A       		.byte	0x1a
 703 036e 4A030000 		.4byte	0x34a
 704 0372 04       		.byte	0x4
 705 0373 07       		.uleb128 0x7
 706 0374 23040000 		.4byte	.LASF44
 707 0378 08       		.byte	0x8
 708 0379 71       		.byte	0x71
 709 037a 19       		.byte	0x19
 710 037b FB000000 		.4byte	0xfb
 711 037f 08       		.byte	0x8
 712 0380 07       		.uleb128 0x7
 713 0381 C0000000 		.4byte	.LASF47
 714 0385 08       		.byte	0x8
 715 0386 72       		.byte	0x72
 716 0387 19       		.byte	0x19
 717 0388 07010000 		.4byte	0x107
 718 038c 0C       		.byte	0xc
 719 038d 00       		.byte	0
 720 038e 03       		.uleb128 0x3
 721 038f 07040000 		.4byte	.LASF48
 722 0393 08       		.byte	0x8
 723 0394 73       		.byte	0x73
 724 0395 03       		.byte	0x3
 725 0396 50030000 		.4byte	0x350
 726 039a 0E       		.uleb128 0xe
 727 039b 90000000 		.4byte	.LASF54
 728 039f 08       		.byte	0x8
 729 03a0 D1       		.byte	0xd1
 730 03a1 0F       		.byte	0xf
 731 03a2 8E030000 		.4byte	0x38e
 732 03a6 09       		.uleb128 0x9
 733 03a7 14       		.byte	0x14
 734 03a8 09       		.byte	0x9
 735 03a9 57       		.byte	0x57
 736 03aa 09       		.byte	0x9
 737 03ab E4030000 		.4byte	0x3e4
ARM GAS  /var/folders/l5/0x54b2c10074c8bt31ycjvl80000gp/T//cc750Zzq.s 			page 14


 738 03af 07       		.uleb128 0x7
 739 03b0 33000000 		.4byte	.LASF49
 740 03b4 09       		.byte	0x9
 741 03b5 58       		.byte	0x58
 742 03b6 19       		.byte	0x19
 743 03b7 EC010000 		.4byte	0x1ec
 744 03bb 00       		.byte	0
 745 03bc 07       		.uleb128 0x7
 746 03bd D5000000 		.4byte	.LASF50
 747 03c1 09       		.byte	0x9
 748 03c2 59       		.byte	0x59
 749 03c3 19       		.byte	0x19
 750 03c4 D7000000 		.4byte	0xd7
 751 03c8 08       		.byte	0x8
 752 03c9 07       		.uleb128 0x7
 753 03ca 49000000 		.4byte	.LASF51
 754 03ce 09       		.byte	0x9
 755 03cf 5B       		.byte	0x5b
 756 03d0 19       		.byte	0x19
 757 03d1 B1020000 		.4byte	0x2b1
 758 03d5 0C       		.byte	0xc
 759 03d6 07       		.uleb128 0x7
 760 03d7 86010000 		.4byte	.LASF52
 761 03db 09       		.byte	0x9
 762 03dc 62       		.byte	0x62
 763 03dd 1A       		.byte	0x1a
 764 03de E6010000 		.4byte	0x1e6
 765 03e2 10       		.byte	0x10
 766 03e3 00       		.byte	0
 767 03e4 03       		.uleb128 0x3
 768 03e5 D5030000 		.4byte	.LASF53
 769 03e9 09       		.byte	0x9
 770 03ea 64       		.byte	0x64
 771 03eb 03       		.byte	0x3
 772 03ec A6030000 		.4byte	0x3a6
 773 03f0 0E       		.uleb128 0xe
 774 03f1 A3020000 		.4byte	.LASF55
 775 03f5 09       		.byte	0x9
 776 03f6 68       		.byte	0x68
 777 03f7 12       		.byte	0x12
 778 03f8 E4030000 		.4byte	0x3e4
 779 03fc 06       		.uleb128 0x6
 780 03fd 66010000 		.4byte	.LASF56
 781 0401 10       		.byte	0x10
 782 0402 0A       		.byte	0xa
 783 0403 25       		.byte	0x25
 784 0404 10       		.byte	0x10
 785 0405 31040000 		.4byte	0x431
 786 0409 07       		.uleb128 0x7
 787 040a 6C010000 		.4byte	.LASF57
 788 040e 0A       		.byte	0xa
 789 040f 26       		.byte	0x26
 790 0410 19       		.byte	0x19
 791 0411 EC010000 		.4byte	0x1ec
 792 0415 00       		.byte	0
 793 0416 07       		.uleb128 0x7
 794 0417 14040000 		.4byte	.LASF58
ARM GAS  /var/folders/l5/0x54b2c10074c8bt31ycjvl80000gp/T//cc750Zzq.s 			page 15


 795 041b 0A       		.byte	0xa
 796 041c 28       		.byte	0x28
 797 041d 1A       		.byte	0x1a
 798 041e E6010000 		.4byte	0x1e6
 799 0422 08       		.byte	0x8
 800 0423 07       		.uleb128 0x7
 801 0424 3B000000 		.4byte	.LASF59
 802 0428 0A       		.byte	0xa
 803 0429 2A       		.byte	0x2a
 804 042a 1A       		.byte	0x1a
 805 042b 31040000 		.4byte	0x431
 806 042f 0C       		.byte	0xc
 807 0430 00       		.byte	0
 808 0431 0A       		.uleb128 0xa
 809 0432 04       		.byte	0x4
 810 0433 FC030000 		.4byte	0x3fc
 811 0437 03       		.uleb128 0x3
 812 0438 66010000 		.4byte	.LASF56
 813 043c 0A       		.byte	0xa
 814 043d 2C       		.byte	0x2c
 815 043e 03       		.byte	0x3
 816 043f FC030000 		.4byte	0x3fc
 817 0443 0F       		.uleb128 0xf
 818 0444 04       		.byte	0x4
 819 0445 06       		.byte	0x6
 820 0446 8F       		.byte	0x8f
 821 0447 03       		.byte	0x3
 822 0448 7D040000 		.4byte	0x47d
 823 044c 10       		.uleb128 0x10
 824 044d 1C040000 		.4byte	.LASF60
 825 0451 06       		.byte	0x6
 826 0452 96       		.byte	0x96
 827 0453 19       		.byte	0x19
 828 0454 E3000000 		.4byte	0xe3
 829 0458 10       		.uleb128 0x10
 830 0459 B7000000 		.4byte	.LASF61
 831 045d 06       		.byte	0x6
 832 045e 9D       		.byte	0x9d
 833 045f 19       		.byte	0x19
 834 0460 E3000000 		.4byte	0xe3
 835 0464 10       		.uleb128 0x10
 836 0465 BE030000 		.4byte	.LASF62
 837 0469 06       		.byte	0x6
 838 046a A4       		.byte	0xa4
 839 046b 1A       		.byte	0x1a
 840 046c 33020000 		.4byte	0x233
 841 0470 10       		.uleb128 0x10
 842 0471 DE020000 		.4byte	.LASF63
 843 0475 06       		.byte	0x6
 844 0476 AB       		.byte	0xab
 845 0477 19       		.byte	0x19
 846 0478 EF000000 		.4byte	0xef
 847 047c 00       		.byte	0
 848 047d 0A       		.uleb128 0xa
 849 047e 04       		.byte	0x4
 850 047f 37040000 		.4byte	0x437
 851 0483 03       		.uleb128 0x3
ARM GAS  /var/folders/l5/0x54b2c10074c8bt31ycjvl80000gp/T//cc750Zzq.s 			page 16


 852 0484 39030000 		.4byte	.LASF64
 853 0488 06       		.byte	0x6
 854 0489 DE       		.byte	0xde
 855 048a 11       		.byte	0x11
 856 048b 8F040000 		.4byte	0x48f
 857 048f 0A       		.uleb128 0xa
 858 0490 04       		.byte	0x4
 859 0491 95040000 		.4byte	0x495
 860 0495 11       		.uleb128 0x11
 861 0496 E3000000 		.4byte	0xe3
 862 049a A4040000 		.4byte	0x4a4
 863 049e 0D       		.uleb128 0xd
 864 049f 33020000 		.4byte	0x233
 865 04a3 00       		.byte	0
 866 04a4 12       		.uleb128 0x12
 867 04a5 1B020000 		.4byte	0x21b
 868 04a9 B4040000 		.4byte	0x4b4
 869 04ad 13       		.uleb128 0x13
 870 04ae 2C000000 		.4byte	0x2c
 871 04b2 1F       		.byte	0x1f
 872 04b3 00       		.byte	0
 873 04b4 0E       		.uleb128 0xe
 874 04b5 29030000 		.4byte	.LASF65
 875 04b9 0B       		.byte	0xb
 876 04ba 82       		.byte	0x82
 877 04bb 08       		.byte	0x8
 878 04bc A4040000 		.4byte	0x4a4
 879 04c0 14       		.uleb128 0x14
 880 04c1 B4040000 		.4byte	0x4b4
 881 04c5 01       		.byte	0x1
 882 04c6 2A       		.byte	0x2a
 883 04c7 01       		.byte	0x1
 884 04c8 05       		.uleb128 0x5
 885 04c9 03       		.byte	0x3
 886 04ca 00000000 		.4byte	_idle_thread_wa
 887 04ce 15       		.uleb128 0x15
 888 04cf AB030000 		.4byte	.LASF66
 889 04d3 01       		.byte	0x1
 890 04d4 82       		.byte	0x82
 891 04d5 06       		.byte	0x6
 892 04d6 00000000 		.4byte	.LFB9
 893 04da 84000000 		.4byte	.LFE9-.LFB9
 894 04de 01       		.uleb128 0x1
 895 04df 9C       		.byte	0x9c
 896 04e0 1C050000 		.4byte	0x51c
 897 04e4 16       		.uleb128 0x16
 898 04e5 38000000 		.4byte	.LBB2
 899 04e9 4C000000 		.4byte	.LBE2-.LBB2
 900 04ed 17       		.uleb128 0x17
 901 04ee 76747000 		.ascii	"vtp\000"
 902 04f2 01       		.byte	0x1
 903 04f3 8F       		.byte	0x8f
 904 04f4 03       		.byte	0x3
 905 04f5 4A030000 		.4byte	0x34a
 906 04f9 04000000 		.4byte	.LLST1
 907 04fd 00000000 		.4byte	.LVUS1
 908 0501 18       		.uleb128 0x18
ARM GAS  /var/folders/l5/0x54b2c10074c8bt31ycjvl80000gp/T//cc750Zzq.s 			page 17


 909 0502 00000000 		.4byte	.Ldebug_ranges0+0
 910 0506 17       		.uleb128 0x17
 911 0507 666E00   		.ascii	"fn\000"
 912 050a 01       		.byte	0x1
 913 050b 8F       		.byte	0x8f
 914 050c 03       		.byte	0x3
 915 050d D2020000 		.4byte	0x2d2
 916 0511 24000000 		.4byte	.LLST2
 917 0515 22000000 		.4byte	.LVUS2
 918 0519 00       		.byte	0
 919 051a 00       		.byte	0
 920 051b 00       		.byte	0
 921 051c 19       		.uleb128 0x19
 922 051d CB000000 		.4byte	.LASF67
 923 0521 01       		.byte	0x1
 924 0522 4D       		.byte	0x4d
 925 0523 06       		.byte	0x6
 926 0524 00000000 		.4byte	.LFB8
 927 0528 60000000 		.4byte	.LFE8-.LFB8
 928 052c 01       		.uleb128 0x1
 929 052d 9C       		.byte	0x9c
 930 052e A1050000 		.4byte	0x5a1
 931 0532 1A       		.uleb128 0x1a
 932 0533 12000000 		.4byte	.LASF76
 933 0537 01       		.byte	0x1
 934 0538 4E       		.byte	0x4e
 935 0539 11       		.byte	0x11
 936 053a 0C010000 		.4byte	0x10c
 937 053e 05       		.uleb128 0x5
 938 053f 03       		.byte	0x3
 939 0540 00000000 		.4byte	mainthread.1930
 940 0544 1B       		.uleb128 0x1b
 941 0545 0C000000 		.4byte	.LVL1
 942 0549 CA050000 		.4byte	0x5ca
 943 054d 1B       		.uleb128 0x1b
 944 054e 10000000 		.4byte	.LVL2
 945 0552 D6050000 		.4byte	0x5d6
 946 0556 1C       		.uleb128 0x1c
 947 0557 1C000000 		.4byte	.LVL3
 948 055b E2050000 		.4byte	0x5e2
 949 055f 73050000 		.4byte	0x573
 950 0563 1D       		.uleb128 0x1d
 951 0564 01       		.uleb128 0x1
 952 0565 50       		.byte	0x50
 953 0566 05       		.uleb128 0x5
 954 0567 03       		.byte	0x3
 955 0568 00000000 		.4byte	.LANCHOR0
 956 056c 1D       		.uleb128 0x1d
 957 056d 01       		.uleb128 0x1
 958 056e 51       		.byte	0x51
 959 056f 02       		.uleb128 0x2
 960 0570 08       		.byte	0x8
 961 0571 40       		.byte	0x40
 962 0572 00       		.byte	0
 963 0573 1E       		.uleb128 0x1e
 964 0574 48000000 		.4byte	.LVL4
 965 0578 EF050000 		.4byte	0x5ef
ARM GAS  /var/folders/l5/0x54b2c10074c8bt31ycjvl80000gp/T//cc750Zzq.s 			page 18


 966 057c 1D       		.uleb128 0x1d
 967 057d 01       		.uleb128 0x1
 968 057e 50       		.byte	0x50
 969 057f 05       		.uleb128 0x5
 970 0580 03       		.byte	0x3
 971 0581 00000000 		.4byte	_idle_thread_wa
 972 0585 1D       		.uleb128 0x1d
 973 0586 01       		.uleb128 0x1
 974 0587 51       		.byte	0x51
 975 0588 02       		.uleb128 0x2
 976 0589 08       		.byte	0x8
 977 058a 80       		.byte	0x80
 978 058b 1D       		.uleb128 0x1d
 979 058c 01       		.uleb128 0x1
 980 058d 52       		.byte	0x52
 981 058e 01       		.uleb128 0x1
 982 058f 31       		.byte	0x31
 983 0590 1D       		.uleb128 0x1d
 984 0591 01       		.uleb128 0x1
 985 0592 53       		.byte	0x53
 986 0593 05       		.uleb128 0x5
 987 0594 03       		.byte	0x3
 988 0595 00000000 		.4byte	_idle_thread
 989 0599 1D       		.uleb128 0x1d
 990 059a 02       		.uleb128 0x2
 991 059b 7D       		.byte	0x7d
 992 059c 00       		.sleb128 0
 993 059d 01       		.uleb128 0x1
 994 059e 30       		.byte	0x30
 995 059f 00       		.byte	0
 996 05a0 00       		.byte	0
 997 05a1 19       		.uleb128 0x19
 998 05a2 8A020000 		.4byte	.LASF68
 999 05a6 01       		.byte	0x1
 1000 05a7 36       		.byte	0x36
 1001 05a8 06       		.byte	0x6
 1002 05a9 00000000 		.4byte	.LFB7
 1003 05ad 08000000 		.4byte	.LFE7-.LFB7
 1004 05b1 01       		.uleb128 0x1
 1005 05b2 9C       		.byte	0x9c
 1006 05b3 CA050000 		.4byte	0x5ca
 1007 05b7 1F       		.uleb128 0x1f
 1008 05b8 7000     		.ascii	"p\000"
 1009 05ba 01       		.byte	0x1
 1010 05bb 36       		.byte	0x36
 1011 05bc 19       		.byte	0x19
 1012 05bd 33020000 		.4byte	0x233
 1013 05c1 39000000 		.4byte	.LLST0
 1014 05c5 37000000 		.4byte	.LVUS0
 1015 05c9 00       		.byte	0
 1016 05ca 20       		.uleb128 0x20
 1017 05cb 89030000 		.4byte	.LASF69
 1018 05cf 89030000 		.4byte	.LASF69
 1019 05d3 09       		.byte	0x9
 1020 05d4 87       		.byte	0x87
 1021 05d5 08       		.byte	0x8
 1022 05d6 20       		.uleb128 0x20
ARM GAS  /var/folders/l5/0x54b2c10074c8bt31ycjvl80000gp/T//cc750Zzq.s 			page 19


 1023 05d7 54010000 		.4byte	.LASF70
 1024 05db 54010000 		.4byte	.LASF70
 1025 05df 08       		.byte	0x8
 1026 05e0 D9       		.byte	0xd9
 1027 05e1 08       		.byte	0x8
 1028 05e2 21       		.uleb128 0x21
 1029 05e3 4F000000 		.4byte	.LASF71
 1030 05e7 4F000000 		.4byte	.LASF71
 1031 05eb 06       		.byte	0x6
 1032 05ec 5E01     		.2byte	0x15e
 1033 05ee 0B       		.byte	0xb
 1034 05ef 21       		.uleb128 0x21
 1035 05f0 DF030000 		.4byte	.LASF72
 1036 05f4 DF030000 		.4byte	.LASF72
 1037 05f8 06       		.byte	0x6
 1038 05f9 6401     		.2byte	0x164
 1039 05fb 0B       		.byte	0xb
 1040 05fc 00       		.byte	0
 1041              		.section	.debug_abbrev,"",%progbits
 1042              	.Ldebug_abbrev0:
 1043 0000 01       		.uleb128 0x1
 1044 0001 11       		.uleb128 0x11
 1045 0002 01       		.byte	0x1
 1046 0003 25       		.uleb128 0x25
 1047 0004 0E       		.uleb128 0xe
 1048 0005 13       		.uleb128 0x13
 1049 0006 0B       		.uleb128 0xb
 1050 0007 03       		.uleb128 0x3
 1051 0008 0E       		.uleb128 0xe
 1052 0009 1B       		.uleb128 0x1b
 1053 000a 0E       		.uleb128 0xe
 1054 000b 55       		.uleb128 0x55
 1055 000c 17       		.uleb128 0x17
 1056 000d 11       		.uleb128 0x11
 1057 000e 01       		.uleb128 0x1
 1058 000f 10       		.uleb128 0x10
 1059 0010 17       		.uleb128 0x17
 1060 0011 00       		.byte	0
 1061 0012 00       		.byte	0
 1062 0013 02       		.uleb128 0x2
 1063 0014 24       		.uleb128 0x24
 1064 0015 00       		.byte	0
 1065 0016 0B       		.uleb128 0xb
 1066 0017 0B       		.uleb128 0xb
 1067 0018 3E       		.uleb128 0x3e
 1068 0019 0B       		.uleb128 0xb
 1069 001a 03       		.uleb128 0x3
 1070 001b 0E       		.uleb128 0xe
 1071 001c 00       		.byte	0
 1072 001d 00       		.byte	0
 1073 001e 03       		.uleb128 0x3
 1074 001f 16       		.uleb128 0x16
 1075 0020 00       		.byte	0
 1076 0021 03       		.uleb128 0x3
 1077 0022 0E       		.uleb128 0xe
 1078 0023 3A       		.uleb128 0x3a
 1079 0024 0B       		.uleb128 0xb
ARM GAS  /var/folders/l5/0x54b2c10074c8bt31ycjvl80000gp/T//cc750Zzq.s 			page 20


 1080 0025 3B       		.uleb128 0x3b
 1081 0026 0B       		.uleb128 0xb
 1082 0027 39       		.uleb128 0x39
 1083 0028 0B       		.uleb128 0xb
 1084 0029 49       		.uleb128 0x49
 1085 002a 13       		.uleb128 0x13
 1086 002b 00       		.byte	0
 1087 002c 00       		.byte	0
 1088 002d 04       		.uleb128 0x4
 1089 002e 24       		.uleb128 0x24
 1090 002f 00       		.byte	0
 1091 0030 0B       		.uleb128 0xb
 1092 0031 0B       		.uleb128 0xb
 1093 0032 3E       		.uleb128 0x3e
 1094 0033 0B       		.uleb128 0xb
 1095 0034 03       		.uleb128 0x3
 1096 0035 08       		.uleb128 0x8
 1097 0036 00       		.byte	0
 1098 0037 00       		.byte	0
 1099 0038 05       		.uleb128 0x5
 1100 0039 35       		.uleb128 0x35
 1101 003a 00       		.byte	0
 1102 003b 49       		.uleb128 0x49
 1103 003c 13       		.uleb128 0x13
 1104 003d 00       		.byte	0
 1105 003e 00       		.byte	0
 1106 003f 06       		.uleb128 0x6
 1107 0040 13       		.uleb128 0x13
 1108 0041 01       		.byte	0x1
 1109 0042 03       		.uleb128 0x3
 1110 0043 0E       		.uleb128 0xe
 1111 0044 0B       		.uleb128 0xb
 1112 0045 0B       		.uleb128 0xb
 1113 0046 3A       		.uleb128 0x3a
 1114 0047 0B       		.uleb128 0xb
 1115 0048 3B       		.uleb128 0x3b
 1116 0049 0B       		.uleb128 0xb
 1117 004a 39       		.uleb128 0x39
 1118 004b 0B       		.uleb128 0xb
 1119 004c 01       		.uleb128 0x1
 1120 004d 13       		.uleb128 0x13
 1121 004e 00       		.byte	0
 1122 004f 00       		.byte	0
 1123 0050 07       		.uleb128 0x7
 1124 0051 0D       		.uleb128 0xd
 1125 0052 00       		.byte	0
 1126 0053 03       		.uleb128 0x3
 1127 0054 0E       		.uleb128 0xe
 1128 0055 3A       		.uleb128 0x3a
 1129 0056 0B       		.uleb128 0xb
 1130 0057 3B       		.uleb128 0x3b
 1131 0058 0B       		.uleb128 0xb
 1132 0059 39       		.uleb128 0x39
 1133 005a 0B       		.uleb128 0xb
 1134 005b 49       		.uleb128 0x49
 1135 005c 13       		.uleb128 0x13
 1136 005d 38       		.uleb128 0x38
ARM GAS  /var/folders/l5/0x54b2c10074c8bt31ycjvl80000gp/T//cc750Zzq.s 			page 21


 1137 005e 0B       		.uleb128 0xb
 1138 005f 00       		.byte	0
 1139 0060 00       		.byte	0
 1140 0061 08       		.uleb128 0x8
 1141 0062 0D       		.uleb128 0xd
 1142 0063 00       		.byte	0
 1143 0064 03       		.uleb128 0x3
 1144 0065 08       		.uleb128 0x8
 1145 0066 3A       		.uleb128 0x3a
 1146 0067 0B       		.uleb128 0xb
 1147 0068 3B       		.uleb128 0x3b
 1148 0069 0B       		.uleb128 0xb
 1149 006a 39       		.uleb128 0x39
 1150 006b 0B       		.uleb128 0xb
 1151 006c 49       		.uleb128 0x49
 1152 006d 13       		.uleb128 0x13
 1153 006e 38       		.uleb128 0x38
 1154 006f 0B       		.uleb128 0xb
 1155 0070 00       		.byte	0
 1156 0071 00       		.byte	0
 1157 0072 09       		.uleb128 0x9
 1158 0073 13       		.uleb128 0x13
 1159 0074 01       		.byte	0x1
 1160 0075 0B       		.uleb128 0xb
 1161 0076 0B       		.uleb128 0xb
 1162 0077 3A       		.uleb128 0x3a
 1163 0078 0B       		.uleb128 0xb
 1164 0079 3B       		.uleb128 0x3b
 1165 007a 0B       		.uleb128 0xb
 1166 007b 39       		.uleb128 0x39
 1167 007c 0B       		.uleb128 0xb
 1168 007d 01       		.uleb128 0x1
 1169 007e 13       		.uleb128 0x13
 1170 007f 00       		.byte	0
 1171 0080 00       		.byte	0
 1172 0081 0A       		.uleb128 0xa
 1173 0082 0F       		.uleb128 0xf
 1174 0083 00       		.byte	0
 1175 0084 0B       		.uleb128 0xb
 1176 0085 0B       		.uleb128 0xb
 1177 0086 49       		.uleb128 0x49
 1178 0087 13       		.uleb128 0x13
 1179 0088 00       		.byte	0
 1180 0089 00       		.byte	0
 1181 008a 0B       		.uleb128 0xb
 1182 008b 0F       		.uleb128 0xf
 1183 008c 00       		.byte	0
 1184 008d 0B       		.uleb128 0xb
 1185 008e 0B       		.uleb128 0xb
 1186 008f 00       		.byte	0
 1187 0090 00       		.byte	0
 1188 0091 0C       		.uleb128 0xc
 1189 0092 15       		.uleb128 0x15
 1190 0093 01       		.byte	0x1
 1191 0094 27       		.uleb128 0x27
 1192 0095 19       		.uleb128 0x19
 1193 0096 01       		.uleb128 0x1
ARM GAS  /var/folders/l5/0x54b2c10074c8bt31ycjvl80000gp/T//cc750Zzq.s 			page 22


 1194 0097 13       		.uleb128 0x13
 1195 0098 00       		.byte	0
 1196 0099 00       		.byte	0
 1197 009a 0D       		.uleb128 0xd
 1198 009b 05       		.uleb128 0x5
 1199 009c 00       		.byte	0
 1200 009d 49       		.uleb128 0x49
 1201 009e 13       		.uleb128 0x13
 1202 009f 00       		.byte	0
 1203 00a0 00       		.byte	0
 1204 00a1 0E       		.uleb128 0xe
 1205 00a2 34       		.uleb128 0x34
 1206 00a3 00       		.byte	0
 1207 00a4 03       		.uleb128 0x3
 1208 00a5 0E       		.uleb128 0xe
 1209 00a6 3A       		.uleb128 0x3a
 1210 00a7 0B       		.uleb128 0xb
 1211 00a8 3B       		.uleb128 0x3b
 1212 00a9 0B       		.uleb128 0xb
 1213 00aa 39       		.uleb128 0x39
 1214 00ab 0B       		.uleb128 0xb
 1215 00ac 49       		.uleb128 0x49
 1216 00ad 13       		.uleb128 0x13
 1217 00ae 3F       		.uleb128 0x3f
 1218 00af 19       		.uleb128 0x19
 1219 00b0 3C       		.uleb128 0x3c
 1220 00b1 19       		.uleb128 0x19
 1221 00b2 00       		.byte	0
 1222 00b3 00       		.byte	0
 1223 00b4 0F       		.uleb128 0xf
 1224 00b5 17       		.uleb128 0x17
 1225 00b6 01       		.byte	0x1
 1226 00b7 0B       		.uleb128 0xb
 1227 00b8 0B       		.uleb128 0xb
 1228 00b9 3A       		.uleb128 0x3a
 1229 00ba 0B       		.uleb128 0xb
 1230 00bb 3B       		.uleb128 0x3b
 1231 00bc 0B       		.uleb128 0xb
 1232 00bd 39       		.uleb128 0x39
 1233 00be 0B       		.uleb128 0xb
 1234 00bf 01       		.uleb128 0x1
 1235 00c0 13       		.uleb128 0x13
 1236 00c1 00       		.byte	0
 1237 00c2 00       		.byte	0
 1238 00c3 10       		.uleb128 0x10
 1239 00c4 0D       		.uleb128 0xd
 1240 00c5 00       		.byte	0
 1241 00c6 03       		.uleb128 0x3
 1242 00c7 0E       		.uleb128 0xe
 1243 00c8 3A       		.uleb128 0x3a
 1244 00c9 0B       		.uleb128 0xb
 1245 00ca 3B       		.uleb128 0x3b
 1246 00cb 0B       		.uleb128 0xb
 1247 00cc 39       		.uleb128 0x39
 1248 00cd 0B       		.uleb128 0xb
 1249 00ce 49       		.uleb128 0x49
 1250 00cf 13       		.uleb128 0x13
ARM GAS  /var/folders/l5/0x54b2c10074c8bt31ycjvl80000gp/T//cc750Zzq.s 			page 23


 1251 00d0 00       		.byte	0
 1252 00d1 00       		.byte	0
 1253 00d2 11       		.uleb128 0x11
 1254 00d3 15       		.uleb128 0x15
 1255 00d4 01       		.byte	0x1
 1256 00d5 27       		.uleb128 0x27
 1257 00d6 19       		.uleb128 0x19
 1258 00d7 49       		.uleb128 0x49
 1259 00d8 13       		.uleb128 0x13
 1260 00d9 01       		.uleb128 0x1
 1261 00da 13       		.uleb128 0x13
 1262 00db 00       		.byte	0
 1263 00dc 00       		.byte	0
 1264 00dd 12       		.uleb128 0x12
 1265 00de 01       		.uleb128 0x1
 1266 00df 01       		.byte	0x1
 1267 00e0 49       		.uleb128 0x49
 1268 00e1 13       		.uleb128 0x13
 1269 00e2 01       		.uleb128 0x1
 1270 00e3 13       		.uleb128 0x13
 1271 00e4 00       		.byte	0
 1272 00e5 00       		.byte	0
 1273 00e6 13       		.uleb128 0x13
 1274 00e7 21       		.uleb128 0x21
 1275 00e8 00       		.byte	0
 1276 00e9 49       		.uleb128 0x49
 1277 00ea 13       		.uleb128 0x13
 1278 00eb 2F       		.uleb128 0x2f
 1279 00ec 0B       		.uleb128 0xb
 1280 00ed 00       		.byte	0
 1281 00ee 00       		.byte	0
 1282 00ef 14       		.uleb128 0x14
 1283 00f0 34       		.uleb128 0x34
 1284 00f1 00       		.byte	0
 1285 00f2 47       		.uleb128 0x47
 1286 00f3 13       		.uleb128 0x13
 1287 00f4 3A       		.uleb128 0x3a
 1288 00f5 0B       		.uleb128 0xb
 1289 00f6 3B       		.uleb128 0x3b
 1290 00f7 0B       		.uleb128 0xb
 1291 00f8 39       		.uleb128 0x39
 1292 00f9 0B       		.uleb128 0xb
 1293 00fa 02       		.uleb128 0x2
 1294 00fb 18       		.uleb128 0x18
 1295 00fc 00       		.byte	0
 1296 00fd 00       		.byte	0
 1297 00fe 15       		.uleb128 0x15
 1298 00ff 2E       		.uleb128 0x2e
 1299 0100 01       		.byte	0x1
 1300 0101 3F       		.uleb128 0x3f
 1301 0102 19       		.uleb128 0x19
 1302 0103 03       		.uleb128 0x3
 1303 0104 0E       		.uleb128 0xe
 1304 0105 3A       		.uleb128 0x3a
 1305 0106 0B       		.uleb128 0xb
 1306 0107 3B       		.uleb128 0x3b
 1307 0108 0B       		.uleb128 0xb
ARM GAS  /var/folders/l5/0x54b2c10074c8bt31ycjvl80000gp/T//cc750Zzq.s 			page 24


 1308 0109 39       		.uleb128 0x39
 1309 010a 0B       		.uleb128 0xb
 1310 010b 27       		.uleb128 0x27
 1311 010c 19       		.uleb128 0x19
 1312 010d 11       		.uleb128 0x11
 1313 010e 01       		.uleb128 0x1
 1314 010f 12       		.uleb128 0x12
 1315 0110 06       		.uleb128 0x6
 1316 0111 40       		.uleb128 0x40
 1317 0112 18       		.uleb128 0x18
 1318 0113 9642     		.uleb128 0x2116
 1319 0115 19       		.uleb128 0x19
 1320 0116 01       		.uleb128 0x1
 1321 0117 13       		.uleb128 0x13
 1322 0118 00       		.byte	0
 1323 0119 00       		.byte	0
 1324 011a 16       		.uleb128 0x16
 1325 011b 0B       		.uleb128 0xb
 1326 011c 01       		.byte	0x1
 1327 011d 11       		.uleb128 0x11
 1328 011e 01       		.uleb128 0x1
 1329 011f 12       		.uleb128 0x12
 1330 0120 06       		.uleb128 0x6
 1331 0121 00       		.byte	0
 1332 0122 00       		.byte	0
 1333 0123 17       		.uleb128 0x17
 1334 0124 34       		.uleb128 0x34
 1335 0125 00       		.byte	0
 1336 0126 03       		.uleb128 0x3
 1337 0127 08       		.uleb128 0x8
 1338 0128 3A       		.uleb128 0x3a
 1339 0129 0B       		.uleb128 0xb
 1340 012a 3B       		.uleb128 0x3b
 1341 012b 0B       		.uleb128 0xb
 1342 012c 39       		.uleb128 0x39
 1343 012d 0B       		.uleb128 0xb
 1344 012e 49       		.uleb128 0x49
 1345 012f 13       		.uleb128 0x13
 1346 0130 02       		.uleb128 0x2
 1347 0131 17       		.uleb128 0x17
 1348 0132 B742     		.uleb128 0x2137
 1349 0134 17       		.uleb128 0x17
 1350 0135 00       		.byte	0
 1351 0136 00       		.byte	0
 1352 0137 18       		.uleb128 0x18
 1353 0138 0B       		.uleb128 0xb
 1354 0139 01       		.byte	0x1
 1355 013a 55       		.uleb128 0x55
 1356 013b 17       		.uleb128 0x17
 1357 013c 00       		.byte	0
 1358 013d 00       		.byte	0
 1359 013e 19       		.uleb128 0x19
 1360 013f 2E       		.uleb128 0x2e
 1361 0140 01       		.byte	0x1
 1362 0141 3F       		.uleb128 0x3f
 1363 0142 19       		.uleb128 0x19
 1364 0143 03       		.uleb128 0x3
ARM GAS  /var/folders/l5/0x54b2c10074c8bt31ycjvl80000gp/T//cc750Zzq.s 			page 25


 1365 0144 0E       		.uleb128 0xe
 1366 0145 3A       		.uleb128 0x3a
 1367 0146 0B       		.uleb128 0xb
 1368 0147 3B       		.uleb128 0x3b
 1369 0148 0B       		.uleb128 0xb
 1370 0149 39       		.uleb128 0x39
 1371 014a 0B       		.uleb128 0xb
 1372 014b 27       		.uleb128 0x27
 1373 014c 19       		.uleb128 0x19
 1374 014d 11       		.uleb128 0x11
 1375 014e 01       		.uleb128 0x1
 1376 014f 12       		.uleb128 0x12
 1377 0150 06       		.uleb128 0x6
 1378 0151 40       		.uleb128 0x40
 1379 0152 18       		.uleb128 0x18
 1380 0153 9742     		.uleb128 0x2117
 1381 0155 19       		.uleb128 0x19
 1382 0156 01       		.uleb128 0x1
 1383 0157 13       		.uleb128 0x13
 1384 0158 00       		.byte	0
 1385 0159 00       		.byte	0
 1386 015a 1A       		.uleb128 0x1a
 1387 015b 34       		.uleb128 0x34
 1388 015c 00       		.byte	0
 1389 015d 03       		.uleb128 0x3
 1390 015e 0E       		.uleb128 0xe
 1391 015f 3A       		.uleb128 0x3a
 1392 0160 0B       		.uleb128 0xb
 1393 0161 3B       		.uleb128 0x3b
 1394 0162 0B       		.uleb128 0xb
 1395 0163 39       		.uleb128 0x39
 1396 0164 0B       		.uleb128 0xb
 1397 0165 49       		.uleb128 0x49
 1398 0166 13       		.uleb128 0x13
 1399 0167 02       		.uleb128 0x2
 1400 0168 18       		.uleb128 0x18
 1401 0169 00       		.byte	0
 1402 016a 00       		.byte	0
 1403 016b 1B       		.uleb128 0x1b
 1404 016c 898201   		.uleb128 0x4109
 1405 016f 00       		.byte	0
 1406 0170 11       		.uleb128 0x11
 1407 0171 01       		.uleb128 0x1
 1408 0172 31       		.uleb128 0x31
 1409 0173 13       		.uleb128 0x13
 1410 0174 00       		.byte	0
 1411 0175 00       		.byte	0
 1412 0176 1C       		.uleb128 0x1c
 1413 0177 898201   		.uleb128 0x4109
 1414 017a 01       		.byte	0x1
 1415 017b 11       		.uleb128 0x11
 1416 017c 01       		.uleb128 0x1
 1417 017d 31       		.uleb128 0x31
 1418 017e 13       		.uleb128 0x13
 1419 017f 01       		.uleb128 0x1
 1420 0180 13       		.uleb128 0x13
 1421 0181 00       		.byte	0
ARM GAS  /var/folders/l5/0x54b2c10074c8bt31ycjvl80000gp/T//cc750Zzq.s 			page 26


 1422 0182 00       		.byte	0
 1423 0183 1D       		.uleb128 0x1d
 1424 0184 8A8201   		.uleb128 0x410a
 1425 0187 00       		.byte	0
 1426 0188 02       		.uleb128 0x2
 1427 0189 18       		.uleb128 0x18
 1428 018a 9142     		.uleb128 0x2111
 1429 018c 18       		.uleb128 0x18
 1430 018d 00       		.byte	0
 1431 018e 00       		.byte	0
 1432 018f 1E       		.uleb128 0x1e
 1433 0190 898201   		.uleb128 0x4109
 1434 0193 01       		.byte	0x1
 1435 0194 11       		.uleb128 0x11
 1436 0195 01       		.uleb128 0x1
 1437 0196 31       		.uleb128 0x31
 1438 0197 13       		.uleb128 0x13
 1439 0198 00       		.byte	0
 1440 0199 00       		.byte	0
 1441 019a 1F       		.uleb128 0x1f
 1442 019b 05       		.uleb128 0x5
 1443 019c 00       		.byte	0
 1444 019d 03       		.uleb128 0x3
 1445 019e 08       		.uleb128 0x8
 1446 019f 3A       		.uleb128 0x3a
 1447 01a0 0B       		.uleb128 0xb
 1448 01a1 3B       		.uleb128 0x3b
 1449 01a2 0B       		.uleb128 0xb
 1450 01a3 39       		.uleb128 0x39
 1451 01a4 0B       		.uleb128 0xb
 1452 01a5 49       		.uleb128 0x49
 1453 01a6 13       		.uleb128 0x13
 1454 01a7 02       		.uleb128 0x2
 1455 01a8 17       		.uleb128 0x17
 1456 01a9 B742     		.uleb128 0x2137
 1457 01ab 17       		.uleb128 0x17
 1458 01ac 00       		.byte	0
 1459 01ad 00       		.byte	0
 1460 01ae 20       		.uleb128 0x20
 1461 01af 2E       		.uleb128 0x2e
 1462 01b0 00       		.byte	0
 1463 01b1 3F       		.uleb128 0x3f
 1464 01b2 19       		.uleb128 0x19
 1465 01b3 3C       		.uleb128 0x3c
 1466 01b4 19       		.uleb128 0x19
 1467 01b5 6E       		.uleb128 0x6e
 1468 01b6 0E       		.uleb128 0xe
 1469 01b7 03       		.uleb128 0x3
 1470 01b8 0E       		.uleb128 0xe
 1471 01b9 3A       		.uleb128 0x3a
 1472 01ba 0B       		.uleb128 0xb
 1473 01bb 3B       		.uleb128 0x3b
 1474 01bc 0B       		.uleb128 0xb
 1475 01bd 39       		.uleb128 0x39
 1476 01be 0B       		.uleb128 0xb
 1477 01bf 00       		.byte	0
 1478 01c0 00       		.byte	0
ARM GAS  /var/folders/l5/0x54b2c10074c8bt31ycjvl80000gp/T//cc750Zzq.s 			page 27


 1479 01c1 21       		.uleb128 0x21
 1480 01c2 2E       		.uleb128 0x2e
 1481 01c3 00       		.byte	0
 1482 01c4 3F       		.uleb128 0x3f
 1483 01c5 19       		.uleb128 0x19
 1484 01c6 3C       		.uleb128 0x3c
 1485 01c7 19       		.uleb128 0x19
 1486 01c8 6E       		.uleb128 0x6e
 1487 01c9 0E       		.uleb128 0xe
 1488 01ca 03       		.uleb128 0x3
 1489 01cb 0E       		.uleb128 0xe
 1490 01cc 3A       		.uleb128 0x3a
 1491 01cd 0B       		.uleb128 0xb
 1492 01ce 3B       		.uleb128 0x3b
 1493 01cf 05       		.uleb128 0x5
 1494 01d0 39       		.uleb128 0x39
 1495 01d1 0B       		.uleb128 0xb
 1496 01d2 00       		.byte	0
 1497 01d3 00       		.byte	0
 1498 01d4 00       		.byte	0
 1499              		.section	.debug_loc,"",%progbits
 1500              	.Ldebug_loc0:
 1501              	.LVUS1:
 1502 0000 04       		.uleb128 .LVU46
 1503 0001 00       		.uleb128 .LVU55
 1504 0002 00       		.uleb128 .LVU58
 1505 0003 00       		.uleb128 0
 1506              	.LLST1:
 1507 0004 48000000 		.4byte	.LVL5
 1508 0008 67000000 		.4byte	.LVL7-1
 1509 000c 0100     		.2byte	0x1
 1510 000e 53       		.byte	0x53
 1511 000f 6C000000 		.4byte	.LVL8
 1512 0013 84000000 		.4byte	.LFE9
 1513 0017 0100     		.2byte	0x1
 1514 0019 53       		.byte	0x53
 1515 001a 00000000 		.4byte	0
 1516 001e 00000000 		.4byte	0
 1517              	.LVUS2:
 1518 0022 00       		.uleb128 .LVU48
 1519 0023 00       		.uleb128 .LVU55
 1520              	.LLST2:
 1521 0024 54000000 		.4byte	.LVL6
 1522 0028 67000000 		.4byte	.LVL7-1
 1523 002c 0100     		.2byte	0x1
 1524 002e 51       		.byte	0x51
 1525 002f 00000000 		.4byte	0
 1526 0033 00000000 		.4byte	0
 1527              	.LVUS0:
 1528 0037 01       		.uleb128 .LVU1
 1529 0038 00       		.uleb128 0
 1530              	.LLST0:
 1531 0039 00000000 		.4byte	.LVL0
 1532 003d 08000000 		.4byte	.LFE7
 1533 0041 0100     		.2byte	0x1
 1534 0043 50       		.byte	0x50
 1535 0044 00000000 		.4byte	0
ARM GAS  /var/folders/l5/0x54b2c10074c8bt31ycjvl80000gp/T//cc750Zzq.s 			page 28


 1536 0048 00000000 		.4byte	0
 1537              		.section	.debug_aranges,"",%progbits
 1538 0000 2C000000 		.4byte	0x2c
 1539 0004 0200     		.2byte	0x2
 1540 0006 00000000 		.4byte	.Ldebug_info0
 1541 000a 04       		.byte	0x4
 1542 000b 00       		.byte	0
 1543 000c 0000     		.2byte	0
 1544 000e 0000     		.2byte	0
 1545 0010 00000000 		.4byte	.LFB7
 1546 0014 08000000 		.4byte	.LFE7-.LFB7
 1547 0018 00000000 		.4byte	.LFB8
 1548 001c 60000000 		.4byte	.LFE8-.LFB8
 1549 0020 00000000 		.4byte	.LFB9
 1550 0024 84000000 		.4byte	.LFE9-.LFB9
 1551 0028 00000000 		.4byte	0
 1552 002c 00000000 		.4byte	0
 1553              		.section	.debug_ranges,"",%progbits
 1554              	.Ldebug_ranges0:
 1555 0000 48000000 		.4byte	.LBB3
 1556 0004 48000000 		.4byte	.LBE3
 1557 0008 4C000000 		.4byte	.LBB4
 1558 000c 68000000 		.4byte	.LBE4
 1559 0010 00000000 		.4byte	0
 1560 0014 00000000 		.4byte	0
 1561 0018 00000000 		.4byte	.LFB7
 1562 001c 08000000 		.4byte	.LFE7
 1563 0020 00000000 		.4byte	.LFB8
 1564 0024 60000000 		.4byte	.LFE8
 1565 0028 00000000 		.4byte	.LFB9
 1566 002c 84000000 		.4byte	.LFE9
 1567 0030 00000000 		.4byte	0
 1568 0034 00000000 		.4byte	0
 1569              		.section	.debug_line,"",%progbits
 1570              	.Ldebug_line0:
 1571 0000 B0020000 		.section	.debug_str,"MS",%progbits,1
 1571      03007F01 
 1571      00000201 
 1571      FB0E0D00 
 1571      01010101 
 1572              	.LASF31:
 1573 0000 705F6570 		.ascii	"p_epending\000"
 1573      656E6469 
 1573      6E6700
 1574              	.LASF25:
 1575 000b 705F7072 		.ascii	"p_prio\000"
 1575      696F00
 1576              	.LASF76:
 1577 0012 6D61696E 		.ascii	"mainthread\000"
 1577      74687265 
 1577      616400
 1578              	.LASF35:
 1579 001d 54687265 		.ascii	"ThreadsList\000"
 1579      6164734C 
 1579      69737400 
 1580              	.LASF4:
 1581 0029 73686F72 		.ascii	"short int\000"
ARM GAS  /var/folders/l5/0x54b2c10074c8bt31ycjvl80000gp/T//cc750Zzq.s 			page 29


 1581      7420696E 
 1581      7400
 1582              	.LASF49:
 1583 0033 725F7175 		.ascii	"r_queue\000"
 1583      65756500 
 1584              	.LASF59:
 1585 003b 6D5F6E65 		.ascii	"m_next\000"
 1585      787400
 1586              	.LASF24:
 1587 0042 705F7072 		.ascii	"p_prev\000"
 1587      657600
 1588              	.LASF51:
 1589 0049 725F6374 		.ascii	"r_ctx\000"
 1589      7800
 1590              	.LASF71:
 1591 004f 5F746872 		.ascii	"_thread_init\000"
 1591      6561645F 
 1591      696E6974 
 1591      00
 1592              	.LASF9:
 1593 005c 6C6F6E67 		.ascii	"long long int\000"
 1593      206C6F6E 
 1593      6720696E 
 1593      7400
 1594              	.LASF8:
 1595 006a 5F5F7569 		.ascii	"__uint32_t\000"
 1595      6E743332 
 1595      5F7400
 1596              	.LASF20:
 1597 0075 6576656E 		.ascii	"eventmask_t\000"
 1597      746D6173 
 1597      6B5F7400 
 1598              	.LASF15:
 1599 0081 746D6F64 		.ascii	"tmode_t\000"
 1599      655F7400 
 1600              	.LASF23:
 1601 0089 705F6E65 		.ascii	"p_next\000"
 1601      787400
 1602              	.LASF54:
 1603 0090 76746C69 		.ascii	"vtlist\000"
 1603      737400
 1604              	.LASF46:
 1605 0097 76745F70 		.ascii	"vt_par\000"
 1605      617200
 1606              	.LASF45:
 1607 009e 76745F66 		.ascii	"vt_func\000"
 1607      756E6300 
 1608              	.LASF37:
 1609 00a6 72656761 		.ascii	"regarm_t\000"
 1609      726D5F74 
 1609      00
 1610              	.LASF11:
 1611 00af 75696E74 		.ascii	"uint8_t\000"
 1611      385F7400 
 1612              	.LASF61:
 1613 00b7 65786974 		.ascii	"exitcode\000"
 1613      636F6465 
ARM GAS  /var/folders/l5/0x54b2c10074c8bt31ycjvl80000gp/T//cc750Zzq.s 			page 30


 1613      00
 1614              	.LASF47:
 1615 00c0 76745F73 		.ascii	"vt_systime\000"
 1615      79737469 
 1615      6D6500
 1616              	.LASF67:
 1617 00cb 63685379 		.ascii	"chSysInit\000"
 1617      73496E69 
 1617      7400
 1618              	.LASF50:
 1619 00d5 725F7072 		.ascii	"r_prio\000"
 1619      696F00
 1620              	.LASF74:
 1621 00dc 2E2E2F2E 		.ascii	"../../../os/kernel/src/chsys.c\000"
 1621      2E2F2E2E 
 1621      2F6F732F 
 1621      6B65726E 
 1621      656C2F73 
 1622              	.LASF75:
 1623 00fb 2F557365 		.ascii	"/Users/fernandoguirado/eclipse-workspace/ChibiOS-RP"
 1623      72732F66 
 1623      65726E61 
 1623      6E646F67 
 1623      75697261 
 1624 012e 692D6D61 		.ascii	"i-master/testhal/BCM2835/GPIO\000"
 1624      73746572 
 1624      2F746573 
 1624      7468616C 
 1624      2F42434D 
 1625              	.LASF18:
 1626 014c 74707269 		.ascii	"tprio_t\000"
 1626      6F5F7400 
 1627              	.LASF70:
 1628 0154 5F76745F 		.ascii	"_vt_init\000"
 1628      696E6974 
 1628      00
 1629              	.LASF0:
 1630 015d 6C6F6E67 		.ascii	"long int\000"
 1630      20696E74 
 1630      00
 1631              	.LASF56:
 1632 0166 4D757465 		.ascii	"Mutex\000"
 1632      7800
 1633              	.LASF57:
 1634 016c 6D5F7175 		.ascii	"m_queue\000"
 1634      65756500 
 1635              	.LASF6:
 1636 0174 5F5F7569 		.ascii	"__uint8_t\000"
 1636      6E74385F 
 1636      7400
 1637              	.LASF39:
 1638 017e 636F6E74 		.ascii	"context\000"
 1638      65787400 
 1639              	.LASF52:
 1640 0186 725F6375 		.ascii	"r_current\000"
 1640      7272656E 
 1640      7400
ARM GAS  /var/folders/l5/0x54b2c10074c8bt31ycjvl80000gp/T//cc750Zzq.s 			page 31


 1641              	.LASF73:
 1642 0190 474E5520 		.ascii	"GNU C17 8.3.1 20190703 (release) [gcc-8-branch revi"
 1642      43313720 
 1642      382E332E 
 1642      31203230 
 1642      31393037 
 1643 01c3 73696F6E 		.ascii	"sion 273027] -mcpu=arm1176jz-s -mabi=apcs-gnu -mno-"
 1643      20323733 
 1643      3032375D 
 1643      202D6D63 
 1643      70753D61 
 1644 01f6 7468756D 		.ascii	"thumb-interwork -mfloat-abi=soft -marm -march=armv6"
 1644      622D696E 
 1644      74657277 
 1644      6F726B20 
 1644      2D6D666C 
 1645 0229 6B7A202D 		.ascii	"kz -ggdb -O2 -fomit-frame-pointer -ffunction-sectio"
 1645      67676462 
 1645      202D4F32 
 1645      202D666F 
 1645      6D69742D 
 1646 025c 6E73202D 		.ascii	"ns -fdata-sections\000"
 1646      66646174 
 1646      612D7365 
 1646      6374696F 
 1646      6E7300
 1647              	.LASF3:
 1648 026f 756E7369 		.ascii	"unsigned char\000"
 1648      676E6564 
 1648      20636861 
 1648      7200
 1649              	.LASF34:
 1650 027d 54687265 		.ascii	"ThreadsQueue\000"
 1650      61647351 
 1650      75657565 
 1650      00
 1651              	.LASF68:
 1652 028a 5F69646C 		.ascii	"_idle_thread\000"
 1652      655F7468 
 1652      72656164 
 1652      00
 1653              	.LASF2:
 1654 0297 7369676E 		.ascii	"signed char\000"
 1654      65642063 
 1654      68617200 
 1655              	.LASF55:
 1656 02a3 726C6973 		.ascii	"rlist\000"
 1656      7400
 1657              	.LASF10:
 1658 02a9 6C6F6E67 		.ascii	"long long unsigned int\000"
 1658      206C6F6E 
 1658      6720756E 
 1658      7369676E 
 1658      65642069 
 1659              	.LASF13:
 1660 02c0 75696E74 		.ascii	"uint32_t\000"
 1660      33325F74 
ARM GAS  /var/folders/l5/0x54b2c10074c8bt31ycjvl80000gp/T//cc750Zzq.s 			page 32


 1660      00
 1661              	.LASF14:
 1662 02c9 756E7369 		.ascii	"unsigned int\000"
 1662      676E6564 
 1662      20696E74 
 1662      00
 1663              	.LASF42:
 1664 02d6 76745F6E 		.ascii	"vt_next\000"
 1664      65787400 
 1665              	.LASF63:
 1666 02de 65776D61 		.ascii	"ewmask\000"
 1666      736B00
 1667              	.LASF17:
 1668 02e5 74736C69 		.ascii	"tslices_t\000"
 1668      6365735F 
 1668      7400
 1669              	.LASF5:
 1670 02ef 73686F72 		.ascii	"short unsigned int\000"
 1670      7420756E 
 1670      7369676E 
 1670      65642069 
 1670      6E7400
 1671              	.LASF28:
 1672 0302 705F666C 		.ascii	"p_flags\000"
 1672      61677300 
 1673              	.LASF29:
 1674 030a 705F7072 		.ascii	"p_preempt\000"
 1674      65656D70 
 1674      7400
 1675              	.LASF33:
 1676 0314 705F7265 		.ascii	"p_realprio\000"
 1676      616C7072 
 1676      696F00
 1677              	.LASF21:
 1678 031f 73797374 		.ascii	"systime_t\000"
 1678      696D655F 
 1678      7400
 1679              	.LASF65:
 1680 0329 5F69646C 		.ascii	"_idle_thread_wa\000"
 1680      655F7468 
 1680      72656164 
 1680      5F776100 
 1681              	.LASF64:
 1682 0339 7466756E 		.ascii	"tfunc_t\000"
 1682      635F7400 
 1683              	.LASF12:
 1684 0341 696E7433 		.ascii	"int32_t\000"
 1684      325F7400 
 1685              	.LASF27:
 1686 0349 705F7374 		.ascii	"p_state\000"
 1686      61746500 
 1687              	.LASF38:
 1688 0351 696E7463 		.ascii	"intctx\000"
 1688      747800
 1689              	.LASF30:
 1690 0358 705F7761 		.ascii	"p_waiting\000"
 1690      6974696E 
ARM GAS  /var/folders/l5/0x54b2c10074c8bt31ycjvl80000gp/T//cc750Zzq.s 			page 33


 1690      6700
 1691              	.LASF32:
 1692 0362 705F6D74 		.ascii	"p_mtxlist\000"
 1692      786C6973 
 1692      7400
 1693              	.LASF36:
 1694 036c 73746B61 		.ascii	"stkalign_t\000"
 1694      6C69676E 
 1694      5F7400
 1695              	.LASF1:
 1696 0377 6C6F6E67 		.ascii	"long unsigned int\000"
 1696      20756E73 
 1696      69676E65 
 1696      6420696E 
 1696      7400
 1697              	.LASF69:
 1698 0389 5F736368 		.ascii	"_scheduler_init\000"
 1698      6564756C 
 1698      65725F69 
 1698      6E697400 
 1699              	.LASF43:
 1700 0399 76745F70 		.ascii	"vt_prev\000"
 1700      72657600 
 1701              	.LASF7:
 1702 03a1 5F5F696E 		.ascii	"__int32_t\000"
 1702      7433325F 
 1702      7400
 1703              	.LASF66:
 1704 03ab 63685379 		.ascii	"chSysTimerHandlerI\000"
 1704      7354696D 
 1704      65724861 
 1704      6E646C65 
 1704      724900
 1705              	.LASF62:
 1706 03be 77746F62 		.ascii	"wtobjp\000"
 1706      6A7000
 1707              	.LASF16:
 1708 03c5 74737461 		.ascii	"tstate_t\000"
 1708      74655F74 
 1708      00
 1709              	.LASF22:
 1710 03ce 54687265 		.ascii	"Thread\000"
 1710      616400
 1711              	.LASF53:
 1712 03d5 52656164 		.ascii	"ReadyList\000"
 1712      794C6973 
 1712      7400
 1713              	.LASF72:
 1714 03df 63685468 		.ascii	"chThdCreateStatic\000"
 1714      64437265 
 1714      61746553 
 1714      74617469 
 1714      6300
 1715              	.LASF40:
 1716 03f1 76746675 		.ascii	"vtfunc_t\000"
 1716      6E635F74 
 1716      00
ARM GAS  /var/folders/l5/0x54b2c10074c8bt31ycjvl80000gp/T//cc750Zzq.s 			page 34


 1717              	.LASF41:
 1718 03fa 56697274 		.ascii	"VirtualTimer\000"
 1718      75616C54 
 1718      696D6572 
 1718      00
 1719              	.LASF48:
 1720 0407 56544C69 		.ascii	"VTList\000"
 1720      737400
 1721              	.LASF26:
 1722 040e 705F6374 		.ascii	"p_ctx\000"
 1722      7800
 1723              	.LASF58:
 1724 0414 6D5F6F77 		.ascii	"m_owner\000"
 1724      6E657200 
 1725              	.LASF60:
 1726 041c 7264796D 		.ascii	"rdymsg\000"
 1726      736700
 1727              	.LASF44:
 1728 0423 76745F74 		.ascii	"vt_time\000"
 1728      696D6500 
 1729              	.LASF19:
 1730 042b 6D73675F 		.ascii	"msg_t\000"
 1730      7400
 1731              		.ident	"GCC: (GNU Tools for Arm Embedded Processors 8-2019-q3-update) 8.3.1 20190703 (release) [gc
ARM GAS  /var/folders/l5/0x54b2c10074c8bt31ycjvl80000gp/T//cc750Zzq.s 			page 35


DEFINED SYMBOLS
                            *ABS*:0000000000000000 chsys.c
/var/folders/l5/0x54b2c10074c8bt31ycjvl80000gp/T//cc750Zzq.s:6      .text._idle_thread:0000000000000000 $a
/var/folders/l5/0x54b2c10074c8bt31ycjvl80000gp/T//cc750Zzq.s:13     .text._idle_thread:0000000000000000 _idle_thread
/var/folders/l5/0x54b2c10074c8bt31ycjvl80000gp/T//cc750Zzq.s:42     .text.chSysInit:0000000000000000 $a
/var/folders/l5/0x54b2c10074c8bt31ycjvl80000gp/T//cc750Zzq.s:48     .text.chSysInit:0000000000000000 chSysInit
/var/folders/l5/0x54b2c10074c8bt31ycjvl80000gp/T//cc750Zzq.s:108    .text.chSysInit:0000000000000050 $d
                            *COM*:0000000000000080 _idle_thread_wa
/var/folders/l5/0x54b2c10074c8bt31ycjvl80000gp/T//cc750Zzq.s:116    .text.chSysTimerHandlerI:0000000000000000 $a
/var/folders/l5/0x54b2c10074c8bt31ycjvl80000gp/T//cc750Zzq.s:122    .text.chSysTimerHandlerI:0000000000000000 chSysTimerHandlerI
/var/folders/l5/0x54b2c10074c8bt31ycjvl80000gp/T//cc750Zzq.s:208    .text.chSysTimerHandlerI:000000000000007c $d
/var/folders/l5/0x54b2c10074c8bt31ycjvl80000gp/T//cc750Zzq.s:216    .bss.mainthread.1930:0000000000000000 $d
/var/folders/l5/0x54b2c10074c8bt31ycjvl80000gp/T//cc750Zzq.s:220    .bss.mainthread.1930:0000000000000000 mainthread.1930

UNDEFINED SYMBOLS
_scheduler_init
_vt_init
_thread_init
chThdCreateStatic
rlist
vtlist
