ARM GAS  /var/folders/l5/0x54b2c10074c8bt31ycjvl80000gp/T//cc750Zzq.s 			page 1


   1              		.file	"chsys.c"
   2              		.text
   3              	.Ltext0:
   4              		.cfi_sections	.debug_frame
   5              		.section	.text._idle_thread,"ax",%progbits
   6              		.align	2
   7              		.global	_idle_thread
   8              		.arch armv6kz
   9              		.syntax unified
  10              		.arm
  11              		.fpu softvfp
  12              		.type	_idle_thread, %function
  13              	_idle_thread:
  14              	.LFB7:
  15              		.file 1 "../../../os/kernel/src/chsys.c"
  16              		.loc 1 54 28 view -0
  17              		.cfi_startproc
  18              		@ Volatile: function does not return.
  19              		@ args = 0, pretend = 0, frame = 0
  20              		@ frame_needed = 0, uses_anonymous_args = 0
  21              		@ link register save eliminated.
  22              	.LVL0:
  23              	.L2:
  24              		.loc 1 56 3 discriminator 1 view .LVU1
  25              		.loc 1 57 29 discriminator 1 view .LVU2
  26              		.loc 1 58 3 discriminator 1 view .LVU3
  27              		.loc 1 59 5 discriminator 1 view .LVU4
  28              		.syntax divided
  29              	@ 59 "../../../os/kernel/src/chsys.c" 1
  30 0000 900F07EE 		MCR p15,0,r0,c7,c0,4
  31              	@ 0 "" 2
  32              		.loc 1 59 30 discriminator 1 view .LVU5
  33              		.loc 1 60 5 discriminator 1 view .LVU6
  34              		.loc 1 60 21 discriminator 1 view .LVU7
  35              		.arm
  36              		.syntax unified
  37 0004 FDFFFFEA 		b	.L2
  38              		.cfi_endproc
  39              	.LFE7:
  40              		.size	_idle_thread, .-_idle_thread
  41              		.section	.text.chSysInit,"ax",%progbits
  42              		.align	2
  43              		.global	chSysInit
  44              		.syntax unified
  45              		.arm
  46              		.fpu softvfp
  47              		.type	chSysInit, %function
  48              	chSysInit:
  49              	.LFB8:
  50              		.loc 1 77 22 view -0
  51              		.cfi_startproc
  52              		@ args = 0, pretend = 0, frame = 0
  53              		@ frame_needed = 0, uses_anonymous_args = 0
  54              		.loc 1 78 3 view .LVU9
  55              		.loc 1 83 14 view .LVU10
  56              		.loc 1 84 3 view .LVU11
  57              		.loc 1 77 22 is_stmt 0 view .LVU12
ARM GAS  /var/folders/l5/0x54b2c10074c8bt31ycjvl80000gp/T//cc750Zzq.s 			page 2


  58 0000 04E02DE5 		str	lr, [sp, #-4]!
  59              		.cfi_def_cfa_offset 4
  60              		.cfi_offset 14, -4
  61 0004 04D04DE2 		sub	sp, sp, #4
  62              		.cfi_def_cfa_offset 8
  63              		.loc 1 84 3 view .LVU13
  64 0008 FEFFFFEB 		bl	_scheduler_init
  65              	.LVL1:
  66              		.loc 1 85 3 is_stmt 1 view .LVU14
  67 000c FEFFFFEB 		bl	_vt_init
  68              	.LVL2:
  69              		.loc 1 97 3 view .LVU15
  70 0010 4010A0E3 		mov	r1, #64
  71 0014 34009FE5 		ldr	r0, .L6
  72 0018 FEFFFFEB 		bl	_thread_init
  73              	.LVL3:
  74              		.loc 1 98 18 is_stmt 0 view .LVU16
  75 001c 0120A0E3 		mov	r2, #1
  76              		.loc 1 97 3 view .LVU17
  77 0020 2C309FE5 		ldr	r3, .L6+4
  78 0024 100083E5 		str	r0, [r3, #16]
  79              		.loc 1 98 3 is_stmt 1 view .LVU18
  80              		.loc 1 98 18 is_stmt 0 view .LVU19
  81 0028 1020C0E5 		strb	r2, [r0, #16]
  82              		.loc 1 104 3 is_stmt 1 view .LVU20
  83              		.loc 1 104 3 view .LVU21
  84              		.syntax divided
  85              	@ 104 "../../../os/kernel/src/chsys.c" 1
  86 002c 1FF021E3 		msr     CPSR_c, #0x1F
  87              	@ 0 "" 2
  88              		.loc 1 104 16 view .LVU22
  89              		.loc 1 108 46 view .LVU23
  90              		.loc 1 114 3 view .LVU24
  91              		.arm
  92              		.syntax unified
  93 0030 0030A0E3 		mov	r3, #0
  94 0034 8010A0E3 		mov	r1, #128
  95 0038 00308DE5 		str	r3, [sp]
  96 003c 14009FE5 		ldr	r0, .L6+8
  97 0040 14309FE5 		ldr	r3, .L6+12
  98 0044 FEFFFFEB 		bl	chThdCreateStatic
  99              	.LVL4:
 100              		.loc 1 117 1 is_stmt 0 view .LVU25
 101 0048 04D08DE2 		add	sp, sp, #4
 102              		.cfi_def_cfa_offset 4
 103              		@ sp needed
 104 004c 04F09DE4 		ldr	pc, [sp], #4
 105              	.L7:
 106              		.align	2
 107              	.L6:
 108 0050 00000000 		.word	.LANCHOR0
 109 0054 00000000 		.word	rlist
 110 0058 00000000 		.word	_idle_thread_wa
 111 005c 00000000 		.word	_idle_thread
 112              		.cfi_endproc
 113              	.LFE8:
 114              		.size	chSysInit, .-chSysInit
ARM GAS  /var/folders/l5/0x54b2c10074c8bt31ycjvl80000gp/T//cc750Zzq.s 			page 3


 115              		.section	.text.chSysTimerHandlerI,"ax",%progbits
 116              		.align	2
 117              		.global	chSysTimerHandlerI
 118              		.syntax unified
 119              		.arm
 120              		.fpu softvfp
 121              		.type	chSysTimerHandlerI, %function
 122              	chSysTimerHandlerI:
 123              	.LFB9:
 124              		.loc 1 130 31 is_stmt 1 view -0
 125              		.cfi_startproc
 126              		@ args = 0, pretend = 0, frame = 0
 127              		@ frame_needed = 0, uses_anonymous_args = 0
 128              		.loc 1 132 3 view .LVU27
 129              		.loc 1 132 21 view .LVU28
 130              		.loc 1 136 3 view .LVU29
 131              		.loc 1 130 31 is_stmt 0 view .LVU30
 132 0000 30402DE9 		push	{r4, r5, lr}
 133              		.cfi_def_cfa_offset 12
 134              		.cfi_offset 4, -12
 135              		.cfi_offset 5, -8
 136              		.cfi_offset 14, -4
 137              		.loc 1 136 7 view .LVU31
 138 0004 70309FE5 		ldr	r3, .L18
 139              		.loc 1 143 3 view .LVU32
 140 0008 70409FE5 		ldr	r4, .L18+4
 141              		.loc 1 136 7 view .LVU33
 142 000c 102093E5 		ldr	r2, [r3, #16]
 143              		.loc 1 136 12 view .LVU34
 144 0010 1230D2E5 		ldrb	r3, [r2, #18]	@ zero_extendqisi2
 145              		.loc 1 136 6 view .LVU35
 146 0014 000053E3 		cmp	r3, #0
 147              		.loc 1 138 5 is_stmt 1 view .LVU36
 148              		.loc 1 138 21 is_stmt 0 view .LVU37
 149 0018 01304312 		subne	r3, r3, #1
 150 001c 1230C215 		strbne	r3, [r2, #18]
 151              		.loc 1 143 3 is_stmt 1 view .LVU38
 152 0020 0C2094E5 		ldr	r2, [r4, #12]
 153 0024 003094E5 		ldr	r3, [r4]
 154 0028 012082E2 		add	r2, r2, #1
 155 002c 040053E1 		cmp	r3, r4
 156 0030 0C2084E5 		str	r2, [r4, #12]
 157              		.loc 1 143 3 view .LVU39
 158 0034 3080BD08 		popeq	{r4, r5, pc}
 159              	.LBB2:
 160              		.loc 1 143 3 discriminator 1 view .LVU40
 161              		.loc 1 143 3 discriminator 1 view .LVU41
 162 0038 085093E5 		ldr	r5, [r3, #8]
 163 003c 015045E2 		sub	r5, r5, #1
 164 0040 000055E3 		cmp	r5, #0
 165 0044 085083E5 		str	r5, [r3, #8]
 166              		.loc 1 143 3 discriminator 1 view .LVU42
 167              	.LBB3:
 168              		.loc 1 143 3 discriminator 1 view .LVU43
 169              		.loc 1 143 3 discriminator 1 view .LVU44
 170              		.loc 1 143 3 discriminator 1 view .LVU45
 171              	.LVL5:
ARM GAS  /var/folders/l5/0x54b2c10074c8bt31ycjvl80000gp/T//cc750Zzq.s 			page 4


 172              		.loc 1 143 3 is_stmt 0 discriminator 1 view .LVU46
 173              	.LBE3:
 174 0048 3080BD18 		popne	{r4, r5, pc}
 175              	.L11:
 176              	.LBB4:
 177              		.loc 1 143 3 is_stmt 1 discriminator 5 view .LVU47
 178 004c 002093E5 		ldr	r2, [r3]
 179 0050 0C1093E5 		ldr	r1, [r3, #12]
 180              	.LVL6:
 181              		.loc 1 143 3 discriminator 5 view .LVU48
 182 0054 100093E5 		ldr	r0, [r3, #16]
 183 0058 0C5083E5 		str	r5, [r3, #12]
 184              		.loc 1 143 3 discriminator 5 view .LVU49
 185 005c 002084E5 		str	r2, [r4]
 186 0060 044082E5 		str	r4, [r2, #4]
 187              		.loc 1 143 3 discriminator 5 view .LVU50
 188              		.loc 1 143 3 discriminator 5 view .LVU51
 189              		.loc 1 143 3 discriminator 5 view .LVU52
 190              		.loc 1 143 3 discriminator 5 view .LVU53
 191              		.loc 1 143 3 discriminator 5 view .LVU54
 192 0064 31FF2FE1 		blx	r1
 193              	.LVL7:
 194              		.loc 1 143 3 discriminator 5 view .LVU55
 195              		.loc 1 143 3 discriminator 5 view .LVU56
 196              		.loc 1 143 3 discriminator 5 view .LVU57
 197              	.LBE4:
 198 0068 003094E5 		ldr	r3, [r4]
 199              	.LVL8:
 200              		.loc 1 143 3 is_stmt 0 discriminator 5 view .LVU58
 201 006c 082093E5 		ldr	r2, [r3, #8]
 202 0070 000052E3 		cmp	r2, #0
 203 0074 F4FFFF0A 		beq	.L11
 204 0078 3080BDE8 		pop	{r4, r5, pc}
 205              	.L19:
 206              		.align	2
 207              	.L18:
 208 007c 00000000 		.word	rlist
 209 0080 00000000 		.word	vtlist
 210              	.LBE2:
 211              		.cfi_endproc
 212              	.LFE9:
 213              		.size	chSysTimerHandlerI, .-chSysTimerHandlerI
 214              		.comm	_idle_thread_wa,128,4
 215              		.section	.bss.mainthread.1930,"aw",%nobits
 216              		.align	2
 217              		.set	.LANCHOR0,. + 0
 218              		.type	mainthread.1930, %object
 219              		.size	mainthread.1930, 40
 220              	mainthread.1930:
 221 0000 00000000 		.space	40
 221      00000000 
 221      00000000 
 221      00000000 
 221      00000000 
 222              		.text
 223              	.Letext0:
 224              		.file 2 "/usr/local/Cellar/arm-gcc-bin/8-2019-q3-update/arm-none-eabi/include/machine/_default_typ
ARM GAS  /var/folders/l5/0x54b2c10074c8bt31ycjvl80000gp/T//cc750Zzq.s 			page 5


 225              		.file 3 "/usr/local/Cellar/arm-gcc-bin/8-2019-q3-update/arm-none-eabi/include/sys/_stdint.h"
 226              		.file 4 "../../../os/ports/GCC/ARM/chtypes.h"
 227              		.file 5 "../../../os/kernel/include/chlists.h"
 228              		.file 6 "../../../os/kernel/include/chthreads.h"
 229              		.file 7 "../../../os/ports/GCC/ARM/chcore.h"
 230              		.file 8 "../../../os/kernel/include/chvt.h"
 231              		.file 9 "../../../os/kernel/include/chschd.h"
 232              		.file 10 "../../../os/kernel/include/chmtx.h"
 233              		.file 11 "../../../os/kernel/include/ch.h"