ARM GAS  /var/folders/l5/0x54b2c10074c8bt31ycjvl80000gp/T//cc0rXl4T.s 			page 1


   1              		.file	"chthreads.c"
   2              		.text
   3              	.Ltext0:
   4              		.cfi_sections	.debug_frame
   5              		.section	.text._thread_init,"ax",%progbits
   6              		.align	2
   7              		.global	_thread_init
   8              		.arch armv6kz
   9              		.syntax unified
  10              		.arm
  11              		.fpu softvfp
  12              		.type	_thread_init, %function
  13              	_thread_init:
  14              	.LVL0:
  15              	.LFB7:
  16              		.file 1 "../../../os/kernel/src/chthreads.c"
  17              		.loc 1 69 48 view -0
  18              		.cfi_startproc
  19              		@ args = 0, pretend = 0, frame = 0
  20              		@ frame_needed = 0, uses_anonymous_args = 0
  21              		.loc 1 71 3 view .LVU1
  22              		.loc 1 79 17 is_stmt 0 view .LVU2
  23 0000 0020A0E3 		mov	r2, #0
  24              		.loc 1 69 48 view .LVU3
  25 0004 04E02DE5 		str	lr, [sp, #-4]!
  26              		.cfi_def_cfa_offset 4
  27              		.cfi_offset 14, -4
  28              		.loc 1 75 17 view .LVU4
  29 0008 14C0A0E3 		mov	ip, #20
  30              		.loc 1 72 15 view .LVU5
  31 000c 02E0A0E3 		mov	lr, #2
  32              		.loc 1 71 14 view .LVU6
  33 0010 081080E5 		str	r1, [r0, #8]
  34              		.loc 1 72 3 is_stmt 1 view .LVU7
  35              		.loc 1 73 3 view .LVU8
  36              		.loc 1 75 3 view .LVU9
  37              		.loc 1 78 18 is_stmt 0 view .LVU10
  38 0014 241080E5 		str	r1, [r0, #36]
  39              		.loc 1 95 3 view .LVU11
  40 0018 181080E2 		add	r1, r0, #24
  41              	.LVL1:
  42              		.loc 1 72 15 view .LVU12
  43 001c B0E1C0E1 		strh	lr, [r0, #16]	@ movhi
  44              		.loc 1 75 17 view .LVU13
  45 0020 12C0C0E5 		strb	ip, [r0, #18]
  46              		.loc 1 78 3 is_stmt 1 view .LVU14
  47              		.loc 1 79 3 view .LVU15
  48              		.loc 1 95 3 is_stmt 0 view .LVU16
  49 0024 181080E5 		str	r1, [r0, #24]
  50              		.loc 1 79 17 view .LVU17
  51 0028 202080E5 		str	r2, [r0, #32]
  52              		.loc 1 82 3 is_stmt 1 view .LVU18
  53              		.loc 1 82 18 is_stmt 0 view .LVU19
  54 002c 1C2080E5 		str	r2, [r0, #28]
  55              		.loc 1 95 3 is_stmt 1 view .LVU20
  56              		.loc 1 104 3 view .LVU21
  57              		.loc 1 104 27 view .LVU22
ARM GAS  /var/folders/l5/0x54b2c10074c8bt31ycjvl80000gp/T//cc0rXl4T.s 			page 2


  58              		.loc 1 106 3 view .LVU23
  59              		.loc 1 107 1 is_stmt 0 view .LVU24
  60 0030 04F09DE4 		ldr	pc, [sp], #4
  61              		.cfi_endproc
  62              	.LFE7:
  63              		.size	_thread_init, .-_thread_init
  64              		.section	.text.chThdCreateI,"ax",%progbits
  65              		.align	2
  66              		.global	chThdCreateI
  67              		.syntax unified
  68              		.arm
  69              		.fpu softvfp
  70              		.type	chThdCreateI, %function
  71              	chThdCreateI:
  72              	.LVL2:
  73              	.LFB8:
  74              		.loc 1 151 59 is_stmt 1 view -0
  75              		.cfi_startproc
  76              		@ args = 4, pretend = 0, frame = 0
  77              		@ frame_needed = 0, uses_anonymous_args = 0
  78              		.loc 1 153 3 view .LVU26
  79              		.loc 1 155 3 view .LVU27
  80              		.loc 1 155 21 view .LVU28
  81              		.loc 1 157 3 view .LVU29
  82              		.loc 1 159 29 view .LVU30
  83              		.loc 1 160 3 view .LVU31
  84              		.loc 1 151 59 is_stmt 0 view .LVU32
  85 0000 70402DE9 		push	{r4, r5, r6, lr}
  86              		.cfi_def_cfa_offset 16
  87              		.cfi_offset 4, -16
  88              		.cfi_offset 5, -12
  89              		.cfi_offset 6, -8
  90              		.cfi_offset 14, -4
  91              	.LBB12:
  92              	.LBB13:
  93              		.loc 1 79 17 view .LVU33
  94 0004 0040A0E3 		mov	r4, #0
  95              		.loc 1 72 15 view .LVU34
  96 0008 0260A0E3 		mov	r6, #2
  97              		.loc 1 75 17 view .LVU35
  98 000c 1450A0E3 		mov	r5, #20
  99              	.LBE13:
 100              	.LBE12:
 101              		.loc 1 160 3 view .LVU36
 102 0010 241041E2 		sub	r1, r1, #36
 103              	.LVL3:
 104              		.loc 1 160 3 view .LVU37
 105 0014 01E080E0 		add	lr, r0, r1
 106 0018 0CE080E5 		str	lr, [r0, #12]
 107              		.loc 1 160 3 is_stmt 1 view .LVU38
 108 001c 013080E7 		str	r3, [r0, r1]
 109              		.loc 1 160 3 view .LVU39
 110 0020 2C309FE5 		ldr	r3, .L6
 111              	.LVL4:
 112              		.loc 1 151 59 is_stmt 0 view .LVU40
 113 0024 10109DE5 		ldr	r1, [sp, #16]
 114              	.LVL5:
ARM GAS  /var/folders/l5/0x54b2c10074c8bt31ycjvl80000gp/T//cc0rXl4T.s 			page 3


 115              		.loc 1 160 3 view .LVU41
 116 0028 20308EE5 		str	r3, [lr, #32]
 117              	.LBB16:
 118              	.LBB14:
 119              		.loc 1 95 3 view .LVU42
 120 002c 183080E2 		add	r3, r0, #24
 121              	.LBE14:
 122              	.LBE16:
 123              		.loc 1 160 3 view .LVU43
 124 0030 04108EE5 		str	r1, [lr, #4]
 125              		.loc 1 160 3 is_stmt 1 view .LVU44
 126              		.loc 1 160 36 view .LVU45
 127              		.loc 1 161 3 view .LVU46
 128              	.LVL6:
 129              	.LBB17:
 130              	.LBI12:
 131              		.loc 1 69 9 view .LVU47
 132              	.LBB15:
 133              		.loc 1 71 3 view .LVU48
 134              		.loc 1 71 14 is_stmt 0 view .LVU49
 135 0034 082080E5 		str	r2, [r0, #8]
 136              		.loc 1 72 3 is_stmt 1 view .LVU50
 137              		.loc 1 73 3 view .LVU51
 138              		.loc 1 75 3 view .LVU52
 139              		.loc 1 78 18 is_stmt 0 view .LVU53
 140 0038 242080E5 		str	r2, [r0, #36]
 141              		.loc 1 72 15 view .LVU54
 142 003c B061C0E1 		strh	r6, [r0, #16]	@ movhi
 143              	.LVL7:
 144              		.loc 1 75 17 view .LVU55
 145 0040 1250C0E5 		strb	r5, [r0, #18]
 146              		.loc 1 78 3 is_stmt 1 view .LVU56
 147              		.loc 1 79 3 view .LVU57
 148              		.loc 1 95 3 is_stmt 0 view .LVU58
 149 0044 183080E5 		str	r3, [r0, #24]
 150              		.loc 1 79 17 view .LVU59
 151 0048 204080E5 		str	r4, [r0, #32]
 152              		.loc 1 82 3 is_stmt 1 view .LVU60
 153              		.loc 1 82 18 is_stmt 0 view .LVU61
 154 004c 1C4080E5 		str	r4, [r0, #28]
 155              		.loc 1 95 3 is_stmt 1 view .LVU62
 156              		.loc 1 104 3 view .LVU63
 157              		.loc 1 104 27 view .LVU64
 158              		.loc 1 106 3 view .LVU65
 159              	.LVL8:
 160              		.loc 1 106 3 is_stmt 0 view .LVU66
 161              	.LBE15:
 162              	.LBE17:
 163              		.loc 1 162 1 view .LVU67
 164 0050 7080BDE8 		pop	{r4, r5, r6, pc}
 165              	.L7:
 166              		.align	2
 167              	.L6:
 168 0054 00000000 		.word	_port_thread_start
 169              		.cfi_endproc
 170              	.LFE8:
 171              		.size	chThdCreateI, .-chThdCreateI
ARM GAS  /var/folders/l5/0x54b2c10074c8bt31ycjvl80000gp/T//cc0rXl4T.s 			page 4


 172              		.section	.text.chThdCreateStatic,"ax",%progbits
 173              		.align	2
 174              		.global	chThdCreateStatic
 175              		.syntax unified
 176              		.arm
 177              		.fpu softvfp
 178              		.type	chThdCreateStatic, %function
 179              	chThdCreateStatic:
 180              	.LVL9:
 181              	.LFB9:
 182              		.loc 1 181 64 is_stmt 1 view -0
 183              		.cfi_startproc
 184              		@ args = 4, pretend = 0, frame = 0
 185              		@ frame_needed = 0, uses_anonymous_args = 0
 186              		.loc 1 182 3 view .LVU69
 187              		.loc 1 192 3 view .LVU70
 188              		.loc 1 181 64 is_stmt 0 view .LVU71
 189 0000 F0402DE9 		push	{r4, r5, r6, r7, lr}
 190              		.cfi_def_cfa_offset 20
 191              		.cfi_offset 4, -20
 192              		.cfi_offset 5, -16
 193              		.cfi_offset 6, -12
 194              		.cfi_offset 7, -8
 195              		.cfi_offset 14, -4
 196              		.loc 1 181 64 view .LVU72
 197 0004 01C0A0E1 		mov	ip, r1
 198 0008 0040A0E1 		mov	r4, r0
 199 000c 14709DE5 		ldr	r7, [sp, #20]
 200              		.loc 1 192 3 view .LVU73
 201              		.syntax divided
 202              	@ 192 "../../../os/kernel/src/chthreads.c" 1
 203 0010 9FF021E3 		msr     CPSR_c, #0x9F
 204              	@ 0 "" 2
 205              		.loc 1 192 3 is_stmt 1 view .LVU74
 206              		.loc 1 192 14 view .LVU75
 207              		.loc 1 193 3 view .LVU76
 208              	.LVL10:
 209              		.arm
 210              		.syntax unified
 211              	.LBB18:
 212              	.LBI18:
 213              		.loc 1 150 9 view .LVU77
 214              	.LBB19:
 215              		.loc 1 153 3 view .LVU78
 216              		.loc 1 155 3 view .LVU79
 217              		.loc 1 155 21 view .LVU80
 218              		.loc 1 157 3 view .LVU81
 219              		.loc 1 159 29 view .LVU82
 220              		.loc 1 160 3 view .LVU83
 221              	.LBB20:
 222              	.LBB21:
 223              		.loc 1 79 17 is_stmt 0 view .LVU84
 224 0014 0010A0E3 		mov	r1, #0
 225              	.LVL11:
 226              		.loc 1 72 15 view .LVU85
 227 0018 0260A0E3 		mov	r6, #2
 228              		.loc 1 75 17 view .LVU86
ARM GAS  /var/folders/l5/0x54b2c10074c8bt31ycjvl80000gp/T//cc0rXl4T.s 			page 5


 229 001c 1450A0E3 		mov	r5, #20
 230              	.LBE21:
 231              	.LBE20:
 232              		.loc 1 160 3 view .LVU87
 233 0020 24C04CE2 		sub	ip, ip, #36
 234              	.LVL12:
 235              		.loc 1 160 3 view .LVU88
 236 0024 0CE080E0 		add	lr, r0, ip
 237 0028 0CE080E5 		str	lr, [r0, #12]
 238              		.loc 1 160 3 is_stmt 1 view .LVU89
 239 002c 0C3080E7 		str	r3, [r0, ip]
 240              		.loc 1 160 3 view .LVU90
 241 0030 34C09FE5 		ldr	ip, .L10
 242              	.LVL13:
 243              	.LBB24:
 244              	.LBB22:
 245              		.loc 1 95 3 is_stmt 0 view .LVU91
 246 0034 183080E2 		add	r3, r0, #24
 247              	.LVL14:
 248              		.loc 1 95 3 view .LVU92
 249              	.LBE22:
 250              	.LBE24:
 251              		.loc 1 160 3 view .LVU93
 252 0038 04708EE5 		str	r7, [lr, #4]
 253              		.loc 1 160 3 is_stmt 1 view .LVU94
 254 003c 20C08EE5 		str	ip, [lr, #32]
 255              		.loc 1 160 36 view .LVU95
 256              		.loc 1 161 3 view .LVU96
 257              	.LVL15:
 258              	.LBB25:
 259              	.LBI20:
 260              		.loc 1 69 9 view .LVU97
 261              	.LBB23:
 262              		.loc 1 71 3 view .LVU98
 263              		.loc 1 71 14 is_stmt 0 view .LVU99
 264 0040 082080E5 		str	r2, [r0, #8]
 265              		.loc 1 72 3 is_stmt 1 view .LVU100
 266              		.loc 1 73 3 view .LVU101
 267              		.loc 1 75 3 view .LVU102
 268              		.loc 1 78 18 is_stmt 0 view .LVU103
 269 0044 242080E5 		str	r2, [r0, #36]
 270              		.loc 1 72 15 view .LVU104
 271 0048 B061C0E1 		strh	r6, [r0, #16]	@ movhi
 272              	.LVL16:
 273              		.loc 1 75 17 view .LVU105
 274 004c 1250C0E5 		strb	r5, [r0, #18]
 275              		.loc 1 78 3 is_stmt 1 view .LVU106
 276              		.loc 1 79 3 view .LVU107
 277              		.loc 1 95 3 is_stmt 0 view .LVU108
 278 0050 183080E5 		str	r3, [r0, #24]
 279              		.loc 1 79 17 view .LVU109
 280 0054 201080E5 		str	r1, [r0, #32]
 281              		.loc 1 82 3 is_stmt 1 view .LVU110
 282              		.loc 1 82 18 is_stmt 0 view .LVU111
 283 0058 1C1080E5 		str	r1, [r0, #28]
 284              		.loc 1 95 3 is_stmt 1 view .LVU112
 285              		.loc 1 104 3 view .LVU113
ARM GAS  /var/folders/l5/0x54b2c10074c8bt31ycjvl80000gp/T//cc0rXl4T.s 			page 6


 286              		.loc 1 104 27 view .LVU114
 287              		.loc 1 106 3 view .LVU115
 288              	.LVL17:
 289              		.loc 1 106 3 is_stmt 0 view .LVU116
 290              	.LBE23:
 291              	.LBE25:
 292              	.LBE19:
 293              	.LBE18:
 294              		.loc 1 193 3 view .LVU117
 295 005c FEFFFFEB 		bl	chSchWakeupS
 296              	.LVL18:
 297              		.loc 1 194 3 is_stmt 1 view .LVU118
 298              		.loc 1 194 3 view .LVU119
 299              		.syntax divided
 300              	@ 194 "../../../os/kernel/src/chthreads.c" 1
 301 0060 1FF021E3 		msr     CPSR_c, #0x1F
 302              	@ 0 "" 2
 303              		.loc 1 194 16 view .LVU120
 304              		.loc 1 195 3 view .LVU121
 305              		.loc 1 196 1 is_stmt 0 view .LVU122
 306              		.arm
 307              		.syntax unified
 308 0064 0400A0E1 		mov	r0, r4
 309 0068 F080BDE8 		pop	{r4, r5, r6, r7, pc}
 310              	.L11:
 311              		.align	2
 312              	.L10:
 313 006c 00000000 		.word	_port_thread_start
 314              		.cfi_endproc
 315              	.LFE9:
 316              		.size	chThdCreateStatic, .-chThdCreateStatic
 317              		.section	.text.chThdSetPriority,"ax",%progbits
 318              		.align	2
 319              		.global	chThdSetPriority
 320              		.syntax unified
 321              		.arm
 322              		.fpu softvfp
 323              		.type	chThdSetPriority, %function
 324              	chThdSetPriority:
 325              	.LVL19:
 326              	.LFB10:
 327              		.loc 1 210 43 is_stmt 1 view -0
 328              		.cfi_startproc
 329              		@ args = 0, pretend = 0, frame = 0
 330              		@ frame_needed = 0, uses_anonymous_args = 0
 331              		.loc 1 211 3 view .LVU124
 332              		.loc 1 213 3 view .LVU125
 333              		.loc 1 213 54 view .LVU126
 334              		.loc 1 215 3 view .LVU127
 335              		.loc 1 210 43 is_stmt 0 view .LVU128
 336 0000 10402DE9 		push	{r4, lr}
 337              		.cfi_def_cfa_offset 8
 338              		.cfi_offset 4, -8
 339              		.cfi_offset 14, -4
 340              		.loc 1 210 43 view .LVU129
 341 0004 0010A0E1 		mov	r1, r0
 342              		.loc 1 215 3 view .LVU130
ARM GAS  /var/folders/l5/0x54b2c10074c8bt31ycjvl80000gp/T//cc0rXl4T.s 			page 7


 343              		.syntax divided
 344              	@ 215 "../../../os/kernel/src/chthreads.c" 1
 345 0008 9FF021E3 		msr     CPSR_c, #0x9F
 346              	@ 0 "" 2
 347              		.loc 1 215 3 is_stmt 1 view .LVU131
 348              		.loc 1 215 14 view .LVU132
 349              		.loc 1 217 3 view .LVU133
 350              		.loc 1 217 13 is_stmt 0 view .LVU134
 351              		.arm
 352              		.syntax unified
 353 000c 38309FE5 		ldr	r3, .L18
 354 0010 103093E5 		ldr	r3, [r3, #16]
 355              		.loc 1 218 13 view .LVU135
 356 0014 080093E5 		ldr	r0, [r3, #8]
 357              	.LVL20:
 358              		.loc 1 217 11 view .LVU136
 359 0018 244093E5 		ldr	r4, [r3, #36]
 360              	.LVL21:
 361              		.loc 1 218 3 is_stmt 1 view .LVU137
 362              		.loc 1 220 21 is_stmt 0 view .LVU138
 363 001c 241083E5 		str	r1, [r3, #36]
 364              		.loc 1 218 6 view .LVU139
 365 0020 042040E0 		sub	r2, r0, r4
 366 0024 122F6FE1 		clz	r2, r2
 367 0028 A222A0E1 		lsr	r2, r2, #5
 368              		.loc 1 218 44 view .LVU140
 369 002c 010050E1 		cmp	r0, r1
 370 0030 01208233 		orrcc	r2, r2, #1
 371 0034 000052E3 		cmp	r2, #0
 372              		.loc 1 219 5 is_stmt 1 view .LVU141
 373              		.loc 1 219 19 is_stmt 0 view .LVU142
 374 0038 08108315 		strne	r1, [r3, #8]
 375              		.loc 1 220 3 is_stmt 1 view .LVU143
 376              		.loc 1 225 3 view .LVU144
 377 003c FEFFFFEB 		bl	chSchRescheduleS
 378              	.LVL22:
 379              		.loc 1 226 3 view .LVU145
 380              		.loc 1 226 3 view .LVU146
 381              		.syntax divided
 382              	@ 226 "../../../os/kernel/src/chthreads.c" 1
 383 0040 1FF021E3 		msr     CPSR_c, #0x1F
 384              	@ 0 "" 2
 385              		.loc 1 226 16 view .LVU147
 386              		.loc 1 227 3 view .LVU148
 387              		.loc 1 228 1 is_stmt 0 view .LVU149
 388              		.arm
 389              		.syntax unified
 390 0044 0400A0E1 		mov	r0, r4
 391 0048 1080BDE8 		pop	{r4, pc}
 392              	.L19:
 393              		.align	2
 394              	.L18:
 395 004c 00000000 		.word	rlist
 396              		.cfi_endproc
 397              	.LFE10:
 398              		.size	chThdSetPriority, .-chThdSetPriority
 399              		.section	.text.chThdResume,"ax",%progbits
ARM GAS  /var/folders/l5/0x54b2c10074c8bt31ycjvl80000gp/T//cc0rXl4T.s 			page 8


 400              		.align	2
 401              		.global	chThdResume
 402              		.syntax unified
 403              		.arm
 404              		.fpu softvfp
 405              		.type	chThdResume, %function
 406              	chThdResume:
 407              	.LVL23:
 408              	.LFB11:
 409              		.loc 1 243 33 is_stmt 1 view -0
 410              		.cfi_startproc
 411              		@ args = 0, pretend = 0, frame = 0
 412              		@ frame_needed = 0, uses_anonymous_args = 0
 413              		.loc 1 245 3 view .LVU151
 414              		.loc 1 243 33 is_stmt 0 view .LVU152
 415 0000 10402DE9 		push	{r4, lr}
 416              		.cfi_def_cfa_offset 8
 417              		.cfi_offset 4, -8
 418              		.cfi_offset 14, -4
 419              		.loc 1 243 33 view .LVU153
 420 0004 0040A0E1 		mov	r4, r0
 421              		.loc 1 245 3 view .LVU154
 422              		.syntax divided
 423              	@ 245 "../../../os/kernel/src/chthreads.c" 1
 424 0008 9FF021E3 		msr     CPSR_c, #0x9F
 425              	@ 0 "" 2
 426              		.loc 1 245 3 is_stmt 1 view .LVU155
 427              		.loc 1 245 14 view .LVU156
 428              		.loc 1 246 3 view .LVU157
 429              		.loc 1 248 57 view .LVU158
 430              		.loc 1 249 3 view .LVU159
 431              		.arm
 432              		.syntax unified
 433 000c 0010A0E3 		mov	r1, #0
 434 0010 FEFFFFEB 		bl	chSchWakeupS
 435              	.LVL24:
 436              		.loc 1 250 3 view .LVU160
 437              		.loc 1 250 3 view .LVU161
 438              		.syntax divided
 439              	@ 250 "../../../os/kernel/src/chthreads.c" 1
 440 0014 1FF021E3 		msr     CPSR_c, #0x1F
 441              	@ 0 "" 2
 442              		.loc 1 250 16 view .LVU162
 443              		.loc 1 251 3 view .LVU163
 444              		.loc 1 252 1 is_stmt 0 view .LVU164
 445              		.arm
 446              		.syntax unified
 447 0018 0400A0E1 		mov	r0, r4
 448 001c 1080BDE8 		pop	{r4, pc}
 449              		.cfi_endproc
 450              	.LFE11:
 451              		.size	chThdResume, .-chThdResume
 452              		.section	.text.chThdTerminate,"ax",%progbits
 453              		.align	2
 454              		.global	chThdTerminate
 455              		.syntax unified
 456              		.arm
ARM GAS  /var/folders/l5/0x54b2c10074c8bt31ycjvl80000gp/T//cc0rXl4T.s 			page 9


 457              		.fpu softvfp
 458              		.type	chThdTerminate, %function
 459              	chThdTerminate:
 460              	.LVL25:
 461              	.LFB12:
 462              		.loc 1 266 33 is_stmt 1 view -0
 463              		.cfi_startproc
 464              		@ args = 0, pretend = 0, frame = 0
 465              		@ frame_needed = 0, uses_anonymous_args = 0
 466              		@ link register save eliminated.
 467              		.loc 1 268 3 view .LVU166
 468              		.syntax divided
 469              	@ 268 "../../../os/kernel/src/chthreads.c" 1
 470 0000 9FF021E3 		msr     CPSR_c, #0x9F
 471              	@ 0 "" 2
 472              		.loc 1 268 3 view .LVU167
 473              		.loc 1 268 14 view .LVU168
 474              		.loc 1 269 3 view .LVU169
 475              		.loc 1 269 15 is_stmt 0 view .LVU170
 476              		.arm
 477              		.syntax unified
 478 0004 1130D0E5 		ldrb	r3, [r0, #17]	@ zero_extendqisi2
 479 0008 043083E3 		orr	r3, r3, #4
 480 000c 1130C0E5 		strb	r3, [r0, #17]
 481              		.loc 1 270 3 is_stmt 1 view .LVU171
 482              		.loc 1 270 3 view .LVU172
 483              		.syntax divided
 484              	@ 270 "../../../os/kernel/src/chthreads.c" 1
 485 0010 1FF021E3 		msr     CPSR_c, #0x1F
 486              	@ 0 "" 2
 487              		.loc 1 270 16 view .LVU173
 488              		.loc 1 271 1 is_stmt 0 view .LVU174
 489              		.arm
 490              		.syntax unified
 491 0014 1EFF2FE1 		bx	lr
 492              		.cfi_endproc
 493              	.LFE12:
 494              		.size	chThdTerminate, .-chThdTerminate
 495              		.section	.text.chThdSleep,"ax",%progbits
 496              		.align	2
 497              		.global	chThdSleep
 498              		.syntax unified
 499              		.arm
 500              		.fpu softvfp
 501              		.type	chThdSleep, %function
 502              	chThdSleep:
 503              	.LVL26:
 504              	.LFB13:
 505              		.loc 1 285 33 is_stmt 1 view -0
 506              		.cfi_startproc
 507              		@ args = 0, pretend = 0, frame = 0
 508              		@ frame_needed = 0, uses_anonymous_args = 0
 509              		.loc 1 287 3 view .LVU176
 510              		.loc 1 287 51 view .LVU177
 511              		.loc 1 289 3 view .LVU178
 512              		.loc 1 285 33 is_stmt 0 view .LVU179
 513 0000 04E02DE5 		str	lr, [sp, #-4]!
ARM GAS  /var/folders/l5/0x54b2c10074c8bt31ycjvl80000gp/T//cc0rXl4T.s 			page 10


 514              		.cfi_def_cfa_offset 4
 515              		.cfi_offset 14, -4
 516              		.loc 1 285 33 view .LVU180
 517 0004 0010A0E1 		mov	r1, r0
 518              		.loc 1 289 3 view .LVU181
 519              		.syntax divided
 520              	@ 289 "../../../os/kernel/src/chthreads.c" 1
 521 0008 9FF021E3 		msr     CPSR_c, #0x9F
 522              	@ 0 "" 2
 523              		.loc 1 289 3 is_stmt 1 view .LVU182
 524              		.loc 1 289 14 view .LVU183
 525              		.loc 1 290 3 view .LVU184
 526              		.arm
 527              		.syntax unified
 528 000c 0600A0E3 		mov	r0, #6
 529              	.LVL27:
 530              		.loc 1 290 3 is_stmt 0 view .LVU185
 531 0010 FEFFFFEB 		bl	chSchGoSleepTimeoutS
 532              	.LVL28:
 533              		.loc 1 291 3 is_stmt 1 view .LVU186
 534              		.loc 1 291 3 view .LVU187
 535              		.syntax divided
 536              	@ 291 "../../../os/kernel/src/chthreads.c" 1
 537 0014 1FF021E3 		msr     CPSR_c, #0x1F
 538              	@ 0 "" 2
 539              		.loc 1 291 16 view .LVU188
 540              		.loc 1 292 1 is_stmt 0 view .LVU189
 541              		.arm
 542              		.syntax unified
 543 0018 04F09DE4 		ldr	pc, [sp], #4
 544              		.cfi_endproc
 545              	.LFE13:
 546              		.size	chThdSleep, .-chThdSleep
 547              		.section	.text.chThdSleepUntil,"ax",%progbits
 548              		.align	2
 549              		.global	chThdSleepUntil
 550              		.syntax unified
 551              		.arm
 552              		.fpu softvfp
 553              		.type	chThdSleepUntil, %function
 554              	chThdSleepUntil:
 555              	.LVL29:
 556              	.LFB14:
 557              		.loc 1 302 38 is_stmt 1 view -0
 558              		.cfi_startproc
 559              		@ args = 0, pretend = 0, frame = 0
 560              		@ frame_needed = 0, uses_anonymous_args = 0
 561              		.loc 1 304 3 view .LVU191
 562              		.syntax divided
 563              	@ 304 "../../../os/kernel/src/chthreads.c" 1
 564 0000 9FF021E3 		msr     CPSR_c, #0x9F
 565              	@ 0 "" 2
 566              		.loc 1 304 3 view .LVU192
 567              		.loc 1 304 14 view .LVU193
 568              		.loc 1 305 3 view .LVU194
 569              		.loc 1 305 16 is_stmt 0 view .LVU195
 570              		.arm
ARM GAS  /var/folders/l5/0x54b2c10074c8bt31ycjvl80000gp/T//cc0rXl4T.s 			page 11


 571              		.syntax unified
 572 0004 24309FE5 		ldr	r3, .L35
 573 0008 0C1093E5 		ldr	r1, [r3, #12]
 574              	.LVL30:
 575              		.loc 1 305 6 view .LVU196
 576 000c 011050E0 		subs	r1, r0, r1
 577              	.LVL31:
 578              		.loc 1 305 6 view .LVU197
 579 0010 0100001A 		bne	.L34
 580              		.loc 1 307 3 is_stmt 1 view .LVU198
 581              		.loc 1 307 3 view .LVU199
 582              		.syntax divided
 583              	@ 307 "../../../os/kernel/src/chthreads.c" 1
 584 0014 1FF021E3 		msr     CPSR_c, #0x1F
 585              	@ 0 "" 2
 586              		.loc 1 307 16 view .LVU200
 587              		.loc 1 307 3 is_stmt 0 view .LVU201
 588              		.arm
 589              		.syntax unified
 590 0018 1EFF2FE1 		bx	lr
 591              	.L34:
 592              		.loc 1 306 5 is_stmt 1 view .LVU202
 593              		.loc 1 302 38 is_stmt 0 view .LVU203
 594 001c 04E02DE5 		str	lr, [sp, #-4]!
 595              		.cfi_def_cfa_offset 4
 596              		.cfi_offset 14, -4
 597              		.loc 1 306 5 view .LVU204
 598 0020 0600A0E3 		mov	r0, #6
 599 0024 FEFFFFEB 		bl	chSchGoSleepTimeoutS
 600              	.LVL32:
 601              		.loc 1 307 3 is_stmt 1 view .LVU205
 602              		.loc 1 307 3 view .LVU206
 603              		.syntax divided
 604              	@ 307 "../../../os/kernel/src/chthreads.c" 1
 605 0028 1FF021E3 		msr     CPSR_c, #0x1F
 606              	@ 0 "" 2
 607              		.loc 1 307 16 view .LVU207
 608              		.loc 1 308 1 is_stmt 0 view .LVU208
 609              		.arm
 610              		.syntax unified
 611 002c 04F09DE4 		ldr	pc, [sp], #4
 612              	.L36:
 613              		.align	2
 614              	.L35:
 615 0030 00000000 		.word	vtlist
 616              		.cfi_endproc
 617              	.LFE14:
 618              		.size	chThdSleepUntil, .-chThdSleepUntil
 619              		.section	.text.chThdYield,"ax",%progbits
 620              		.align	2
 621              		.global	chThdYield
 622              		.syntax unified
 623              		.arm
 624              		.fpu softvfp
 625              		.type	chThdYield, %function
 626              	chThdYield:
 627              	.LFB15:
ARM GAS  /var/folders/l5/0x54b2c10074c8bt31ycjvl80000gp/T//cc0rXl4T.s 			page 12


 628              		.loc 1 317 23 is_stmt 1 view -0
 629              		.cfi_startproc
 630              		@ args = 0, pretend = 0, frame = 0
 631              		@ frame_needed = 0, uses_anonymous_args = 0
 632              		.loc 1 319 3 view .LVU210
 633              		.syntax divided
 634              	@ 319 "../../../os/kernel/src/chthreads.c" 1
 635 0000 9FF021E3 		msr     CPSR_c, #0x9F
 636              	@ 0 "" 2
 637              		.loc 1 319 3 view .LVU211
 638              		.loc 1 319 14 view .LVU212
 639              		.loc 1 320 3 view .LVU213
 640              		.arm
 641              		.syntax unified
 642 0004 2C309FE5 		ldr	r3, .L44
 643 0008 002093E5 		ldr	r2, [r3]
 644 000c 103093E5 		ldr	r3, [r3, #16]
 645 0010 082092E5 		ldr	r2, [r2, #8]
 646 0014 083093E5 		ldr	r3, [r3, #8]
 647 0018 030052E1 		cmp	r2, r3
 648 001c 0100002A 		bcs	.L43
 649              		.loc 1 320 18 view .LVU214
 650              		.loc 1 321 3 view .LVU215
 651              		.loc 1 321 3 view .LVU216
 652              		.syntax divided
 653              	@ 321 "../../../os/kernel/src/chthreads.c" 1
 654 0020 1FF021E3 		msr     CPSR_c, #0x1F
 655              	@ 0 "" 2
 656              		.loc 1 321 16 view .LVU217
 657              		.loc 1 321 3 is_stmt 0 view .LVU218
 658              		.arm
 659              		.syntax unified
 660 0024 1EFF2FE1 		bx	lr
 661              	.L43:
 662              		.loc 1 320 3 is_stmt 1 discriminator 1 view .LVU219
 663              		.loc 1 317 23 is_stmt 0 discriminator 1 view .LVU220
 664 0028 04E02DE5 		str	lr, [sp, #-4]!
 665              		.cfi_def_cfa_offset 4
 666              		.cfi_offset 14, -4
 667              		.loc 1 320 3 discriminator 1 view .LVU221
 668 002c FEFFFFEB 		bl	chSchDoRescheduleBehind
 669              	.LVL33:
 670              		.loc 1 320 18 is_stmt 1 discriminator 1 view .LVU222
 671              		.loc 1 321 3 discriminator 1 view .LVU223
 672              		.loc 1 321 3 discriminator 1 view .LVU224
 673              		.syntax divided
 674              	@ 321 "../../../os/kernel/src/chthreads.c" 1
 675 0030 1FF021E3 		msr     CPSR_c, #0x1F
 676              	@ 0 "" 2
 677              		.loc 1 321 16 discriminator 1 view .LVU225
 678              		.loc 1 322 1 is_stmt 0 discriminator 1 view .LVU226
 679              		.arm
 680              		.syntax unified
 681 0034 04F09DE4 		ldr	pc, [sp], #4
 682              	.L45:
 683              		.align	2
 684              	.L44:
ARM GAS  /var/folders/l5/0x54b2c10074c8bt31ycjvl80000gp/T//cc0rXl4T.s 			page 13


 685 0038 00000000 		.word	rlist
 686              		.cfi_endproc
 687              	.LFE15:
 688              		.size	chThdYield, .-chThdYield
 689              		.section	.text.chThdExitS,"ax",%progbits
 690              		.align	2
 691              		.global	chThdExitS
 692              		.syntax unified
 693              		.arm
 694              		.fpu softvfp
 695              		.type	chThdExitS, %function
 696              	chThdExitS:
 697              	.LVL34:
 698              	.LFB17:
 699              		.loc 1 359 28 is_stmt 1 view -0
 700              		.cfi_startproc
 701              		@ args = 0, pretend = 0, frame = 0
 702              		@ frame_needed = 0, uses_anonymous_args = 0
 703              		.loc 1 360 3 view .LVU228
 704              		.loc 1 360 11 is_stmt 0 view .LVU229
 705 0000 40309FE5 		ldr	r3, .L51
 706              		.loc 1 359 28 view .LVU230
 707 0004 30402DE9 		push	{r4, r5, lr}
 708              		.cfi_def_cfa_offset 12
 709              		.cfi_offset 4, -12
 710              		.cfi_offset 5, -8
 711              		.cfi_offset 14, -4
 712              		.loc 1 360 11 view .LVU231
 713 0008 104093E5 		ldr	r4, [r3, #16]
 714              	.LVL35:
 715              		.loc 1 362 3 is_stmt 1 view .LVU232
 716              		.loc 1 367 10 is_stmt 0 view .LVU233
 717 000c 0450A0E1 		mov	r5, r4
 718 0010 1830B5E5 		ldr	r3, [r5, #24]!
 719              		.loc 1 362 20 view .LVU234
 720 0014 140084E5 		str	r0, [r4, #20]
 721              		.loc 1 364 3 is_stmt 1 view .LVU235
 722              		.loc 1 364 27 view .LVU236
 723              		.loc 1 367 3 view .LVU237
 724              		.loc 1 367 9 is_stmt 0 view .LVU238
 725 0018 050053E1 		cmp	r3, r5
 726 001c 0600000A 		beq	.L47
 727              	.LVL36:
 728              	.L48:
 729              		.loc 1 368 5 is_stmt 1 view .LVU239
 730              	.LBB26:
 731              	.LBI26:
 732              		.file 2 "../../../os/kernel/include/chinline.h"
 733              		.loc 2 79 23 view .LVU240
 734              	.LBB27:
 735              		.loc 2 81 3 view .LVU241
 736              		.loc 2 82 3 view .LVU242
 737              		.loc 2 82 19 is_stmt 0 view .LVU243
 738 0020 002093E5 		ldr	r2, [r3]
 739              	.LBE27:
 740              	.LBE26:
 741              		.loc 1 368 5 view .LVU244
ARM GAS  /var/folders/l5/0x54b2c10074c8bt31ycjvl80000gp/T//cc0rXl4T.s 			page 14


 742 0024 0300A0E1 		mov	r0, r3
 743              	.LBB29:
 744              	.LBB28:
 745              		.loc 2 82 15 view .LVU245
 746 0028 182084E5 		str	r2, [r4, #24]
 747              		.loc 2 83 3 is_stmt 1 view .LVU246
 748              	.LVL37:
 749              		.loc 2 83 3 is_stmt 0 view .LVU247
 750              	.LBE28:
 751              	.LBE29:
 752              		.loc 1 368 5 view .LVU248
 753 002c FEFFFFEB 		bl	chSchReadyI
 754              	.LVL38:
 755              		.loc 1 367 10 view .LVU249
 756 0030 183094E5 		ldr	r3, [r4, #24]
 757              		.loc 1 367 9 view .LVU250
 758 0034 050053E1 		cmp	r3, r5
 759 0038 F8FFFF1A 		bne	.L48
 760              	.LVL39:
 761              	.L47:
 762              		.loc 1 376 3 is_stmt 1 view .LVU251
 763              		.loc 1 379 1 is_stmt 0 view .LVU252
 764 003c 3040BDE8 		pop	{r4, r5, lr}
 765              		.cfi_restore 14
 766              		.cfi_restore 5
 767              		.cfi_restore 4
 768              		.cfi_def_cfa_offset 0
 769              	.LVL40:
 770              		.loc 1 376 3 view .LVU253
 771 0040 0E00A0E3 		mov	r0, #14
 772 0044 FEFFFFEA 		b	chSchGoSleepS
 773              	.LVL41:
 774              	.L52:
 775              		.align	2
 776              	.L51:
 777 0048 00000000 		.word	rlist
 778              		.cfi_endproc
 779              	.LFE17:
 780              		.size	chThdExitS, .-chThdExitS
 781              		.section	.text.chThdExit,"ax",%progbits
 782              		.align	2
 783              		.global	chThdExit
 784              		.syntax unified
 785              		.arm
 786              		.fpu softvfp
 787              		.type	chThdExit, %function
 788              	chThdExit:
 789              	.LVL42:
 790              	.LFB16:
 791              		.loc 1 338 27 is_stmt 1 view -0
 792              		.cfi_startproc
 793              		@ args = 0, pretend = 0, frame = 0
 794              		@ frame_needed = 0, uses_anonymous_args = 0
 795              		@ link register save eliminated.
 796              		.loc 1 340 3 view .LVU255
 797              		.syntax divided
 798              	@ 340 "../../../os/kernel/src/chthreads.c" 1
ARM GAS  /var/folders/l5/0x54b2c10074c8bt31ycjvl80000gp/T//cc0rXl4T.s 			page 15


 799 0000 9FF021E3 		msr     CPSR_c, #0x9F
 800              	@ 0 "" 2
 801              		.loc 1 340 3 view .LVU256
 802              		.loc 1 340 14 view .LVU257
 803              		.loc 1 341 3 view .LVU258
 804              		.arm
 805              		.syntax unified
 806 0004 FEFFFFEA 		b	chThdExitS
 807              	.LVL43:
 808              		.loc 1 341 3 is_stmt 0 view .LVU259
 809              		.cfi_endproc
 810              	.LFE16:
 811              		.size	chThdExit, .-chThdExit
 812              		.section	.text.chThdWait,"ax",%progbits
 813              		.align	2
 814              		.global	chThdWait
 815              		.syntax unified
 816              		.arm
 817              		.fpu softvfp
 818              		.type	chThdWait, %function
 819              	chThdWait:
 820              	.LVL44:
 821              	.LFB18:
 822              		.loc 1 413 29 is_stmt 1 view -0
 823              		.cfi_startproc
 824              		@ args = 0, pretend = 0, frame = 0
 825              		@ frame_needed = 0, uses_anonymous_args = 0
 826              		.loc 1 414 3 view .LVU261
 827              		.loc 1 416 3 view .LVU262
 828              		.loc 1 416 38 view .LVU263
 829              		.loc 1 418 3 view .LVU264
 830              		.loc 1 413 29 is_stmt 0 view .LVU265
 831 0000 10402DE9 		push	{r4, lr}
 832              		.cfi_def_cfa_offset 8
 833              		.cfi_offset 4, -8
 834              		.cfi_offset 14, -4
 835              		.loc 1 413 29 view .LVU266
 836 0004 0040A0E1 		mov	r4, r0
 837              		.loc 1 418 3 view .LVU267
 838              		.syntax divided
 839              	@ 418 "../../../os/kernel/src/chthreads.c" 1
 840 0008 9FF021E3 		msr     CPSR_c, #0x9F
 841              	@ 0 "" 2
 842              		.loc 1 418 3 is_stmt 1 view .LVU268
 843              		.loc 1 418 14 view .LVU269
 844              		.loc 1 419 3 view .LVU270
 845              		.loc 1 419 62 view .LVU271
 846              		.loc 1 423 3 view .LVU272
 847              		.loc 1 423 6 is_stmt 0 view .LVU273
 848              		.arm
 849              		.syntax unified
 850 000c 1030D0E5 		ldrb	r3, [r0, #16]	@ zero_extendqisi2
 851 0010 0E0053E3 		cmp	r3, #14
 852 0014 0600000A 		beq	.L55
 853              		.loc 1 419 3 view .LVU274
 854 0018 20309FE5 		ldr	r3, .L60
 855              	.LBB30:
ARM GAS  /var/folders/l5/0x54b2c10074c8bt31ycjvl80000gp/T//cc0rXl4T.s 			page 16


 856              	.LBB31:
 857              		.loc 2 75 19 view .LVU275
 858 001c 182090E5 		ldr	r2, [r0, #24]
 859              	.LBE31:
 860              	.LBE30:
 861              		.loc 1 419 3 view .LVU276
 862 0020 103093E5 		ldr	r3, [r3, #16]
 863              		.loc 1 424 5 is_stmt 1 view .LVU277
 864              	.LVL45:
 865              	.LBB34:
 866              	.LBI30:
 867              		.loc 2 73 20 view .LVU278
 868              	.LBB32:
 869              		.loc 2 75 3 view .LVU279
 870              	.LBE32:
 871              	.LBE34:
 872              		.loc 1 425 5 is_stmt 0 view .LVU280
 873 0024 0700A0E3 		mov	r0, #7
 874              	.LVL46:
 875              	.LBB35:
 876              	.LBB33:
 877              		.loc 2 75 14 view .LVU281
 878 0028 002083E5 		str	r2, [r3]
 879              		.loc 2 76 3 is_stmt 1 view .LVU282
 880              		.loc 2 76 15 is_stmt 0 view .LVU283
 881 002c 183084E5 		str	r3, [r4, #24]
 882              	.LVL47:
 883              		.loc 2 76 15 view .LVU284
 884              	.LBE33:
 885              	.LBE35:
 886              		.loc 1 425 5 is_stmt 1 view .LVU285
 887 0030 FEFFFFEB 		bl	chSchGoSleepS
 888              	.LVL48:
 889              	.L55:
 890              		.loc 1 427 3 view .LVU286
 891              		.loc 1 427 7 is_stmt 0 view .LVU287
 892 0034 140094E5 		ldr	r0, [r4, #20]
 893              	.LVL49:
 894              		.loc 1 428 3 is_stmt 1 view .LVU288
 895              		.loc 1 428 3 view .LVU289
 896              		.syntax divided
 897              	@ 428 "../../../os/kernel/src/chthreads.c" 1
 898 0038 1FF021E3 		msr     CPSR_c, #0x1F
 899              	@ 0 "" 2
 900              		.loc 1 428 16 view .LVU290
 901              		.loc 1 432 3 view .LVU291
 902              		.loc 1 433 1 is_stmt 0 view .LVU292
 903              		.arm
 904              		.syntax unified
 905 003c 1080BDE8 		pop	{r4, pc}
 906              	.L61:
 907              		.align	2
 908              	.L60:
 909 0040 00000000 		.word	rlist
 910              		.cfi_endproc
 911              	.LFE18:
 912              		.size	chThdWait, .-chThdWait
ARM GAS  /var/folders/l5/0x54b2c10074c8bt31ycjvl80000gp/T//cc0rXl4T.s 			page 17


 913              		.text
 914              	.Letext0:
 915              		.file 3 "/usr/local/Cellar/arm-gcc-bin/8-2019-q3-update/lib/gcc/arm-none-eabi/8.3.1/include/stddef
 916              		.file 4 "/usr/local/Cellar/arm-gcc-bin/8-2019-q3-update/arm-none-eabi/include/machine/_default_typ
 917              		.file 5 "/usr/local/Cellar/arm-gcc-bin/8-2019-q3-update/arm-none-eabi/include/sys/_stdint.h"
 918              		.file 6 "../../../os/ports/GCC/ARM/chtypes.h"
 919              		.file 7 "../../../os/kernel/include/chlists.h"
 920              		.file 8 "../../../os/kernel/include/chthreads.h"
 921              		.file 9 "../../../os/ports/GCC/ARM/chcore.h"
 922              		.file 10 "../../../os/kernel/include/chvt.h"
 923              		.file 11 "../../../os/kernel/include/chschd.h"
 924              		.file 12 "../../../os/kernel/include/chmtx.h"
 925              		.file 13 "../../../os/kernel/include/ch.h"