ARM GAS  /var/folders/l5/0x54b2c10074c8bt31ycjvl80000gp/T//cc0rXl4T.s 			page 1


   1              		.file	"chthreads.c"
   2              		.text
   3              	.Ltext0:
   4              		.cfi_sections	.debug_frame
   5              		.section	.text._thread_init,"ax",%progbits
   6              		.align	2
   7              		.global	_thread_init
   8              		.arch armv6kz
   9              		.syntax unified
  10              		.arm
  11              		.fpu softvfp
  12              		.type	_thread_init, %function
  13              	_thread_init:
  14              	.LVL0:
  15              	.LFB7:
  16              		.file 1 "../../../os/kernel/src/chthreads.c"
  17              		.loc 1 69 48 view -0
  18              		.cfi_startproc
  19              		@ args = 0, pretend = 0, frame = 0
  20              		@ frame_needed = 0, uses_anonymous_args = 0
  21              		.loc 1 71 3 view .LVU1
  22              		.loc 1 79 17 is_stmt 0 view .LVU2
  23 0000 0020A0E3 		mov	r2, #0
  24              		.loc 1 69 48 view .LVU3
  25 0004 04E02DE5 		str	lr, [sp, #-4]!
  26              		.cfi_def_cfa_offset 4
  27              		.cfi_offset 14, -4
  28              		.loc 1 75 17 view .LVU4
  29 0008 14C0A0E3 		mov	ip, #20
  30              		.loc 1 72 15 view .LVU5
  31 000c 02E0A0E3 		mov	lr, #2
  32              		.loc 1 71 14 view .LVU6
  33 0010 081080E5 		str	r1, [r0, #8]
  34              		.loc 1 72 3 is_stmt 1 view .LVU7
  35              		.loc 1 73 3 view .LVU8
  36              		.loc 1 75 3 view .LVU9
  37              		.loc 1 78 18 is_stmt 0 view .LVU10
  38 0014 241080E5 		str	r1, [r0, #36]
  39              		.loc 1 95 3 view .LVU11
  40 0018 181080E2 		add	r1, r0, #24
  41              	.LVL1:
  42              		.loc 1 72 15 view .LVU12
  43 001c B0E1C0E1 		strh	lr, [r0, #16]	@ movhi
  44              		.loc 1 75 17 view .LVU13
  45 0020 12C0C0E5 		strb	ip, [r0, #18]
  46              		.loc 1 78 3 is_stmt 1 view .LVU14
  47              		.loc 1 79 3 view .LVU15
  48              		.loc 1 95 3 is_stmt 0 view .LVU16
  49 0024 181080E5 		str	r1, [r0, #24]
  50              		.loc 1 79 17 view .LVU17
  51 0028 202080E5 		str	r2, [r0, #32]
  52              		.loc 1 82 3 is_stmt 1 view .LVU18
  53              		.loc 1 82 18 is_stmt 0 view .LVU19
  54 002c 1C2080E5 		str	r2, [r0, #28]
  55              		.loc 1 95 3 is_stmt 1 view .LVU20
  56              		.loc 1 104 3 view .LVU21
  57              		.loc 1 104 27 view .LVU22
ARM GAS  /var/folders/l5/0x54b2c10074c8bt31ycjvl80000gp/T//cc0rXl4T.s 			page 2


  58              		.loc 1 106 3 view .LVU23
  59              		.loc 1 107 1 is_stmt 0 view .LVU24
  60 0030 04F09DE4 		ldr	pc, [sp], #4
  61              		.cfi_endproc
  62              	.LFE7:
  63              		.size	_thread_init, .-_thread_init
  64              		.section	.text.chThdCreateI,"ax",%progbits
  65              		.align	2
  66              		.global	chThdCreateI
  67              		.syntax unified
  68              		.arm
  69              		.fpu softvfp
  70              		.type	chThdCreateI, %function
  71              	chThdCreateI:
  72              	.LVL2:
  73              	.LFB8:
  74              		.loc 1 151 59 is_stmt 1 view -0
  75              		.cfi_startproc
  76              		@ args = 4, pretend = 0, frame = 0
  77              		@ frame_needed = 0, uses_anonymous_args = 0
  78              		.loc 1 153 3 view .LVU26
  79              		.loc 1 155 3 view .LVU27
  80              		.loc 1 155 21 view .LVU28
  81              		.loc 1 157 3 view .LVU29
  82              		.loc 1 159 29 view .LVU30
  83              		.loc 1 160 3 view .LVU31
  84              		.loc 1 151 59 is_stmt 0 view .LVU32
  85 0000 70402DE9 		push	{r4, r5, r6, lr}
  86              		.cfi_def_cfa_offset 16
  87              		.cfi_offset 4, -16
  88              		.cfi_offset 5, -12
  89              		.cfi_offset 6, -8
  90              		.cfi_offset 14, -4
  91              	.LBB12:
  92              	.LBB13:
  93              		.loc 1 79 17 view .LVU33
  94 0004 0040A0E3 		mov	r4, #0
  95              		.loc 1 72 15 view .LVU34
  96 0008 0260A0E3 		mov	r6, #2
  97              		.loc 1 75 17 view .LVU35
  98 000c 1450A0E3 		mov	r5, #20
  99              	.LBE13:
 100              	.LBE12:
 101              		.loc 1 160 3 view .LVU36
 102 0010 241041E2 		sub	r1, r1, #36
 103              	.LVL3:
 104              		.loc 1 160 3 view .LVU37
 105 0014 01E080E0 		add	lr, r0, r1
 106 0018 0CE080E5 		str	lr, [r0, #12]
 107              		.loc 1 160 3 is_stmt 1 view .LVU38
 108 001c 013080E7 		str	r3, [r0, r1]
 109              		.loc 1 160 3 view .LVU39
 110 0020 2C309FE5 		ldr	r3, .L6
 111              	.LVL4:
 112              		.loc 1 151 59 is_stmt 0 view .LVU40
 113 0024 10109DE5 		ldr	r1, [sp, #16]
 114              	.LVL5:
ARM GAS  /var/folders/l5/0x54b2c10074c8bt31ycjvl80000gp/T//cc0rXl4T.s 			page 3


 115              		.loc 1 160 3 view .LVU41
 116 0028 20308EE5 		str	r3, [lr, #32]
 117              	.LBB16:
 118              	.LBB14:
 119              		.loc 1 95 3 view .LVU42
 120 002c 183080E2 		add	r3, r0, #24
 121              	.LBE14:
 122              	.LBE16:
 123              		.loc 1 160 3 view .LVU43
 124 0030 04108EE5 		str	r1, [lr, #4]
 125              		.loc 1 160 3 is_stmt 1 view .LVU44
 126              		.loc 1 160 36 view .LVU45
 127              		.loc 1 161 3 view .LVU46
 128              	.LVL6:
 129              	.LBB17:
 130              	.LBI12:
 131              		.loc 1 69 9 view .LVU47
 132              	.LBB15:
 133              		.loc 1 71 3 view .LVU48
 134              		.loc 1 71 14 is_stmt 0 view .LVU49
 135 0034 082080E5 		str	r2, [r0, #8]
 136              		.loc 1 72 3 is_stmt 1 view .LVU50
 137              		.loc 1 73 3 view .LVU51
 138              		.loc 1 75 3 view .LVU52
 139              		.loc 1 78 18 is_stmt 0 view .LVU53
 140 0038 242080E5 		str	r2, [r0, #36]
 141              		.loc 1 72 15 view .LVU54
 142 003c B061C0E1 		strh	r6, [r0, #16]	@ movhi
 143              	.LVL7:
 144              		.loc 1 75 17 view .LVU55
 145 0040 1250C0E5 		strb	r5, [r0, #18]
 146              		.loc 1 78 3 is_stmt 1 view .LVU56
 147              		.loc 1 79 3 view .LVU57
 148              		.loc 1 95 3 is_stmt 0 view .LVU58
 149 0044 183080E5 		str	r3, [r0, #24]
 150              		.loc 1 79 17 view .LVU59
 151 0048 204080E5 		str	r4, [r0, #32]
 152              		.loc 1 82 3 is_stmt 1 view .LVU60
 153              		.loc 1 82 18 is_stmt 0 view .LVU61
 154 004c 1C4080E5 		str	r4, [r0, #28]
 155              		.loc 1 95 3 is_stmt 1 view .LVU62
 156              		.loc 1 104 3 view .LVU63
 157              		.loc 1 104 27 view .LVU64
 158              		.loc 1 106 3 view .LVU65
 159              	.LVL8:
 160              		.loc 1 106 3 is_stmt 0 view .LVU66
 161              	.LBE15:
 162              	.LBE17:
 163              		.loc 1 162 1 view .LVU67
 164 0050 7080BDE8 		pop	{r4, r5, r6, pc}
 165              	.L7:
 166              		.align	2
 167              	.L6:
 168 0054 00000000 		.word	_port_thread_start
 169              		.cfi_endproc
 170              	.LFE8:
 171              		.size	chThdCreateI, .-chThdCreateI
ARM GAS  /var/folders/l5/0x54b2c10074c8bt31ycjvl80000gp/T//cc0rXl4T.s 			page 4


 172              		.section	.text.chThdCreateStatic,"ax",%progbits
 173              		.align	2
 174              		.global	chThdCreateStatic
 175              		.syntax unified
 176              		.arm
 177              		.fpu softvfp
 178              		.type	chThdCreateStatic, %function
 179              	chThdCreateStatic:
 180              	.LVL9:
 181              	.LFB9:
 182              		.loc 1 181 64 is_stmt 1 view -0
 183              		.cfi_startproc
 184              		@ args = 4, pretend = 0, frame = 0
 185              		@ frame_needed = 0, uses_anonymous_args = 0
 186              		.loc 1 182 3 view .LVU69
 187              		.loc 1 192 3 view .LVU70
 188              		.loc 1 181 64 is_stmt 0 view .LVU71
 189 0000 F0402DE9 		push	{r4, r5, r6, r7, lr}
 190              		.cfi_def_cfa_offset 20
 191              		.cfi_offset 4, -20
 192              		.cfi_offset 5, -16
 193              		.cfi_offset 6, -12
 194              		.cfi_offset 7, -8
 195              		.cfi_offset 14, -4
 196              		.loc 1 181 64 view .LVU72
 197 0004 01C0A0E1 		mov	ip, r1
 198 0008 0040A0E1 		mov	r4, r0
 199 000c 14709DE5 		ldr	r7, [sp, #20]
 200              		.loc 1 192 3 view .LVU73
 201              		.syntax divided
 202              	@ 192 "../../../os/kernel/src/chthreads.c" 1
 203 0010 9FF021E3 		msr     CPSR_c, #0x9F
 204              	@ 0 "" 2
 205              		.loc 1 192 3 is_stmt 1 view .LVU74
 206              		.loc 1 192 14 view .LVU75
 207              		.loc 1 193 3 view .LVU76
 208              	.LVL10:
 209              		.arm
 210              		.syntax unified
 211              	.LBB18:
 212              	.LBI18:
 213              		.loc 1 150 9 view .LVU77
 214              	.LBB19:
 215              		.loc 1 153 3 view .LVU78
 216              		.loc 1 155 3 view .LVU79
 217              		.loc 1 155 21 view .LVU80
 218              		.loc 1 157 3 view .LVU81
 219              		.loc 1 159 29 view .LVU82
 220              		.loc 1 160 3 view .LVU83
 221              	.LBB20:
 222              	.LBB21:
 223              		.loc 1 79 17 is_stmt 0 view .LVU84
 224 0014 0010A0E3 		mov	r1, #0
 225              	.LVL11:
 226              		.loc 1 72 15 view .LVU85
 227 0018 0260A0E3 		mov	r6, #2
 228              		.loc 1 75 17 view .LVU86
ARM GAS  /var/folders/l5/0x54b2c10074c8bt31ycjvl80000gp/T//cc0rXl4T.s 			page 5


 229 001c 1450A0E3 		mov	r5, #20
 230              	.LBE21:
 231              	.LBE20:
 232              		.loc 1 160 3 view .LVU87
 233 0020 24C04CE2 		sub	ip, ip, #36
 234              	.LVL12:
 235              		.loc 1 160 3 view .LVU88
 236 0024 0CE080E0 		add	lr, r0, ip
 237 0028 0CE080E5 		str	lr, [r0, #12]
 238              		.loc 1 160 3 is_stmt 1 view .LVU89
 239 002c 0C3080E7 		str	r3, [r0, ip]
 240              		.loc 1 160 3 view .LVU90
 241 0030 34C09FE5 		ldr	ip, .L10
 242              	.LVL13:
 243              	.LBB24:
 244              	.LBB22:
 245              		.loc 1 95 3 is_stmt 0 view .LVU91
 246 0034 183080E2 		add	r3, r0, #24
 247              	.LVL14:
 248              		.loc 1 95 3 view .LVU92
 249              	.LBE22:
 250              	.LBE24:
 251              		.loc 1 160 3 view .LVU93
 252 0038 04708EE5 		str	r7, [lr, #4]
 253              		.loc 1 160 3 is_stmt 1 view .LVU94
 254 003c 20C08EE5 		str	ip, [lr, #32]
 255              		.loc 1 160 36 view .LVU95
 256              		.loc 1 161 3 view .LVU96
 257              	.LVL15:
 258              	.LBB25:
 259              	.LBI20:
 260              		.loc 1 69 9 view .LVU97
 261              	.LBB23:
 262              		.loc 1 71 3 view .LVU98
 263              		.loc 1 71 14 is_stmt 0 view .LVU99
 264 0040 082080E5 		str	r2, [r0, #8]
 265              		.loc 1 72 3 is_stmt 1 view .LVU100
 266              		.loc 1 73 3 view .LVU101
 267              		.loc 1 75 3 view .LVU102
 268              		.loc 1 78 18 is_stmt 0 view .LVU103
 269 0044 242080E5 		str	r2, [r0, #36]
 270              		.loc 1 72 15 view .LVU104
 271 0048 B061C0E1 		strh	r6, [r0, #16]	@ movhi
 272              	.LVL16:
 273              		.loc 1 75 17 view .LVU105
 274 004c 1250C0E5 		strb	r5, [r0, #18]
 275              		.loc 1 78 3 is_stmt 1 view .LVU106
 276              		.loc 1 79 3 view .LVU107
 277              		.loc 1 95 3 is_stmt 0 view .LVU108
 278 0050 183080E5 		str	r3, [r0, #24]
 279              		.loc 1 79 17 view .LVU109
 280 0054 201080E5 		str	r1, [r0, #32]
 281              		.loc 1 82 3 is_stmt 1 view .LVU110
 282              		.loc 1 82 18 is_stmt 0 view .LVU111
 283 0058 1C1080E5 		str	r1, [r0, #28]
 284              		.loc 1 95 3 is_stmt 1 view .LVU112
 285              		.loc 1 104 3 view .LVU113
ARM GAS  /var/folders/l5/0x54b2c10074c8bt31ycjvl80000gp/T//cc0rXl4T.s 			page 6


 286              		.loc 1 104 27 view .LVU114
 287              		.loc 1 106 3 view .LVU115
 288              	.LVL17:
 289              		.loc 1 106 3 is_stmt 0 view .LVU116
 290              	.LBE23:
 291              	.LBE25:
 292              	.LBE19:
 293              	.LBE18:
 294              		.loc 1 193 3 view .LVU117
 295 005c FEFFFFEB 		bl	chSchWakeupS
 296              	.LVL18:
 297              		.loc 1 194 3 is_stmt 1 view .LVU118
 298              		.loc 1 194 3 view .LVU119
 299              		.syntax divided
 300              	@ 194 "../../../os/kernel/src/chthreads.c" 1
 301 0060 1FF021E3 		msr     CPSR_c, #0x1F
 302              	@ 0 "" 2
 303              		.loc 1 194 16 view .LVU120
 304              		.loc 1 195 3 view .LVU121
 305              		.loc 1 196 1 is_stmt 0 view .LVU122
 306              		.arm
 307              		.syntax unified
 308 0064 0400A0E1 		mov	r0, r4
 309 0068 F080BDE8 		pop	{r4, r5, r6, r7, pc}
 310              	.L11:
 311              		.align	2
 312              	.L10:
 313 006c 00000000 		.word	_port_thread_start
 314              		.cfi_endproc
 315              	.LFE9:
 316              		.size	chThdCreateStatic, .-chThdCreateStatic
 317              		.section	.text.chThdSetPriority,"ax",%progbits
 318              		.align	2
 319              		.global	chThdSetPriority
 320              		.syntax unified
 321              		.arm
 322              		.fpu softvfp
 323              		.type	chThdSetPriority, %function
 324              	chThdSetPriority:
 325              	.LVL19:
 326              	.LFB10:
 327              		.loc 1 210 43 is_stmt 1 view -0
 328              		.cfi_startproc
 329              		@ args = 0, pretend = 0, frame = 0
 330              		@ frame_needed = 0, uses_anonymous_args = 0
 331              		.loc 1 211 3 view .LVU124
 332              		.loc 1 213 3 view .LVU125
 333              		.loc 1 213 54 view .LVU126
 334              		.loc 1 215 3 view .LVU127
 335              		.loc 1 210 43 is_stmt 0 view .LVU128
 336 0000 10402DE9 		push	{r4, lr}
 337              		.cfi_def_cfa_offset 8
 338              		.cfi_offset 4, -8
 339              		.cfi_offset 14, -4
 340              		.loc 1 210 43 view .LVU129
 341 0004 0010A0E1 		mov	r1, r0
 342              		.loc 1 215 3 view .LVU130
ARM GAS  /var/folders/l5/0x54b2c10074c8bt31ycjvl80000gp/T//cc0rXl4T.s 			page 7


 343              		.syntax divided
 344              	@ 215 "../../../os/kernel/src/chthreads.c" 1
 345 0008 9FF021E3 		msr     CPSR_c, #0x9F
 346              	@ 0 "" 2
 347              		.loc 1 215 3 is_stmt 1 view .LVU131
 348              		.loc 1 215 14 view .LVU132
 349              		.loc 1 217 3 view .LVU133
 350              		.loc 1 217 13 is_stmt 0 view .LVU134
 351              		.arm
 352              		.syntax unified
 353 000c 38309FE5 		ldr	r3, .L18
 354 0010 103093E5 		ldr	r3, [r3, #16]
 355              		.loc 1 218 13 view .LVU135
 356 0014 080093E5 		ldr	r0, [r3, #8]
 357              	.LVL20:
 358              		.loc 1 217 11 view .LVU136
 359 0018 244093E5 		ldr	r4, [r3, #36]
 360              	.LVL21:
 361              		.loc 1 218 3 is_stmt 1 view .LVU137
 362              		.loc 1 220 21 is_stmt 0 view .LVU138
 363 001c 241083E5 		str	r1, [r3, #36]
 364              		.loc 1 218 6 view .LVU139
 365 0020 042040E0 		sub	r2, r0, r4
 366 0024 122F6FE1 		clz	r2, r2
 367 0028 A222A0E1 		lsr	r2, r2, #5
 368              		.loc 1 218 44 view .LVU140
 369 002c 010050E1 		cmp	r0, r1
 370 0030 01208233 		orrcc	r2, r2, #1
 371 0034 000052E3 		cmp	r2, #0
 372              		.loc 1 219 5 is_stmt 1 view .LVU141
 373              		.loc 1 219 19 is_stmt 0 view .LVU142
 374 0038 08108315 		strne	r1, [r3, #8]
 375              		.loc 1 220 3 is_stmt 1 view .LVU143
 376              		.loc 1 225 3 view .LVU144
 377 003c FEFFFFEB 		bl	chSchRescheduleS
 378              	.LVL22:
 379              		.loc 1 226 3 view .LVU145
 380              		.loc 1 226 3 view .LVU146
 381              		.syntax divided
 382              	@ 226 "../../../os/kernel/src/chthreads.c" 1
 383 0040 1FF021E3 		msr     CPSR_c, #0x1F
 384              	@ 0 "" 2
 385              		.loc 1 226 16 view .LVU147
 386              		.loc 1 227 3 view .LVU148
 387              		.loc 1 228 1 is_stmt 0 view .LVU149
 388              		.arm
 389              		.syntax unified
 390 0044 0400A0E1 		mov	r0, r4
 391 0048 1080BDE8 		pop	{r4, pc}
 392              	.L19:
 393              		.align	2
 394              	.L18:
 395 004c 00000000 		.word	rlist
 396              		.cfi_endproc
 397              	.LFE10:
 398              		.size	chThdSetPriority, .-chThdSetPriority
 399              		.section	.text.chThdResume,"ax",%progbits
ARM GAS  /var/folders/l5/0x54b2c10074c8bt31ycjvl80000gp/T//cc0rXl4T.s 			page 8


 400              		.align	2
 401              		.global	chThdResume
 402              		.syntax unified
 403              		.arm
 404              		.fpu softvfp
 405              		.type	chThdResume, %function
 406              	chThdResume:
 407              	.LVL23:
 408              	.LFB11:
 409              		.loc 1 243 33 is_stmt 1 view -0
 410              		.cfi_startproc
 411              		@ args = 0, pretend = 0, frame = 0
 412              		@ frame_needed = 0, uses_anonymous_args = 0
 413              		.loc 1 245 3 view .LVU151
 414              		.loc 1 243 33 is_stmt 0 view .LVU152
 415 0000 10402DE9 		push	{r4, lr}
 416              		.cfi_def_cfa_offset 8
 417              		.cfi_offset 4, -8
 418              		.cfi_offset 14, -4
 419              		.loc 1 243 33 view .LVU153
 420 0004 0040A0E1 		mov	r4, r0
 421              		.loc 1 245 3 view .LVU154
 422              		.syntax divided
 423              	@ 245 "../../../os/kernel/src/chthreads.c" 1
 424 0008 9FF021E3 		msr     CPSR_c, #0x9F
 425              	@ 0 "" 2
 426              		.loc 1 245 3 is_stmt 1 view .LVU155
 427              		.loc 1 245 14 view .LVU156
 428              		.loc 1 246 3 view .LVU157
 429              		.loc 1 248 57 view .LVU158
 430              		.loc 1 249 3 view .LVU159
 431              		.arm
 432              		.syntax unified
 433 000c 0010A0E3 		mov	r1, #0
 434 0010 FEFFFFEB 		bl	chSchWakeupS
 435              	.LVL24:
 436              		.loc 1 250 3 view .LVU160
 437              		.loc 1 250 3 view .LVU161
 438              		.syntax divided
 439              	@ 250 "../../../os/kernel/src/chthreads.c" 1
 440 0014 1FF021E3 		msr     CPSR_c, #0x1F
 441              	@ 0 "" 2
 442              		.loc 1 250 16 view .LVU162
 443              		.loc 1 251 3 view .LVU163
 444              		.loc 1 252 1 is_stmt 0 view .LVU164
 445              		.arm
 446              		.syntax unified
 447 0018 0400A0E1 		mov	r0, r4
 448 001c 1080BDE8 		pop	{r4, pc}
 449              		.cfi_endproc
 450              	.LFE11:
 451              		.size	chThdResume, .-chThdResume
 452              		.section	.text.chThdTerminate,"ax",%progbits
 453              		.align	2
 454              		.global	chThdTerminate
 455              		.syntax unified
 456              		.arm
ARM GAS  /var/folders/l5/0x54b2c10074c8bt31ycjvl80000gp/T//cc0rXl4T.s 			page 9


 457              		.fpu softvfp
 458              		.type	chThdTerminate, %function
 459              	chThdTerminate:
 460              	.LVL25:
 461              	.LFB12:
 462              		.loc 1 266 33 is_stmt 1 view -0
 463              		.cfi_startproc
 464              		@ args = 0, pretend = 0, frame = 0
 465              		@ frame_needed = 0, uses_anonymous_args = 0
 466              		@ link register save eliminated.
 467              		.loc 1 268 3 view .LVU166
 468              		.syntax divided
 469              	@ 268 "../../../os/kernel/src/chthreads.c" 1
 470 0000 9FF021E3 		msr     CPSR_c, #0x9F
 471              	@ 0 "" 2
 472              		.loc 1 268 3 view .LVU167
 473              		.loc 1 268 14 view .LVU168
 474              		.loc 1 269 3 view .LVU169
 475              		.loc 1 269 15 is_stmt 0 view .LVU170
 476              		.arm
 477              		.syntax unified
 478 0004 1130D0E5 		ldrb	r3, [r0, #17]	@ zero_extendqisi2
 479 0008 043083E3 		orr	r3, r3, #4
 480 000c 1130C0E5 		strb	r3, [r0, #17]
 481              		.loc 1 270 3 is_stmt 1 view .LVU171
 482              		.loc 1 270 3 view .LVU172
 483              		.syntax divided
 484              	@ 270 "../../../os/kernel/src/chthreads.c" 1
 485 0010 1FF021E3 		msr     CPSR_c, #0x1F
 486              	@ 0 "" 2
 487              		.loc 1 270 16 view .LVU173
 488              		.loc 1 271 1 is_stmt 0 view .LVU174
 489              		.arm
 490              		.syntax unified
 491 0014 1EFF2FE1 		bx	lr
 492              		.cfi_endproc
 493              	.LFE12:
 494              		.size	chThdTerminate, .-chThdTerminate
 495              		.section	.text.chThdSleep,"ax",%progbits
 496              		.align	2
 497              		.global	chThdSleep
 498              		.syntax unified
 499              		.arm
 500              		.fpu softvfp
 501              		.type	chThdSleep, %function
 502              	chThdSleep:
 503              	.LVL26:
 504              	.LFB13:
 505              		.loc 1 285 33 is_stmt 1 view -0
 506              		.cfi_startproc
 507              		@ args = 0, pretend = 0, frame = 0
 508              		@ frame_needed = 0, uses_anonymous_args = 0
 509              		.loc 1 287 3 view .LVU176
 510              		.loc 1 287 51 view .LVU177
 511              		.loc 1 289 3 view .LVU178
 512              		.loc 1 285 33 is_stmt 0 view .LVU179
 513 0000 04E02DE5 		str	lr, [sp, #-4]!
ARM GAS  /var/folders/l5/0x54b2c10074c8bt31ycjvl80000gp/T//cc0rXl4T.s 			page 10


 514              		.cfi_def_cfa_offset 4
 515              		.cfi_offset 14, -4
 516              		.loc 1 285 33 view .LVU180
 517 0004 0010A0E1 		mov	r1, r0
 518              		.loc 1 289 3 view .LVU181
 519              		.syntax divided
 520              	@ 289 "../../../os/kernel/src/chthreads.c" 1
 521 0008 9FF021E3 		msr     CPSR_c, #0x9F
 522              	@ 0 "" 2
 523              		.loc 1 289 3 is_stmt 1 view .LVU182
 524              		.loc 1 289 14 view .LVU183
 525              		.loc 1 290 3 view .LVU184
 526              		.arm
 527              		.syntax unified
 528 000c 0600A0E3 		mov	r0, #6
 529              	.LVL27:
 530              		.loc 1 290 3 is_stmt 0 view .LVU185
 531 0010 FEFFFFEB 		bl	chSchGoSleepTimeoutS
 532              	.LVL28:
 533              		.loc 1 291 3 is_stmt 1 view .LVU186
 534              		.loc 1 291 3 view .LVU187
 535              		.syntax divided
 536              	@ 291 "../../../os/kernel/src/chthreads.c" 1
 537 0014 1FF021E3 		msr     CPSR_c, #0x1F
 538              	@ 0 "" 2
 539              		.loc 1 291 16 view .LVU188
 540              		.loc 1 292 1 is_stmt 0 view .LVU189
 541              		.arm
 542              		.syntax unified
 543 0018 04F09DE4 		ldr	pc, [sp], #4
 544              		.cfi_endproc
 545              	.LFE13:
 546              		.size	chThdSleep, .-chThdSleep
 547              		.section	.text.chThdSleepUntil,"ax",%progbits
 548              		.align	2
 549              		.global	chThdSleepUntil
 550              		.syntax unified
 551              		.arm
 552              		.fpu softvfp
 553              		.type	chThdSleepUntil, %function
 554              	chThdSleepUntil:
 555              	.LVL29:
 556              	.LFB14:
 557              		.loc 1 302 38 is_stmt 1 view -0
 558              		.cfi_startproc
 559              		@ args = 0, pretend = 0, frame = 0
 560              		@ frame_needed = 0, uses_anonymous_args = 0
 561              		.loc 1 304 3 view .LVU191
 562              		.syntax divided
 563              	@ 304 "../../../os/kernel/src/chthreads.c" 1
 564 0000 9FF021E3 		msr     CPSR_c, #0x9F
 565              	@ 0 "" 2
 566              		.loc 1 304 3 view .LVU192
 567              		.loc 1 304 14 view .LVU193
 568              		.loc 1 305 3 view .LVU194
 569              		.loc 1 305 16 is_stmt 0 view .LVU195
 570              		.arm
ARM GAS  /var/folders/l5/0x54b2c10074c8bt31ycjvl80000gp/T//cc0rXl4T.s 			page 11


 571              		.syntax unified
 572 0004 24309FE5 		ldr	r3, .L35
 573 0008 0C1093E5 		ldr	r1, [r3, #12]
 574              	.LVL30:
 575              		.loc 1 305 6 view .LVU196
 576 000c 011050E0 		subs	r1, r0, r1
 577              	.LVL31:
 578              		.loc 1 305 6 view .LVU197
 579 0010 0100001A 		bne	.L34
 580              		.loc 1 307 3 is_stmt 1 view .LVU198
 581              		.loc 1 307 3 view .LVU199
 582              		.syntax divided
 583              	@ 307 "../../../os/kernel/src/chthreads.c" 1
 584 0014 1FF021E3 		msr     CPSR_c, #0x1F
 585              	@ 0 "" 2
 586              		.loc 1 307 16 view .LVU200
 587              		.loc 1 307 3 is_stmt 0 view .LVU201
 588              		.arm
 589              		.syntax unified
 590 0018 1EFF2FE1 		bx	lr
 591              	.L34:
 592              		.loc 1 306 5 is_stmt 1 view .LVU202
 593              		.loc 1 302 38 is_stmt 0 view .LVU203
 594 001c 04E02DE5 		str	lr, [sp, #-4]!
 595              		.cfi_def_cfa_offset 4
 596              		.cfi_offset 14, -4
 597              		.loc 1 306 5 view .LVU204
 598 0020 0600A0E3 		mov	r0, #6
 599 0024 FEFFFFEB 		bl	chSchGoSleepTimeoutS
 600              	.LVL32:
 601              		.loc 1 307 3 is_stmt 1 view .LVU205
 602              		.loc 1 307 3 view .LVU206
 603              		.syntax divided
 604              	@ 307 "../../../os/kernel/src/chthreads.c" 1
 605 0028 1FF021E3 		msr     CPSR_c, #0x1F
 606              	@ 0 "" 2
 607              		.loc 1 307 16 view .LVU207
 608              		.loc 1 308 1 is_stmt 0 view .LVU208
 609              		.arm
 610              		.syntax unified
 611 002c 04F09DE4 		ldr	pc, [sp], #4
 612              	.L36:
 613              		.align	2
 614              	.L35:
 615 0030 00000000 		.word	vtlist
 616              		.cfi_endproc
 617              	.LFE14:
 618              		.size	chThdSleepUntil, .-chThdSleepUntil
 619              		.section	.text.chThdYield,"ax",%progbits
 620              		.align	2
 621              		.global	chThdYield
 622              		.syntax unified
 623              		.arm
 624              		.fpu softvfp
 625              		.type	chThdYield, %function
 626              	chThdYield:
 627              	.LFB15:
ARM GAS  /var/folders/l5/0x54b2c10074c8bt31ycjvl80000gp/T//cc0rXl4T.s 			page 12


 628              		.loc 1 317 23 is_stmt 1 view -0
 629              		.cfi_startproc
 630              		@ args = 0, pretend = 0, frame = 0
 631              		@ frame_needed = 0, uses_anonymous_args = 0
 632              		.loc 1 319 3 view .LVU210
 633              		.syntax divided
 634              	@ 319 "../../../os/kernel/src/chthreads.c" 1
 635 0000 9FF021E3 		msr     CPSR_c, #0x9F
 636              	@ 0 "" 2
 637              		.loc 1 319 3 view .LVU211
 638              		.loc 1 319 14 view .LVU212
 639              		.loc 1 320 3 view .LVU213
 640              		.arm
 641              		.syntax unified
 642 0004 2C309FE5 		ldr	r3, .L44
 643 0008 002093E5 		ldr	r2, [r3]
 644 000c 103093E5 		ldr	r3, [r3, #16]
 645 0010 082092E5 		ldr	r2, [r2, #8]
 646 0014 083093E5 		ldr	r3, [r3, #8]
 647 0018 030052E1 		cmp	r2, r3
 648 001c 0100002A 		bcs	.L43
 649              		.loc 1 320 18 view .LVU214
 650              		.loc 1 321 3 view .LVU215
 651              		.loc 1 321 3 view .LVU216
 652              		.syntax divided
 653              	@ 321 "../../../os/kernel/src/chthreads.c" 1
 654 0020 1FF021E3 		msr     CPSR_c, #0x1F
 655              	@ 0 "" 2
 656              		.loc 1 321 16 view .LVU217
 657              		.loc 1 321 3 is_stmt 0 view .LVU218
 658              		.arm
 659              		.syntax unified
 660 0024 1EFF2FE1 		bx	lr
 661              	.L43:
 662              		.loc 1 320 3 is_stmt 1 discriminator 1 view .LVU219
 663              		.loc 1 317 23 is_stmt 0 discriminator 1 view .LVU220
 664 0028 04E02DE5 		str	lr, [sp, #-4]!
 665              		.cfi_def_cfa_offset 4
 666              		.cfi_offset 14, -4
 667              		.loc 1 320 3 discriminator 1 view .LVU221
 668 002c FEFFFFEB 		bl	chSchDoRescheduleBehind
 669              	.LVL33:
 670              		.loc 1 320 18 is_stmt 1 discriminator 1 view .LVU222
 671              		.loc 1 321 3 discriminator 1 view .LVU223
 672              		.loc 1 321 3 discriminator 1 view .LVU224
 673              		.syntax divided
 674              	@ 321 "../../../os/kernel/src/chthreads.c" 1
 675 0030 1FF021E3 		msr     CPSR_c, #0x1F
 676              	@ 0 "" 2
 677              		.loc 1 321 16 discriminator 1 view .LVU225
 678              		.loc 1 322 1 is_stmt 0 discriminator 1 view .LVU226
 679              		.arm
 680              		.syntax unified
 681 0034 04F09DE4 		ldr	pc, [sp], #4
 682              	.L45:
 683              		.align	2
 684              	.L44:
ARM GAS  /var/folders/l5/0x54b2c10074c8bt31ycjvl80000gp/T//cc0rXl4T.s 			page 13


 685 0038 00000000 		.word	rlist
 686              		.cfi_endproc
 687              	.LFE15:
 688              		.size	chThdYield, .-chThdYield
 689              		.section	.text.chThdExitS,"ax",%progbits
 690              		.align	2
 691              		.global	chThdExitS
 692              		.syntax unified
 693              		.arm
 694              		.fpu softvfp
 695              		.type	chThdExitS, %function
 696              	chThdExitS:
 697              	.LVL34:
 698              	.LFB17:
 699              		.loc 1 359 28 is_stmt 1 view -0
 700              		.cfi_startproc
 701              		@ args = 0, pretend = 0, frame = 0
 702              		@ frame_needed = 0, uses_anonymous_args = 0
 703              		.loc 1 360 3 view .LVU228
 704              		.loc 1 360 11 is_stmt 0 view .LVU229
 705 0000 40309FE5 		ldr	r3, .L51
 706              		.loc 1 359 28 view .LVU230
 707 0004 30402DE9 		push	{r4, r5, lr}
 708              		.cfi_def_cfa_offset 12
 709              		.cfi_offset 4, -12
 710              		.cfi_offset 5, -8
 711              		.cfi_offset 14, -4
 712              		.loc 1 360 11 view .LVU231
 713 0008 104093E5 		ldr	r4, [r3, #16]
 714              	.LVL35:
 715              		.loc 1 362 3 is_stmt 1 view .LVU232
 716              		.loc 1 367 10 is_stmt 0 view .LVU233
 717 000c 0450A0E1 		mov	r5, r4
 718 0010 1830B5E5 		ldr	r3, [r5, #24]!
 719              		.loc 1 362 20 view .LVU234
 720 0014 140084E5 		str	r0, [r4, #20]
 721              		.loc 1 364 3 is_stmt 1 view .LVU235
 722              		.loc 1 364 27 view .LVU236
 723              		.loc 1 367 3 view .LVU237
 724              		.loc 1 367 9 is_stmt 0 view .LVU238
 725 0018 050053E1 		cmp	r3, r5
 726 001c 0600000A 		beq	.L47
 727              	.LVL36:
 728              	.L48:
 729              		.loc 1 368 5 is_stmt 1 view .LVU239
 730              	.LBB26:
 731              	.LBI26:
 732              		.file 2 "../../../os/kernel/include/chinline.h"
 733              		.loc 2 79 23 view .LVU240
 734              	.LBB27:
 735              		.loc 2 81 3 view .LVU241
 736              		.loc 2 82 3 view .LVU242
 737              		.loc 2 82 19 is_stmt 0 view .LVU243
 738 0020 002093E5 		ldr	r2, [r3]
 739              	.LBE27:
 740              	.LBE26:
 741              		.loc 1 368 5 view .LVU244
ARM GAS  /var/folders/l5/0x54b2c10074c8bt31ycjvl80000gp/T//cc0rXl4T.s 			page 14


 742 0024 0300A0E1 		mov	r0, r3
 743              	.LBB29:
 744              	.LBB28:
 745              		.loc 2 82 15 view .LVU245
 746 0028 182084E5 		str	r2, [r4, #24]
 747              		.loc 2 83 3 is_stmt 1 view .LVU246
 748              	.LVL37:
 749              		.loc 2 83 3 is_stmt 0 view .LVU247
 750              	.LBE28:
 751              	.LBE29:
 752              		.loc 1 368 5 view .LVU248
 753 002c FEFFFFEB 		bl	chSchReadyI
 754              	.LVL38:
 755              		.loc 1 367 10 view .LVU249
 756 0030 183094E5 		ldr	r3, [r4, #24]
 757              		.loc 1 367 9 view .LVU250
 758 0034 050053E1 		cmp	r3, r5
 759 0038 F8FFFF1A 		bne	.L48
 760              	.LVL39:
 761              	.L47:
 762              		.loc 1 376 3 is_stmt 1 view .LVU251
 763              		.loc 1 379 1 is_stmt 0 view .LVU252
 764 003c 3040BDE8 		pop	{r4, r5, lr}
 765              		.cfi_restore 14
 766              		.cfi_restore 5
 767              		.cfi_restore 4
 768              		.cfi_def_cfa_offset 0
 769              	.LVL40:
 770              		.loc 1 376 3 view .LVU253
 771 0040 0E00A0E3 		mov	r0, #14
 772 0044 FEFFFFEA 		b	chSchGoSleepS
 773              	.LVL41:
 774              	.L52:
 775              		.align	2
 776              	.L51:
 777 0048 00000000 		.word	rlist
 778              		.cfi_endproc
 779              	.LFE17:
 780              		.size	chThdExitS, .-chThdExitS
 781              		.section	.text.chThdExit,"ax",%progbits
 782              		.align	2
 783              		.global	chThdExit
 784              		.syntax unified
 785              		.arm
 786              		.fpu softvfp
 787              		.type	chThdExit, %function
 788              	chThdExit:
 789              	.LVL42:
 790              	.LFB16:
 791              		.loc 1 338 27 is_stmt 1 view -0
 792              		.cfi_startproc
 793              		@ args = 0, pretend = 0, frame = 0
 794              		@ frame_needed = 0, uses_anonymous_args = 0
 795              		@ link register save eliminated.
 796              		.loc 1 340 3 view .LVU255
 797              		.syntax divided
 798              	@ 340 "../../../os/kernel/src/chthreads.c" 1
ARM GAS  /var/folders/l5/0x54b2c10074c8bt31ycjvl80000gp/T//cc0rXl4T.s 			page 15


 799 0000 9FF021E3 		msr     CPSR_c, #0x9F
 800              	@ 0 "" 2
 801              		.loc 1 340 3 view .LVU256
 802              		.loc 1 340 14 view .LVU257
 803              		.loc 1 341 3 view .LVU258
 804              		.arm
 805              		.syntax unified
 806 0004 FEFFFFEA 		b	chThdExitS
 807              	.LVL43:
 808              		.loc 1 341 3 is_stmt 0 view .LVU259
 809              		.cfi_endproc
 810              	.LFE16:
 811              		.size	chThdExit, .-chThdExit
 812              		.section	.text.chThdWait,"ax",%progbits
 813              		.align	2
 814              		.global	chThdWait
 815              		.syntax unified
 816              		.arm
 817              		.fpu softvfp
 818              		.type	chThdWait, %function
 819              	chThdWait:
 820              	.LVL44:
 821              	.LFB18:
 822              		.loc 1 413 29 is_stmt 1 view -0
 823              		.cfi_startproc
 824              		@ args = 0, pretend = 0, frame = 0
 825              		@ frame_needed = 0, uses_anonymous_args = 0
 826              		.loc 1 414 3 view .LVU261
 827              		.loc 1 416 3 view .LVU262
 828              		.loc 1 416 38 view .LVU263
 829              		.loc 1 418 3 view .LVU264
 830              		.loc 1 413 29 is_stmt 0 view .LVU265
 831 0000 10402DE9 		push	{r4, lr}
 832              		.cfi_def_cfa_offset 8
 833              		.cfi_offset 4, -8
 834              		.cfi_offset 14, -4
 835              		.loc 1 413 29 view .LVU266
 836 0004 0040A0E1 		mov	r4, r0
 837              		.loc 1 418 3 view .LVU267
 838              		.syntax divided
 839              	@ 418 "../../../os/kernel/src/chthreads.c" 1
 840 0008 9FF021E3 		msr     CPSR_c, #0x9F
 841              	@ 0 "" 2
 842              		.loc 1 418 3 is_stmt 1 view .LVU268
 843              		.loc 1 418 14 view .LVU269
 844              		.loc 1 419 3 view .LVU270
 845              		.loc 1 419 62 view .LVU271
 846              		.loc 1 423 3 view .LVU272
 847              		.loc 1 423 6 is_stmt 0 view .LVU273
 848              		.arm
 849              		.syntax unified
 850 000c 1030D0E5 		ldrb	r3, [r0, #16]	@ zero_extendqisi2
 851 0010 0E0053E3 		cmp	r3, #14
 852 0014 0600000A 		beq	.L55
 853              		.loc 1 419 3 view .LVU274
 854 0018 20309FE5 		ldr	r3, .L60
 855              	.LBB30:
ARM GAS  /var/folders/l5/0x54b2c10074c8bt31ycjvl80000gp/T//cc0rXl4T.s 			page 16


 856              	.LBB31:
 857              		.loc 2 75 19 view .LVU275
 858 001c 182090E5 		ldr	r2, [r0, #24]
 859              	.LBE31:
 860              	.LBE30:
 861              		.loc 1 419 3 view .LVU276
 862 0020 103093E5 		ldr	r3, [r3, #16]
 863              		.loc 1 424 5 is_stmt 1 view .LVU277
 864              	.LVL45:
 865              	.LBB34:
 866              	.LBI30:
 867              		.loc 2 73 20 view .LVU278
 868              	.LBB32:
 869              		.loc 2 75 3 view .LVU279
 870              	.LBE32:
 871              	.LBE34:
 872              		.loc 1 425 5 is_stmt 0 view .LVU280
 873 0024 0700A0E3 		mov	r0, #7
 874              	.LVL46:
 875              	.LBB35:
 876              	.LBB33:
 877              		.loc 2 75 14 view .LVU281
 878 0028 002083E5 		str	r2, [r3]
 879              		.loc 2 76 3 is_stmt 1 view .LVU282
 880              		.loc 2 76 15 is_stmt 0 view .LVU283
 881 002c 183084E5 		str	r3, [r4, #24]
 882              	.LVL47:
 883              		.loc 2 76 15 view .LVU284
 884              	.LBE33:
 885              	.LBE35:
 886              		.loc 1 425 5 is_stmt 1 view .LVU285
 887 0030 FEFFFFEB 		bl	chSchGoSleepS
 888              	.LVL48:
 889              	.L55:
 890              		.loc 1 427 3 view .LVU286
 891              		.loc 1 427 7 is_stmt 0 view .LVU287
 892 0034 140094E5 		ldr	r0, [r4, #20]
 893              	.LVL49:
 894              		.loc 1 428 3 is_stmt 1 view .LVU288
 895              		.loc 1 428 3 view .LVU289
 896              		.syntax divided
 897              	@ 428 "../../../os/kernel/src/chthreads.c" 1
 898 0038 1FF021E3 		msr     CPSR_c, #0x1F
 899              	@ 0 "" 2
 900              		.loc 1 428 16 view .LVU290
 901              		.loc 1 432 3 view .LVU291
 902              		.loc 1 433 1 is_stmt 0 view .LVU292
 903              		.arm
 904              		.syntax unified
 905 003c 1080BDE8 		pop	{r4, pc}
 906              	.L61:
 907              		.align	2
 908              	.L60:
 909 0040 00000000 		.word	rlist
 910              		.cfi_endproc
 911              	.LFE18:
 912              		.size	chThdWait, .-chThdWait
ARM GAS  /var/folders/l5/0x54b2c10074c8bt31ycjvl80000gp/T//cc0rXl4T.s 			page 17


 913              		.text
 914              	.Letext0:
 915              		.file 3 "/usr/local/Cellar/arm-gcc-bin/8-2019-q3-update/lib/gcc/arm-none-eabi/8.3.1/include/stddef
 916              		.file 4 "/usr/local/Cellar/arm-gcc-bin/8-2019-q3-update/arm-none-eabi/include/machine/_default_typ
 917              		.file 5 "/usr/local/Cellar/arm-gcc-bin/8-2019-q3-update/arm-none-eabi/include/sys/_stdint.h"
 918              		.file 6 "../../../os/ports/GCC/ARM/chtypes.h"
 919              		.file 7 "../../../os/kernel/include/chlists.h"
 920              		.file 8 "../../../os/kernel/include/chthreads.h"
 921              		.file 9 "../../../os/ports/GCC/ARM/chcore.h"
 922              		.file 10 "../../../os/kernel/include/chvt.h"
 923              		.file 11 "../../../os/kernel/include/chschd.h"
 924              		.file 12 "../../../os/kernel/include/chmtx.h"
 925              		.file 13 "../../../os/kernel/include/ch.h"
 926              		.section	.debug_info,"",%progbits
 927              	.Ldebug_info0:
 928 0000 6A0A0000 		.4byte	0xa6a
 929 0004 0400     		.2byte	0x4
 930 0006 00000000 		.4byte	.Ldebug_abbrev0
 931 000a 04       		.byte	0x4
 932 000b 01       		.uleb128 0x1
 933 000c 4D010000 		.4byte	.LASF90
 934 0010 0C       		.byte	0xc
 935 0011 26040000 		.4byte	.LASF91
 936 0015 B3000000 		.4byte	.LASF92
 937 0019 78000000 		.4byte	.Ldebug_ranges0+0x78
 938 001d 00000000 		.4byte	0
 939 0021 00000000 		.4byte	.Ldebug_line0
 940 0025 02       		.uleb128 0x2
 941 0026 04       		.byte	0x4
 942 0027 05       		.byte	0x5
 943 0028 A1000000 		.4byte	.LASF0
 944 002c 03       		.uleb128 0x3
 945 002d 08000000 		.4byte	.LASF3
 946 0031 03       		.byte	0x3
 947 0032 D8       		.byte	0xd8
 948 0033 17       		.byte	0x17
 949 0034 38000000 		.4byte	0x38
 950 0038 02       		.uleb128 0x2
 951 0039 04       		.byte	0x4
 952 003a 07       		.byte	0x7
 953 003b 52020000 		.4byte	.LASF1
 954 003f 02       		.uleb128 0x2
 955 0040 01       		.byte	0x1
 956 0041 06       		.byte	0x6
 957 0042 6C000000 		.4byte	.LASF2
 958 0046 03       		.uleb128 0x3
 959 0047 1B000000 		.4byte	.LASF4
 960 004b 04       		.byte	0x4
 961 004c 2B       		.byte	0x2b
 962 004d 18       		.byte	0x18
 963 004e 52000000 		.4byte	0x52
 964 0052 02       		.uleb128 0x2
 965 0053 01       		.byte	0x1
 966 0054 08       		.byte	0x8
 967 0055 8A030000 		.4byte	.LASF5
 968 0059 02       		.uleb128 0x2
 969 005a 02       		.byte	0x2
ARM GAS  /var/folders/l5/0x54b2c10074c8bt31ycjvl80000gp/T//cc0rXl4T.s 			page 18


 970 005b 05       		.byte	0x5
 971 005c A2030000 		.4byte	.LASF6
 972 0060 02       		.uleb128 0x2
 973 0061 02       		.byte	0x2
 974 0062 07       		.byte	0x7
 975 0063 72020000 		.4byte	.LASF7
 976 0067 03       		.uleb128 0x3
 977 0068 71040000 		.4byte	.LASF8
 978 006c 04       		.byte	0x4
 979 006d 4D       		.byte	0x4d
 980 006e 18       		.byte	0x18
 981 006f 25000000 		.4byte	0x25
 982 0073 03       		.uleb128 0x3
 983 0074 31010000 		.4byte	.LASF9
 984 0078 04       		.byte	0x4
 985 0079 4F       		.byte	0x4f
 986 007a 19       		.byte	0x19
 987 007b 38000000 		.4byte	0x38
 988 007f 02       		.uleb128 0x2
 989 0080 08       		.byte	0x8
 990 0081 05       		.byte	0x5
 991 0082 5E000000 		.4byte	.LASF10
 992 0086 02       		.uleb128 0x2
 993 0087 08       		.byte	0x8
 994 0088 07       		.byte	0x7
 995 0089 37000000 		.4byte	.LASF11
 996 008d 03       		.uleb128 0x3
 997 008e B6040000 		.4byte	.LASF12
 998 0092 05       		.byte	0x5
 999 0093 18       		.byte	0x18
 1000 0094 13       		.byte	0x13
 1001 0095 46000000 		.4byte	0x46
 1002 0099 03       		.uleb128 0x3
 1003 009a 82030000 		.4byte	.LASF13
 1004 009e 05       		.byte	0x5
 1005 009f 2C       		.byte	0x2c
 1006 00a0 13       		.byte	0x13
 1007 00a1 67000000 		.4byte	0x67
 1008 00a5 03       		.uleb128 0x3
 1009 00a6 FB030000 		.4byte	.LASF14
 1010 00aa 05       		.byte	0x5
 1011 00ab 30       		.byte	0x30
 1012 00ac 14       		.byte	0x14
 1013 00ad 73000000 		.4byte	0x73
 1014 00b1 04       		.uleb128 0x4
 1015 00b2 04       		.byte	0x4
 1016 00b3 05       		.byte	0x5
 1017 00b4 696E7400 		.ascii	"int\000"
 1018 00b8 02       		.uleb128 0x2
 1019 00b9 04       		.byte	0x4
 1020 00ba 07       		.byte	0x7
 1021 00bb 3D020000 		.4byte	.LASF15
 1022 00bf 03       		.uleb128 0x3
 1023 00c0 A0020000 		.4byte	.LASF16
 1024 00c4 06       		.byte	0x6
 1025 00c5 2A       		.byte	0x2a
 1026 00c6 19       		.byte	0x19
ARM GAS  /var/folders/l5/0x54b2c10074c8bt31ycjvl80000gp/T//cc0rXl4T.s 			page 19


 1027 00c7 8D000000 		.4byte	0x8d
 1028 00cb 03       		.uleb128 0x3
 1029 00cc AA000000 		.4byte	.LASF17
 1030 00d0 06       		.byte	0x6
 1031 00d1 2B       		.byte	0x2b
 1032 00d2 19       		.byte	0x19
 1033 00d3 8D000000 		.4byte	0x8d
 1034 00d7 03       		.uleb128 0x3
 1035 00d8 8A000000 		.4byte	.LASF18
 1036 00dc 06       		.byte	0x6
 1037 00dd 2D       		.byte	0x2d
 1038 00de 19       		.byte	0x19
 1039 00df 8D000000 		.4byte	0x8d
 1040 00e3 03       		.uleb128 0x3
 1041 00e4 7A030000 		.4byte	.LASF19
 1042 00e8 06       		.byte	0x6
 1043 00e9 2E       		.byte	0x2e
 1044 00ea 19       		.byte	0x19
 1045 00eb A5000000 		.4byte	0xa5
 1046 00ef 03       		.uleb128 0x3
 1047 00f0 92020000 		.4byte	.LASF20
 1048 00f4 06       		.byte	0x6
 1049 00f5 2F       		.byte	0x2f
 1050 00f6 19       		.byte	0x19
 1051 00f7 99000000 		.4byte	0x99
 1052 00fb 03       		.uleb128 0x3
 1053 00fc C3020000 		.4byte	.LASF21
 1054 0100 06       		.byte	0x6
 1055 0101 31       		.byte	0x31
 1056 0102 19       		.byte	0x19
 1057 0103 A5000000 		.4byte	0xa5
 1058 0107 03       		.uleb128 0x3
 1059 0108 5C040000 		.4byte	.LASF22
 1060 010c 06       		.byte	0x6
 1061 010d 33       		.byte	0x33
 1062 010e 19       		.byte	0x19
 1063 010f A5000000 		.4byte	0xa5
 1064 0113 05       		.uleb128 0x5
 1065 0114 07010000 		.4byte	0x107
 1066 0118 03       		.uleb128 0x3
 1067 0119 DB030000 		.4byte	.LASF23
 1068 011d 07       		.byte	0x7
 1069 011e 23       		.byte	0x23
 1070 011f 17       		.byte	0x17
 1071 0120 24010000 		.4byte	0x124
 1072 0124 06       		.uleb128 0x6
 1073 0125 DB030000 		.4byte	.LASF23
 1074 0129 28       		.byte	0x28
 1075 012a 08       		.byte	0x8
 1076 012b 57       		.byte	0x57
 1077 012c 08       		.byte	0x8
 1078 012d CE010000 		.4byte	0x1ce
 1079 0131 07       		.uleb128 0x7
 1080 0132 CC030000 		.4byte	.LASF24
 1081 0136 08       		.byte	0x8
 1082 0137 58       		.byte	0x58
 1083 0138 1A       		.byte	0x1a
ARM GAS  /var/folders/l5/0x54b2c10074c8bt31ycjvl80000gp/T//cc0rXl4T.s 			page 20


 1084 0139 F2010000 		.4byte	0x1f2
 1085 013d 00       		.byte	0
 1086 013e 07       		.uleb128 0x7
 1087 013f 73030000 		.4byte	.LASF25
 1088 0143 08       		.byte	0x8
 1089 0144 5A       		.byte	0x5a
 1090 0145 1A       		.byte	0x1a
 1091 0146 F2010000 		.4byte	0x1f2
 1092 014a 04       		.byte	0x4
 1093 014b 07       		.uleb128 0x7
 1094 014c 57000000 		.4byte	.LASF26
 1095 0150 08       		.byte	0x8
 1096 0151 5C       		.byte	0x5c
 1097 0152 19       		.byte	0x19
 1098 0153 E3000000 		.4byte	0xe3
 1099 0157 08       		.byte	0x8
 1100 0158 07       		.uleb128 0x7
 1101 0159 F8040000 		.4byte	.LASF27
 1102 015d 08       		.byte	0x8
 1103 015e 5D       		.byte	0x5d
 1104 015f 19       		.byte	0x19
 1105 0160 BD020000 		.4byte	0x2bd
 1106 0164 0C       		.byte	0xc
 1107 0165 07       		.uleb128 0x7
 1108 0166 AC030000 		.4byte	.LASF28
 1109 016a 08       		.byte	0x8
 1110 016b 72       		.byte	0x72
 1111 016c 19       		.byte	0x19
 1112 016d CB000000 		.4byte	0xcb
 1113 0171 10       		.byte	0x10
 1114 0172 07       		.uleb128 0x7
 1115 0173 D3030000 		.4byte	.LASF29
 1116 0177 08       		.byte	0x8
 1117 0178 76       		.byte	0x76
 1118 0179 19       		.byte	0x19
 1119 017a BF000000 		.4byte	0xbf
 1120 017e 11       		.byte	0x11
 1121 017f 07       		.uleb128 0x7
 1122 0180 B4030000 		.4byte	.LASF30
 1123 0184 08       		.byte	0x8
 1124 0185 81       		.byte	0x81
 1125 0186 19       		.byte	0x19
 1126 0187 D7000000 		.4byte	0xd7
 1127 018b 12       		.byte	0x12
 1128 018c 08       		.uleb128 0x8
 1129 018d 705F7500 		.ascii	"p_u\000"
 1130 0191 08       		.byte	0x8
 1131 0192 AD       		.byte	0xad
 1132 0193 19       		.byte	0x19
 1133 0194 4F040000 		.4byte	0x44f
 1134 0198 14       		.byte	0x14
 1135 0199 07       		.uleb128 0x7
 1136 019a FE040000 		.4byte	.LASF31
 1137 019e 08       		.byte	0x8
 1138 019f B2       		.byte	0xb2
 1139 01a0 19       		.byte	0x19
 1140 01a1 1B020000 		.4byte	0x21b
ARM GAS  /var/folders/l5/0x54b2c10074c8bt31ycjvl80000gp/T//cc0rXl4T.s 			page 21


 1141 01a5 18       		.byte	0x18
 1142 01a6 07       		.uleb128 0x7
 1143 01a7 F0030000 		.4byte	.LASF32
 1144 01ab 08       		.byte	0x8
 1145 01ac C2       		.byte	0xc2
 1146 01ad 19       		.byte	0x19
 1147 01ae FB000000 		.4byte	0xfb
 1148 01b2 1C       		.byte	0x1c
 1149 01b3 07       		.uleb128 0x7
 1150 01b4 98030000 		.4byte	.LASF33
 1151 01b8 08       		.byte	0x8
 1152 01b9 C9       		.byte	0xc9
 1153 01ba 1A       		.byte	0x1a
 1154 01bb 89040000 		.4byte	0x489
 1155 01bf 20       		.byte	0x20
 1156 01c0 07       		.uleb128 0x7
 1157 01c1 66040000 		.4byte	.LASF34
 1158 01c5 08       		.byte	0x8
 1159 01c6 CD       		.byte	0xcd
 1160 01c7 19       		.byte	0x19
 1161 01c8 E3000000 		.4byte	0xe3
 1162 01cc 24       		.byte	0x24
 1163 01cd 00       		.byte	0
 1164 01ce 09       		.uleb128 0x9
 1165 01cf 08       		.byte	0x8
 1166 01d0 07       		.byte	0x7
 1167 01d1 5A       		.byte	0x5a
 1168 01d2 09       		.byte	0x9
 1169 01d3 F2010000 		.4byte	0x1f2
 1170 01d7 07       		.uleb128 0x7
 1171 01d8 CC030000 		.4byte	.LASF24
 1172 01dc 07       		.byte	0x7
 1173 01dd 5B       		.byte	0x5b
 1174 01de 1A       		.byte	0x1a
 1175 01df F2010000 		.4byte	0x1f2
 1176 01e3 00       		.byte	0
 1177 01e4 07       		.uleb128 0x7
 1178 01e5 73030000 		.4byte	.LASF25
 1179 01e9 07       		.byte	0x7
 1180 01ea 5D       		.byte	0x5d
 1181 01eb 1A       		.byte	0x1a
 1182 01ec F2010000 		.4byte	0x1f2
 1183 01f0 04       		.byte	0x4
 1184 01f1 00       		.byte	0
 1185 01f2 0A       		.uleb128 0xa
 1186 01f3 04       		.byte	0x4
 1187 01f4 18010000 		.4byte	0x118
 1188 01f8 03       		.uleb128 0x3
 1189 01f9 3B030000 		.4byte	.LASF35
 1190 01fd 07       		.byte	0x7
 1191 01fe 5F       		.byte	0x5f
 1192 01ff 03       		.byte	0x3
 1193 0200 CE010000 		.4byte	0x1ce
 1194 0204 09       		.uleb128 0x9
 1195 0205 04       		.byte	0x4
 1196 0206 07       		.byte	0x7
 1197 0207 64       		.byte	0x64
ARM GAS  /var/folders/l5/0x54b2c10074c8bt31ycjvl80000gp/T//cc0rXl4T.s 			page 22


 1198 0208 09       		.byte	0x9
 1199 0209 1B020000 		.4byte	0x21b
 1200 020d 07       		.uleb128 0x7
 1201 020e CC030000 		.4byte	.LASF24
 1202 0212 07       		.byte	0x7
 1203 0213 66       		.byte	0x66
 1204 0214 16       		.byte	0x16
 1205 0215 F2010000 		.4byte	0x1f2
 1206 0219 00       		.byte	0
 1207 021a 00       		.byte	0
 1208 021b 03       		.uleb128 0x3
 1209 021c B7020000 		.4byte	.LASF36
 1210 0220 07       		.byte	0x7
 1211 0221 69       		.byte	0x69
 1212 0222 03       		.byte	0x3
 1213 0223 04020000 		.4byte	0x204
 1214 0227 03       		.uleb128 0x3
 1215 0228 DD020000 		.4byte	.LASF37
 1216 022c 09       		.byte	0x9
 1217 022d 9D       		.byte	0x9d
 1218 022e 12       		.byte	0x12
 1219 022f A5000000 		.4byte	0xa5
 1220 0233 03       		.uleb128 0x3
 1221 0234 3C010000 		.4byte	.LASF38
 1222 0238 09       		.byte	0x9
 1223 0239 A2       		.byte	0xa2
 1224 023a 0F       		.byte	0xf
 1225 023b 3F020000 		.4byte	0x23f
 1226 023f 0B       		.uleb128 0xb
 1227 0240 04       		.byte	0x4
 1228 0241 06       		.uleb128 0x6
 1229 0242 83040000 		.4byte	.LASF39
 1230 0246 24       		.byte	0x24
 1231 0247 09       		.byte	0x9
 1232 0248 B9       		.byte	0xb9
 1233 0249 08       		.byte	0x8
 1234 024a BD020000 		.4byte	0x2bd
 1235 024e 08       		.uleb128 0x8
 1236 024f 723400   		.ascii	"r4\000"
 1237 0252 09       		.byte	0x9
 1238 0253 BA       		.byte	0xba
 1239 0254 11       		.byte	0x11
 1240 0255 33020000 		.4byte	0x233
 1241 0259 00       		.byte	0
 1242 025a 08       		.uleb128 0x8
 1243 025b 723500   		.ascii	"r5\000"
 1244 025e 09       		.byte	0x9
 1245 025f BB       		.byte	0xbb
 1246 0260 11       		.byte	0x11
 1247 0261 33020000 		.4byte	0x233
 1248 0265 04       		.byte	0x4
 1249 0266 08       		.uleb128 0x8
 1250 0267 723600   		.ascii	"r6\000"
 1251 026a 09       		.byte	0x9
 1252 026b BC       		.byte	0xbc
 1253 026c 11       		.byte	0x11
 1254 026d 33020000 		.4byte	0x233
ARM GAS  /var/folders/l5/0x54b2c10074c8bt31ycjvl80000gp/T//cc0rXl4T.s 			page 23


 1255 0271 08       		.byte	0x8
 1256 0272 08       		.uleb128 0x8
 1257 0273 723700   		.ascii	"r7\000"
 1258 0276 09       		.byte	0x9
 1259 0277 BD       		.byte	0xbd
 1260 0278 11       		.byte	0x11
 1261 0279 33020000 		.4byte	0x233
 1262 027d 0C       		.byte	0xc
 1263 027e 08       		.uleb128 0x8
 1264 027f 723800   		.ascii	"r8\000"
 1265 0282 09       		.byte	0x9
 1266 0283 BE       		.byte	0xbe
 1267 0284 11       		.byte	0x11
 1268 0285 33020000 		.4byte	0x233
 1269 0289 10       		.byte	0x10
 1270 028a 08       		.uleb128 0x8
 1271 028b 723900   		.ascii	"r9\000"
 1272 028e 09       		.byte	0x9
 1273 028f BF       		.byte	0xbf
 1274 0290 11       		.byte	0x11
 1275 0291 33020000 		.4byte	0x233
 1276 0295 14       		.byte	0x14
 1277 0296 08       		.uleb128 0x8
 1278 0297 72313000 		.ascii	"r10\000"
 1279 029b 09       		.byte	0x9
 1280 029c C0       		.byte	0xc0
 1281 029d 11       		.byte	0x11
 1282 029e 33020000 		.4byte	0x233
 1283 02a2 18       		.byte	0x18
 1284 02a3 08       		.uleb128 0x8
 1285 02a4 72313100 		.ascii	"r11\000"
 1286 02a8 09       		.byte	0x9
 1287 02a9 C1       		.byte	0xc1
 1288 02aa 11       		.byte	0x11
 1289 02ab 33020000 		.4byte	0x233
 1290 02af 1C       		.byte	0x1c
 1291 02b0 08       		.uleb128 0x8
 1292 02b1 6C7200   		.ascii	"lr\000"
 1293 02b4 09       		.byte	0x9
 1294 02b5 C2       		.byte	0xc2
 1295 02b6 11       		.byte	0x11
 1296 02b7 33020000 		.4byte	0x233
 1297 02bb 20       		.byte	0x20
 1298 02bc 00       		.byte	0
 1299 02bd 06       		.uleb128 0x6
 1300 02be 7B040000 		.4byte	.LASF40
 1301 02c2 04       		.byte	0x4
 1302 02c3 09       		.byte	0x9
 1303 02c4 CA       		.byte	0xca
 1304 02c5 08       		.byte	0x8
 1305 02c6 D8020000 		.4byte	0x2d8
 1306 02ca 08       		.uleb128 0x8
 1307 02cb 72313300 		.ascii	"r13\000"
 1308 02cf 09       		.byte	0x9
 1309 02d0 CB       		.byte	0xcb
 1310 02d1 12       		.byte	0x12
 1311 02d2 D8020000 		.4byte	0x2d8
ARM GAS  /var/folders/l5/0x54b2c10074c8bt31ycjvl80000gp/T//cc0rXl4T.s 			page 24


 1312 02d6 00       		.byte	0
 1313 02d7 00       		.byte	0
 1314 02d8 0A       		.uleb128 0xa
 1315 02d9 04       		.byte	0x4
 1316 02da 41020000 		.4byte	0x241
 1317 02de 03       		.uleb128 0x3
 1318 02df 64020000 		.4byte	.LASF41
 1319 02e3 0A       		.byte	0xa
 1320 02e4 4E       		.byte	0x4e
 1321 02e5 10       		.byte	0x10
 1322 02e6 EA020000 		.4byte	0x2ea
 1323 02ea 0A       		.uleb128 0xa
 1324 02eb 04       		.byte	0x4
 1325 02ec F0020000 		.4byte	0x2f0
 1326 02f0 0C       		.uleb128 0xc
 1327 02f1 FB020000 		.4byte	0x2fb
 1328 02f5 0D       		.uleb128 0xd
 1329 02f6 3F020000 		.4byte	0x23f
 1330 02fa 00       		.byte	0
 1331 02fb 03       		.uleb128 0x3
 1332 02fc 19040000 		.4byte	.LASF42
 1333 0300 0A       		.byte	0xa
 1334 0301 53       		.byte	0x53
 1335 0302 1D       		.byte	0x1d
 1336 0303 07030000 		.4byte	0x307
 1337 0307 06       		.uleb128 0x6
 1338 0308 19040000 		.4byte	.LASF42
 1339 030c 14       		.byte	0x14
 1340 030d 0A       		.byte	0xa
 1341 030e 5A       		.byte	0x5a
 1342 030f 08       		.byte	0x8
 1343 0310 56030000 		.4byte	0x356
 1344 0314 07       		.uleb128 0x7
 1345 0315 4A020000 		.4byte	.LASF43
 1346 0319 0A       		.byte	0xa
 1347 031a 5B       		.byte	0x5b
 1348 031b 1A       		.byte	0x1a
 1349 031c 56030000 		.4byte	0x356
 1350 0320 00       		.byte	0
 1351 0321 07       		.uleb128 0x7
 1352 0322 45010000 		.4byte	.LASF44
 1353 0326 0A       		.byte	0xa
 1354 0327 5D       		.byte	0x5d
 1355 0328 1A       		.byte	0x1a
 1356 0329 56030000 		.4byte	0x356
 1357 032d 04       		.byte	0x4
 1358 032e 07       		.uleb128 0x7
 1359 032f FA020000 		.4byte	.LASF45
 1360 0333 0A       		.byte	0xa
 1361 0334 5F       		.byte	0x5f
 1362 0335 19       		.byte	0x19
 1363 0336 07010000 		.4byte	0x107
 1364 033a 08       		.byte	0x8
 1365 033b 07       		.uleb128 0x7
 1366 033c 02030000 		.4byte	.LASF46
 1367 0340 0A       		.byte	0xa
 1368 0341 60       		.byte	0x60
ARM GAS  /var/folders/l5/0x54b2c10074c8bt31ycjvl80000gp/T//cc0rXl4T.s 			page 25


 1369 0342 19       		.byte	0x19
 1370 0343 DE020000 		.4byte	0x2de
 1371 0347 0C       		.byte	0xc
 1372 0348 07       		.uleb128 0x7
 1373 0349 94040000 		.4byte	.LASF47
 1374 034d 0A       		.byte	0xa
 1375 034e 62       		.byte	0x62
 1376 034f 1A       		.byte	0x1a
 1377 0350 3F020000 		.4byte	0x23f
 1378 0354 10       		.byte	0x10
 1379 0355 00       		.byte	0
 1380 0356 0A       		.uleb128 0xa
 1381 0357 04       		.byte	0x4
 1382 0358 FB020000 		.4byte	0x2fb
 1383 035c 09       		.uleb128 0x9
 1384 035d 10       		.byte	0x10
 1385 035e 0A       		.byte	0xa
 1386 035f 6C       		.byte	0x6c
 1387 0360 09       		.byte	0x9
 1388 0361 9A030000 		.4byte	0x39a
 1389 0365 07       		.uleb128 0x7
 1390 0366 4A020000 		.4byte	.LASF43
 1391 036a 0A       		.byte	0xa
 1392 036b 6D       		.byte	0x6d
 1393 036c 1A       		.byte	0x1a
 1394 036d 56030000 		.4byte	0x356
 1395 0371 00       		.byte	0
 1396 0372 07       		.uleb128 0x7
 1397 0373 45010000 		.4byte	.LASF44
 1398 0377 0A       		.byte	0xa
 1399 0378 6F       		.byte	0x6f
 1400 0379 1A       		.byte	0x1a
 1401 037a 56030000 		.4byte	0x356
 1402 037e 04       		.byte	0x4
 1403 037f 07       		.uleb128 0x7
 1404 0380 FA020000 		.4byte	.LASF45
 1405 0384 0A       		.byte	0xa
 1406 0385 71       		.byte	0x71
 1407 0386 19       		.byte	0x19
 1408 0387 07010000 		.4byte	0x107
 1409 038b 08       		.byte	0x8
 1410 038c 07       		.uleb128 0x7
 1411 038d D0040000 		.4byte	.LASF48
 1412 0391 0A       		.byte	0xa
 1413 0392 72       		.byte	0x72
 1414 0393 19       		.byte	0x19
 1415 0394 13010000 		.4byte	0x113
 1416 0398 0C       		.byte	0xc
 1417 0399 00       		.byte	0
 1418 039a 03       		.uleb128 0x3
 1419 039b 2E030000 		.4byte	.LASF49
 1420 039f 0A       		.byte	0xa
 1421 03a0 73       		.byte	0x73
 1422 03a1 03       		.byte	0x3
 1423 03a2 5C030000 		.4byte	0x35c
 1424 03a6 0E       		.uleb128 0xe
 1425 03a7 25000000 		.4byte	.LASF55
ARM GAS  /var/folders/l5/0x54b2c10074c8bt31ycjvl80000gp/T//cc0rXl4T.s 			page 26


 1426 03ab 0A       		.byte	0xa
 1427 03ac D1       		.byte	0xd1
 1428 03ad 0F       		.byte	0xf
 1429 03ae 9A030000 		.4byte	0x39a
 1430 03b2 09       		.uleb128 0x9
 1431 03b3 14       		.byte	0x14
 1432 03b4 0B       		.byte	0xb
 1433 03b5 57       		.byte	0x57
 1434 03b6 09       		.byte	0x9
 1435 03b7 F0030000 		.4byte	0x3f0
 1436 03bb 07       		.uleb128 0x7
 1437 03bc 11040000 		.4byte	.LASF50
 1438 03c0 0B       		.byte	0xb
 1439 03c1 58       		.byte	0x58
 1440 03c2 19       		.byte	0x19
 1441 03c3 F8010000 		.4byte	0x1f8
 1442 03c7 00       		.byte	0
 1443 03c8 07       		.uleb128 0x7
 1444 03c9 BE030000 		.4byte	.LASF51
 1445 03cd 0B       		.byte	0xb
 1446 03ce 59       		.byte	0x59
 1447 03cf 19       		.byte	0x19
 1448 03d0 E3000000 		.4byte	0xe3
 1449 03d4 08       		.byte	0x8
 1450 03d5 07       		.uleb128 0x7
 1451 03d6 35030000 		.4byte	.LASF52
 1452 03da 0B       		.byte	0xb
 1453 03db 5B       		.byte	0x5b
 1454 03dc 19       		.byte	0x19
 1455 03dd BD020000 		.4byte	0x2bd
 1456 03e1 0C       		.byte	0xc
 1457 03e2 07       		.uleb128 0x7
 1458 03e3 59030000 		.4byte	.LASF53
 1459 03e7 0B       		.byte	0xb
 1460 03e8 62       		.byte	0x62
 1461 03e9 1A       		.byte	0x1a
 1462 03ea F2010000 		.4byte	0x1f2
 1463 03ee 10       		.byte	0x10
 1464 03ef 00       		.byte	0
 1465 03f0 03       		.uleb128 0x3
 1466 03f1 A6040000 		.4byte	.LASF54
 1467 03f5 0B       		.byte	0xb
 1468 03f6 64       		.byte	0x64
 1469 03f7 03       		.byte	0x3
 1470 03f8 B2030000 		.4byte	0x3b2
 1471 03fc 0E       		.uleb128 0xe
 1472 03fd B0040000 		.4byte	.LASF56
 1473 0401 0B       		.byte	0xb
 1474 0402 68       		.byte	0x68
 1475 0403 12       		.byte	0x12
 1476 0404 F0030000 		.4byte	0x3f0
 1477 0408 06       		.uleb128 0x6
 1478 0409 CF020000 		.4byte	.LASF57
 1479 040d 10       		.byte	0x10
 1480 040e 0C       		.byte	0xc
 1481 040f 25       		.byte	0x25
 1482 0410 10       		.byte	0x10
ARM GAS  /var/folders/l5/0x54b2c10074c8bt31ycjvl80000gp/T//cc0rXl4T.s 			page 27


 1483 0411 3D040000 		.4byte	0x43d
 1484 0415 07       		.uleb128 0x7
 1485 0416 82000000 		.4byte	.LASF58
 1486 041a 0C       		.byte	0xc
 1487 041b 26       		.byte	0x26
 1488 041c 19       		.byte	0x19
 1489 041d F8010000 		.4byte	0x1f8
 1490 0421 00       		.byte	0
 1491 0422 07       		.uleb128 0x7
 1492 0423 F0040000 		.4byte	.LASF59
 1493 0427 0C       		.byte	0xc
 1494 0428 28       		.byte	0x28
 1495 0429 1A       		.byte	0x1a
 1496 042a F2010000 		.4byte	0x1f2
 1497 042e 08       		.byte	0x8
 1498 042f 07       		.uleb128 0x7
 1499 0430 55040000 		.4byte	.LASF60
 1500 0434 0C       		.byte	0xc
 1501 0435 2A       		.byte	0x2a
 1502 0436 1A       		.byte	0x1a
 1503 0437 3D040000 		.4byte	0x43d
 1504 043b 0C       		.byte	0xc
 1505 043c 00       		.byte	0
 1506 043d 0A       		.uleb128 0xa
 1507 043e 04       		.byte	0x4
 1508 043f 08040000 		.4byte	0x408
 1509 0443 03       		.uleb128 0x3
 1510 0444 CF020000 		.4byte	.LASF57
 1511 0448 0C       		.byte	0xc
 1512 0449 2C       		.byte	0x2c
 1513 044a 03       		.byte	0x3
 1514 044b 08040000 		.4byte	0x408
 1515 044f 0F       		.uleb128 0xf
 1516 0450 04       		.byte	0x4
 1517 0451 08       		.byte	0x8
 1518 0452 8F       		.byte	0x8f
 1519 0453 03       		.byte	0x3
 1520 0454 89040000 		.4byte	0x489
 1521 0458 10       		.uleb128 0x10
 1522 0459 14000000 		.4byte	.LASF61
 1523 045d 08       		.byte	0x8
 1524 045e 96       		.byte	0x96
 1525 045f 19       		.byte	0x19
 1526 0460 EF000000 		.4byte	0xef
 1527 0464 10       		.uleb128 0x10
 1528 0465 4E000000 		.4byte	.LASF62
 1529 0469 08       		.byte	0x8
 1530 046a 9D       		.byte	0x9d
 1531 046b 19       		.byte	0x19
 1532 046c EF000000 		.4byte	0xef
 1533 0470 10       		.uleb128 0x10
 1534 0471 C9040000 		.4byte	.LASF63
 1535 0475 08       		.byte	0x8
 1536 0476 A4       		.byte	0xa4
 1537 0477 1A       		.byte	0x1a
 1538 0478 3F020000 		.4byte	0x23f
 1539 047c 10       		.uleb128 0x10
ARM GAS  /var/folders/l5/0x54b2c10074c8bt31ycjvl80000gp/T//cc0rXl4T.s 			page 28


 1540 047d C5030000 		.4byte	.LASF64
 1541 0481 08       		.byte	0x8
 1542 0482 AB       		.byte	0xab
 1543 0483 19       		.byte	0x19
 1544 0484 FB000000 		.4byte	0xfb
 1545 0488 00       		.byte	0
 1546 0489 0A       		.uleb128 0xa
 1547 048a 04       		.byte	0x4
 1548 048b 43040000 		.4byte	0x443
 1549 048f 03       		.uleb128 0x3
 1550 0490 00000000 		.4byte	.LASF65
 1551 0494 08       		.byte	0x8
 1552 0495 DE       		.byte	0xde
 1553 0496 11       		.byte	0x11
 1554 0497 9B040000 		.4byte	0x49b
 1555 049b 0A       		.uleb128 0xa
 1556 049c 04       		.byte	0x4
 1557 049d A1040000 		.4byte	0x4a1
 1558 04a1 11       		.uleb128 0x11
 1559 04a2 EF000000 		.4byte	0xef
 1560 04a6 B0040000 		.4byte	0x4b0
 1561 04aa 0D       		.uleb128 0xd
 1562 04ab 3F020000 		.4byte	0x23f
 1563 04af 00       		.byte	0
 1564 04b0 12       		.uleb128 0x12
 1565 04b1 27020000 		.4byte	0x227
 1566 04b5 C0040000 		.4byte	0x4c0
 1567 04b9 13       		.uleb128 0x13
 1568 04ba 38000000 		.4byte	0x38
 1569 04be 1F       		.byte	0x1f
 1570 04bf 00       		.byte	0
 1571 04c0 0E       		.uleb128 0xe
 1572 04c1 04010000 		.4byte	.LASF66
 1573 04c5 0D       		.byte	0xd
 1574 04c6 82       		.byte	0x82
 1575 04c7 08       		.byte	0x8
 1576 04c8 B0040000 		.4byte	0x4b0
 1577 04cc 14       		.uleb128 0x14
 1578 04cd 8A040000 		.4byte	.LASF74
 1579 04d1 01       		.byte	0x1
 1580 04d2 9D01     		.2byte	0x19d
 1581 04d4 07       		.byte	0x7
 1582 04d5 EF000000 		.4byte	0xef
 1583 04d9 00000000 		.4byte	.LFB18
 1584 04dd 44000000 		.4byte	.LFE18-.LFB18
 1585 04e1 01       		.uleb128 0x1
 1586 04e2 9C       		.byte	0x9c
 1587 04e3 49050000 		.4byte	0x549
 1588 04e7 15       		.uleb128 0x15
 1589 04e8 747000   		.ascii	"tp\000"
 1590 04eb 01       		.byte	0x1
 1591 04ec 9D01     		.2byte	0x19d
 1592 04ee 19       		.byte	0x19
 1593 04ef F2010000 		.4byte	0x1f2
 1594 04f3 04000000 		.4byte	.LLST29
 1595 04f7 00000000 		.4byte	.LVUS29
 1596 04fb 16       		.uleb128 0x16
ARM GAS  /var/folders/l5/0x54b2c10074c8bt31ycjvl80000gp/T//cc0rXl4T.s 			page 29


 1597 04fc 6D736700 		.ascii	"msg\000"
 1598 0500 01       		.byte	0x1
 1599 0501 9E01     		.2byte	0x19e
 1600 0503 09       		.byte	0x9
 1601 0504 EF000000 		.4byte	0xef
 1602 0508 24000000 		.4byte	.LLST30
 1603 050c 22000000 		.4byte	.LVUS30
 1604 0510 17       		.uleb128 0x17
 1605 0511 5B090000 		.4byte	0x95b
 1606 0515 24000000 		.4byte	.LBI30
 1607 0519 01       		.byte	.LVU278
 1608 051a 58000000 		.4byte	.Ldebug_ranges0+0x58
 1609 051e 01       		.byte	0x1
 1610 051f A801     		.2byte	0x1a8
 1611 0521 05       		.byte	0x5
 1612 0522 39050000 		.4byte	0x539
 1613 0526 18       		.uleb128 0x18
 1614 0527 73090000 		.4byte	0x973
 1615 052b 3B000000 		.4byte	.LLST31
 1616 052f 37000000 		.4byte	.LVUS31
 1617 0533 19       		.uleb128 0x19
 1618 0534 68090000 		.4byte	0x968
 1619 0538 00       		.byte	0
 1620 0539 1A       		.uleb128 0x1a
 1621 053a 34000000 		.4byte	.LVL48
 1622 053e 250A0000 		.4byte	0xa25
 1623 0542 1B       		.uleb128 0x1b
 1624 0543 01       		.uleb128 0x1
 1625 0544 50       		.byte	0x50
 1626 0545 01       		.uleb128 0x1
 1627 0546 37       		.byte	0x37
 1628 0547 00       		.byte	0
 1629 0548 00       		.byte	0
 1630 0549 1C       		.uleb128 0x1c
 1631 054a 2C000000 		.4byte	.LASF67
 1632 054e 01       		.byte	0x1
 1633 054f 6701     		.2byte	0x167
 1634 0551 06       		.byte	0x6
 1635 0552 00000000 		.4byte	.LFB17
 1636 0556 4C000000 		.4byte	.LFE17-.LFB17
 1637 055a 01       		.uleb128 0x1
 1638 055b 9C       		.byte	0x9c
 1639 055c D9050000 		.4byte	0x5d9
 1640 0560 15       		.uleb128 0x15
 1641 0561 6D736700 		.ascii	"msg\000"
 1642 0565 01       		.byte	0x1
 1643 0566 6701     		.2byte	0x167
 1644 0568 17       		.byte	0x17
 1645 0569 EF000000 		.4byte	0xef
 1646 056d 61000000 		.4byte	.LLST24
 1647 0571 5D000000 		.4byte	.LVUS24
 1648 0575 16       		.uleb128 0x16
 1649 0576 747000   		.ascii	"tp\000"
 1650 0579 01       		.byte	0x1
 1651 057a 6801     		.2byte	0x168
 1652 057c 0B       		.byte	0xb
 1653 057d F2010000 		.4byte	0x1f2
ARM GAS  /var/folders/l5/0x54b2c10074c8bt31ycjvl80000gp/T//cc0rXl4T.s 			page 30


 1654 0581 84000000 		.4byte	.LLST25
 1655 0585 82000000 		.4byte	.LVUS25
 1656 0589 17       		.uleb128 0x17
 1657 058a 2C090000 		.4byte	0x92c
 1658 058e 20000000 		.4byte	.LBI26
 1659 0592 01       		.byte	.LVU240
 1660 0593 40000000 		.4byte	.Ldebug_ranges0+0x40
 1661 0597 01       		.byte	0x1
 1662 0598 7001     		.2byte	0x170
 1663 059a 05       		.byte	0x5
 1664 059b C0050000 		.4byte	0x5c0
 1665 059f 18       		.uleb128 0x18
 1666 05a0 3D090000 		.4byte	0x93d
 1667 05a4 99000000 		.4byte	.LLST26
 1668 05a8 97000000 		.4byte	.LVUS26
 1669 05ac 1D       		.uleb128 0x1d
 1670 05ad 40000000 		.4byte	.Ldebug_ranges0+0x40
 1671 05b1 1E       		.uleb128 0x1e
 1672 05b2 49090000 		.4byte	0x949
 1673 05b6 AE000000 		.4byte	.LLST27
 1674 05ba AC000000 		.4byte	.LVUS27
 1675 05be 00       		.byte	0
 1676 05bf 00       		.byte	0
 1677 05c0 1F       		.uleb128 0x1f
 1678 05c1 30000000 		.4byte	.LVL38
 1679 05c5 310A0000 		.4byte	0xa31
 1680 05c9 20       		.uleb128 0x20
 1681 05ca 48000000 		.4byte	.LVL41
 1682 05ce 250A0000 		.4byte	0xa25
 1683 05d2 1B       		.uleb128 0x1b
 1684 05d3 01       		.uleb128 0x1
 1685 05d4 50       		.byte	0x50
 1686 05d5 01       		.uleb128 0x1
 1687 05d6 3E       		.byte	0x3e
 1688 05d7 00       		.byte	0
 1689 05d8 00       		.byte	0
 1690 05d9 1C       		.uleb128 0x1c
 1691 05da 78000000 		.4byte	.LASF68
 1692 05de 01       		.byte	0x1
 1693 05df 5201     		.2byte	0x152
 1694 05e1 06       		.byte	0x6
 1695 05e2 00000000 		.4byte	.LFB16
 1696 05e6 08000000 		.4byte	.LFE16-.LFB16
 1697 05ea 01       		.uleb128 0x1
 1698 05eb 9C       		.byte	0x9c
 1699 05ec 17060000 		.4byte	0x617
 1700 05f0 15       		.uleb128 0x15
 1701 05f1 6D736700 		.ascii	"msg\000"
 1702 05f5 01       		.byte	0x1
 1703 05f6 5201     		.2byte	0x152
 1704 05f8 16       		.byte	0x16
 1705 05f9 EF000000 		.4byte	0xef
 1706 05fd C5000000 		.4byte	.LLST28
 1707 0601 C1000000 		.4byte	.LVUS28
 1708 0605 20       		.uleb128 0x20
 1709 0606 08000000 		.4byte	.LVL43
 1710 060a 49050000 		.4byte	0x549
ARM GAS  /var/folders/l5/0x54b2c10074c8bt31ycjvl80000gp/T//cc0rXl4T.s 			page 31


 1711 060e 1B       		.uleb128 0x1b
 1712 060f 01       		.uleb128 0x1
 1713 0610 50       		.byte	0x50
 1714 0611 03       		.uleb128 0x3
 1715 0612 F3       		.byte	0xf3
 1716 0613 01       		.uleb128 0x1
 1717 0614 50       		.byte	0x50
 1718 0615 00       		.byte	0
 1719 0616 00       		.byte	0
 1720 0617 1C       		.uleb128 0x1c
 1721 0618 BE040000 		.4byte	.LASF69
 1722 061c 01       		.byte	0x1
 1723 061d 3D01     		.2byte	0x13d
 1724 061f 06       		.byte	0x6
 1725 0620 00000000 		.4byte	.LFB15
 1726 0624 3C000000 		.4byte	.LFE15-.LFB15
 1727 0628 01       		.uleb128 0x1
 1728 0629 9C       		.byte	0x9c
 1729 062a 38060000 		.4byte	0x638
 1730 062e 1F       		.uleb128 0x1f
 1731 062f 30000000 		.4byte	.LVL33
 1732 0633 3D0A0000 		.4byte	0xa3d
 1733 0637 00       		.byte	0
 1734 0638 1C       		.uleb128 0x1c
 1735 0639 63030000 		.4byte	.LASF70
 1736 063d 01       		.byte	0x1
 1737 063e 2E01     		.2byte	0x12e
 1738 0640 06       		.byte	0x6
 1739 0641 00000000 		.4byte	.LFB14
 1740 0645 34000000 		.4byte	.LFE14-.LFB14
 1741 0649 01       		.uleb128 0x1
 1742 064a 9C       		.byte	0x9c
 1743 064b 74060000 		.4byte	0x674
 1744 064f 21       		.uleb128 0x21
 1745 0650 48030000 		.4byte	.LASF71
 1746 0654 01       		.byte	0x1
 1747 0655 2E01     		.2byte	0x12e
 1748 0657 20       		.byte	0x20
 1749 0658 07010000 		.4byte	0x107
 1750 065c EC000000 		.4byte	.LLST23
 1751 0660 E6000000 		.4byte	.LVUS23
 1752 0664 1A       		.uleb128 0x1a
 1753 0665 28000000 		.4byte	.LVL32
 1754 0669 490A0000 		.4byte	0xa49
 1755 066d 1B       		.uleb128 0x1b
 1756 066e 01       		.uleb128 0x1
 1757 066f 50       		.byte	0x50
 1758 0670 01       		.uleb128 0x1
 1759 0671 36       		.byte	0x36
 1760 0672 00       		.byte	0
 1761 0673 00       		.byte	0
 1762 0674 1C       		.uleb128 0x1c
 1763 0675 9B040000 		.4byte	.LASF72
 1764 0679 01       		.byte	0x1
 1765 067a 1D01     		.2byte	0x11d
 1766 067c 06       		.byte	0x6
 1767 067d 00000000 		.4byte	.LFB13
ARM GAS  /var/folders/l5/0x54b2c10074c8bt31ycjvl80000gp/T//cc0rXl4T.s 			page 32


 1768 0681 1C000000 		.4byte	.LFE13-.LFB13
 1769 0685 01       		.uleb128 0x1
 1770 0686 9C       		.byte	0x9c
 1771 0687 B7060000 		.4byte	0x6b7
 1772 068b 21       		.uleb128 0x21
 1773 068c 48030000 		.4byte	.LASF71
 1774 0690 01       		.byte	0x1
 1775 0691 1D01     		.2byte	0x11d
 1776 0693 1B       		.byte	0x1b
 1777 0694 07010000 		.4byte	0x107
 1778 0698 20010000 		.4byte	.LLST22
 1779 069c 1A010000 		.4byte	.LVUS22
 1780 06a0 1A       		.uleb128 0x1a
 1781 06a1 14000000 		.4byte	.LVL28
 1782 06a5 490A0000 		.4byte	0xa49
 1783 06a9 1B       		.uleb128 0x1b
 1784 06aa 01       		.uleb128 0x1
 1785 06ab 50       		.byte	0x50
 1786 06ac 01       		.uleb128 0x1
 1787 06ad 36       		.byte	0x36
 1788 06ae 1B       		.uleb128 0x1b
 1789 06af 01       		.uleb128 0x1
 1790 06b0 51       		.byte	0x51
 1791 06b1 03       		.uleb128 0x3
 1792 06b2 F3       		.byte	0xf3
 1793 06b3 01       		.uleb128 0x1
 1794 06b4 50       		.byte	0x50
 1795 06b5 00       		.byte	0
 1796 06b6 00       		.byte	0
 1797 06b7 1C       		.uleb128 0x1c
 1798 06b8 A8020000 		.4byte	.LASF73
 1799 06bc 01       		.byte	0x1
 1800 06bd 0A01     		.2byte	0x10a
 1801 06bf 06       		.byte	0x6
 1802 06c0 00000000 		.4byte	.LFB12
 1803 06c4 18000000 		.4byte	.LFE12-.LFB12
 1804 06c8 01       		.uleb128 0x1
 1805 06c9 9C       		.byte	0x9c
 1806 06ca DD060000 		.4byte	0x6dd
 1807 06ce 22       		.uleb128 0x22
 1808 06cf 747000   		.ascii	"tp\000"
 1809 06d2 01       		.byte	0x1
 1810 06d3 0A01     		.2byte	0x10a
 1811 06d5 1D       		.byte	0x1d
 1812 06d6 F2010000 		.4byte	0x1f2
 1813 06da 01       		.uleb128 0x1
 1814 06db 50       		.byte	0x50
 1815 06dc 00       		.byte	0
 1816 06dd 23       		.uleb128 0x23
 1817 06de 0A030000 		.4byte	.LASF75
 1818 06e2 01       		.byte	0x1
 1819 06e3 F3       		.byte	0xf3
 1820 06e4 09       		.byte	0x9
 1821 06e5 F2010000 		.4byte	0x1f2
 1822 06e9 00000000 		.4byte	.LFB11
 1823 06ed 20000000 		.4byte	.LFE11-.LFB11
 1824 06f1 01       		.uleb128 0x1
ARM GAS  /var/folders/l5/0x54b2c10074c8bt31ycjvl80000gp/T//cc0rXl4T.s 			page 33


 1825 06f2 9C       		.byte	0x9c
 1826 06f3 20070000 		.4byte	0x720
 1827 06f7 24       		.uleb128 0x24
 1828 06f8 747000   		.ascii	"tp\000"
 1829 06fb 01       		.byte	0x1
 1830 06fc F3       		.byte	0xf3
 1831 06fd 1D       		.byte	0x1d
 1832 06fe F2010000 		.4byte	0x1f2
 1833 0702 50010000 		.4byte	.LLST21
 1834 0706 4C010000 		.4byte	.LVUS21
 1835 070a 1A       		.uleb128 0x1a
 1836 070b 14000000 		.4byte	.LVL24
 1837 070f 550A0000 		.4byte	0xa55
 1838 0713 1B       		.uleb128 0x1b
 1839 0714 01       		.uleb128 0x1
 1840 0715 50       		.byte	0x50
 1841 0716 02       		.uleb128 0x2
 1842 0717 74       		.byte	0x74
 1843 0718 00       		.sleb128 0
 1844 0719 1B       		.uleb128 0x1b
 1845 071a 01       		.uleb128 0x1
 1846 071b 51       		.byte	0x51
 1847 071c 01       		.uleb128 0x1
 1848 071d 30       		.byte	0x30
 1849 071e 00       		.byte	0
 1850 071f 00       		.byte	0
 1851 0720 23       		.uleb128 0x23
 1852 0721 2C020000 		.4byte	.LASF76
 1853 0725 01       		.byte	0x1
 1854 0726 D2       		.byte	0xd2
 1855 0727 09       		.byte	0x9
 1856 0728 E3000000 		.4byte	0xe3
 1857 072c 00000000 		.4byte	.LFB10
 1858 0730 50000000 		.4byte	.LFE10-.LFB10
 1859 0734 01       		.uleb128 0x1
 1860 0735 9C       		.byte	0x9c
 1861 0736 6C070000 		.4byte	0x76c
 1862 073a 25       		.uleb128 0x25
 1863 073b 98020000 		.4byte	.LASF77
 1864 073f 01       		.byte	0x1
 1865 0740 D2       		.byte	0xd2
 1866 0741 22       		.byte	0x22
 1867 0742 E3000000 		.4byte	0xe3
 1868 0746 74010000 		.4byte	.LLST19
 1869 074a 6E010000 		.4byte	.LVUS19
 1870 074e 26       		.uleb128 0x26
 1871 074f D5020000 		.4byte	.LASF78
 1872 0753 01       		.byte	0x1
 1873 0754 D3       		.byte	0xd3
 1874 0755 0B       		.byte	0xb
 1875 0756 E3000000 		.4byte	0xe3
 1876 075a A2010000 		.4byte	.LLST20
 1877 075e A0010000 		.4byte	.LVUS20
 1878 0762 1F       		.uleb128 0x1f
 1879 0763 40000000 		.4byte	.LVL22
 1880 0767 610A0000 		.4byte	0xa61
 1881 076b 00       		.byte	0
ARM GAS  /var/folders/l5/0x54b2c10074c8bt31ycjvl80000gp/T//cc0rXl4T.s 			page 34


 1882 076c 23       		.uleb128 0x23
 1883 076d E8020000 		.4byte	.LASF79
 1884 0771 01       		.byte	0x1
 1885 0772 B4       		.byte	0xb4
 1886 0773 09       		.byte	0x9
 1887 0774 F2010000 		.4byte	0x1f2
 1888 0778 00000000 		.4byte	.LFB9
 1889 077c 70000000 		.4byte	.LFE9-.LFB9
 1890 0780 01       		.uleb128 0x1
 1891 0781 9C       		.byte	0x9c
 1892 0782 AB080000 		.4byte	0x8ab
 1893 0786 24       		.uleb128 0x24
 1894 0787 77737000 		.ascii	"wsp\000"
 1895 078b 01       		.byte	0x1
 1896 078c B4       		.byte	0xb4
 1897 078d 21       		.byte	0x21
 1898 078e 3F020000 		.4byte	0x23f
 1899 0792 B9010000 		.4byte	.LLST6
 1900 0796 B5010000 		.4byte	.LVUS6
 1901 079a 25       		.uleb128 0x25
 1902 079b 6D020000 		.4byte	.LASF80
 1903 079f 01       		.byte	0x1
 1904 07a0 B4       		.byte	0xb4
 1905 07a1 2D       		.byte	0x2d
 1906 07a2 2C000000 		.4byte	0x2c
 1907 07a6 DF010000 		.4byte	.LLST7
 1908 07aa D7010000 		.4byte	.LVUS7
 1909 07ae 25       		.uleb128 0x25
 1910 07af 0F000000 		.4byte	.LASF81
 1911 07b3 01       		.byte	0x1
 1912 07b4 B5       		.byte	0xb5
 1913 07b5 23       		.byte	0x23
 1914 07b6 E3000000 		.4byte	0xe3
 1915 07ba 1C020000 		.4byte	.LLST8
 1916 07be 18020000 		.4byte	.LVUS8
 1917 07c2 24       		.uleb128 0x24
 1918 07c3 706600   		.ascii	"pf\000"
 1919 07c6 01       		.byte	0x1
 1920 07c7 B5       		.byte	0xb5
 1921 07c8 31       		.byte	0x31
 1922 07c9 8F040000 		.4byte	0x48f
 1923 07cd 43020000 		.4byte	.LLST9
 1924 07d1 3D020000 		.4byte	.LVUS9
 1925 07d5 27       		.uleb128 0x27
 1926 07d6 61726700 		.ascii	"arg\000"
 1927 07da 01       		.byte	0x1
 1928 07db B5       		.byte	0xb5
 1929 07dc 3B       		.byte	0x3b
 1930 07dd 3F020000 		.4byte	0x23f
 1931 07e1 02       		.uleb128 0x2
 1932 07e2 91       		.byte	0x91
 1933 07e3 00       		.sleb128 0
 1934 07e4 28       		.uleb128 0x28
 1935 07e5 747000   		.ascii	"tp\000"
 1936 07e8 01       		.byte	0x1
 1937 07e9 B6       		.byte	0xb6
 1938 07ea 0B       		.byte	0xb
ARM GAS  /var/folders/l5/0x54b2c10074c8bt31ycjvl80000gp/T//cc0rXl4T.s 			page 35


 1939 07eb F2010000 		.4byte	0x1f2
 1940 07ef 74020000 		.4byte	.LLST10
 1941 07f3 70020000 		.4byte	.LVUS10
 1942 07f7 29       		.uleb128 0x29
 1943 07f8 AB080000 		.4byte	0x8ab
 1944 07fc 14000000 		.4byte	.LBI18
 1945 0800 03       		.byte	.LVU77
 1946 0801 14000000 		.4byte	.LBB18
 1947 0805 48000000 		.4byte	.LBE18-.LBB18
 1948 0809 01       		.byte	0x1
 1949 080a C1       		.byte	0xc1
 1950 080b 15       		.byte	0x15
 1951 080c 95080000 		.4byte	0x895
 1952 0810 18       		.uleb128 0x18
 1953 0811 EB080000 		.4byte	0x8eb
 1954 0815 94020000 		.4byte	.LLST11
 1955 0819 92020000 		.4byte	.LVUS11
 1956 081d 18       		.uleb128 0x18
 1957 081e E0080000 		.4byte	0x8e0
 1958 0822 AD020000 		.4byte	.LLST12
 1959 0826 A7020000 		.4byte	.LVUS12
 1960 082a 18       		.uleb128 0x18
 1961 082b D4080000 		.4byte	0x8d4
 1962 082f DC020000 		.4byte	.LLST13
 1963 0833 DA020000 		.4byte	.LVUS13
 1964 0837 18       		.uleb128 0x18
 1965 0838 C8080000 		.4byte	0x8c8
 1966 083c F7020000 		.4byte	.LLST14
 1967 0840 EF020000 		.4byte	.LVUS14
 1968 0844 18       		.uleb128 0x18
 1969 0845 BC080000 		.4byte	0x8bc
 1970 0849 32030000 		.4byte	.LLST15
 1971 084d 30030000 		.4byte	.LVUS15
 1972 0851 2A       		.uleb128 0x2a
 1973 0852 14000000 		.4byte	.LBB19
 1974 0856 48000000 		.4byte	.LBE19-.LBB19
 1975 085a 1E       		.uleb128 0x1e
 1976 085b F7080000 		.4byte	0x8f7
 1977 085f 49030000 		.4byte	.LLST16
 1978 0863 45030000 		.4byte	.LVUS16
 1979 0867 2B       		.uleb128 0x2b
 1980 0868 03090000 		.4byte	0x903
 1981 086c 40000000 		.4byte	.LBI20
 1982 0870 02       		.byte	.LVU97
 1983 0871 20000000 		.4byte	.Ldebug_ranges0+0x20
 1984 0875 01       		.byte	0x1
 1985 0876 A1       		.byte	0xa1
 1986 0877 0A       		.byte	0xa
 1987 0878 18       		.uleb128 0x18
 1988 0879 1F090000 		.4byte	0x91f
 1989 087d 69030000 		.4byte	.LLST17
 1990 0881 67030000 		.4byte	.LVUS17
 1991 0885 18       		.uleb128 0x18
 1992 0886 14090000 		.4byte	0x914
 1993 088a 7E030000 		.4byte	.LLST18
 1994 088e 7C030000 		.4byte	.LVUS18
 1995 0892 00       		.byte	0
ARM GAS  /var/folders/l5/0x54b2c10074c8bt31ycjvl80000gp/T//cc0rXl4T.s 			page 36


 1996 0893 00       		.byte	0
 1997 0894 00       		.byte	0
 1998 0895 1A       		.uleb128 0x1a
 1999 0896 60000000 		.4byte	.LVL18
 2000 089a 550A0000 		.4byte	0xa55
 2001 089e 1B       		.uleb128 0x1b
 2002 089f 01       		.uleb128 0x1
 2003 08a0 50       		.byte	0x50
 2004 08a1 02       		.uleb128 0x2
 2005 08a2 74       		.byte	0x74
 2006 08a3 00       		.sleb128 0
 2007 08a4 1B       		.uleb128 0x1b
 2008 08a5 01       		.uleb128 0x1
 2009 08a6 51       		.byte	0x51
 2010 08a7 01       		.uleb128 0x1
 2011 08a8 30       		.byte	0x30
 2012 08a9 00       		.byte	0
 2013 08aa 00       		.byte	0
 2014 08ab 2C       		.uleb128 0x2c
 2015 08ac 94000000 		.4byte	.LASF82
 2016 08b0 01       		.byte	0x1
 2017 08b1 96       		.byte	0x96
 2018 08b2 09       		.byte	0x9
 2019 08b3 F2010000 		.4byte	0x1f2
 2020 08b7 01       		.byte	0x1
 2021 08b8 03090000 		.4byte	0x903
 2022 08bc 2D       		.uleb128 0x2d
 2023 08bd 77737000 		.ascii	"wsp\000"
 2024 08c1 01       		.byte	0x1
 2025 08c2 96       		.byte	0x96
 2026 08c3 1C       		.byte	0x1c
 2027 08c4 3F020000 		.4byte	0x23f
 2028 08c8 2E       		.uleb128 0x2e
 2029 08c9 6D020000 		.4byte	.LASF80
 2030 08cd 01       		.byte	0x1
 2031 08ce 96       		.byte	0x96
 2032 08cf 28       		.byte	0x28
 2033 08d0 2C000000 		.4byte	0x2c
 2034 08d4 2E       		.uleb128 0x2e
 2035 08d5 0F000000 		.4byte	.LASF81
 2036 08d9 01       		.byte	0x1
 2037 08da 97       		.byte	0x97
 2038 08db 1E       		.byte	0x1e
 2039 08dc E3000000 		.4byte	0xe3
 2040 08e0 2D       		.uleb128 0x2d
 2041 08e1 706600   		.ascii	"pf\000"
 2042 08e4 01       		.byte	0x1
 2043 08e5 97       		.byte	0x97
 2044 08e6 2C       		.byte	0x2c
 2045 08e7 8F040000 		.4byte	0x48f
 2046 08eb 2D       		.uleb128 0x2d
 2047 08ec 61726700 		.ascii	"arg\000"
 2048 08f0 01       		.byte	0x1
 2049 08f1 97       		.byte	0x97
 2050 08f2 36       		.byte	0x36
 2051 08f3 3F020000 		.4byte	0x23f
 2052 08f7 2F       		.uleb128 0x2f
ARM GAS  /var/folders/l5/0x54b2c10074c8bt31ycjvl80000gp/T//cc0rXl4T.s 			page 37


 2053 08f8 747000   		.ascii	"tp\000"
 2054 08fb 01       		.byte	0x1
 2055 08fc 99       		.byte	0x99
 2056 08fd 0B       		.byte	0xb
 2057 08fe F2010000 		.4byte	0x1f2
 2058 0902 00       		.byte	0
 2059 0903 2C       		.uleb128 0x2c
 2060 0904 04040000 		.4byte	.LASF83
 2061 0908 01       		.byte	0x1
 2062 0909 45       		.byte	0x45
 2063 090a 09       		.byte	0x9
 2064 090b F2010000 		.4byte	0x1f2
 2065 090f 01       		.byte	0x1
 2066 0910 2C090000 		.4byte	0x92c
 2067 0914 2D       		.uleb128 0x2d
 2068 0915 747000   		.ascii	"tp\000"
 2069 0918 01       		.byte	0x1
 2070 0919 45       		.byte	0x45
 2071 091a 1E       		.byte	0x1e
 2072 091b F2010000 		.4byte	0x1f2
 2073 091f 2E       		.uleb128 0x2e
 2074 0920 0F000000 		.4byte	.LASF81
 2075 0924 01       		.byte	0x1
 2076 0925 45       		.byte	0x45
 2077 0926 2A       		.byte	0x2a
 2078 0927 E3000000 		.4byte	0xe3
 2079 092b 00       		.byte	0
 2080 092c 30       		.uleb128 0x30
 2081 092d 14010000 		.4byte	.LASF93
 2082 0931 02       		.byte	0x2
 2083 0932 4F       		.byte	0x4f
 2084 0933 17       		.byte	0x17
 2085 0934 F2010000 		.4byte	0x1f2
 2086 0938 03       		.byte	0x3
 2087 0939 55090000 		.4byte	0x955
 2088 093d 2D       		.uleb128 0x2d
 2089 093e 746C7000 		.ascii	"tlp\000"
 2090 0942 02       		.byte	0x2
 2091 0943 4F       		.byte	0x4f
 2092 0944 30       		.byte	0x30
 2093 0945 55090000 		.4byte	0x955
 2094 0949 2F       		.uleb128 0x2f
 2095 094a 747000   		.ascii	"tp\000"
 2096 094d 02       		.byte	0x2
 2097 094e 51       		.byte	0x51
 2098 094f 0B       		.byte	0xb
 2099 0950 F2010000 		.4byte	0x1f2
 2100 0954 00       		.byte	0
 2101 0955 0A       		.uleb128 0xa
 2102 0956 04       		.byte	0x4
 2103 0957 1B020000 		.4byte	0x21b
 2104 095b 31       		.uleb128 0x31
 2105 095c 4D030000 		.4byte	.LASF94
 2106 0960 02       		.byte	0x2
 2107 0961 49       		.byte	0x49
 2108 0962 14       		.byte	0x14
 2109 0963 03       		.byte	0x3
ARM GAS  /var/folders/l5/0x54b2c10074c8bt31ycjvl80000gp/T//cc0rXl4T.s 			page 38


 2110 0964 80090000 		.4byte	0x980
 2111 0968 2D       		.uleb128 0x2d
 2112 0969 747000   		.ascii	"tp\000"
 2113 096c 02       		.byte	0x2
 2114 096d 49       		.byte	0x49
 2115 096e 28       		.byte	0x28
 2116 096f F2010000 		.4byte	0x1f2
 2117 0973 2D       		.uleb128 0x2d
 2118 0974 746C7000 		.ascii	"tlp\000"
 2119 0978 02       		.byte	0x2
 2120 0979 49       		.byte	0x49
 2121 097a 39       		.byte	0x39
 2122 097b 55090000 		.4byte	0x955
 2123 097f 00       		.byte	0
 2124 0980 32       		.uleb128 0x32
 2125 0981 03090000 		.4byte	0x903
 2126 0985 00000000 		.4byte	.LFB7
 2127 0989 34000000 		.4byte	.LFE7-.LFB7
 2128 098d 01       		.uleb128 0x1
 2129 098e 9C       		.byte	0x9c
 2130 098f A8090000 		.4byte	0x9a8
 2131 0993 33       		.uleb128 0x33
 2132 0994 14090000 		.4byte	0x914
 2133 0998 01       		.uleb128 0x1
 2134 0999 50       		.byte	0x50
 2135 099a 18       		.uleb128 0x18
 2136 099b 1F090000 		.4byte	0x91f
 2137 099f 95030000 		.4byte	.LLST0
 2138 09a3 91030000 		.4byte	.LVUS0
 2139 09a7 00       		.byte	0
 2140 09a8 32       		.uleb128 0x32
 2141 09a9 AB080000 		.4byte	0x8ab
 2142 09ad 00000000 		.4byte	.LFB8
 2143 09b1 58000000 		.4byte	.LFE8-.LFB8
 2144 09b5 01       		.uleb128 0x1
 2145 09b6 9C       		.byte	0x9c
 2146 09b7 250A0000 		.4byte	0xa25
 2147 09bb 33       		.uleb128 0x33
 2148 09bc BC080000 		.4byte	0x8bc
 2149 09c0 01       		.uleb128 0x1
 2150 09c1 50       		.byte	0x50
 2151 09c2 18       		.uleb128 0x18
 2152 09c3 C8080000 		.4byte	0x8c8
 2153 09c7 BA030000 		.4byte	.LLST1
 2154 09cb B4030000 		.4byte	.LVUS1
 2155 09cf 33       		.uleb128 0x33
 2156 09d0 D4080000 		.4byte	0x8d4
 2157 09d4 01       		.uleb128 0x1
 2158 09d5 52       		.byte	0x52
 2159 09d6 18       		.uleb128 0x18
 2160 09d7 E0080000 		.4byte	0x8e0
 2161 09db EE030000 		.4byte	.LLST2
 2162 09df E8030000 		.4byte	.LVUS2
 2163 09e3 33       		.uleb128 0x33
 2164 09e4 EB080000 		.4byte	0x8eb
 2165 09e8 02       		.uleb128 0x2
 2166 09e9 91       		.byte	0x91
ARM GAS  /var/folders/l5/0x54b2c10074c8bt31ycjvl80000gp/T//cc0rXl4T.s 			page 39


 2167 09ea 00       		.sleb128 0
 2168 09eb 1E       		.uleb128 0x1e
 2169 09ec F7080000 		.4byte	0x8f7
 2170 09f0 1D040000 		.4byte	.LLST3
 2171 09f4 1B040000 		.4byte	.LVUS3
 2172 09f8 2B       		.uleb128 0x2b
 2173 09f9 03090000 		.4byte	0x903
 2174 09fd 34000000 		.4byte	.LBI12
 2175 0a01 03       		.byte	.LVU47
 2176 0a02 00000000 		.4byte	.Ldebug_ranges0+0
 2177 0a06 01       		.byte	0x1
 2178 0a07 A1       		.byte	0xa1
 2179 0a08 0A       		.byte	0xa
 2180 0a09 18       		.uleb128 0x18
 2181 0a0a 1F090000 		.4byte	0x91f
 2182 0a0e 32040000 		.4byte	.LLST4
 2183 0a12 30040000 		.4byte	.LVUS4
 2184 0a16 18       		.uleb128 0x18
 2185 0a17 14090000 		.4byte	0x914
 2186 0a1b 47040000 		.4byte	.LLST5
 2187 0a1f 45040000 		.4byte	.LVUS5
 2188 0a23 00       		.byte	0
 2189 0a24 00       		.byte	0
 2190 0a25 34       		.uleb128 0x34
 2191 0a26 E2030000 		.4byte	.LASF84
 2192 0a2a E2030000 		.4byte	.LASF84
 2193 0a2e 0B       		.byte	0xb
 2194 0a2f 8C       		.byte	0x8c
 2195 0a30 08       		.byte	0x8
 2196 0a31 34       		.uleb128 0x34
 2197 0a32 49040000 		.4byte	.LASF85
 2198 0a36 49040000 		.4byte	.LASF85
 2199 0a3a 0B       		.byte	0xb
 2200 0a3b 89       		.byte	0x89
 2201 0a3c 0B       		.byte	0xb
 2202 0a3d 34       		.uleb128 0x34
 2203 0a3e 16030000 		.4byte	.LASF86
 2204 0a42 16030000 		.4byte	.LASF86
 2205 0a46 0B       		.byte	0xb
 2206 0a47 9B       		.byte	0x9b
 2207 0a48 08       		.byte	0x8
 2208 0a49 34       		.uleb128 0x34
 2209 0a4a DB040000 		.4byte	.LASF87
 2210 0a4e DB040000 		.4byte	.LASF87
 2211 0a52 0B       		.byte	0xb
 2212 0a53 8F       		.byte	0x8f
 2213 0a54 09       		.byte	0x9
 2214 0a55 34       		.uleb128 0x34
 2215 0a56 85020000 		.4byte	.LASF88
 2216 0a5a 85020000 		.4byte	.LASF88
 2217 0a5e 0B       		.byte	0xb
 2218 0a5f 92       		.byte	0x92
 2219 0a60 08       		.byte	0x8
 2220 0a61 34       		.uleb128 0x34
 2221 0a62 20010000 		.4byte	.LASF89
 2222 0a66 20010000 		.4byte	.LASF89
 2223 0a6a 0B       		.byte	0xb
ARM GAS  /var/folders/l5/0x54b2c10074c8bt31ycjvl80000gp/T//cc0rXl4T.s 			page 40


 2224 0a6b 95       		.byte	0x95
 2225 0a6c 08       		.byte	0x8
 2226 0a6d 00       		.byte	0
 2227              		.section	.debug_abbrev,"",%progbits
 2228              	.Ldebug_abbrev0:
 2229 0000 01       		.uleb128 0x1
 2230 0001 11       		.uleb128 0x11
 2231 0002 01       		.byte	0x1
 2232 0003 25       		.uleb128 0x25
 2233 0004 0E       		.uleb128 0xe
 2234 0005 13       		.uleb128 0x13
 2235 0006 0B       		.uleb128 0xb
 2236 0007 03       		.uleb128 0x3
 2237 0008 0E       		.uleb128 0xe
 2238 0009 1B       		.uleb128 0x1b
 2239 000a 0E       		.uleb128 0xe
 2240 000b 55       		.uleb128 0x55
 2241 000c 17       		.uleb128 0x17
 2242 000d 11       		.uleb128 0x11
 2243 000e 01       		.uleb128 0x1
 2244 000f 10       		.uleb128 0x10
 2245 0010 17       		.uleb128 0x17
 2246 0011 00       		.byte	0
 2247 0012 00       		.byte	0
 2248 0013 02       		.uleb128 0x2
 2249 0014 24       		.uleb128 0x24
 2250 0015 00       		.byte	0
 2251 0016 0B       		.uleb128 0xb
 2252 0017 0B       		.uleb128 0xb
 2253 0018 3E       		.uleb128 0x3e
 2254 0019 0B       		.uleb128 0xb
 2255 001a 03       		.uleb128 0x3
 2256 001b 0E       		.uleb128 0xe
 2257 001c 00       		.byte	0
 2258 001d 00       		.byte	0
 2259 001e 03       		.uleb128 0x3
 2260 001f 16       		.uleb128 0x16
 2261 0020 00       		.byte	0
 2262 0021 03       		.uleb128 0x3
 2263 0022 0E       		.uleb128 0xe
 2264 0023 3A       		.uleb128 0x3a
 2265 0024 0B       		.uleb128 0xb
 2266 0025 3B       		.uleb128 0x3b
 2267 0026 0B       		.uleb128 0xb
 2268 0027 39       		.uleb128 0x39
 2269 0028 0B       		.uleb128 0xb
 2270 0029 49       		.uleb128 0x49
 2271 002a 13       		.uleb128 0x13
 2272 002b 00       		.byte	0
 2273 002c 00       		.byte	0
 2274 002d 04       		.uleb128 0x4
 2275 002e 24       		.uleb128 0x24
 2276 002f 00       		.byte	0
 2277 0030 0B       		.uleb128 0xb
 2278 0031 0B       		.uleb128 0xb
 2279 0032 3E       		.uleb128 0x3e
 2280 0033 0B       		.uleb128 0xb
ARM GAS  /var/folders/l5/0x54b2c10074c8bt31ycjvl80000gp/T//cc0rXl4T.s 			page 41


 2281 0034 03       		.uleb128 0x3
 2282 0035 08       		.uleb128 0x8
 2283 0036 00       		.byte	0
 2284 0037 00       		.byte	0
 2285 0038 05       		.uleb128 0x5
 2286 0039 35       		.uleb128 0x35
 2287 003a 00       		.byte	0
 2288 003b 49       		.uleb128 0x49
 2289 003c 13       		.uleb128 0x13
 2290 003d 00       		.byte	0
 2291 003e 00       		.byte	0
 2292 003f 06       		.uleb128 0x6
 2293 0040 13       		.uleb128 0x13
 2294 0041 01       		.byte	0x1
 2295 0042 03       		.uleb128 0x3
 2296 0043 0E       		.uleb128 0xe
 2297 0044 0B       		.uleb128 0xb
 2298 0045 0B       		.uleb128 0xb
 2299 0046 3A       		.uleb128 0x3a
 2300 0047 0B       		.uleb128 0xb
 2301 0048 3B       		.uleb128 0x3b
 2302 0049 0B       		.uleb128 0xb
 2303 004a 39       		.uleb128 0x39
 2304 004b 0B       		.uleb128 0xb
 2305 004c 01       		.uleb128 0x1
 2306 004d 13       		.uleb128 0x13
 2307 004e 00       		.byte	0
 2308 004f 00       		.byte	0
 2309 0050 07       		.uleb128 0x7
 2310 0051 0D       		.uleb128 0xd
 2311 0052 00       		.byte	0
 2312 0053 03       		.uleb128 0x3
 2313 0054 0E       		.uleb128 0xe
 2314 0055 3A       		.uleb128 0x3a
 2315 0056 0B       		.uleb128 0xb
 2316 0057 3B       		.uleb128 0x3b
 2317 0058 0B       		.uleb128 0xb
 2318 0059 39       		.uleb128 0x39
 2319 005a 0B       		.uleb128 0xb
 2320 005b 49       		.uleb128 0x49
 2321 005c 13       		.uleb128 0x13
 2322 005d 38       		.uleb128 0x38
 2323 005e 0B       		.uleb128 0xb
 2324 005f 00       		.byte	0
 2325 0060 00       		.byte	0
 2326 0061 08       		.uleb128 0x8
 2327 0062 0D       		.uleb128 0xd
 2328 0063 00       		.byte	0
 2329 0064 03       		.uleb128 0x3
 2330 0065 08       		.uleb128 0x8
 2331 0066 3A       		.uleb128 0x3a
 2332 0067 0B       		.uleb128 0xb
 2333 0068 3B       		.uleb128 0x3b
 2334 0069 0B       		.uleb128 0xb
 2335 006a 39       		.uleb128 0x39
 2336 006b 0B       		.uleb128 0xb
 2337 006c 49       		.uleb128 0x49
ARM GAS  /var/folders/l5/0x54b2c10074c8bt31ycjvl80000gp/T//cc0rXl4T.s 			page 42


 2338 006d 13       		.uleb128 0x13
 2339 006e 38       		.uleb128 0x38
 2340 006f 0B       		.uleb128 0xb
 2341 0070 00       		.byte	0
 2342 0071 00       		.byte	0
 2343 0072 09       		.uleb128 0x9
 2344 0073 13       		.uleb128 0x13
 2345 0074 01       		.byte	0x1
 2346 0075 0B       		.uleb128 0xb
 2347 0076 0B       		.uleb128 0xb
 2348 0077 3A       		.uleb128 0x3a
 2349 0078 0B       		.uleb128 0xb
 2350 0079 3B       		.uleb128 0x3b
 2351 007a 0B       		.uleb128 0xb
 2352 007b 39       		.uleb128 0x39
 2353 007c 0B       		.uleb128 0xb
 2354 007d 01       		.uleb128 0x1
 2355 007e 13       		.uleb128 0x13
 2356 007f 00       		.byte	0
 2357 0080 00       		.byte	0
 2358 0081 0A       		.uleb128 0xa
 2359 0082 0F       		.uleb128 0xf
 2360 0083 00       		.byte	0
 2361 0084 0B       		.uleb128 0xb
 2362 0085 0B       		.uleb128 0xb
 2363 0086 49       		.uleb128 0x49
 2364 0087 13       		.uleb128 0x13
 2365 0088 00       		.byte	0
 2366 0089 00       		.byte	0
 2367 008a 0B       		.uleb128 0xb
 2368 008b 0F       		.uleb128 0xf
 2369 008c 00       		.byte	0
 2370 008d 0B       		.uleb128 0xb
 2371 008e 0B       		.uleb128 0xb
 2372 008f 00       		.byte	0
 2373 0090 00       		.byte	0
 2374 0091 0C       		.uleb128 0xc
 2375 0092 15       		.uleb128 0x15
 2376 0093 01       		.byte	0x1
 2377 0094 27       		.uleb128 0x27
 2378 0095 19       		.uleb128 0x19
 2379 0096 01       		.uleb128 0x1
 2380 0097 13       		.uleb128 0x13
 2381 0098 00       		.byte	0
 2382 0099 00       		.byte	0
 2383 009a 0D       		.uleb128 0xd
 2384 009b 05       		.uleb128 0x5
 2385 009c 00       		.byte	0
 2386 009d 49       		.uleb128 0x49
 2387 009e 13       		.uleb128 0x13
 2388 009f 00       		.byte	0
 2389 00a0 00       		.byte	0
 2390 00a1 0E       		.uleb128 0xe
 2391 00a2 34       		.uleb128 0x34
 2392 00a3 00       		.byte	0
 2393 00a4 03       		.uleb128 0x3
 2394 00a5 0E       		.uleb128 0xe
ARM GAS  /var/folders/l5/0x54b2c10074c8bt31ycjvl80000gp/T//cc0rXl4T.s 			page 43


 2395 00a6 3A       		.uleb128 0x3a
 2396 00a7 0B       		.uleb128 0xb
 2397 00a8 3B       		.uleb128 0x3b
 2398 00a9 0B       		.uleb128 0xb
 2399 00aa 39       		.uleb128 0x39
 2400 00ab 0B       		.uleb128 0xb
 2401 00ac 49       		.uleb128 0x49
 2402 00ad 13       		.uleb128 0x13
 2403 00ae 3F       		.uleb128 0x3f
 2404 00af 19       		.uleb128 0x19
 2405 00b0 3C       		.uleb128 0x3c
 2406 00b1 19       		.uleb128 0x19
 2407 00b2 00       		.byte	0
 2408 00b3 00       		.byte	0
 2409 00b4 0F       		.uleb128 0xf
 2410 00b5 17       		.uleb128 0x17
 2411 00b6 01       		.byte	0x1
 2412 00b7 0B       		.uleb128 0xb
 2413 00b8 0B       		.uleb128 0xb
 2414 00b9 3A       		.uleb128 0x3a
 2415 00ba 0B       		.uleb128 0xb
 2416 00bb 3B       		.uleb128 0x3b
 2417 00bc 0B       		.uleb128 0xb
 2418 00bd 39       		.uleb128 0x39
 2419 00be 0B       		.uleb128 0xb
 2420 00bf 01       		.uleb128 0x1
 2421 00c0 13       		.uleb128 0x13
 2422 00c1 00       		.byte	0
 2423 00c2 00       		.byte	0
 2424 00c3 10       		.uleb128 0x10
 2425 00c4 0D       		.uleb128 0xd
 2426 00c5 00       		.byte	0
 2427 00c6 03       		.uleb128 0x3
 2428 00c7 0E       		.uleb128 0xe
 2429 00c8 3A       		.uleb128 0x3a
 2430 00c9 0B       		.uleb128 0xb
 2431 00ca 3B       		.uleb128 0x3b
 2432 00cb 0B       		.uleb128 0xb
 2433 00cc 39       		.uleb128 0x39
 2434 00cd 0B       		.uleb128 0xb
 2435 00ce 49       		.uleb128 0x49
 2436 00cf 13       		.uleb128 0x13
 2437 00d0 00       		.byte	0
 2438 00d1 00       		.byte	0
 2439 00d2 11       		.uleb128 0x11
 2440 00d3 15       		.uleb128 0x15
 2441 00d4 01       		.byte	0x1
 2442 00d5 27       		.uleb128 0x27
 2443 00d6 19       		.uleb128 0x19
 2444 00d7 49       		.uleb128 0x49
 2445 00d8 13       		.uleb128 0x13
 2446 00d9 01       		.uleb128 0x1
 2447 00da 13       		.uleb128 0x13
 2448 00db 00       		.byte	0
 2449 00dc 00       		.byte	0
 2450 00dd 12       		.uleb128 0x12
 2451 00de 01       		.uleb128 0x1
ARM GAS  /var/folders/l5/0x54b2c10074c8bt31ycjvl80000gp/T//cc0rXl4T.s 			page 44


 2452 00df 01       		.byte	0x1
 2453 00e0 49       		.uleb128 0x49
 2454 00e1 13       		.uleb128 0x13
 2455 00e2 01       		.uleb128 0x1
 2456 00e3 13       		.uleb128 0x13
 2457 00e4 00       		.byte	0
 2458 00e5 00       		.byte	0
 2459 00e6 13       		.uleb128 0x13
 2460 00e7 21       		.uleb128 0x21
 2461 00e8 00       		.byte	0
 2462 00e9 49       		.uleb128 0x49
 2463 00ea 13       		.uleb128 0x13
 2464 00eb 2F       		.uleb128 0x2f
 2465 00ec 0B       		.uleb128 0xb
 2466 00ed 00       		.byte	0
 2467 00ee 00       		.byte	0
 2468 00ef 14       		.uleb128 0x14
 2469 00f0 2E       		.uleb128 0x2e
 2470 00f1 01       		.byte	0x1
 2471 00f2 3F       		.uleb128 0x3f
 2472 00f3 19       		.uleb128 0x19
 2473 00f4 03       		.uleb128 0x3
 2474 00f5 0E       		.uleb128 0xe
 2475 00f6 3A       		.uleb128 0x3a
 2476 00f7 0B       		.uleb128 0xb
 2477 00f8 3B       		.uleb128 0x3b
 2478 00f9 05       		.uleb128 0x5
 2479 00fa 39       		.uleb128 0x39
 2480 00fb 0B       		.uleb128 0xb
 2481 00fc 27       		.uleb128 0x27
 2482 00fd 19       		.uleb128 0x19
 2483 00fe 49       		.uleb128 0x49
 2484 00ff 13       		.uleb128 0x13
 2485 0100 11       		.uleb128 0x11
 2486 0101 01       		.uleb128 0x1
 2487 0102 12       		.uleb128 0x12
 2488 0103 06       		.uleb128 0x6
 2489 0104 40       		.uleb128 0x40
 2490 0105 18       		.uleb128 0x18
 2491 0106 9742     		.uleb128 0x2117
 2492 0108 19       		.uleb128 0x19
 2493 0109 01       		.uleb128 0x1
 2494 010a 13       		.uleb128 0x13
 2495 010b 00       		.byte	0
 2496 010c 00       		.byte	0
 2497 010d 15       		.uleb128 0x15
 2498 010e 05       		.uleb128 0x5
 2499 010f 00       		.byte	0
 2500 0110 03       		.uleb128 0x3
 2501 0111 08       		.uleb128 0x8
 2502 0112 3A       		.uleb128 0x3a
 2503 0113 0B       		.uleb128 0xb
 2504 0114 3B       		.uleb128 0x3b
 2505 0115 05       		.uleb128 0x5
 2506 0116 39       		.uleb128 0x39
 2507 0117 0B       		.uleb128 0xb
 2508 0118 49       		.uleb128 0x49
ARM GAS  /var/folders/l5/0x54b2c10074c8bt31ycjvl80000gp/T//cc0rXl4T.s 			page 45


 2509 0119 13       		.uleb128 0x13
 2510 011a 02       		.uleb128 0x2
 2511 011b 17       		.uleb128 0x17
 2512 011c B742     		.uleb128 0x2137
 2513 011e 17       		.uleb128 0x17
 2514 011f 00       		.byte	0
 2515 0120 00       		.byte	0
 2516 0121 16       		.uleb128 0x16
 2517 0122 34       		.uleb128 0x34
 2518 0123 00       		.byte	0
 2519 0124 03       		.uleb128 0x3
 2520 0125 08       		.uleb128 0x8
 2521 0126 3A       		.uleb128 0x3a
 2522 0127 0B       		.uleb128 0xb
 2523 0128 3B       		.uleb128 0x3b
 2524 0129 05       		.uleb128 0x5
 2525 012a 39       		.uleb128 0x39
 2526 012b 0B       		.uleb128 0xb
 2527 012c 49       		.uleb128 0x49
 2528 012d 13       		.uleb128 0x13
 2529 012e 02       		.uleb128 0x2
 2530 012f 17       		.uleb128 0x17
 2531 0130 B742     		.uleb128 0x2137
 2532 0132 17       		.uleb128 0x17
 2533 0133 00       		.byte	0
 2534 0134 00       		.byte	0
 2535 0135 17       		.uleb128 0x17
 2536 0136 1D       		.uleb128 0x1d
 2537 0137 01       		.byte	0x1
 2538 0138 31       		.uleb128 0x31
 2539 0139 13       		.uleb128 0x13
 2540 013a 52       		.uleb128 0x52
 2541 013b 01       		.uleb128 0x1
 2542 013c B842     		.uleb128 0x2138
 2543 013e 0B       		.uleb128 0xb
 2544 013f 55       		.uleb128 0x55
 2545 0140 17       		.uleb128 0x17
 2546 0141 58       		.uleb128 0x58
 2547 0142 0B       		.uleb128 0xb
 2548 0143 59       		.uleb128 0x59
 2549 0144 05       		.uleb128 0x5
 2550 0145 57       		.uleb128 0x57
 2551 0146 0B       		.uleb128 0xb
 2552 0147 01       		.uleb128 0x1
 2553 0148 13       		.uleb128 0x13
 2554 0149 00       		.byte	0
 2555 014a 00       		.byte	0
 2556 014b 18       		.uleb128 0x18
 2557 014c 05       		.uleb128 0x5
 2558 014d 00       		.byte	0
 2559 014e 31       		.uleb128 0x31
 2560 014f 13       		.uleb128 0x13
 2561 0150 02       		.uleb128 0x2
 2562 0151 17       		.uleb128 0x17
 2563 0152 B742     		.uleb128 0x2137
 2564 0154 17       		.uleb128 0x17
 2565 0155 00       		.byte	0
ARM GAS  /var/folders/l5/0x54b2c10074c8bt31ycjvl80000gp/T//cc0rXl4T.s 			page 46


 2566 0156 00       		.byte	0
 2567 0157 19       		.uleb128 0x19
 2568 0158 05       		.uleb128 0x5
 2569 0159 00       		.byte	0
 2570 015a 31       		.uleb128 0x31
 2571 015b 13       		.uleb128 0x13
 2572 015c 00       		.byte	0
 2573 015d 00       		.byte	0
 2574 015e 1A       		.uleb128 0x1a
 2575 015f 898201   		.uleb128 0x4109
 2576 0162 01       		.byte	0x1
 2577 0163 11       		.uleb128 0x11
 2578 0164 01       		.uleb128 0x1
 2579 0165 31       		.uleb128 0x31
 2580 0166 13       		.uleb128 0x13
 2581 0167 00       		.byte	0
 2582 0168 00       		.byte	0
 2583 0169 1B       		.uleb128 0x1b
 2584 016a 8A8201   		.uleb128 0x410a
 2585 016d 00       		.byte	0
 2586 016e 02       		.uleb128 0x2
 2587 016f 18       		.uleb128 0x18
 2588 0170 9142     		.uleb128 0x2111
 2589 0172 18       		.uleb128 0x18
 2590 0173 00       		.byte	0
 2591 0174 00       		.byte	0
 2592 0175 1C       		.uleb128 0x1c
 2593 0176 2E       		.uleb128 0x2e
 2594 0177 01       		.byte	0x1
 2595 0178 3F       		.uleb128 0x3f
 2596 0179 19       		.uleb128 0x19
 2597 017a 03       		.uleb128 0x3
 2598 017b 0E       		.uleb128 0xe
 2599 017c 3A       		.uleb128 0x3a
 2600 017d 0B       		.uleb128 0xb
 2601 017e 3B       		.uleb128 0x3b
 2602 017f 05       		.uleb128 0x5
 2603 0180 39       		.uleb128 0x39
 2604 0181 0B       		.uleb128 0xb
 2605 0182 27       		.uleb128 0x27
 2606 0183 19       		.uleb128 0x19
 2607 0184 11       		.uleb128 0x11
 2608 0185 01       		.uleb128 0x1
 2609 0186 12       		.uleb128 0x12
 2610 0187 06       		.uleb128 0x6
 2611 0188 40       		.uleb128 0x40
 2612 0189 18       		.uleb128 0x18
 2613 018a 9742     		.uleb128 0x2117
 2614 018c 19       		.uleb128 0x19
 2615 018d 01       		.uleb128 0x1
 2616 018e 13       		.uleb128 0x13
 2617 018f 00       		.byte	0
 2618 0190 00       		.byte	0
 2619 0191 1D       		.uleb128 0x1d
 2620 0192 0B       		.uleb128 0xb
 2621 0193 01       		.byte	0x1
 2622 0194 55       		.uleb128 0x55
ARM GAS  /var/folders/l5/0x54b2c10074c8bt31ycjvl80000gp/T//cc0rXl4T.s 			page 47


 2623 0195 17       		.uleb128 0x17
 2624 0196 00       		.byte	0
 2625 0197 00       		.byte	0
 2626 0198 1E       		.uleb128 0x1e
 2627 0199 34       		.uleb128 0x34
 2628 019a 00       		.byte	0
 2629 019b 31       		.uleb128 0x31
 2630 019c 13       		.uleb128 0x13
 2631 019d 02       		.uleb128 0x2
 2632 019e 17       		.uleb128 0x17
 2633 019f B742     		.uleb128 0x2137
 2634 01a1 17       		.uleb128 0x17
 2635 01a2 00       		.byte	0
 2636 01a3 00       		.byte	0
 2637 01a4 1F       		.uleb128 0x1f
 2638 01a5 898201   		.uleb128 0x4109
 2639 01a8 00       		.byte	0
 2640 01a9 11       		.uleb128 0x11
 2641 01aa 01       		.uleb128 0x1
 2642 01ab 31       		.uleb128 0x31
 2643 01ac 13       		.uleb128 0x13
 2644 01ad 00       		.byte	0
 2645 01ae 00       		.byte	0
 2646 01af 20       		.uleb128 0x20
 2647 01b0 898201   		.uleb128 0x4109
 2648 01b3 01       		.byte	0x1
 2649 01b4 11       		.uleb128 0x11
 2650 01b5 01       		.uleb128 0x1
 2651 01b6 9542     		.uleb128 0x2115
 2652 01b8 19       		.uleb128 0x19
 2653 01b9 31       		.uleb128 0x31
 2654 01ba 13       		.uleb128 0x13
 2655 01bb 00       		.byte	0
 2656 01bc 00       		.byte	0
 2657 01bd 21       		.uleb128 0x21
 2658 01be 05       		.uleb128 0x5
 2659 01bf 00       		.byte	0
 2660 01c0 03       		.uleb128 0x3
 2661 01c1 0E       		.uleb128 0xe
 2662 01c2 3A       		.uleb128 0x3a
 2663 01c3 0B       		.uleb128 0xb
 2664 01c4 3B       		.uleb128 0x3b
 2665 01c5 05       		.uleb128 0x5
 2666 01c6 39       		.uleb128 0x39
 2667 01c7 0B       		.uleb128 0xb
 2668 01c8 49       		.uleb128 0x49
 2669 01c9 13       		.uleb128 0x13
 2670 01ca 02       		.uleb128 0x2
 2671 01cb 17       		.uleb128 0x17
 2672 01cc B742     		.uleb128 0x2137
 2673 01ce 17       		.uleb128 0x17
 2674 01cf 00       		.byte	0
 2675 01d0 00       		.byte	0
 2676 01d1 22       		.uleb128 0x22
 2677 01d2 05       		.uleb128 0x5
 2678 01d3 00       		.byte	0
 2679 01d4 03       		.uleb128 0x3
ARM GAS  /var/folders/l5/0x54b2c10074c8bt31ycjvl80000gp/T//cc0rXl4T.s 			page 48


 2680 01d5 08       		.uleb128 0x8
 2681 01d6 3A       		.uleb128 0x3a
 2682 01d7 0B       		.uleb128 0xb
 2683 01d8 3B       		.uleb128 0x3b
 2684 01d9 05       		.uleb128 0x5
 2685 01da 39       		.uleb128 0x39
 2686 01db 0B       		.uleb128 0xb
 2687 01dc 49       		.uleb128 0x49
 2688 01dd 13       		.uleb128 0x13
 2689 01de 02       		.uleb128 0x2
 2690 01df 18       		.uleb128 0x18
 2691 01e0 00       		.byte	0
 2692 01e1 00       		.byte	0
 2693 01e2 23       		.uleb128 0x23
 2694 01e3 2E       		.uleb128 0x2e
 2695 01e4 01       		.byte	0x1
 2696 01e5 3F       		.uleb128 0x3f
 2697 01e6 19       		.uleb128 0x19
 2698 01e7 03       		.uleb128 0x3
 2699 01e8 0E       		.uleb128 0xe
 2700 01e9 3A       		.uleb128 0x3a
 2701 01ea 0B       		.uleb128 0xb
 2702 01eb 3B       		.uleb128 0x3b
 2703 01ec 0B       		.uleb128 0xb
 2704 01ed 39       		.uleb128 0x39
 2705 01ee 0B       		.uleb128 0xb
 2706 01ef 27       		.uleb128 0x27
 2707 01f0 19       		.uleb128 0x19
 2708 01f1 49       		.uleb128 0x49
 2709 01f2 13       		.uleb128 0x13
 2710 01f3 11       		.uleb128 0x11
 2711 01f4 01       		.uleb128 0x1
 2712 01f5 12       		.uleb128 0x12
 2713 01f6 06       		.uleb128 0x6
 2714 01f7 40       		.uleb128 0x40
 2715 01f8 18       		.uleb128 0x18
 2716 01f9 9742     		.uleb128 0x2117
 2717 01fb 19       		.uleb128 0x19
 2718 01fc 01       		.uleb128 0x1
 2719 01fd 13       		.uleb128 0x13
 2720 01fe 00       		.byte	0
 2721 01ff 00       		.byte	0
 2722 0200 24       		.uleb128 0x24
 2723 0201 05       		.uleb128 0x5
 2724 0202 00       		.byte	0
 2725 0203 03       		.uleb128 0x3
 2726 0204 08       		.uleb128 0x8
 2727 0205 3A       		.uleb128 0x3a
 2728 0206 0B       		.uleb128 0xb
 2729 0207 3B       		.uleb128 0x3b
 2730 0208 0B       		.uleb128 0xb
 2731 0209 39       		.uleb128 0x39
 2732 020a 0B       		.uleb128 0xb
 2733 020b 49       		.uleb128 0x49
 2734 020c 13       		.uleb128 0x13
 2735 020d 02       		.uleb128 0x2
 2736 020e 17       		.uleb128 0x17
ARM GAS  /var/folders/l5/0x54b2c10074c8bt31ycjvl80000gp/T//cc0rXl4T.s 			page 49


 2737 020f B742     		.uleb128 0x2137
 2738 0211 17       		.uleb128 0x17
 2739 0212 00       		.byte	0
 2740 0213 00       		.byte	0
 2741 0214 25       		.uleb128 0x25
 2742 0215 05       		.uleb128 0x5
 2743 0216 00       		.byte	0
 2744 0217 03       		.uleb128 0x3
 2745 0218 0E       		.uleb128 0xe
 2746 0219 3A       		.uleb128 0x3a
 2747 021a 0B       		.uleb128 0xb
 2748 021b 3B       		.uleb128 0x3b
 2749 021c 0B       		.uleb128 0xb
 2750 021d 39       		.uleb128 0x39
 2751 021e 0B       		.uleb128 0xb
 2752 021f 49       		.uleb128 0x49
 2753 0220 13       		.uleb128 0x13
 2754 0221 02       		.uleb128 0x2
 2755 0222 17       		.uleb128 0x17
 2756 0223 B742     		.uleb128 0x2137
 2757 0225 17       		.uleb128 0x17
 2758 0226 00       		.byte	0
 2759 0227 00       		.byte	0
 2760 0228 26       		.uleb128 0x26
 2761 0229 34       		.uleb128 0x34
 2762 022a 00       		.byte	0
 2763 022b 03       		.uleb128 0x3
 2764 022c 0E       		.uleb128 0xe
 2765 022d 3A       		.uleb128 0x3a
 2766 022e 0B       		.uleb128 0xb
 2767 022f 3B       		.uleb128 0x3b
 2768 0230 0B       		.uleb128 0xb
 2769 0231 39       		.uleb128 0x39
 2770 0232 0B       		.uleb128 0xb
 2771 0233 49       		.uleb128 0x49
 2772 0234 13       		.uleb128 0x13
 2773 0235 02       		.uleb128 0x2
 2774 0236 17       		.uleb128 0x17
 2775 0237 B742     		.uleb128 0x2137
 2776 0239 17       		.uleb128 0x17
 2777 023a 00       		.byte	0
 2778 023b 00       		.byte	0
 2779 023c 27       		.uleb128 0x27
 2780 023d 05       		.uleb128 0x5
 2781 023e 00       		.byte	0
 2782 023f 03       		.uleb128 0x3
 2783 0240 08       		.uleb128 0x8
 2784 0241 3A       		.uleb128 0x3a
 2785 0242 0B       		.uleb128 0xb
 2786 0243 3B       		.uleb128 0x3b
 2787 0244 0B       		.uleb128 0xb
 2788 0245 39       		.uleb128 0x39
 2789 0246 0B       		.uleb128 0xb
 2790 0247 49       		.uleb128 0x49
 2791 0248 13       		.uleb128 0x13
 2792 0249 02       		.uleb128 0x2
 2793 024a 18       		.uleb128 0x18
ARM GAS  /var/folders/l5/0x54b2c10074c8bt31ycjvl80000gp/T//cc0rXl4T.s 			page 50


 2794 024b 00       		.byte	0
 2795 024c 00       		.byte	0
 2796 024d 28       		.uleb128 0x28
 2797 024e 34       		.uleb128 0x34
 2798 024f 00       		.byte	0
 2799 0250 03       		.uleb128 0x3
 2800 0251 08       		.uleb128 0x8
 2801 0252 3A       		.uleb128 0x3a
 2802 0253 0B       		.uleb128 0xb
 2803 0254 3B       		.uleb128 0x3b
 2804 0255 0B       		.uleb128 0xb
 2805 0256 39       		.uleb128 0x39
 2806 0257 0B       		.uleb128 0xb
 2807 0258 49       		.uleb128 0x49
 2808 0259 13       		.uleb128 0x13
 2809 025a 02       		.uleb128 0x2
 2810 025b 17       		.uleb128 0x17
 2811 025c B742     		.uleb128 0x2137
 2812 025e 17       		.uleb128 0x17
 2813 025f 00       		.byte	0
 2814 0260 00       		.byte	0
 2815 0261 29       		.uleb128 0x29
 2816 0262 1D       		.uleb128 0x1d
 2817 0263 01       		.byte	0x1
 2818 0264 31       		.uleb128 0x31
 2819 0265 13       		.uleb128 0x13
 2820 0266 52       		.uleb128 0x52
 2821 0267 01       		.uleb128 0x1
 2822 0268 B842     		.uleb128 0x2138
 2823 026a 0B       		.uleb128 0xb
 2824 026b 11       		.uleb128 0x11
 2825 026c 01       		.uleb128 0x1
 2826 026d 12       		.uleb128 0x12
 2827 026e 06       		.uleb128 0x6
 2828 026f 58       		.uleb128 0x58
 2829 0270 0B       		.uleb128 0xb
 2830 0271 59       		.uleb128 0x59
 2831 0272 0B       		.uleb128 0xb
 2832 0273 57       		.uleb128 0x57
 2833 0274 0B       		.uleb128 0xb
 2834 0275 01       		.uleb128 0x1
 2835 0276 13       		.uleb128 0x13
 2836 0277 00       		.byte	0
 2837 0278 00       		.byte	0
 2838 0279 2A       		.uleb128 0x2a
 2839 027a 0B       		.uleb128 0xb
 2840 027b 01       		.byte	0x1
 2841 027c 11       		.uleb128 0x11
 2842 027d 01       		.uleb128 0x1
 2843 027e 12       		.uleb128 0x12
 2844 027f 06       		.uleb128 0x6
 2845 0280 00       		.byte	0
 2846 0281 00       		.byte	0
 2847 0282 2B       		.uleb128 0x2b
 2848 0283 1D       		.uleb128 0x1d
 2849 0284 01       		.byte	0x1
 2850 0285 31       		.uleb128 0x31
ARM GAS  /var/folders/l5/0x54b2c10074c8bt31ycjvl80000gp/T//cc0rXl4T.s 			page 51


 2851 0286 13       		.uleb128 0x13
 2852 0287 52       		.uleb128 0x52
 2853 0288 01       		.uleb128 0x1
 2854 0289 B842     		.uleb128 0x2138
 2855 028b 0B       		.uleb128 0xb
 2856 028c 55       		.uleb128 0x55
 2857 028d 17       		.uleb128 0x17
 2858 028e 58       		.uleb128 0x58
 2859 028f 0B       		.uleb128 0xb
 2860 0290 59       		.uleb128 0x59
 2861 0291 0B       		.uleb128 0xb
 2862 0292 57       		.uleb128 0x57
 2863 0293 0B       		.uleb128 0xb
 2864 0294 00       		.byte	0
 2865 0295 00       		.byte	0
 2866 0296 2C       		.uleb128 0x2c
 2867 0297 2E       		.uleb128 0x2e
 2868 0298 01       		.byte	0x1
 2869 0299 3F       		.uleb128 0x3f
 2870 029a 19       		.uleb128 0x19
 2871 029b 03       		.uleb128 0x3
 2872 029c 0E       		.uleb128 0xe
 2873 029d 3A       		.uleb128 0x3a
 2874 029e 0B       		.uleb128 0xb
 2875 029f 3B       		.uleb128 0x3b
 2876 02a0 0B       		.uleb128 0xb
 2877 02a1 39       		.uleb128 0x39
 2878 02a2 0B       		.uleb128 0xb
 2879 02a3 27       		.uleb128 0x27
 2880 02a4 19       		.uleb128 0x19
 2881 02a5 49       		.uleb128 0x49
 2882 02a6 13       		.uleb128 0x13
 2883 02a7 20       		.uleb128 0x20
 2884 02a8 0B       		.uleb128 0xb
 2885 02a9 01       		.uleb128 0x1
 2886 02aa 13       		.uleb128 0x13
 2887 02ab 00       		.byte	0
 2888 02ac 00       		.byte	0
 2889 02ad 2D       		.uleb128 0x2d
 2890 02ae 05       		.uleb128 0x5
 2891 02af 00       		.byte	0
 2892 02b0 03       		.uleb128 0x3
 2893 02b1 08       		.uleb128 0x8
 2894 02b2 3A       		.uleb128 0x3a
 2895 02b3 0B       		.uleb128 0xb
 2896 02b4 3B       		.uleb128 0x3b
 2897 02b5 0B       		.uleb128 0xb
 2898 02b6 39       		.uleb128 0x39
 2899 02b7 0B       		.uleb128 0xb
 2900 02b8 49       		.uleb128 0x49
 2901 02b9 13       		.uleb128 0x13
 2902 02ba 00       		.byte	0
 2903 02bb 00       		.byte	0
 2904 02bc 2E       		.uleb128 0x2e
 2905 02bd 05       		.uleb128 0x5
 2906 02be 00       		.byte	0
 2907 02bf 03       		.uleb128 0x3
ARM GAS  /var/folders/l5/0x54b2c10074c8bt31ycjvl80000gp/T//cc0rXl4T.s 			page 52


 2908 02c0 0E       		.uleb128 0xe
 2909 02c1 3A       		.uleb128 0x3a
 2910 02c2 0B       		.uleb128 0xb
 2911 02c3 3B       		.uleb128 0x3b
 2912 02c4 0B       		.uleb128 0xb
 2913 02c5 39       		.uleb128 0x39
 2914 02c6 0B       		.uleb128 0xb
 2915 02c7 49       		.uleb128 0x49
 2916 02c8 13       		.uleb128 0x13
 2917 02c9 00       		.byte	0
 2918 02ca 00       		.byte	0
 2919 02cb 2F       		.uleb128 0x2f
 2920 02cc 34       		.uleb128 0x34
 2921 02cd 00       		.byte	0
 2922 02ce 03       		.uleb128 0x3
 2923 02cf 08       		.uleb128 0x8
 2924 02d0 3A       		.uleb128 0x3a
 2925 02d1 0B       		.uleb128 0xb
 2926 02d2 3B       		.uleb128 0x3b
 2927 02d3 0B       		.uleb128 0xb
 2928 02d4 39       		.uleb128 0x39
 2929 02d5 0B       		.uleb128 0xb
 2930 02d6 49       		.uleb128 0x49
 2931 02d7 13       		.uleb128 0x13
 2932 02d8 00       		.byte	0
 2933 02d9 00       		.byte	0
 2934 02da 30       		.uleb128 0x30
 2935 02db 2E       		.uleb128 0x2e
 2936 02dc 01       		.byte	0x1
 2937 02dd 03       		.uleb128 0x3
 2938 02de 0E       		.uleb128 0xe
 2939 02df 3A       		.uleb128 0x3a
 2940 02e0 0B       		.uleb128 0xb
 2941 02e1 3B       		.uleb128 0x3b
 2942 02e2 0B       		.uleb128 0xb
 2943 02e3 39       		.uleb128 0x39
 2944 02e4 0B       		.uleb128 0xb
 2945 02e5 27       		.uleb128 0x27
 2946 02e6 19       		.uleb128 0x19
 2947 02e7 49       		.uleb128 0x49
 2948 02e8 13       		.uleb128 0x13
 2949 02e9 20       		.uleb128 0x20
 2950 02ea 0B       		.uleb128 0xb
 2951 02eb 01       		.uleb128 0x1
 2952 02ec 13       		.uleb128 0x13
 2953 02ed 00       		.byte	0
 2954 02ee 00       		.byte	0
 2955 02ef 31       		.uleb128 0x31
 2956 02f0 2E       		.uleb128 0x2e
 2957 02f1 01       		.byte	0x1
 2958 02f2 03       		.uleb128 0x3
 2959 02f3 0E       		.uleb128 0xe
 2960 02f4 3A       		.uleb128 0x3a
 2961 02f5 0B       		.uleb128 0xb
 2962 02f6 3B       		.uleb128 0x3b
 2963 02f7 0B       		.uleb128 0xb
 2964 02f8 39       		.uleb128 0x39
ARM GAS  /var/folders/l5/0x54b2c10074c8bt31ycjvl80000gp/T//cc0rXl4T.s 			page 53


 2965 02f9 0B       		.uleb128 0xb
 2966 02fa 27       		.uleb128 0x27
 2967 02fb 19       		.uleb128 0x19
 2968 02fc 20       		.uleb128 0x20
 2969 02fd 0B       		.uleb128 0xb
 2970 02fe 01       		.uleb128 0x1
 2971 02ff 13       		.uleb128 0x13
 2972 0300 00       		.byte	0
 2973 0301 00       		.byte	0
 2974 0302 32       		.uleb128 0x32
 2975 0303 2E       		.uleb128 0x2e
 2976 0304 01       		.byte	0x1
 2977 0305 31       		.uleb128 0x31
 2978 0306 13       		.uleb128 0x13
 2979 0307 11       		.uleb128 0x11
 2980 0308 01       		.uleb128 0x1
 2981 0309 12       		.uleb128 0x12
 2982 030a 06       		.uleb128 0x6
 2983 030b 40       		.uleb128 0x40
 2984 030c 18       		.uleb128 0x18
 2985 030d 9742     		.uleb128 0x2117
 2986 030f 19       		.uleb128 0x19
 2987 0310 01       		.uleb128 0x1
 2988 0311 13       		.uleb128 0x13
 2989 0312 00       		.byte	0
 2990 0313 00       		.byte	0
 2991 0314 33       		.uleb128 0x33
 2992 0315 05       		.uleb128 0x5
 2993 0316 00       		.byte	0
 2994 0317 31       		.uleb128 0x31
 2995 0318 13       		.uleb128 0x13
 2996 0319 02       		.uleb128 0x2
 2997 031a 18       		.uleb128 0x18
 2998 031b 00       		.byte	0
 2999 031c 00       		.byte	0
 3000 031d 34       		.uleb128 0x34
 3001 031e 2E       		.uleb128 0x2e
 3002 031f 00       		.byte	0
 3003 0320 3F       		.uleb128 0x3f
 3004 0321 19       		.uleb128 0x19
 3005 0322 3C       		.uleb128 0x3c
 3006 0323 19       		.uleb128 0x19
 3007 0324 6E       		.uleb128 0x6e
 3008 0325 0E       		.uleb128 0xe
 3009 0326 03       		.uleb128 0x3
 3010 0327 0E       		.uleb128 0xe
 3011 0328 3A       		.uleb128 0x3a
 3012 0329 0B       		.uleb128 0xb
 3013 032a 3B       		.uleb128 0x3b
 3014 032b 0B       		.uleb128 0xb
 3015 032c 39       		.uleb128 0x39
 3016 032d 0B       		.uleb128 0xb
 3017 032e 00       		.byte	0
 3018 032f 00       		.byte	0
 3019 0330 00       		.byte	0
 3020              		.section	.debug_loc,"",%progbits
 3021              	.Ldebug_loc0:
ARM GAS  /var/folders/l5/0x54b2c10074c8bt31ycjvl80000gp/T//cc0rXl4T.s 			page 54


 3022              	.LVUS29:
 3023 0000 00       		.uleb128 0
 3024 0001 00       		.uleb128 .LVU281
 3025 0002 00       		.uleb128 .LVU281
 3026 0003 00       		.uleb128 0
 3027              	.LLST29:
 3028 0004 00000000 		.4byte	.LVL44
 3029 0008 28000000 		.4byte	.LVL46
 3030 000c 0100     		.2byte	0x1
 3031 000e 50       		.byte	0x50
 3032 000f 28000000 		.4byte	.LVL46
 3033 0013 44000000 		.4byte	.LFE18
 3034 0017 0100     		.2byte	0x1
 3035 0019 54       		.byte	0x54
 3036 001a 00000000 		.4byte	0
 3037 001e 00000000 		.4byte	0
 3038              	.LVUS30:
 3039 0022 00       		.uleb128 .LVU288
 3040 0023 00       		.uleb128 0
 3041              	.LLST30:
 3042 0024 38000000 		.4byte	.LVL49
 3043 0028 44000000 		.4byte	.LFE18
 3044 002c 0100     		.2byte	0x1
 3045 002e 50       		.byte	0x50
 3046 002f 00000000 		.4byte	0
 3047 0033 00000000 		.4byte	0
 3048              	.LVUS31:
 3049 0037 02       		.uleb128 .LVU279
 3050 0038 00       		.uleb128 .LVU281
 3051 0039 00       		.uleb128 .LVU281
 3052 003a 00       		.uleb128 .LVU286
 3053              	.LLST31:
 3054 003b 24000000 		.4byte	.LVL45
 3055 003f 28000000 		.4byte	.LVL46
 3056 0043 0300     		.2byte	0x3
 3057 0045 70       		.byte	0x70
 3058 0046 18       		.sleb128 24
 3059 0047 9F       		.byte	0x9f
 3060 0048 28000000 		.4byte	.LVL46
 3061 004c 34000000 		.4byte	.LVL48
 3062 0050 0300     		.2byte	0x3
 3063 0052 74       		.byte	0x74
 3064 0053 18       		.sleb128 24
 3065 0054 9F       		.byte	0x9f
 3066 0055 00000000 		.4byte	0
 3067 0059 00000000 		.4byte	0
 3068              	.LVUS24:
 3069 005d 00       		.uleb128 0
 3070 005e 00       		.uleb128 .LVU239
 3071 005f 00       		.uleb128 .LVU239
 3072 0060 00       		.uleb128 0
 3073              	.LLST24:
 3074 0061 00000000 		.4byte	.LVL34
 3075 0065 20000000 		.4byte	.LVL36
 3076 0069 0100     		.2byte	0x1
 3077 006b 50       		.byte	0x50
 3078 006c 20000000 		.4byte	.LVL36
ARM GAS  /var/folders/l5/0x54b2c10074c8bt31ycjvl80000gp/T//cc0rXl4T.s 			page 55


 3079 0070 4C000000 		.4byte	.LFE17
 3080 0074 0400     		.2byte	0x4
 3081 0076 F3       		.byte	0xf3
 3082 0077 01       		.uleb128 0x1
 3083 0078 50       		.byte	0x50
 3084 0079 9F       		.byte	0x9f
 3085 007a 00000000 		.4byte	0
 3086 007e 00000000 		.4byte	0
 3087              	.LVUS25:
 3088 0082 00       		.uleb128 .LVU232
 3089 0083 00       		.uleb128 .LVU253
 3090              	.LLST25:
 3091 0084 0C000000 		.4byte	.LVL35
 3092 0088 40000000 		.4byte	.LVL40
 3093 008c 0100     		.2byte	0x1
 3094 008e 54       		.byte	0x54
 3095 008f 00000000 		.4byte	0
 3096 0093 00000000 		.4byte	0
 3097              	.LVUS26:
 3098 0097 02       		.uleb128 .LVU241
 3099 0098 00       		.uleb128 .LVU251
 3100              	.LLST26:
 3101 0099 20000000 		.4byte	.LVL36
 3102 009d 3C000000 		.4byte	.LVL39
 3103 00a1 0100     		.2byte	0x1
 3104 00a3 55       		.byte	0x55
 3105 00a4 00000000 		.4byte	0
 3106 00a8 00000000 		.4byte	0
 3107              	.LVUS27:
 3108 00ac 03       		.uleb128 .LVU242
 3109 00ad 01       		.uleb128 .LVU247
 3110              	.LLST27:
 3111 00ae 20000000 		.4byte	.LVL36
 3112 00b2 2C000000 		.4byte	.LVL37
 3113 00b6 0100     		.2byte	0x1
 3114 00b8 53       		.byte	0x53
 3115 00b9 00000000 		.4byte	0
 3116 00bd 00000000 		.4byte	0
 3117              	.LVUS28:
 3118 00c1 00       		.uleb128 0
 3119 00c2 00       		.uleb128 .LVU259
 3120 00c3 00       		.uleb128 .LVU259
 3121 00c4 00       		.uleb128 0
 3122              	.LLST28:
 3123 00c5 00000000 		.4byte	.LVL42
 3124 00c9 07000000 		.4byte	.LVL43-1
 3125 00cd 0100     		.2byte	0x1
 3126 00cf 50       		.byte	0x50
 3127 00d0 07000000 		.4byte	.LVL43-1
 3128 00d4 08000000 		.4byte	.LFE16
 3129 00d8 0400     		.2byte	0x4
 3130 00da F3       		.byte	0xf3
 3131 00db 01       		.uleb128 0x1
 3132 00dc 50       		.byte	0x50
 3133 00dd 9F       		.byte	0x9f
 3134 00de 00000000 		.4byte	0
 3135 00e2 00000000 		.4byte	0
ARM GAS  /var/folders/l5/0x54b2c10074c8bt31ycjvl80000gp/T//cc0rXl4T.s 			page 56


 3136              	.LVUS23:
 3137 00e6 00       		.uleb128 0
 3138 00e7 00       		.uleb128 .LVU196
 3139 00e8 00       		.uleb128 .LVU196
 3140 00e9 00       		.uleb128 .LVU197
 3141 00ea 00       		.uleb128 .LVU197
 3142 00eb 00       		.uleb128 .LVU205
 3143              	.LLST23:
 3144 00ec 00000000 		.4byte	.LVL29
 3145 00f0 0C000000 		.4byte	.LVL30
 3146 00f4 0100     		.2byte	0x1
 3147 00f6 50       		.byte	0x50
 3148 00f7 0C000000 		.4byte	.LVL30
 3149 00fb 10000000 		.4byte	.LVL31
 3150 00ff 0600     		.2byte	0x6
 3151 0101 70       		.byte	0x70
 3152 0102 00       		.sleb128 0
 3153 0103 71       		.byte	0x71
 3154 0104 00       		.sleb128 0
 3155 0105 1C       		.byte	0x1c
 3156 0106 9F       		.byte	0x9f
 3157 0107 10000000 		.4byte	.LVL31
 3158 010b 27000000 		.4byte	.LVL32-1
 3159 010f 0100     		.2byte	0x1
 3160 0111 51       		.byte	0x51
 3161 0112 00000000 		.4byte	0
 3162 0116 00000000 		.4byte	0
 3163              	.LVUS22:
 3164 011a 00       		.uleb128 0
 3165 011b 00       		.uleb128 .LVU185
 3166 011c 00       		.uleb128 .LVU185
 3167 011d 00       		.uleb128 .LVU186
 3168 011e 00       		.uleb128 .LVU186
 3169 011f 00       		.uleb128 0
 3170              	.LLST22:
 3171 0120 00000000 		.4byte	.LVL26
 3172 0124 10000000 		.4byte	.LVL27
 3173 0128 0100     		.2byte	0x1
 3174 012a 50       		.byte	0x50
 3175 012b 10000000 		.4byte	.LVL27
 3176 012f 13000000 		.4byte	.LVL28-1
 3177 0133 0100     		.2byte	0x1
 3178 0135 51       		.byte	0x51
 3179 0136 13000000 		.4byte	.LVL28-1
 3180 013a 1C000000 		.4byte	.LFE13
 3181 013e 0400     		.2byte	0x4
 3182 0140 F3       		.byte	0xf3
 3183 0141 01       		.uleb128 0x1
 3184 0142 50       		.byte	0x50
 3185 0143 9F       		.byte	0x9f
 3186 0144 00000000 		.4byte	0
 3187 0148 00000000 		.4byte	0
 3188              	.LVUS21:
 3189 014c 00       		.uleb128 0
 3190 014d 00       		.uleb128 .LVU160
 3191 014e 00       		.uleb128 .LVU160
 3192 014f 00       		.uleb128 0
ARM GAS  /var/folders/l5/0x54b2c10074c8bt31ycjvl80000gp/T//cc0rXl4T.s 			page 57


 3193              	.LLST21:
 3194 0150 00000000 		.4byte	.LVL23
 3195 0154 13000000 		.4byte	.LVL24-1
 3196 0158 0100     		.2byte	0x1
 3197 015a 50       		.byte	0x50
 3198 015b 13000000 		.4byte	.LVL24-1
 3199 015f 20000000 		.4byte	.LFE11
 3200 0163 0100     		.2byte	0x1
 3201 0165 54       		.byte	0x54
 3202 0166 00000000 		.4byte	0
 3203 016a 00000000 		.4byte	0
 3204              	.LVUS19:
 3205 016e 00       		.uleb128 0
 3206 016f 00       		.uleb128 .LVU136
 3207 0170 00       		.uleb128 .LVU136
 3208 0171 00       		.uleb128 .LVU145
 3209 0172 00       		.uleb128 .LVU145
 3210 0173 00       		.uleb128 0
 3211              	.LLST19:
 3212 0174 00000000 		.4byte	.LVL19
 3213 0178 18000000 		.4byte	.LVL20
 3214 017c 0100     		.2byte	0x1
 3215 017e 50       		.byte	0x50
 3216 017f 18000000 		.4byte	.LVL20
 3217 0183 3F000000 		.4byte	.LVL22-1
 3218 0187 0100     		.2byte	0x1
 3219 0189 51       		.byte	0x51
 3220 018a 3F000000 		.4byte	.LVL22-1
 3221 018e 50000000 		.4byte	.LFE10
 3222 0192 0400     		.2byte	0x4
 3223 0194 F3       		.byte	0xf3
 3224 0195 01       		.uleb128 0x1
 3225 0196 50       		.byte	0x50
 3226 0197 9F       		.byte	0x9f
 3227 0198 00000000 		.4byte	0
 3228 019c 00000000 		.4byte	0
 3229              	.LVUS20:
 3230 01a0 00       		.uleb128 .LVU137
 3231 01a1 00       		.uleb128 0
 3232              	.LLST20:
 3233 01a2 1C000000 		.4byte	.LVL21
 3234 01a6 50000000 		.4byte	.LFE10
 3235 01aa 0100     		.2byte	0x1
 3236 01ac 54       		.byte	0x54
 3237 01ad 00000000 		.4byte	0
 3238 01b1 00000000 		.4byte	0
 3239              	.LVUS6:
 3240 01b5 00       		.uleb128 0
 3241 01b6 00       		.uleb128 .LVU118
 3242 01b7 00       		.uleb128 .LVU118
 3243 01b8 00       		.uleb128 0
 3244              	.LLST6:
 3245 01b9 00000000 		.4byte	.LVL9
 3246 01bd 5F000000 		.4byte	.LVL18-1
 3247 01c1 0100     		.2byte	0x1
 3248 01c3 50       		.byte	0x50
 3249 01c4 5F000000 		.4byte	.LVL18-1
ARM GAS  /var/folders/l5/0x54b2c10074c8bt31ycjvl80000gp/T//cc0rXl4T.s 			page 58


 3250 01c8 70000000 		.4byte	.LFE9
 3251 01cc 0100     		.2byte	0x1
 3252 01ce 54       		.byte	0x54
 3253 01cf 00000000 		.4byte	0
 3254 01d3 00000000 		.4byte	0
 3255              	.LVUS7:
 3256 01d7 00       		.uleb128 0
 3257 01d8 00       		.uleb128 .LVU85
 3258 01d9 00       		.uleb128 .LVU85
 3259 01da 00       		.uleb128 .LVU88
 3260 01db 00       		.uleb128 .LVU88
 3261 01dc 00       		.uleb128 .LVU91
 3262 01dd 00       		.uleb128 .LVU91
 3263 01de 00       		.uleb128 0
 3264              	.LLST7:
 3265 01df 00000000 		.4byte	.LVL9
 3266 01e3 18000000 		.4byte	.LVL11
 3267 01e7 0100     		.2byte	0x1
 3268 01e9 51       		.byte	0x51
 3269 01ea 18000000 		.4byte	.LVL11
 3270 01ee 24000000 		.4byte	.LVL12
 3271 01f2 0100     		.2byte	0x1
 3272 01f4 5C       		.byte	0x5c
 3273 01f5 24000000 		.4byte	.LVL12
 3274 01f9 34000000 		.4byte	.LVL13
 3275 01fd 0300     		.2byte	0x3
 3276 01ff 7C       		.byte	0x7c
 3277 0200 24       		.sleb128 36
 3278 0201 9F       		.byte	0x9f
 3279 0202 34000000 		.4byte	.LVL13
 3280 0206 70000000 		.4byte	.LFE9
 3281 020a 0400     		.2byte	0x4
 3282 020c F3       		.byte	0xf3
 3283 020d 01       		.uleb128 0x1
 3284 020e 51       		.byte	0x51
 3285 020f 9F       		.byte	0x9f
 3286 0210 00000000 		.4byte	0
 3287 0214 00000000 		.4byte	0
 3288              	.LVUS8:
 3289 0218 00       		.uleb128 0
 3290 0219 00       		.uleb128 .LVU118
 3291 021a 00       		.uleb128 .LVU118
 3292 021b 00       		.uleb128 0
 3293              	.LLST8:
 3294 021c 00000000 		.4byte	.LVL9
 3295 0220 5F000000 		.4byte	.LVL18-1
 3296 0224 0100     		.2byte	0x1
 3297 0226 52       		.byte	0x52
 3298 0227 5F000000 		.4byte	.LVL18-1
 3299 022b 70000000 		.4byte	.LFE9
 3300 022f 0400     		.2byte	0x4
 3301 0231 F3       		.byte	0xf3
 3302 0232 01       		.uleb128 0x1
 3303 0233 52       		.byte	0x52
 3304 0234 9F       		.byte	0x9f
 3305 0235 00000000 		.4byte	0
 3306 0239 00000000 		.4byte	0
ARM GAS  /var/folders/l5/0x54b2c10074c8bt31ycjvl80000gp/T//cc0rXl4T.s 			page 59


 3307              	.LVUS9:
 3308 023d 00       		.uleb128 0
 3309 023e 00       		.uleb128 .LVU92
 3310 023f 00       		.uleb128 .LVU92
 3311 0240 00       		.uleb128 .LVU105
 3312 0241 00       		.uleb128 .LVU105
 3313 0242 00       		.uleb128 0
 3314              	.LLST9:
 3315 0243 00000000 		.4byte	.LVL9
 3316 0247 38000000 		.4byte	.LVL14
 3317 024b 0100     		.2byte	0x1
 3318 024d 53       		.byte	0x53
 3319 024e 38000000 		.4byte	.LVL14
 3320 0252 4C000000 		.4byte	.LVL16
 3321 0256 0200     		.2byte	0x2
 3322 0258 7E       		.byte	0x7e
 3323 0259 00       		.sleb128 0
 3324 025a 4C000000 		.4byte	.LVL16
 3325 025e 70000000 		.4byte	.LFE9
 3326 0262 0400     		.2byte	0x4
 3327 0264 F3       		.byte	0xf3
 3328 0265 01       		.uleb128 0x1
 3329 0266 53       		.byte	0x53
 3330 0267 9F       		.byte	0x9f
 3331 0268 00000000 		.4byte	0
 3332 026c 00000000 		.4byte	0
 3333              	.LVUS10:
 3334 0270 04       		.uleb128 .LVU116
 3335 0271 00       		.uleb128 .LVU118
 3336 0272 00       		.uleb128 .LVU118
 3337 0273 00       		.uleb128 0
 3338              	.LLST10:
 3339 0274 5C000000 		.4byte	.LVL17
 3340 0278 5F000000 		.4byte	.LVL18-1
 3341 027c 0100     		.2byte	0x1
 3342 027e 50       		.byte	0x50
 3343 027f 5F000000 		.4byte	.LVL18-1
 3344 0283 70000000 		.4byte	.LFE9
 3345 0287 0100     		.2byte	0x1
 3346 0289 54       		.byte	0x54
 3347 028a 00000000 		.4byte	0
 3348 028e 00000000 		.4byte	0
 3349              	.LVUS11:
 3350 0292 03       		.uleb128 .LVU77
 3351 0293 04       		.uleb128 .LVU116
 3352              	.LLST11:
 3353 0294 14000000 		.4byte	.LVL10
 3354 0298 5C000000 		.4byte	.LVL17
 3355 029c 0100     		.2byte	0x1
 3356 029e 57       		.byte	0x57
 3357 029f 00000000 		.4byte	0
 3358 02a3 00000000 		.4byte	0
 3359              	.LVUS12:
 3360 02a7 03       		.uleb128 .LVU77
 3361 02a8 00       		.uleb128 .LVU92
 3362 02a9 00       		.uleb128 .LVU92
 3363 02aa 00       		.uleb128 .LVU105
ARM GAS  /var/folders/l5/0x54b2c10074c8bt31ycjvl80000gp/T//cc0rXl4T.s 			page 60


 3364 02ab 00       		.uleb128 .LVU105
 3365 02ac 04       		.uleb128 .LVU116
 3366              	.LLST12:
 3367 02ad 14000000 		.4byte	.LVL10
 3368 02b1 38000000 		.4byte	.LVL14
 3369 02b5 0100     		.2byte	0x1
 3370 02b7 53       		.byte	0x53
 3371 02b8 38000000 		.4byte	.LVL14
 3372 02bc 4C000000 		.4byte	.LVL16
 3373 02c0 0200     		.2byte	0x2
 3374 02c2 7E       		.byte	0x7e
 3375 02c3 00       		.sleb128 0
 3376 02c4 4C000000 		.4byte	.LVL16
 3377 02c8 5C000000 		.4byte	.LVL17
 3378 02cc 0400     		.2byte	0x4
 3379 02ce F3       		.byte	0xf3
 3380 02cf 01       		.uleb128 0x1
 3381 02d0 53       		.byte	0x53
 3382 02d1 9F       		.byte	0x9f
 3383 02d2 00000000 		.4byte	0
 3384 02d6 00000000 		.4byte	0
 3385              	.LVUS13:
 3386 02da 03       		.uleb128 .LVU77
 3387 02db 04       		.uleb128 .LVU116
 3388              	.LLST13:
 3389 02dc 14000000 		.4byte	.LVL10
 3390 02e0 5C000000 		.4byte	.LVL17
 3391 02e4 0100     		.2byte	0x1
 3392 02e6 52       		.byte	0x52
 3393 02e7 00000000 		.4byte	0
 3394 02eb 00000000 		.4byte	0
 3395              	.LVUS14:
 3396 02ef 03       		.uleb128 .LVU77
 3397 02f0 00       		.uleb128 .LVU85
 3398 02f1 00       		.uleb128 .LVU85
 3399 02f2 00       		.uleb128 .LVU88
 3400 02f3 00       		.uleb128 .LVU88
 3401 02f4 00       		.uleb128 .LVU91
 3402 02f5 00       		.uleb128 .LVU91
 3403 02f6 04       		.uleb128 .LVU116
 3404              	.LLST14:
 3405 02f7 14000000 		.4byte	.LVL10
 3406 02fb 18000000 		.4byte	.LVL11
 3407 02ff 0100     		.2byte	0x1
 3408 0301 51       		.byte	0x51
 3409 0302 18000000 		.4byte	.LVL11
 3410 0306 24000000 		.4byte	.LVL12
 3411 030a 0100     		.2byte	0x1
 3412 030c 5C       		.byte	0x5c
 3413 030d 24000000 		.4byte	.LVL12
 3414 0311 34000000 		.4byte	.LVL13
 3415 0315 0300     		.2byte	0x3
 3416 0317 7C       		.byte	0x7c
 3417 0318 24       		.sleb128 36
 3418 0319 9F       		.byte	0x9f
 3419 031a 34000000 		.4byte	.LVL13
 3420 031e 5C000000 		.4byte	.LVL17
ARM GAS  /var/folders/l5/0x54b2c10074c8bt31ycjvl80000gp/T//cc0rXl4T.s 			page 61


 3421 0322 0400     		.2byte	0x4
 3422 0324 F3       		.byte	0xf3
 3423 0325 01       		.uleb128 0x1
 3424 0326 51       		.byte	0x51
 3425 0327 9F       		.byte	0x9f
 3426 0328 00000000 		.4byte	0
 3427 032c 00000000 		.4byte	0
 3428              	.LVUS15:
 3429 0330 03       		.uleb128 .LVU77
 3430 0331 04       		.uleb128 .LVU116
 3431              	.LLST15:
 3432 0332 14000000 		.4byte	.LVL10
 3433 0336 5C000000 		.4byte	.LVL17
 3434 033a 0100     		.2byte	0x1
 3435 033c 50       		.byte	0x50
 3436 033d 00000000 		.4byte	0
 3437 0341 00000000 		.4byte	0
 3438              	.LVUS16:
 3439 0345 05       		.uleb128 .LVU79
 3440 0346 00       		.uleb128 .LVU118
 3441 0347 00       		.uleb128 .LVU118
 3442 0348 00       		.uleb128 0
 3443              	.LLST16:
 3444 0349 14000000 		.4byte	.LVL10
 3445 034d 5F000000 		.4byte	.LVL18-1
 3446 0351 0100     		.2byte	0x1
 3447 0353 50       		.byte	0x50
 3448 0354 5F000000 		.4byte	.LVL18-1
 3449 0358 70000000 		.4byte	.LFE9
 3450 035c 0100     		.2byte	0x1
 3451 035e 54       		.byte	0x54
 3452 035f 00000000 		.4byte	0
 3453 0363 00000000 		.4byte	0
 3454              	.LVUS17:
 3455 0367 02       		.uleb128 .LVU97
 3456 0368 04       		.uleb128 .LVU116
 3457              	.LLST17:
 3458 0369 40000000 		.4byte	.LVL15
 3459 036d 5C000000 		.4byte	.LVL17
 3460 0371 0100     		.2byte	0x1
 3461 0373 52       		.byte	0x52
 3462 0374 00000000 		.4byte	0
 3463 0378 00000000 		.4byte	0
 3464              	.LVUS18:
 3465 037c 02       		.uleb128 .LVU97
 3466 037d 04       		.uleb128 .LVU116
 3467              	.LLST18:
 3468 037e 40000000 		.4byte	.LVL15
 3469 0382 5C000000 		.4byte	.LVL17
 3470 0386 0100     		.2byte	0x1
 3471 0388 50       		.byte	0x50
 3472 0389 00000000 		.4byte	0
 3473 038d 00000000 		.4byte	0
 3474              	.LVUS0:
 3475 0391 00       		.uleb128 0
 3476 0392 00       		.uleb128 .LVU12
 3477 0393 00       		.uleb128 .LVU12
ARM GAS  /var/folders/l5/0x54b2c10074c8bt31ycjvl80000gp/T//cc0rXl4T.s 			page 62


 3478 0394 00       		.uleb128 0
 3479              	.LLST0:
 3480 0395 00000000 		.4byte	.LVL0
 3481 0399 1C000000 		.4byte	.LVL1
 3482 039d 0100     		.2byte	0x1
 3483 039f 51       		.byte	0x51
 3484 03a0 1C000000 		.4byte	.LVL1
 3485 03a4 34000000 		.4byte	.LFE7
 3486 03a8 0200     		.2byte	0x2
 3487 03aa 70       		.byte	0x70
 3488 03ab 08       		.sleb128 8
 3489 03ac 00000000 		.4byte	0
 3490 03b0 00000000 		.4byte	0
 3491              	.LVUS1:
 3492 03b4 00       		.uleb128 0
 3493 03b5 00       		.uleb128 .LVU37
 3494 03b6 00       		.uleb128 .LVU37
 3495 03b7 00       		.uleb128 .LVU41
 3496 03b8 00       		.uleb128 .LVU41
 3497 03b9 00       		.uleb128 0
 3498              	.LLST1:
 3499 03ba 00000000 		.4byte	.LVL2
 3500 03be 14000000 		.4byte	.LVL3
 3501 03c2 0100     		.2byte	0x1
 3502 03c4 51       		.byte	0x51
 3503 03c5 14000000 		.4byte	.LVL3
 3504 03c9 28000000 		.4byte	.LVL5
 3505 03cd 0300     		.2byte	0x3
 3506 03cf 71       		.byte	0x71
 3507 03d0 24       		.sleb128 36
 3508 03d1 9F       		.byte	0x9f
 3509 03d2 28000000 		.4byte	.LVL5
 3510 03d6 58000000 		.4byte	.LFE8
 3511 03da 0400     		.2byte	0x4
 3512 03dc F3       		.byte	0xf3
 3513 03dd 01       		.uleb128 0x1
 3514 03de 51       		.byte	0x51
 3515 03df 9F       		.byte	0x9f
 3516 03e0 00000000 		.4byte	0
 3517 03e4 00000000 		.4byte	0
 3518              	.LVUS2:
 3519 03e8 00       		.uleb128 0
 3520 03e9 00       		.uleb128 .LVU40
 3521 03ea 00       		.uleb128 .LVU40
 3522 03eb 00       		.uleb128 .LVU55
 3523 03ec 00       		.uleb128 .LVU55
 3524 03ed 00       		.uleb128 0
 3525              	.LLST2:
 3526 03ee 00000000 		.4byte	.LVL2
 3527 03f2 24000000 		.4byte	.LVL4
 3528 03f6 0100     		.2byte	0x1
 3529 03f8 53       		.byte	0x53
 3530 03f9 24000000 		.4byte	.LVL4
 3531 03fd 40000000 		.4byte	.LVL7
 3532 0401 0200     		.2byte	0x2
 3533 0403 7E       		.byte	0x7e
 3534 0404 00       		.sleb128 0
ARM GAS  /var/folders/l5/0x54b2c10074c8bt31ycjvl80000gp/T//cc0rXl4T.s 			page 63


 3535 0405 40000000 		.4byte	.LVL7
 3536 0409 58000000 		.4byte	.LFE8
 3537 040d 0400     		.2byte	0x4
 3538 040f F3       		.byte	0xf3
 3539 0410 01       		.uleb128 0x1
 3540 0411 53       		.byte	0x53
 3541 0412 9F       		.byte	0x9f
 3542 0413 00000000 		.4byte	0
 3543 0417 00000000 		.4byte	0
 3544              	.LVUS3:
 3545 041b 02       		.uleb128 .LVU27
 3546 041c 00       		.uleb128 0
 3547              	.LLST3:
 3548 041d 00000000 		.4byte	.LVL2
 3549 0421 58000000 		.4byte	.LFE8
 3550 0425 0100     		.2byte	0x1
 3551 0427 50       		.byte	0x50
 3552 0428 00000000 		.4byte	0
 3553 042c 00000000 		.4byte	0
 3554              	.LVUS4:
 3555 0430 03       		.uleb128 .LVU47
 3556 0431 04       		.uleb128 .LVU66
 3557              	.LLST4:
 3558 0432 34000000 		.4byte	.LVL6
 3559 0436 50000000 		.4byte	.LVL8
 3560 043a 0100     		.2byte	0x1
 3561 043c 52       		.byte	0x52
 3562 043d 00000000 		.4byte	0
 3563 0441 00000000 		.4byte	0
 3564              	.LVUS5:
 3565 0445 03       		.uleb128 .LVU47
 3566 0446 04       		.uleb128 .LVU66
 3567              	.LLST5:
 3568 0447 34000000 		.4byte	.LVL6
 3569 044b 50000000 		.4byte	.LVL8
 3570 044f 0100     		.2byte	0x1
 3571 0451 50       		.byte	0x50
 3572 0452 00000000 		.4byte	0
 3573 0456 00000000 		.4byte	0
 3574              		.section	.debug_aranges,"",%progbits
 3575 0000 74000000 		.4byte	0x74
 3576 0004 0200     		.2byte	0x2
 3577 0006 00000000 		.4byte	.Ldebug_info0
 3578 000a 04       		.byte	0x4
 3579 000b 00       		.byte	0
 3580 000c 0000     		.2byte	0
 3581 000e 0000     		.2byte	0
 3582 0010 00000000 		.4byte	.LFB7
 3583 0014 34000000 		.4byte	.LFE7-.LFB7
 3584 0018 00000000 		.4byte	.LFB8
 3585 001c 58000000 		.4byte	.LFE8-.LFB8
 3586 0020 00000000 		.4byte	.LFB9
 3587 0024 70000000 		.4byte	.LFE9-.LFB9
 3588 0028 00000000 		.4byte	.LFB10
 3589 002c 50000000 		.4byte	.LFE10-.LFB10
 3590 0030 00000000 		.4byte	.LFB11
 3591 0034 20000000 		.4byte	.LFE11-.LFB11
ARM GAS  /var/folders/l5/0x54b2c10074c8bt31ycjvl80000gp/T//cc0rXl4T.s 			page 64


 3592 0038 00000000 		.4byte	.LFB12
 3593 003c 18000000 		.4byte	.LFE12-.LFB12
 3594 0040 00000000 		.4byte	.LFB13
 3595 0044 1C000000 		.4byte	.LFE13-.LFB13
 3596 0048 00000000 		.4byte	.LFB14
 3597 004c 34000000 		.4byte	.LFE14-.LFB14
 3598 0050 00000000 		.4byte	.LFB15
 3599 0054 3C000000 		.4byte	.LFE15-.LFB15
 3600 0058 00000000 		.4byte	.LFB17
 3601 005c 4C000000 		.4byte	.LFE17-.LFB17
 3602 0060 00000000 		.4byte	.LFB16
 3603 0064 08000000 		.4byte	.LFE16-.LFB16
 3604 0068 00000000 		.4byte	.LFB18
 3605 006c 44000000 		.4byte	.LFE18-.LFB18
 3606 0070 00000000 		.4byte	0
 3607 0074 00000000 		.4byte	0
 3608              		.section	.debug_ranges,"",%progbits
 3609              	.Ldebug_ranges0:
 3610 0000 04000000 		.4byte	.LBB12
 3611 0004 10000000 		.4byte	.LBE12
 3612 0008 2C000000 		.4byte	.LBB16
 3613 000c 30000000 		.4byte	.LBE16
 3614 0010 34000000 		.4byte	.LBB17
 3615 0014 50000000 		.4byte	.LBE17
 3616 0018 00000000 		.4byte	0
 3617 001c 00000000 		.4byte	0
 3618 0020 14000000 		.4byte	.LBB20
 3619 0024 20000000 		.4byte	.LBE20
 3620 0028 34000000 		.4byte	.LBB24
 3621 002c 38000000 		.4byte	.LBE24
 3622 0030 40000000 		.4byte	.LBB25
 3623 0034 5C000000 		.4byte	.LBE25
 3624 0038 00000000 		.4byte	0
 3625 003c 00000000 		.4byte	0
 3626 0040 20000000 		.4byte	.LBB26
 3627 0044 24000000 		.4byte	.LBE26
 3628 0048 28000000 		.4byte	.LBB29
 3629 004c 2C000000 		.4byte	.LBE29
 3630 0050 00000000 		.4byte	0
 3631 0054 00000000 		.4byte	0
 3632 0058 1C000000 		.4byte	.LBB30
 3633 005c 20000000 		.4byte	.LBE30
 3634 0060 24000000 		.4byte	.LBB34
 3635 0064 24000000 		.4byte	.LBE34
 3636 0068 28000000 		.4byte	.LBB35
 3637 006c 30000000 		.4byte	.LBE35
 3638 0070 00000000 		.4byte	0
 3639 0074 00000000 		.4byte	0
 3640 0078 00000000 		.4byte	.LFB7
 3641 007c 34000000 		.4byte	.LFE7
 3642 0080 00000000 		.4byte	.LFB8
 3643 0084 58000000 		.4byte	.LFE8
 3644 0088 00000000 		.4byte	.LFB9
 3645 008c 70000000 		.4byte	.LFE9
 3646 0090 00000000 		.4byte	.LFB10
 3647 0094 50000000 		.4byte	.LFE10
 3648 0098 00000000 		.4byte	.LFB11
ARM GAS  /var/folders/l5/0x54b2c10074c8bt31ycjvl80000gp/T//cc0rXl4T.s 			page 65


 3649 009c 20000000 		.4byte	.LFE11
 3650 00a0 00000000 		.4byte	.LFB12
 3651 00a4 18000000 		.4byte	.LFE12
 3652 00a8 00000000 		.4byte	.LFB13
 3653 00ac 1C000000 		.4byte	.LFE13
 3654 00b0 00000000 		.4byte	.LFB14
 3655 00b4 34000000 		.4byte	.LFE14
 3656 00b8 00000000 		.4byte	.LFB15
 3657 00bc 3C000000 		.4byte	.LFE15
 3658 00c0 00000000 		.4byte	.LFB17
 3659 00c4 4C000000 		.4byte	.LFE17
 3660 00c8 00000000 		.4byte	.LFB16
 3661 00cc 08000000 		.4byte	.LFE16
 3662 00d0 00000000 		.4byte	.LFB18
 3663 00d4 44000000 		.4byte	.LFE18
 3664 00d8 00000000 		.4byte	0
 3665 00dc 00000000 		.4byte	0
 3666              		.section	.debug_line,"",%progbits
 3667              	.Ldebug_line0:
 3668 0000 90060000 		.section	.debug_str,"MS",%progbits,1
 3668      0300F001 
 3668      00000201 
 3668      FB0E0D00 
 3668      01010101 
 3669              	.LASF65:
 3670 0000 7466756E 		.ascii	"tfunc_t\000"
 3670      635F7400 
 3671              	.LASF3:
 3672 0008 73697A65 		.ascii	"size_t\000"
 3672      5F7400
 3673              	.LASF81:
 3674 000f 7072696F 		.ascii	"prio\000"
 3674      00
 3675              	.LASF61:
 3676 0014 7264796D 		.ascii	"rdymsg\000"
 3676      736700
 3677              	.LASF4:
 3678 001b 5F5F7569 		.ascii	"__uint8_t\000"
 3678      6E74385F 
 3678      7400
 3679              	.LASF55:
 3680 0025 76746C69 		.ascii	"vtlist\000"
 3680      737400
 3681              	.LASF67:
 3682 002c 63685468 		.ascii	"chThdExitS\000"
 3682      64457869 
 3682      745300
 3683              	.LASF11:
 3684 0037 6C6F6E67 		.ascii	"long long unsigned int\000"
 3684      206C6F6E 
 3684      6720756E 
 3684      7369676E 
 3684      65642069 
 3685              	.LASF62:
 3686 004e 65786974 		.ascii	"exitcode\000"
 3686      636F6465 
 3686      00
ARM GAS  /var/folders/l5/0x54b2c10074c8bt31ycjvl80000gp/T//cc0rXl4T.s 			page 66


 3687              	.LASF26:
 3688 0057 705F7072 		.ascii	"p_prio\000"
 3688      696F00
 3689              	.LASF10:
 3690 005e 6C6F6E67 		.ascii	"long long int\000"
 3690      206C6F6E 
 3690      6720696E 
 3690      7400
 3691              	.LASF2:
 3692 006c 7369676E 		.ascii	"signed char\000"
 3692      65642063 
 3692      68617200 
 3693              	.LASF68:
 3694 0078 63685468 		.ascii	"chThdExit\000"
 3694      64457869 
 3694      7400
 3695              	.LASF58:
 3696 0082 6D5F7175 		.ascii	"m_queue\000"
 3696      65756500 
 3697              	.LASF18:
 3698 008a 74736C69 		.ascii	"tslices_t\000"
 3698      6365735F 
 3698      7400
 3699              	.LASF82:
 3700 0094 63685468 		.ascii	"chThdCreateI\000"
 3700      64437265 
 3700      61746549 
 3700      00
 3701              	.LASF0:
 3702 00a1 6C6F6E67 		.ascii	"long int\000"
 3702      20696E74 
 3702      00
 3703              	.LASF17:
 3704 00aa 74737461 		.ascii	"tstate_t\000"
 3704      74655F74 
 3704      00
 3705              	.LASF92:
 3706 00b3 2F557365 		.ascii	"/Users/fernandoguirado/eclipse-workspace/ChibiOS-RP"
 3706      72732F66 
 3706      65726E61 
 3706      6E646F67 
 3706      75697261 
 3707 00e6 692D6D61 		.ascii	"i-master/testhal/BCM2835/GPIO\000"
 3707      73746572 
 3707      2F746573 
 3707      7468616C 
 3707      2F42434D 
 3708              	.LASF66:
 3709 0104 5F69646C 		.ascii	"_idle_thread_wa\000"
 3709      655F7468 
 3709      72656164 
 3709      5F776100 
 3710              	.LASF93:
 3711 0114 6C697374 		.ascii	"list_remove\000"
 3711      5F72656D 
 3711      6F766500 
 3712              	.LASF89:
ARM GAS  /var/folders/l5/0x54b2c10074c8bt31ycjvl80000gp/T//cc0rXl4T.s 			page 67


 3713 0120 63685363 		.ascii	"chSchRescheduleS\000"
 3713      68526573 
 3713      63686564 
 3713      756C6553 
 3713      00
 3714              	.LASF9:
 3715 0131 5F5F7569 		.ascii	"__uint32_t\000"
 3715      6E743332 
 3715      5F7400
 3716              	.LASF38:
 3717 013c 72656761 		.ascii	"regarm_t\000"
 3717      726D5F74 
 3717      00
 3718              	.LASF44:
 3719 0145 76745F70 		.ascii	"vt_prev\000"
 3719      72657600 
 3720              	.LASF90:
 3721 014d 474E5520 		.ascii	"GNU C17 8.3.1 20190703 (release) [gcc-8-branch revi"
 3721      43313720 
 3721      382E332E 
 3721      31203230 
 3721      31393037 
 3722 0180 73696F6E 		.ascii	"sion 273027] -mcpu=arm1176jz-s -mabi=apcs-gnu -mno-"
 3722      20323733 
 3722      3032375D 
 3722      202D6D63 
 3722      70753D61 
 3723 01b3 7468756D 		.ascii	"thumb-interwork -mfloat-abi=soft -marm -march=armv6"
 3723      622D696E 
 3723      74657277 
 3723      6F726B20 
 3723      2D6D666C 
 3724 01e6 6B7A202D 		.ascii	"kz -ggdb -O2 -fomit-frame-pointer -ffunction-sectio"
 3724      67676462 
 3724      202D4F32 
 3724      202D666F 
 3724      6D69742D 
 3725 0219 6E73202D 		.ascii	"ns -fdata-sections\000"
 3725      66646174 
 3725      612D7365 
 3725      6374696F 
 3725      6E7300
 3726              	.LASF76:
 3727 022c 63685468 		.ascii	"chThdSetPriority\000"
 3727      64536574 
 3727      5072696F 
 3727      72697479 
 3727      00
 3728              	.LASF15:
 3729 023d 756E7369 		.ascii	"unsigned int\000"
 3729      676E6564 
 3729      20696E74 
 3729      00
 3730              	.LASF43:
 3731 024a 76745F6E 		.ascii	"vt_next\000"
 3731      65787400 
 3732              	.LASF1:
ARM GAS  /var/folders/l5/0x54b2c10074c8bt31ycjvl80000gp/T//cc0rXl4T.s 			page 68


 3733 0252 6C6F6E67 		.ascii	"long unsigned int\000"
 3733      20756E73 
 3733      69676E65 
 3733      6420696E 
 3733      7400
 3734              	.LASF41:
 3735 0264 76746675 		.ascii	"vtfunc_t\000"
 3735      6E635F74 
 3735      00
 3736              	.LASF80:
 3737 026d 73697A65 		.ascii	"size\000"
 3737      00
 3738              	.LASF7:
 3739 0272 73686F72 		.ascii	"short unsigned int\000"
 3739      7420756E 
 3739      7369676E 
 3739      65642069 
 3739      6E7400
 3740              	.LASF88:
 3741 0285 63685363 		.ascii	"chSchWakeupS\000"
 3741      6857616B 
 3741      65757053 
 3741      00
 3742              	.LASF20:
 3743 0292 6D73675F 		.ascii	"msg_t\000"
 3743      7400
 3744              	.LASF77:
 3745 0298 6E657770 		.ascii	"newprio\000"
 3745      72696F00 
 3746              	.LASF16:
 3747 02a0 746D6F64 		.ascii	"tmode_t\000"
 3747      655F7400 
 3748              	.LASF73:
 3749 02a8 63685468 		.ascii	"chThdTerminate\000"
 3749      64546572 
 3749      6D696E61 
 3749      746500
 3750              	.LASF36:
 3751 02b7 54687265 		.ascii	"ThreadsList\000"
 3751      6164734C 
 3751      69737400 
 3752              	.LASF21:
 3753 02c3 6576656E 		.ascii	"eventmask_t\000"
 3753      746D6173 
 3753      6B5F7400 
 3754              	.LASF57:
 3755 02cf 4D757465 		.ascii	"Mutex\000"
 3755      7800
 3756              	.LASF78:
 3757 02d5 6F6C6470 		.ascii	"oldprio\000"
 3757      72696F00 
 3758              	.LASF37:
 3759 02dd 73746B61 		.ascii	"stkalign_t\000"
 3759      6C69676E 
 3759      5F7400
 3760              	.LASF79:
 3761 02e8 63685468 		.ascii	"chThdCreateStatic\000"
ARM GAS  /var/folders/l5/0x54b2c10074c8bt31ycjvl80000gp/T//cc0rXl4T.s 			page 69


 3761      64437265 
 3761      61746553 
 3761      74617469 
 3761      6300
 3762              	.LASF45:
 3763 02fa 76745F74 		.ascii	"vt_time\000"
 3763      696D6500 
 3764              	.LASF46:
 3765 0302 76745F66 		.ascii	"vt_func\000"
 3765      756E6300 
 3766              	.LASF75:
 3767 030a 63685468 		.ascii	"chThdResume\000"
 3767      64526573 
 3767      756D6500 
 3768              	.LASF86:
 3769 0316 63685363 		.ascii	"chSchDoRescheduleBehind\000"
 3769      68446F52 
 3769      65736368 
 3769      6564756C 
 3769      65426568 
 3770              	.LASF49:
 3771 032e 56544C69 		.ascii	"VTList\000"
 3771      737400
 3772              	.LASF52:
 3773 0335 725F6374 		.ascii	"r_ctx\000"
 3773      7800
 3774              	.LASF35:
 3775 033b 54687265 		.ascii	"ThreadsQueue\000"
 3775      61647351 
 3775      75657565 
 3775      00
 3776              	.LASF71:
 3777 0348 74696D65 		.ascii	"time\000"
 3777      00
 3778              	.LASF94:
 3779 034d 6C697374 		.ascii	"list_insert\000"
 3779      5F696E73 
 3779      65727400 
 3780              	.LASF53:
 3781 0359 725F6375 		.ascii	"r_current\000"
 3781      7272656E 
 3781      7400
 3782              	.LASF70:
 3783 0363 63685468 		.ascii	"chThdSleepUntil\000"
 3783      64536C65 
 3783      6570556E 
 3783      74696C00 
 3784              	.LASF25:
 3785 0373 705F7072 		.ascii	"p_prev\000"
 3785      657600
 3786              	.LASF19:
 3787 037a 74707269 		.ascii	"tprio_t\000"
 3787      6F5F7400 
 3788              	.LASF13:
 3789 0382 696E7433 		.ascii	"int32_t\000"
 3789      325F7400 
 3790              	.LASF5:
ARM GAS  /var/folders/l5/0x54b2c10074c8bt31ycjvl80000gp/T//cc0rXl4T.s 			page 70


 3791 038a 756E7369 		.ascii	"unsigned char\000"
 3791      676E6564 
 3791      20636861 
 3791      7200
 3792              	.LASF33:
 3793 0398 705F6D74 		.ascii	"p_mtxlist\000"
 3793      786C6973 
 3793      7400
 3794              	.LASF6:
 3795 03a2 73686F72 		.ascii	"short int\000"
 3795      7420696E 
 3795      7400
 3796              	.LASF28:
 3797 03ac 705F7374 		.ascii	"p_state\000"
 3797      61746500 
 3798              	.LASF30:
 3799 03b4 705F7072 		.ascii	"p_preempt\000"
 3799      65656D70 
 3799      7400
 3800              	.LASF51:
 3801 03be 725F7072 		.ascii	"r_prio\000"
 3801      696F00
 3802              	.LASF64:
 3803 03c5 65776D61 		.ascii	"ewmask\000"
 3803      736B00
 3804              	.LASF24:
 3805 03cc 705F6E65 		.ascii	"p_next\000"
 3805      787400
 3806              	.LASF29:
 3807 03d3 705F666C 		.ascii	"p_flags\000"
 3807      61677300 
 3808              	.LASF23:
 3809 03db 54687265 		.ascii	"Thread\000"
 3809      616400
 3810              	.LASF84:
 3811 03e2 63685363 		.ascii	"chSchGoSleepS\000"
 3811      68476F53 
 3811      6C656570 
 3811      5300
 3812              	.LASF32:
 3813 03f0 705F6570 		.ascii	"p_epending\000"
 3813      656E6469 
 3813      6E6700
 3814              	.LASF14:
 3815 03fb 75696E74 		.ascii	"uint32_t\000"
 3815      33325F74 
 3815      00
 3816              	.LASF83:
 3817 0404 5F746872 		.ascii	"_thread_init\000"
 3817      6561645F 
 3817      696E6974 
 3817      00
 3818              	.LASF50:
 3819 0411 725F7175 		.ascii	"r_queue\000"
 3819      65756500 
 3820              	.LASF42:
 3821 0419 56697274 		.ascii	"VirtualTimer\000"
ARM GAS  /var/folders/l5/0x54b2c10074c8bt31ycjvl80000gp/T//cc0rXl4T.s 			page 71


 3821      75616C54 
 3821      696D6572 
 3821      00
 3822              	.LASF91:
 3823 0426 2E2E2F2E 		.ascii	"../../../os/kernel/src/chthreads.c\000"
 3823      2E2F2E2E 
 3823      2F6F732F 
 3823      6B65726E 
 3823      656C2F73 
 3824              	.LASF85:
 3825 0449 63685363 		.ascii	"chSchReadyI\000"
 3825      68526561 
 3825      64794900 
 3826              	.LASF60:
 3827 0455 6D5F6E65 		.ascii	"m_next\000"
 3827      787400
 3828              	.LASF22:
 3829 045c 73797374 		.ascii	"systime_t\000"
 3829      696D655F 
 3829      7400
 3830              	.LASF34:
 3831 0466 705F7265 		.ascii	"p_realprio\000"
 3831      616C7072 
 3831      696F00
 3832              	.LASF8:
 3833 0471 5F5F696E 		.ascii	"__int32_t\000"
 3833      7433325F 
 3833      7400
 3834              	.LASF40:
 3835 047b 636F6E74 		.ascii	"context\000"
 3835      65787400 
 3836              	.LASF39:
 3837 0483 696E7463 		.ascii	"intctx\000"
 3837      747800
 3838              	.LASF74:
 3839 048a 63685468 		.ascii	"chThdWait\000"
 3839      64576169 
 3839      7400
 3840              	.LASF47:
 3841 0494 76745F70 		.ascii	"vt_par\000"
 3841      617200
 3842              	.LASF72:
 3843 049b 63685468 		.ascii	"chThdSleep\000"
 3843      64536C65 
 3843      657000
 3844              	.LASF54:
 3845 04a6 52656164 		.ascii	"ReadyList\000"
 3845      794C6973 
 3845      7400
 3846              	.LASF56:
 3847 04b0 726C6973 		.ascii	"rlist\000"
 3847      7400
 3848              	.LASF12:
 3849 04b6 75696E74 		.ascii	"uint8_t\000"
 3849      385F7400 
 3850              	.LASF69:
 3851 04be 63685468 		.ascii	"chThdYield\000"
ARM GAS  /var/folders/l5/0x54b2c10074c8bt31ycjvl80000gp/T//cc0rXl4T.s 			page 72


 3851      64596965 
 3851      6C6400
 3852              	.LASF63:
 3853 04c9 77746F62 		.ascii	"wtobjp\000"
 3853      6A7000
 3854              	.LASF48:
 3855 04d0 76745F73 		.ascii	"vt_systime\000"
 3855      79737469 
 3855      6D6500
 3856              	.LASF87:
 3857 04db 63685363 		.ascii	"chSchGoSleepTimeoutS\000"
 3857      68476F53 
 3857      6C656570 
 3857      54696D65 
 3857      6F757453 
 3858              	.LASF59:
 3859 04f0 6D5F6F77 		.ascii	"m_owner\000"
 3859      6E657200 
 3860              	.LASF27:
 3861 04f8 705F6374 		.ascii	"p_ctx\000"
 3861      7800
 3862              	.LASF31:
 3863 04fe 705F7761 		.ascii	"p_waiting\000"
 3863      6974696E 
 3863      6700
 3864              		.ident	"GCC: (GNU Tools for Arm Embedded Processors 8-2019-q3-update) 8.3.1 20190703 (release) [gc
ARM GAS  /var/folders/l5/0x54b2c10074c8bt31ycjvl80000gp/T//cc0rXl4T.s 			page 73


DEFINED SYMBOLS
                            *ABS*:0000000000000000 chthreads.c
/var/folders/l5/0x54b2c10074c8bt31ycjvl80000gp/T//cc0rXl4T.s:6      .text._thread_init:0000000000000000 $a
/var/folders/l5/0x54b2c10074c8bt31ycjvl80000gp/T//cc0rXl4T.s:13     .text._thread_init:0000000000000000 _thread_init
/var/folders/l5/0x54b2c10074c8bt31ycjvl80000gp/T//cc0rXl4T.s:65     .text.chThdCreateI:0000000000000000 $a
/var/folders/l5/0x54b2c10074c8bt31ycjvl80000gp/T//cc0rXl4T.s:71     .text.chThdCreateI:0000000000000000 chThdCreateI
/var/folders/l5/0x54b2c10074c8bt31ycjvl80000gp/T//cc0rXl4T.s:168    .text.chThdCreateI:0000000000000054 $d
/var/folders/l5/0x54b2c10074c8bt31ycjvl80000gp/T//cc0rXl4T.s:173    .text.chThdCreateStatic:0000000000000000 $a
/var/folders/l5/0x54b2c10074c8bt31ycjvl80000gp/T//cc0rXl4T.s:179    .text.chThdCreateStatic:0000000000000000 chThdCreateStatic
/var/folders/l5/0x54b2c10074c8bt31ycjvl80000gp/T//cc0rXl4T.s:313    .text.chThdCreateStatic:000000000000006c $d
/var/folders/l5/0x54b2c10074c8bt31ycjvl80000gp/T//cc0rXl4T.s:318    .text.chThdSetPriority:0000000000000000 $a
/var/folders/l5/0x54b2c10074c8bt31ycjvl80000gp/T//cc0rXl4T.s:324    .text.chThdSetPriority:0000000000000000 chThdSetPriority
/var/folders/l5/0x54b2c10074c8bt31ycjvl80000gp/T//cc0rXl4T.s:395    .text.chThdSetPriority:000000000000004c $d
/var/folders/l5/0x54b2c10074c8bt31ycjvl80000gp/T//cc0rXl4T.s:400    .text.chThdResume:0000000000000000 $a
/var/folders/l5/0x54b2c10074c8bt31ycjvl80000gp/T//cc0rXl4T.s:406    .text.chThdResume:0000000000000000 chThdResume
/var/folders/l5/0x54b2c10074c8bt31ycjvl80000gp/T//cc0rXl4T.s:453    .text.chThdTerminate:0000000000000000 $a
/var/folders/l5/0x54b2c10074c8bt31ycjvl80000gp/T//cc0rXl4T.s:459    .text.chThdTerminate:0000000000000000 chThdTerminate
/var/folders/l5/0x54b2c10074c8bt31ycjvl80000gp/T//cc0rXl4T.s:496    .text.chThdSleep:0000000000000000 $a
/var/folders/l5/0x54b2c10074c8bt31ycjvl80000gp/T//cc0rXl4T.s:502    .text.chThdSleep:0000000000000000 chThdSleep
/var/folders/l5/0x54b2c10074c8bt31ycjvl80000gp/T//cc0rXl4T.s:548    .text.chThdSleepUntil:0000000000000000 $a
/var/folders/l5/0x54b2c10074c8bt31ycjvl80000gp/T//cc0rXl4T.s:554    .text.chThdSleepUntil:0000000000000000 chThdSleepUntil
/var/folders/l5/0x54b2c10074c8bt31ycjvl80000gp/T//cc0rXl4T.s:615    .text.chThdSleepUntil:0000000000000030 $d
/var/folders/l5/0x54b2c10074c8bt31ycjvl80000gp/T//cc0rXl4T.s:620    .text.chThdYield:0000000000000000 $a
/var/folders/l5/0x54b2c10074c8bt31ycjvl80000gp/T//cc0rXl4T.s:626    .text.chThdYield:0000000000000000 chThdYield
/var/folders/l5/0x54b2c10074c8bt31ycjvl80000gp/T//cc0rXl4T.s:685    .text.chThdYield:0000000000000038 $d
/var/folders/l5/0x54b2c10074c8bt31ycjvl80000gp/T//cc0rXl4T.s:690    .text.chThdExitS:0000000000000000 $a
/var/folders/l5/0x54b2c10074c8bt31ycjvl80000gp/T//cc0rXl4T.s:696    .text.chThdExitS:0000000000000000 chThdExitS
/var/folders/l5/0x54b2c10074c8bt31ycjvl80000gp/T//cc0rXl4T.s:777    .text.chThdExitS:0000000000000048 $d
/var/folders/l5/0x54b2c10074c8bt31ycjvl80000gp/T//cc0rXl4T.s:782    .text.chThdExit:0000000000000000 $a
/var/folders/l5/0x54b2c10074c8bt31ycjvl80000gp/T//cc0rXl4T.s:788    .text.chThdExit:0000000000000000 chThdExit
/var/folders/l5/0x54b2c10074c8bt31ycjvl80000gp/T//cc0rXl4T.s:813    .text.chThdWait:0000000000000000 $a
/var/folders/l5/0x54b2c10074c8bt31ycjvl80000gp/T//cc0rXl4T.s:819    .text.chThdWait:0000000000000000 chThdWait
/var/folders/l5/0x54b2c10074c8bt31ycjvl80000gp/T//cc0rXl4T.s:909    .text.chThdWait:0000000000000040 $d

UNDEFINED SYMBOLS
_port_thread_start
chSchWakeupS
chSchRescheduleS
rlist
chSchGoSleepTimeoutS
vtlist
chSchDoRescheduleBehind
chSchReadyI
chSchGoSleepS
