ARM GAS  /var/folders/l5/0x54b2c10074c8bt31ycjvl80000gp/T//ccfU30uO.s 			page 1


   1              		.file	"hal_lld.c"
   2              		.text
   3              	.Ltext0:
   4              		.cfi_sections	.debug_frame
   5              		.section	.text.IrqHandler,"ax",%progbits
   6              		.align	2
   7              		.global	IrqHandler
   8              		.arch armv6kz
   9              		.syntax unified
  10              		.arm
  11              		.fpu softvfp
  12              		.type	IrqHandler, %function
  13              	IrqHandler:
  14              	.LFB9:
  15              		.file 1 "../../../os/hal/platforms/BCM2835/hal_lld.c"
  16              		.loc 1 91 1 view -0
  17              		.cfi_startproc
  18              		@ Naked Function: prologue and epilogue provided by programmer.
  19              		@ args = 0, pretend = 0, frame = 0
  20              		@ frame_needed = 0, uses_anonymous_args = 0
  21              		.loc 1 92 3 view .LVU1
  22              		.syntax divided
  23              	@ 92 "../../../os/hal/platforms/BCM2835/hal_lld.c" 1
  24 0000 0F502DE9 		stmfd    sp!, {r0-r3, r12, lr}
  25              	@ 0 "" 2
  26              		.loc 1 92 3 view .LVU2
  27              		.loc 1 92 3 view .LVU3
  28              		.loc 1 92 20 view .LVU4
  29              		.loc 1 94 3 view .LVU5
  30              		.arm
  31              		.syntax unified
  32              	.LBB6:
  33              	.LBI6:
  34              		.loc 1 71 13 view .LVU6
  35              	.LBB7:
  36              		.loc 1 74 3 view .LVU7
  37              		.loc 1 74 3 view .LVU8
  38              		.loc 1 74 21 view .LVU9
  39              		.loc 1 75 3 view .LVU10
  40 0004 FEFFFFEB 		bl	chSysTimerHandlerI
  41              	.LVL0:
  42              		.loc 1 76 3 view .LVU11
  43              		.loc 1 76 3 view .LVU12
  44              		.loc 1 76 23 view .LVU13
  45              		.loc 1 79 3 view .LVU14
  46              		.loc 1 79 17 is_stmt 0 view .LVU15
  47 0008 0020A0E3 		mov	r2, #0
  48 000c 14309FE5 		ldr	r3, .L3
  49              	.LBE7:
  50              	.LBE6:
  51              		.loc 1 97 3 view .LVU16
  52 0010 14009FE5 		ldr	r0, .L3+4
  53              	.LBB9:
  54              	.LBB8:
  55              		.loc 1 79 17 view .LVU17
  56 0014 0C2483E5 		str	r2, [r3, #1036]
  57              	.LBE8:
ARM GAS  /var/folders/l5/0x54b2c10074c8bt31ycjvl80000gp/T//ccfU30uO.s 			page 2


  58              	.LBE9:
  59              		.loc 1 97 3 is_stmt 1 view .LVU18
  60 0018 FEFFFFEB 		bl	sd_lld_serve_interrupt
  61              	.LVL1:
  62              		.loc 1 101 3 view .LVU19
  63 001c 0C009FE5 		ldr	r0, .L3+8
  64 0020 FEFFFFEB 		bl	i2c_lld_serve_interrupt
  65              	.LVL2:
  66              		.loc 1 112 3 view .LVU20
  67              		.loc 1 112 3 view .LVU21
  68              		.syntax divided
  69              	@ 112 "../../../os/hal/platforms/BCM2835/hal_lld.c" 1
  70 0024 FEFFFFEA 		b       _port_irq_common
  71              	@ 0 "" 2
  72              		.loc 1 112 3 view .LVU22
  73              		.loc 1 112 20 view .LVU23
  74              		.loc 1 113 1 is_stmt 0 view .LVU24
  75              		.arm
  76              		.syntax unified
  77              	.L4:
  78              		.align	2
  79              	.L3:
  80 0028 00B00020 		.word	536915968
  81 002c 00000000 		.word	SD1
  82 0030 00000000 		.word	I2C0
  83              		.cfi_endproc
  84              	.LFE9:
  85              		.size	IrqHandler, .-IrqHandler
  86              		.section	.text.delayMicroseconds,"ax",%progbits
  87              		.align	2
  88              		.global	delayMicroseconds
  89              		.syntax unified
  90              		.arm
  91              		.fpu softvfp
  92              		.type	delayMicroseconds, %function
  93              	delayMicroseconds:
  94              	.LVL3:
  95              	.LFB10:
  96              		.loc 1 124 1 is_stmt 1 view -0
  97              		.cfi_startproc
  98              		@ args = 0, pretend = 0, frame = 0
  99              		@ frame_needed = 0, uses_anonymous_args = 0
 100              		@ link register save eliminated.
 101              		.loc 1 125 3 view .LVU26
 102              		.loc 1 125 22 is_stmt 0 view .LVU27
 103 0000 18309FE5 		ldr	r3, .L9
 104              		.loc 1 126 10 view .LVU28
 105 0004 0320A0E1 		mov	r2, r3
 106              		.loc 1 125 22 view .LVU29
 107 0008 043093E5 		ldr	r3, [r3, #4]
 108              		.loc 1 125 12 view .LVU30
 109 000c 000083E0 		add	r0, r3, r0
 110              	.LVL4:
 111              		.loc 1 126 3 is_stmt 1 view .LVU31
 112              	.L6:
 113              		.loc 1 126 33 discriminator 1 view .LVU32
 114              		.loc 1 126 10 is_stmt 0 discriminator 1 view .LVU33
ARM GAS  /var/folders/l5/0x54b2c10074c8bt31ycjvl80000gp/T//ccfU30uO.s 			page 3


 115 0010 043092E5 		ldr	r3, [r2, #4]
 116              		.loc 1 126 9 discriminator 1 view .LVU34
 117 0014 000053E1 		cmp	r3, r0
 118 0018 FCFFFF3A 		bcc	.L6
 119 001c 1EFF2FE1 		bx	lr
 120              	.L10:
 121              		.align	2
 122              	.L9:
 123 0020 00300020 		.word	536883200
 124              		.cfi_endproc
 125              	.LFE10:
 126              		.size	delayMicroseconds, .-delayMicroseconds
 127              		.section	.text.hal_lld_init,"ax",%progbits
 128              		.align	2
 129              		.global	hal_lld_init
 130              		.syntax unified
 131              		.arm
 132              		.fpu softvfp
 133              		.type	hal_lld_init, %function
 134              	hal_lld_init:
 135              	.LFB11:
 136              		.loc 1 134 25 is_stmt 1 view -0
 137              		.cfi_startproc
 138              		@ args = 0, pretend = 0, frame = 0
 139              		@ frame_needed = 0, uses_anonymous_args = 0
 140              		.loc 1 135 3 view .LVU36
 141              	.LBB10:
 142              	.LBI10:
 143              		.loc 1 53 13 view .LVU37
 144              	.LBB11:
 145              		.loc 1 56 3 view .LVU38
 146              	.LBE11:
 147              	.LBE10:
 148              		.loc 1 134 25 is_stmt 0 view .LVU39
 149 0000 04E02DE5 		str	lr, [sp, #-4]!
 150              		.cfi_def_cfa_offset 4
 151              		.cfi_offset 14, -4
 152              	.LBB13:
 153              	.LBB12:
 154              		.loc 1 59 17 view .LVU40
 155 0004 F9C0A0E3 		mov	ip, #249
 156              		.loc 1 56 17 view .LVU41
 157 0008 3EE8A0E3 		mov	lr, #4063232
 158              		.loc 1 60 17 view .LVU42
 159 000c 0000A0E3 		mov	r0, #0
 160              		.loc 1 56 17 view .LVU43
 161 0010 2C309FE5 		ldr	r3, .L13
 162              		.loc 1 57 17 view .LVU44
 163 0014 2C209FE5 		ldr	r2, .L13+4
 164              		.loc 1 61 17 view .LVU45
 165 0018 2C109FE5 		ldr	r1, .L13+8
 166              		.loc 1 56 17 view .LVU46
 167 001c 08E483E5 		str	lr, [r3, #1032]
 168              		.loc 1 57 3 is_stmt 1 view .LVU47
 169              		.loc 1 57 17 is_stmt 0 view .LVU48
 170 0020 002483E5 		str	r2, [r3, #1024]
 171              		.loc 1 58 3 is_stmt 1 view .LVU49
ARM GAS  /var/folders/l5/0x54b2c10074c8bt31ycjvl80000gp/T//ccfU30uO.s 			page 4


 172              		.loc 1 58 17 is_stmt 0 view .LVU50
 173 0024 182483E5 		str	r2, [r3, #1048]
 174              		.loc 1 59 3 is_stmt 1 view .LVU51
 175              		.loc 1 59 17 is_stmt 0 view .LVU52
 176 0028 1CC483E5 		str	ip, [r3, #1052]
 177              		.loc 1 60 3 is_stmt 1 view .LVU53
 178              		.loc 1 60 17 is_stmt 0 view .LVU54
 179 002c 0C0483E5 		str	r0, [r3, #1036]
 180              		.loc 1 61 3 is_stmt 1 view .LVU55
 181              		.loc 1 61 17 is_stmt 0 view .LVU56
 182 0030 081483E5 		str	r1, [r3, #1032]
 183              		.loc 1 63 3 is_stmt 1 view .LVU57
 184              		.loc 1 63 20 is_stmt 0 view .LVU58
 185 0034 182293E5 		ldr	r2, [r3, #536]
 186 0038 012082E3 		orr	r2, r2, #1
 187 003c 182283E5 		str	r2, [r3, #536]
 188              	.LBE12:
 189              	.LBE13:
 190              		.loc 1 136 1 view .LVU59
 191 0040 04F09DE4 		ldr	pc, [sp], #4
 192              	.L14:
 193              		.align	2
 194              	.L13:
 195 0044 00B00020 		.word	536915968
 196 0048 E7030000 		.word	999
 197 004c A2003E00 		.word	4063394
 198              		.cfi_endproc
 199              	.LFE11:
 200              		.size	hal_lld_init, .-hal_lld_init
 201              		.section	.text.watchdog_start,"ax",%progbits
 202              		.align	2
 203              		.global	watchdog_start
 204              		.syntax unified
 205              		.arm
 206              		.fpu softvfp
 207              		.type	watchdog_start, %function
 208              	watchdog_start:
 209              	.LVL5:
 210              	.LFB12:
 211              		.loc 1 142 1 is_stmt 1 view -0
 212              		.cfi_startproc
 213              		@ args = 0, pretend = 0, frame = 0
 214              		@ frame_needed = 0, uses_anonymous_args = 0
 215              		@ link register save eliminated.
 216              		.loc 1 144 5 view .LVU61
 217              		.loc 1 144 14 is_stmt 0 view .LVU62
 218 0000 28209FE5 		ldr	r2, .L16
 219              		.loc 1 147 47 view .LVU63
 220 0004 FF04C0E3 		bic	r0, r0, #-16777216
 221              	.LVL6:
 222              		.loc 1 144 14 view .LVU64
 223 0008 1C3092E5 		ldr	r3, [r2, #28]
 224              	.LVL7:
 225              		.loc 1 147 5 is_stmt 1 view .LVU65
 226              		.loc 1 147 47 is_stmt 0 view .LVU66
 227 000c 0F06C0E3 		bic	r0, r0, #15728640
 228              		.loc 1 148 27 view .LVU67
ARM GAS  /var/folders/l5/0x54b2c10074c8bt31ycjvl80000gp/T//ccfU30uO.s 			page 5


 229 0010 5A34C3E3 		bic	r3, r3, #1509949440
 230              	.LVL8:
 231              		.loc 1 148 27 view .LVU68
 232 0014 3030C3E3 		bic	r3, r3, #48
 233              		.loc 1 148 13 view .LVU69
 234 0018 5A3483E3 		orr	r3, r3, #1509949440
 235              		.loc 1 147 14 view .LVU70
 236 001c 5A0480E3 		orr	r0, r0, #1509949440
 237              	.LVL9:
 238              		.loc 1 148 5 is_stmt 1 view .LVU71
 239              		.loc 1 148 13 is_stmt 0 view .LVU72
 240 0020 203083E3 		orr	r3, r3, #32
 241              	.LVL10:
 242              		.loc 1 149 5 is_stmt 1 view .LVU73
 243              		.loc 1 149 13 is_stmt 0 view .LVU74
 244 0024 240082E5 		str	r0, [r2, #36]
 245              		.loc 1 150 5 is_stmt 1 view .LVU75
 246              		.loc 1 150 13 is_stmt 0 view .LVU76
 247 0028 1C3082E5 		str	r3, [r2, #28]
 248              		.loc 1 151 1 view .LVU77
 249 002c 1EFF2FE1 		bx	lr
 250              	.L17:
 251              		.align	2
 252              	.L16:
 253 0030 00001020 		.word	537919488
 254              		.cfi_endproc
 255              	.LFE12:
 256              		.size	watchdog_start, .-watchdog_start
 257              		.section	.text.watchdog_stop,"ax",%progbits
 258              		.align	2
 259              		.global	watchdog_stop
 260              		.syntax unified
 261              		.arm
 262              		.fpu softvfp
 263              		.type	watchdog_stop, %function
 264              	watchdog_stop:
 265              	.LFB13:
 266              		.loc 1 157 1 is_stmt 1 view -0
 267              		.cfi_startproc
 268              		@ args = 0, pretend = 0, frame = 0
 269              		@ frame_needed = 0, uses_anonymous_args = 0
 270              		@ link register save eliminated.
 271              		.loc 1 158 3 view .LVU79
 272              		.loc 1 158 11 is_stmt 0 view .LVU80
 273 0000 08309FE5 		ldr	r3, .L19
 274 0004 08209FE5 		ldr	r2, .L19+4
 275 0008 1C2083E5 		str	r2, [r3, #28]
 276              		.loc 1 159 1 view .LVU81
 277 000c 1EFF2FE1 		bx	lr
 278              	.L20:
 279              		.align	2
 280              	.L19:
 281 0010 00001020 		.word	537919488
 282 0014 0201005A 		.word	1509949698
 283              		.cfi_endproc
 284              	.LFE13:
 285              		.size	watchdog_stop, .-watchdog_stop
ARM GAS  /var/folders/l5/0x54b2c10074c8bt31ycjvl80000gp/T//ccfU30uO.s 			page 6


 286              		.section	.text.watchdog_get_remaining,"ax",%progbits
 287              		.align	2
 288              		.global	watchdog_get_remaining
 289              		.syntax unified
 290              		.arm
 291              		.fpu softvfp
 292              		.type	watchdog_get_remaining, %function
 293              	watchdog_get_remaining:
 294              	.LFB14:
 295              		.loc 1 165 1 is_stmt 1 view -0
 296              		.cfi_startproc
 297              		@ args = 0, pretend = 0, frame = 0
 298              		@ frame_needed = 0, uses_anonymous_args = 0
 299              		@ link register save eliminated.
 300              		.loc 1 166 3 view .LVU83
 301              		.loc 1 166 18 is_stmt 0 view .LVU84
 302 0000 0C309FE5 		ldr	r3, .L22
 303 0004 240093E5 		ldr	r0, [r3, #36]
 304              		.loc 1 167 1 view .LVU85
 305 0008 FF04C0E3 		bic	r0, r0, #-16777216
 306 000c 0F06C0E3 		bic	r0, r0, #15728640
 307 0010 1EFF2FE1 		bx	lr
 308              	.L23:
 309              		.align	2
 310              	.L22:
 311 0014 00001020 		.word	537919488
 312              		.cfi_endproc
 313              	.LFE14:
 314              		.size	watchdog_get_remaining, .-watchdog_get_remaining
 315              		.text
 316              	.Letext0:
 317              		.file 2 "/usr/local/Cellar/arm-gcc-bin/8-2019-q3-update/lib/gcc/arm-none-eabi/8.3.1/include/stddef
 318              		.file 3 "/usr/local/Cellar/arm-gcc-bin/8-2019-q3-update/arm-none-eabi/include/machine/_default_typ
 319              		.file 4 "/usr/local/Cellar/arm-gcc-bin/8-2019-q3-update/arm-none-eabi/include/sys/_stdint.h"
 320              		.file 5 "../../../os/ports/GCC/ARM/chtypes.h"
 321              		.file 6 "../../../os/kernel/include/chlists.h"
 322              		.file 7 "../../../os/kernel/include/chthreads.h"
 323              		.file 8 "../../../os/ports/GCC/ARM/chcore.h"
 324              		.file 9 "../../../os/kernel/include/chvt.h"
 325              		.file 10 "../../../os/kernel/include/chschd.h"
 326              		.file 11 "../../../os/kernel/include/chmtx.h"
 327              		.file 12 "../../../os/kernel/include/chevents.h"
 328              		.file 13 "../../../os/kernel/include/chqueues.h"
 329              		.file 14 "../../../os/kernel/include/ch.h"
 330              		.file 15 "../../../os/hal/platforms/BCM2835/bcm2835.h"
 331              		.file 16 "../../../os/hal/platforms/BCM2835/pal_lld.h"
 332              		.file 17 "../../../os/hal/include/i2c.h"
 333              		.file 18 "../../../os/hal/platforms/BCM2835/i2c_lld.h"
 334              		.file 19 "../../../os/hal/include/serial.h"
 335              		.file 20 "../../../os/kernel/include/chsys.h"
 336              		.file 21 "../../../os/hal/platforms/BCM2835/serial_lld.h"