ARM GAS  /var/folders/l5/0x54b2c10074c8bt31ycjvl80000gp/T//ccfU30uO.s 			page 1


   1              		.file	"hal_lld.c"
   2              		.text
   3              	.Ltext0:
   4              		.cfi_sections	.debug_frame
   5              		.section	.text.IrqHandler,"ax",%progbits
   6              		.align	2
   7              		.global	IrqHandler
   8              		.arch armv6kz
   9              		.syntax unified
  10              		.arm
  11              		.fpu softvfp
  12              		.type	IrqHandler, %function
  13              	IrqHandler:
  14              	.LFB9:
  15              		.file 1 "../../../os/hal/platforms/BCM2835/hal_lld.c"
  16              		.loc 1 91 1 view -0
  17              		.cfi_startproc
  18              		@ Naked Function: prologue and epilogue provided by programmer.
  19              		@ args = 0, pretend = 0, frame = 0
  20              		@ frame_needed = 0, uses_anonymous_args = 0
  21              		.loc 1 92 3 view .LVU1
  22              		.syntax divided
  23              	@ 92 "../../../os/hal/platforms/BCM2835/hal_lld.c" 1
  24 0000 0F502DE9 		stmfd    sp!, {r0-r3, r12, lr}
  25              	@ 0 "" 2
  26              		.loc 1 92 3 view .LVU2
  27              		.loc 1 92 3 view .LVU3
  28              		.loc 1 92 20 view .LVU4
  29              		.loc 1 94 3 view .LVU5
  30              		.arm
  31              		.syntax unified
  32              	.LBB6:
  33              	.LBI6:
  34              		.loc 1 71 13 view .LVU6
  35              	.LBB7:
  36              		.loc 1 74 3 view .LVU7
  37              		.loc 1 74 3 view .LVU8
  38              		.loc 1 74 21 view .LVU9
  39              		.loc 1 75 3 view .LVU10
  40 0004 FEFFFFEB 		bl	chSysTimerHandlerI
  41              	.LVL0:
  42              		.loc 1 76 3 view .LVU11
  43              		.loc 1 76 3 view .LVU12
  44              		.loc 1 76 23 view .LVU13
  45              		.loc 1 79 3 view .LVU14
  46              		.loc 1 79 17 is_stmt 0 view .LVU15
  47 0008 0020A0E3 		mov	r2, #0
  48 000c 14309FE5 		ldr	r3, .L3
  49              	.LBE7:
  50              	.LBE6:
  51              		.loc 1 97 3 view .LVU16
  52 0010 14009FE5 		ldr	r0, .L3+4
  53              	.LBB9:
  54              	.LBB8:
  55              		.loc 1 79 17 view .LVU17
  56 0014 0C2483E5 		str	r2, [r3, #1036]
  57              	.LBE8:
ARM GAS  /var/folders/l5/0x54b2c10074c8bt31ycjvl80000gp/T//ccfU30uO.s 			page 2


  58              	.LBE9:
  59              		.loc 1 97 3 is_stmt 1 view .LVU18
  60 0018 FEFFFFEB 		bl	sd_lld_serve_interrupt
  61              	.LVL1:
  62              		.loc 1 101 3 view .LVU19
  63 001c 0C009FE5 		ldr	r0, .L3+8
  64 0020 FEFFFFEB 		bl	i2c_lld_serve_interrupt
  65              	.LVL2:
  66              		.loc 1 112 3 view .LVU20
  67              		.loc 1 112 3 view .LVU21
  68              		.syntax divided
  69              	@ 112 "../../../os/hal/platforms/BCM2835/hal_lld.c" 1
  70 0024 FEFFFFEA 		b       _port_irq_common
  71              	@ 0 "" 2
  72              		.loc 1 112 3 view .LVU22
  73              		.loc 1 112 20 view .LVU23
  74              		.loc 1 113 1 is_stmt 0 view .LVU24
  75              		.arm
  76              		.syntax unified
  77              	.L4:
  78              		.align	2
  79              	.L3:
  80 0028 00B00020 		.word	536915968
  81 002c 00000000 		.word	SD1
  82 0030 00000000 		.word	I2C0
  83              		.cfi_endproc
  84              	.LFE9:
  85              		.size	IrqHandler, .-IrqHandler
  86              		.section	.text.delayMicroseconds,"ax",%progbits
  87              		.align	2
  88              		.global	delayMicroseconds
  89              		.syntax unified
  90              		.arm
  91              		.fpu softvfp
  92              		.type	delayMicroseconds, %function
  93              	delayMicroseconds:
  94              	.LVL3:
  95              	.LFB10:
  96              		.loc 1 124 1 is_stmt 1 view -0
  97              		.cfi_startproc
  98              		@ args = 0, pretend = 0, frame = 0
  99              		@ frame_needed = 0, uses_anonymous_args = 0
 100              		@ link register save eliminated.
 101              		.loc 1 125 3 view .LVU26
 102              		.loc 1 125 22 is_stmt 0 view .LVU27
 103 0000 18309FE5 		ldr	r3, .L9
 104              		.loc 1 126 10 view .LVU28
 105 0004 0320A0E1 		mov	r2, r3
 106              		.loc 1 125 22 view .LVU29
 107 0008 043093E5 		ldr	r3, [r3, #4]
 108              		.loc 1 125 12 view .LVU30
 109 000c 000083E0 		add	r0, r3, r0
 110              	.LVL4:
 111              		.loc 1 126 3 is_stmt 1 view .LVU31
 112              	.L6:
 113              		.loc 1 126 33 discriminator 1 view .LVU32
 114              		.loc 1 126 10 is_stmt 0 discriminator 1 view .LVU33
ARM GAS  /var/folders/l5/0x54b2c10074c8bt31ycjvl80000gp/T//ccfU30uO.s 			page 3


 115 0010 043092E5 		ldr	r3, [r2, #4]
 116              		.loc 1 126 9 discriminator 1 view .LVU34
 117 0014 000053E1 		cmp	r3, r0
 118 0018 FCFFFF3A 		bcc	.L6
 119 001c 1EFF2FE1 		bx	lr
 120              	.L10:
 121              		.align	2
 122              	.L9:
 123 0020 00300020 		.word	536883200
 124              		.cfi_endproc
 125              	.LFE10:
 126              		.size	delayMicroseconds, .-delayMicroseconds
 127              		.section	.text.hal_lld_init,"ax",%progbits
 128              		.align	2
 129              		.global	hal_lld_init
 130              		.syntax unified
 131              		.arm
 132              		.fpu softvfp
 133              		.type	hal_lld_init, %function
 134              	hal_lld_init:
 135              	.LFB11:
 136              		.loc 1 134 25 is_stmt 1 view -0
 137              		.cfi_startproc
 138              		@ args = 0, pretend = 0, frame = 0
 139              		@ frame_needed = 0, uses_anonymous_args = 0
 140              		.loc 1 135 3 view .LVU36
 141              	.LBB10:
 142              	.LBI10:
 143              		.loc 1 53 13 view .LVU37
 144              	.LBB11:
 145              		.loc 1 56 3 view .LVU38
 146              	.LBE11:
 147              	.LBE10:
 148              		.loc 1 134 25 is_stmt 0 view .LVU39
 149 0000 04E02DE5 		str	lr, [sp, #-4]!
 150              		.cfi_def_cfa_offset 4
 151              		.cfi_offset 14, -4
 152              	.LBB13:
 153              	.LBB12:
 154              		.loc 1 59 17 view .LVU40
 155 0004 F9C0A0E3 		mov	ip, #249
 156              		.loc 1 56 17 view .LVU41
 157 0008 3EE8A0E3 		mov	lr, #4063232
 158              		.loc 1 60 17 view .LVU42
 159 000c 0000A0E3 		mov	r0, #0
 160              		.loc 1 56 17 view .LVU43
 161 0010 2C309FE5 		ldr	r3, .L13
 162              		.loc 1 57 17 view .LVU44
 163 0014 2C209FE5 		ldr	r2, .L13+4
 164              		.loc 1 61 17 view .LVU45
 165 0018 2C109FE5 		ldr	r1, .L13+8
 166              		.loc 1 56 17 view .LVU46
 167 001c 08E483E5 		str	lr, [r3, #1032]
 168              		.loc 1 57 3 is_stmt 1 view .LVU47
 169              		.loc 1 57 17 is_stmt 0 view .LVU48
 170 0020 002483E5 		str	r2, [r3, #1024]
 171              		.loc 1 58 3 is_stmt 1 view .LVU49
ARM GAS  /var/folders/l5/0x54b2c10074c8bt31ycjvl80000gp/T//ccfU30uO.s 			page 4


 172              		.loc 1 58 17 is_stmt 0 view .LVU50
 173 0024 182483E5 		str	r2, [r3, #1048]
 174              		.loc 1 59 3 is_stmt 1 view .LVU51
 175              		.loc 1 59 17 is_stmt 0 view .LVU52
 176 0028 1CC483E5 		str	ip, [r3, #1052]
 177              		.loc 1 60 3 is_stmt 1 view .LVU53
 178              		.loc 1 60 17 is_stmt 0 view .LVU54
 179 002c 0C0483E5 		str	r0, [r3, #1036]
 180              		.loc 1 61 3 is_stmt 1 view .LVU55
 181              		.loc 1 61 17 is_stmt 0 view .LVU56
 182 0030 081483E5 		str	r1, [r3, #1032]
 183              		.loc 1 63 3 is_stmt 1 view .LVU57
 184              		.loc 1 63 20 is_stmt 0 view .LVU58
 185 0034 182293E5 		ldr	r2, [r3, #536]
 186 0038 012082E3 		orr	r2, r2, #1
 187 003c 182283E5 		str	r2, [r3, #536]
 188              	.LBE12:
 189              	.LBE13:
 190              		.loc 1 136 1 view .LVU59
 191 0040 04F09DE4 		ldr	pc, [sp], #4
 192              	.L14:
 193              		.align	2
 194              	.L13:
 195 0044 00B00020 		.word	536915968
 196 0048 E7030000 		.word	999
 197 004c A2003E00 		.word	4063394
 198              		.cfi_endproc
 199              	.LFE11:
 200              		.size	hal_lld_init, .-hal_lld_init
 201              		.section	.text.watchdog_start,"ax",%progbits
 202              		.align	2
 203              		.global	watchdog_start
 204              		.syntax unified
 205              		.arm
 206              		.fpu softvfp
 207              		.type	watchdog_start, %function
 208              	watchdog_start:
 209              	.LVL5:
 210              	.LFB12:
 211              		.loc 1 142 1 is_stmt 1 view -0
 212              		.cfi_startproc
 213              		@ args = 0, pretend = 0, frame = 0
 214              		@ frame_needed = 0, uses_anonymous_args = 0
 215              		@ link register save eliminated.
 216              		.loc 1 144 5 view .LVU61
 217              		.loc 1 144 14 is_stmt 0 view .LVU62
 218 0000 28209FE5 		ldr	r2, .L16
 219              		.loc 1 147 47 view .LVU63
 220 0004 FF04C0E3 		bic	r0, r0, #-16777216
 221              	.LVL6:
 222              		.loc 1 144 14 view .LVU64
 223 0008 1C3092E5 		ldr	r3, [r2, #28]
 224              	.LVL7:
 225              		.loc 1 147 5 is_stmt 1 view .LVU65
 226              		.loc 1 147 47 is_stmt 0 view .LVU66
 227 000c 0F06C0E3 		bic	r0, r0, #15728640
 228              		.loc 1 148 27 view .LVU67
ARM GAS  /var/folders/l5/0x54b2c10074c8bt31ycjvl80000gp/T//ccfU30uO.s 			page 5


 229 0010 5A34C3E3 		bic	r3, r3, #1509949440
 230              	.LVL8:
 231              		.loc 1 148 27 view .LVU68
 232 0014 3030C3E3 		bic	r3, r3, #48
 233              		.loc 1 148 13 view .LVU69
 234 0018 5A3483E3 		orr	r3, r3, #1509949440
 235              		.loc 1 147 14 view .LVU70
 236 001c 5A0480E3 		orr	r0, r0, #1509949440
 237              	.LVL9:
 238              		.loc 1 148 5 is_stmt 1 view .LVU71
 239              		.loc 1 148 13 is_stmt 0 view .LVU72
 240 0020 203083E3 		orr	r3, r3, #32
 241              	.LVL10:
 242              		.loc 1 149 5 is_stmt 1 view .LVU73
 243              		.loc 1 149 13 is_stmt 0 view .LVU74
 244 0024 240082E5 		str	r0, [r2, #36]
 245              		.loc 1 150 5 is_stmt 1 view .LVU75
 246              		.loc 1 150 13 is_stmt 0 view .LVU76
 247 0028 1C3082E5 		str	r3, [r2, #28]
 248              		.loc 1 151 1 view .LVU77
 249 002c 1EFF2FE1 		bx	lr
 250              	.L17:
 251              		.align	2
 252              	.L16:
 253 0030 00001020 		.word	537919488
 254              		.cfi_endproc
 255              	.LFE12:
 256              		.size	watchdog_start, .-watchdog_start
 257              		.section	.text.watchdog_stop,"ax",%progbits
 258              		.align	2
 259              		.global	watchdog_stop
 260              		.syntax unified
 261              		.arm
 262              		.fpu softvfp
 263              		.type	watchdog_stop, %function
 264              	watchdog_stop:
 265              	.LFB13:
 266              		.loc 1 157 1 is_stmt 1 view -0
 267              		.cfi_startproc
 268              		@ args = 0, pretend = 0, frame = 0
 269              		@ frame_needed = 0, uses_anonymous_args = 0
 270              		@ link register save eliminated.
 271              		.loc 1 158 3 view .LVU79
 272              		.loc 1 158 11 is_stmt 0 view .LVU80
 273 0000 08309FE5 		ldr	r3, .L19
 274 0004 08209FE5 		ldr	r2, .L19+4
 275 0008 1C2083E5 		str	r2, [r3, #28]
 276              		.loc 1 159 1 view .LVU81
 277 000c 1EFF2FE1 		bx	lr
 278              	.L20:
 279              		.align	2
 280              	.L19:
 281 0010 00001020 		.word	537919488
 282 0014 0201005A 		.word	1509949698
 283              		.cfi_endproc
 284              	.LFE13:
 285              		.size	watchdog_stop, .-watchdog_stop
ARM GAS  /var/folders/l5/0x54b2c10074c8bt31ycjvl80000gp/T//ccfU30uO.s 			page 6


 286              		.section	.text.watchdog_get_remaining,"ax",%progbits
 287              		.align	2
 288              		.global	watchdog_get_remaining
 289              		.syntax unified
 290              		.arm
 291              		.fpu softvfp
 292              		.type	watchdog_get_remaining, %function
 293              	watchdog_get_remaining:
 294              	.LFB14:
 295              		.loc 1 165 1 is_stmt 1 view -0
 296              		.cfi_startproc
 297              		@ args = 0, pretend = 0, frame = 0
 298              		@ frame_needed = 0, uses_anonymous_args = 0
 299              		@ link register save eliminated.
 300              		.loc 1 166 3 view .LVU83
 301              		.loc 1 166 18 is_stmt 0 view .LVU84
 302 0000 0C309FE5 		ldr	r3, .L22
 303 0004 240093E5 		ldr	r0, [r3, #36]
 304              		.loc 1 167 1 view .LVU85
 305 0008 FF04C0E3 		bic	r0, r0, #-16777216
 306 000c 0F06C0E3 		bic	r0, r0, #15728640
 307 0010 1EFF2FE1 		bx	lr
 308              	.L23:
 309              		.align	2
 310              	.L22:
 311 0014 00001020 		.word	537919488
 312              		.cfi_endproc
 313              	.LFE14:
 314              		.size	watchdog_get_remaining, .-watchdog_get_remaining
 315              		.text
 316              	.Letext0:
 317              		.file 2 "/usr/local/Cellar/arm-gcc-bin/8-2019-q3-update/lib/gcc/arm-none-eabi/8.3.1/include/stddef
 318              		.file 3 "/usr/local/Cellar/arm-gcc-bin/8-2019-q3-update/arm-none-eabi/include/machine/_default_typ
 319              		.file 4 "/usr/local/Cellar/arm-gcc-bin/8-2019-q3-update/arm-none-eabi/include/sys/_stdint.h"
 320              		.file 5 "../../../os/ports/GCC/ARM/chtypes.h"
 321              		.file 6 "../../../os/kernel/include/chlists.h"
 322              		.file 7 "../../../os/kernel/include/chthreads.h"
 323              		.file 8 "../../../os/ports/GCC/ARM/chcore.h"
 324              		.file 9 "../../../os/kernel/include/chvt.h"
 325              		.file 10 "../../../os/kernel/include/chschd.h"
 326              		.file 11 "../../../os/kernel/include/chmtx.h"
 327              		.file 12 "../../../os/kernel/include/chevents.h"
 328              		.file 13 "../../../os/kernel/include/chqueues.h"
 329              		.file 14 "../../../os/kernel/include/ch.h"
 330              		.file 15 "../../../os/hal/platforms/BCM2835/bcm2835.h"
 331              		.file 16 "../../../os/hal/platforms/BCM2835/pal_lld.h"
 332              		.file 17 "../../../os/hal/include/i2c.h"
 333              		.file 18 "../../../os/hal/platforms/BCM2835/i2c_lld.h"
 334              		.file 19 "../../../os/hal/include/serial.h"
 335              		.file 20 "../../../os/kernel/include/chsys.h"
 336              		.file 21 "../../../os/hal/platforms/BCM2835/serial_lld.h"
 337              		.section	.debug_info,"",%progbits
 338              	.Ldebug_info0:
 339 0000 2F0C0000 		.4byte	0xc2f
 340 0004 0400     		.2byte	0x4
 341 0006 00000000 		.4byte	.Ldebug_abbrev0
 342 000a 04       		.byte	0x4
ARM GAS  /var/folders/l5/0x54b2c10074c8bt31ycjvl80000gp/T//ccfU30uO.s 			page 7


 343 000b 01       		.uleb128 0x1
 344 000c D1010000 		.4byte	.LASF162
 345 0010 0C       		.byte	0xc
 346 0011 57040000 		.4byte	.LASF163
 347 0015 F8000000 		.4byte	.LASF164
 348 0019 30000000 		.4byte	.Ldebug_ranges0+0x30
 349 001d 00000000 		.4byte	0
 350 0021 00000000 		.4byte	.Ldebug_line0
 351 0025 02       		.uleb128 0x2
 352 0026 04       		.byte	0x4
 353 0027 05       		.byte	0x5
 354 0028 E6000000 		.4byte	.LASF0
 355 002c 03       		.uleb128 0x3
 356 002d 00000000 		.4byte	.LASF3
 357 0031 02       		.byte	0x2
 358 0032 D8       		.byte	0xd8
 359 0033 17       		.byte	0x17
 360 0034 38000000 		.4byte	0x38
 361 0038 02       		.uleb128 0x2
 362 0039 04       		.byte	0x4
 363 003a 07       		.byte	0x7
 364 003b 0D030000 		.4byte	.LASF1
 365 003f 02       		.uleb128 0x2
 366 0040 01       		.byte	0x1
 367 0041 06       		.byte	0x6
 368 0042 97000000 		.4byte	.LASF2
 369 0046 03       		.uleb128 0x3
 370 0047 1A000000 		.4byte	.LASF4
 371 004b 03       		.byte	0x3
 372 004c 2B       		.byte	0x2b
 373 004d 18       		.byte	0x18
 374 004e 52000000 		.4byte	0x52
 375 0052 02       		.uleb128 0x2
 376 0053 01       		.byte	0x1
 377 0054 08       		.byte	0x8
 378 0055 F7040000 		.4byte	.LASF5
 379 0059 02       		.uleb128 0x2
 380 005a 02       		.byte	0x2
 381 005b 05       		.byte	0x5
 382 005c 24050000 		.4byte	.LASF6
 383 0060 03       		.uleb128 0x3
 384 0061 00060000 		.4byte	.LASF7
 385 0065 03       		.byte	0x3
 386 0066 39       		.byte	0x39
 387 0067 19       		.byte	0x19
 388 0068 6C000000 		.4byte	0x6c
 389 006c 02       		.uleb128 0x2
 390 006d 02       		.byte	0x2
 391 006e 07       		.byte	0x7
 392 006f 3B030000 		.4byte	.LASF8
 393 0073 03       		.uleb128 0x3
 394 0074 27060000 		.4byte	.LASF9
 395 0078 03       		.byte	0x3
 396 0079 4D       		.byte	0x4d
 397 007a 18       		.byte	0x18
 398 007b 25000000 		.4byte	0x25
 399 007f 03       		.uleb128 0x3
ARM GAS  /var/folders/l5/0x54b2c10074c8bt31ycjvl80000gp/T//ccfU30uO.s 			page 8


 400 0080 9D010000 		.4byte	.LASF10
 401 0084 03       		.byte	0x3
 402 0085 4F       		.byte	0x4f
 403 0086 19       		.byte	0x19
 404 0087 38000000 		.4byte	0x38
 405 008b 02       		.uleb128 0x2
 406 008c 08       		.byte	0x8
 407 008d 05       		.byte	0x5
 408 008e 89000000 		.4byte	.LASF11
 409 0092 02       		.uleb128 0x2
 410 0093 08       		.byte	0x8
 411 0094 07       		.byte	0x7
 412 0095 3D000000 		.4byte	.LASF12
 413 0099 03       		.uleb128 0x3
 414 009a DE060000 		.4byte	.LASF13
 415 009e 04       		.byte	0x4
 416 009f 18       		.byte	0x18
 417 00a0 13       		.byte	0x13
 418 00a1 46000000 		.4byte	0x46
 419 00a5 04       		.uleb128 0x4
 420 00a6 99000000 		.4byte	0x99
 421 00aa 03       		.uleb128 0x3
 422 00ab 63010000 		.4byte	.LASF14
 423 00af 04       		.byte	0x4
 424 00b0 24       		.byte	0x24
 425 00b1 14       		.byte	0x14
 426 00b2 60000000 		.4byte	0x60
 427 00b6 03       		.uleb128 0x3
 428 00b7 EF040000 		.4byte	.LASF15
 429 00bb 04       		.byte	0x4
 430 00bc 2C       		.byte	0x2c
 431 00bd 13       		.byte	0x13
 432 00be 73000000 		.4byte	0x73
 433 00c2 03       		.uleb128 0x3
 434 00c3 AC050000 		.4byte	.LASF16
 435 00c7 04       		.byte	0x4
 436 00c8 30       		.byte	0x30
 437 00c9 14       		.byte	0x14
 438 00ca 7F000000 		.4byte	0x7f
 439 00ce 05       		.uleb128 0x5
 440 00cf C2000000 		.4byte	0xc2
 441 00d3 06       		.uleb128 0x6
 442 00d4 04       		.byte	0x4
 443 00d5 05       		.byte	0x5
 444 00d6 696E7400 		.ascii	"int\000"
 445 00da 02       		.uleb128 0x2
 446 00db 04       		.byte	0x4
 447 00dc 07       		.byte	0x7
 448 00dd C1020000 		.4byte	.LASF17
 449 00e1 05       		.uleb128 0x5
 450 00e2 DA000000 		.4byte	0xda
 451 00e6 03       		.uleb128 0x3
 452 00e7 7C030000 		.4byte	.LASF18
 453 00eb 05       		.byte	0x5
 454 00ec 2A       		.byte	0x2a
 455 00ed 19       		.byte	0x19
 456 00ee 99000000 		.4byte	0x99
ARM GAS  /var/folders/l5/0x54b2c10074c8bt31ycjvl80000gp/T//ccfU30uO.s 			page 9


 457 00f2 03       		.uleb128 0x3
 458 00f3 EF000000 		.4byte	.LASF19
 459 00f7 05       		.byte	0x5
 460 00f8 2B       		.byte	0x2b
 461 00f9 19       		.byte	0x19
 462 00fa 99000000 		.4byte	0x99
 463 00fe 03       		.uleb128 0x3
 464 00ff C1000000 		.4byte	.LASF20
 465 0103 05       		.byte	0x5
 466 0104 2D       		.byte	0x2d
 467 0105 19       		.byte	0x19
 468 0106 99000000 		.4byte	0x99
 469 010a 03       		.uleb128 0x3
 470 010b CE040000 		.4byte	.LASF21
 471 010f 05       		.byte	0x5
 472 0110 2E       		.byte	0x2e
 473 0111 19       		.byte	0x19
 474 0112 C2000000 		.4byte	0xc2
 475 0116 03       		.uleb128 0x3
 476 0117 60030000 		.4byte	.LASF22
 477 011b 05       		.byte	0x5
 478 011c 2F       		.byte	0x2f
 479 011d 19       		.byte	0x19
 480 011e B6000000 		.4byte	0xb6
 481 0122 03       		.uleb128 0x3
 482 0123 90030000 		.4byte	.LASF23
 483 0127 05       		.byte	0x5
 484 0128 31       		.byte	0x31
 485 0129 19       		.byte	0x19
 486 012a C2000000 		.4byte	0xc2
 487 012e 03       		.uleb128 0x3
 488 012f 8A060000 		.4byte	.LASF24
 489 0133 05       		.byte	0x5
 490 0134 32       		.byte	0x32
 491 0135 19       		.byte	0x19
 492 0136 C2000000 		.4byte	0xc2
 493 013a 03       		.uleb128 0x3
 494 013b 12060000 		.4byte	.LASF25
 495 013f 05       		.byte	0x5
 496 0140 33       		.byte	0x33
 497 0141 19       		.byte	0x19
 498 0142 C2000000 		.4byte	0xc2
 499 0146 05       		.uleb128 0x5
 500 0147 3A010000 		.4byte	0x13a
 501 014b 03       		.uleb128 0x3
 502 014c 6E050000 		.4byte	.LASF26
 503 0150 06       		.byte	0x6
 504 0151 23       		.byte	0x23
 505 0152 17       		.byte	0x17
 506 0153 57010000 		.4byte	0x157
 507 0157 07       		.uleb128 0x7
 508 0158 6E050000 		.4byte	.LASF26
 509 015c 28       		.byte	0x28
 510 015d 07       		.byte	0x7
 511 015e 57       		.byte	0x57
 512 015f 08       		.byte	0x8
 513 0160 01020000 		.4byte	0x201
ARM GAS  /var/folders/l5/0x54b2c10074c8bt31ycjvl80000gp/T//ccfU30uO.s 			page 10


 514 0164 08       		.uleb128 0x8
 515 0165 57050000 		.4byte	.LASF27
 516 0169 07       		.byte	0x7
 517 016a 58       		.byte	0x58
 518 016b 1A       		.byte	0x1a
 519 016c 25020000 		.4byte	0x225
 520 0170 00       		.byte	0
 521 0171 08       		.uleb128 0x8
 522 0172 C7040000 		.4byte	.LASF28
 523 0176 07       		.byte	0x7
 524 0177 5A       		.byte	0x5a
 525 0178 1A       		.byte	0x1a
 526 0179 25020000 		.4byte	0x225
 527 017d 04       		.byte	0x4
 528 017e 08       		.uleb128 0x8
 529 017f 6B000000 		.4byte	.LASF29
 530 0183 07       		.byte	0x7
 531 0184 5C       		.byte	0x5c
 532 0185 19       		.byte	0x19
 533 0186 0A010000 		.4byte	0x10a
 534 018a 08       		.byte	0x8
 535 018b 08       		.uleb128 0x8
 536 018c 81070000 		.4byte	.LASF30
 537 0190 07       		.byte	0x7
 538 0191 5D       		.byte	0x5d
 539 0192 19       		.byte	0x19
 540 0193 F0020000 		.4byte	0x2f0
 541 0197 0C       		.byte	0xc
 542 0198 08       		.uleb128 0x8
 543 0199 2E050000 		.4byte	.LASF31
 544 019d 07       		.byte	0x7
 545 019e 72       		.byte	0x72
 546 019f 19       		.byte	0x19
 547 01a0 F2000000 		.4byte	0xf2
 548 01a4 10       		.byte	0x10
 549 01a5 08       		.uleb128 0x8
 550 01a6 66050000 		.4byte	.LASF32
 551 01aa 07       		.byte	0x7
 552 01ab 76       		.byte	0x76
 553 01ac 19       		.byte	0x19
 554 01ad E6000000 		.4byte	0xe6
 555 01b1 11       		.byte	0x11
 556 01b2 08       		.uleb128 0x8
 557 01b3 36050000 		.4byte	.LASF33
 558 01b7 07       		.byte	0x7
 559 01b8 81       		.byte	0x81
 560 01b9 19       		.byte	0x19
 561 01ba FE000000 		.4byte	0xfe
 562 01be 12       		.byte	0x12
 563 01bf 09       		.uleb128 0x9
 564 01c0 705F7500 		.ascii	"p_u\000"
 565 01c4 07       		.byte	0x7
 566 01c5 AD       		.byte	0xad
 567 01c6 19       		.byte	0x19
 568 01c7 FD040000 		.4byte	0x4fd
 569 01cb 14       		.byte	0x14
 570 01cc 08       		.uleb128 0x8
ARM GAS  /var/folders/l5/0x54b2c10074c8bt31ycjvl80000gp/T//ccfU30uO.s 			page 11


 571 01cd 87070000 		.4byte	.LASF34
 572 01d1 07       		.byte	0x7
 573 01d2 B2       		.byte	0xb2
 574 01d3 19       		.byte	0x19
 575 01d4 4E020000 		.4byte	0x24e
 576 01d8 18       		.byte	0x18
 577 01d9 08       		.uleb128 0x8
 578 01da 97050000 		.4byte	.LASF35
 579 01de 07       		.byte	0x7
 580 01df C2       		.byte	0xc2
 581 01e0 19       		.byte	0x19
 582 01e1 22010000 		.4byte	0x122
 583 01e5 1C       		.byte	0x1c
 584 01e6 08       		.uleb128 0x8
 585 01e7 1A050000 		.4byte	.LASF36
 586 01eb 07       		.byte	0x7
 587 01ec C9       		.byte	0xc9
 588 01ed 1A       		.byte	0x1a
 589 01ee 37050000 		.4byte	0x537
 590 01f2 20       		.byte	0x20
 591 01f3 08       		.uleb128 0x8
 592 01f4 1C060000 		.4byte	.LASF37
 593 01f8 07       		.byte	0x7
 594 01f9 CD       		.byte	0xcd
 595 01fa 19       		.byte	0x19
 596 01fb 0A010000 		.4byte	0x10a
 597 01ff 24       		.byte	0x24
 598 0200 00       		.byte	0
 599 0201 0A       		.uleb128 0xa
 600 0202 08       		.byte	0x8
 601 0203 06       		.byte	0x6
 602 0204 5A       		.byte	0x5a
 603 0205 09       		.byte	0x9
 604 0206 25020000 		.4byte	0x225
 605 020a 08       		.uleb128 0x8
 606 020b 57050000 		.4byte	.LASF27
 607 020f 06       		.byte	0x6
 608 0210 5B       		.byte	0x5b
 609 0211 1A       		.byte	0x1a
 610 0212 25020000 		.4byte	0x225
 611 0216 00       		.byte	0
 612 0217 08       		.uleb128 0x8
 613 0218 C7040000 		.4byte	.LASF28
 614 021c 06       		.byte	0x6
 615 021d 5D       		.byte	0x5d
 616 021e 1A       		.byte	0x1a
 617 021f 25020000 		.4byte	0x225
 618 0223 04       		.byte	0x4
 619 0224 00       		.byte	0
 620 0225 0B       		.uleb128 0xb
 621 0226 04       		.byte	0x4
 622 0227 4B010000 		.4byte	0x14b
 623 022b 03       		.uleb128 0x3
 624 022c 4A040000 		.4byte	.LASF38
 625 0230 06       		.byte	0x6
 626 0231 5F       		.byte	0x5f
 627 0232 03       		.byte	0x3
ARM GAS  /var/folders/l5/0x54b2c10074c8bt31ycjvl80000gp/T//ccfU30uO.s 			page 12


 628 0233 01020000 		.4byte	0x201
 629 0237 0A       		.uleb128 0xa
 630 0238 04       		.byte	0x4
 631 0239 06       		.byte	0x6
 632 023a 64       		.byte	0x64
 633 023b 09       		.byte	0x9
 634 023c 4E020000 		.4byte	0x24e
 635 0240 08       		.uleb128 0x8
 636 0241 57050000 		.4byte	.LASF27
 637 0245 06       		.byte	0x6
 638 0246 66       		.byte	0x66
 639 0247 16       		.byte	0x16
 640 0248 25020000 		.4byte	0x225
 641 024c 00       		.byte	0
 642 024d 00       		.byte	0
 643 024e 03       		.uleb128 0x3
 644 024f 84030000 		.4byte	.LASF39
 645 0253 06       		.byte	0x6
 646 0254 69       		.byte	0x69
 647 0255 03       		.byte	0x3
 648 0256 37020000 		.4byte	0x237
 649 025a 03       		.uleb128 0x3
 650 025b BA030000 		.4byte	.LASF40
 651 025f 08       		.byte	0x8
 652 0260 9D       		.byte	0x9d
 653 0261 12       		.byte	0x12
 654 0262 C2000000 		.4byte	0xc2
 655 0266 03       		.uleb128 0x3
 656 0267 A8010000 		.4byte	.LASF41
 657 026b 08       		.byte	0x8
 658 026c A2       		.byte	0xa2
 659 026d 0F       		.byte	0xf
 660 026e 72020000 		.4byte	0x272
 661 0272 0C       		.uleb128 0xc
 662 0273 04       		.byte	0x4
 663 0274 07       		.uleb128 0x7
 664 0275 5A060000 		.4byte	.LASF42
 665 0279 24       		.byte	0x24
 666 027a 08       		.byte	0x8
 667 027b B9       		.byte	0xb9
 668 027c 08       		.byte	0x8
 669 027d F0020000 		.4byte	0x2f0
 670 0281 09       		.uleb128 0x9
 671 0282 723400   		.ascii	"r4\000"
 672 0285 08       		.byte	0x8
 673 0286 BA       		.byte	0xba
 674 0287 11       		.byte	0x11
 675 0288 66020000 		.4byte	0x266
 676 028c 00       		.byte	0
 677 028d 09       		.uleb128 0x9
 678 028e 723500   		.ascii	"r5\000"
 679 0291 08       		.byte	0x8
 680 0292 BB       		.byte	0xbb
 681 0293 11       		.byte	0x11
 682 0294 66020000 		.4byte	0x266
 683 0298 04       		.byte	0x4
 684 0299 09       		.uleb128 0x9
ARM GAS  /var/folders/l5/0x54b2c10074c8bt31ycjvl80000gp/T//ccfU30uO.s 			page 13


 685 029a 723600   		.ascii	"r6\000"
 686 029d 08       		.byte	0x8
 687 029e BC       		.byte	0xbc
 688 029f 11       		.byte	0x11
 689 02a0 66020000 		.4byte	0x266
 690 02a4 08       		.byte	0x8
 691 02a5 09       		.uleb128 0x9
 692 02a6 723700   		.ascii	"r7\000"
 693 02a9 08       		.byte	0x8
 694 02aa BD       		.byte	0xbd
 695 02ab 11       		.byte	0x11
 696 02ac 66020000 		.4byte	0x266
 697 02b0 0C       		.byte	0xc
 698 02b1 09       		.uleb128 0x9
 699 02b2 723800   		.ascii	"r8\000"
 700 02b5 08       		.byte	0x8
 701 02b6 BE       		.byte	0xbe
 702 02b7 11       		.byte	0x11
 703 02b8 66020000 		.4byte	0x266
 704 02bc 10       		.byte	0x10
 705 02bd 09       		.uleb128 0x9
 706 02be 723900   		.ascii	"r9\000"
 707 02c1 08       		.byte	0x8
 708 02c2 BF       		.byte	0xbf
 709 02c3 11       		.byte	0x11
 710 02c4 66020000 		.4byte	0x266
 711 02c8 14       		.byte	0x14
 712 02c9 09       		.uleb128 0x9
 713 02ca 72313000 		.ascii	"r10\000"
 714 02ce 08       		.byte	0x8
 715 02cf C0       		.byte	0xc0
 716 02d0 11       		.byte	0x11
 717 02d1 66020000 		.4byte	0x266
 718 02d5 18       		.byte	0x18
 719 02d6 09       		.uleb128 0x9
 720 02d7 72313100 		.ascii	"r11\000"
 721 02db 08       		.byte	0x8
 722 02dc C1       		.byte	0xc1
 723 02dd 11       		.byte	0x11
 724 02de 66020000 		.4byte	0x266
 725 02e2 1C       		.byte	0x1c
 726 02e3 09       		.uleb128 0x9
 727 02e4 6C7200   		.ascii	"lr\000"
 728 02e7 08       		.byte	0x8
 729 02e8 C2       		.byte	0xc2
 730 02e9 11       		.byte	0x11
 731 02ea 66020000 		.4byte	0x266
 732 02ee 20       		.byte	0x20
 733 02ef 00       		.byte	0
 734 02f0 07       		.uleb128 0x7
 735 02f1 45060000 		.4byte	.LASF43
 736 02f5 04       		.byte	0x4
 737 02f6 08       		.byte	0x8
 738 02f7 CA       		.byte	0xca
 739 02f8 08       		.byte	0x8
 740 02f9 0B030000 		.4byte	0x30b
 741 02fd 09       		.uleb128 0x9
ARM GAS  /var/folders/l5/0x54b2c10074c8bt31ycjvl80000gp/T//ccfU30uO.s 			page 14


 742 02fe 72313300 		.ascii	"r13\000"
 743 0302 08       		.byte	0x8
 744 0303 CB       		.byte	0xcb
 745 0304 12       		.byte	0x12
 746 0305 0B030000 		.4byte	0x30b
 747 0309 00       		.byte	0
 748 030a 00       		.byte	0
 749 030b 0B       		.uleb128 0xb
 750 030c 04       		.byte	0x4
 751 030d 74020000 		.4byte	0x274
 752 0311 03       		.uleb128 0x3
 753 0312 2C030000 		.4byte	.LASF44
 754 0316 09       		.byte	0x9
 755 0317 4E       		.byte	0x4e
 756 0318 10       		.byte	0x10
 757 0319 1D030000 		.4byte	0x31d
 758 031d 0B       		.uleb128 0xb
 759 031e 04       		.byte	0x4
 760 031f 23030000 		.4byte	0x323
 761 0323 0D       		.uleb128 0xd
 762 0324 2E030000 		.4byte	0x32e
 763 0328 0E       		.uleb128 0xe
 764 0329 72020000 		.4byte	0x272
 765 032d 00       		.byte	0
 766 032e 03       		.uleb128 0x3
 767 032f BD050000 		.4byte	.LASF45
 768 0333 09       		.byte	0x9
 769 0334 53       		.byte	0x53
 770 0335 1D       		.byte	0x1d
 771 0336 3A030000 		.4byte	0x33a
 772 033a 07       		.uleb128 0x7
 773 033b BD050000 		.4byte	.LASF45
 774 033f 14       		.byte	0x14
 775 0340 09       		.byte	0x9
 776 0341 5A       		.byte	0x5a
 777 0342 08       		.byte	0x8
 778 0343 89030000 		.4byte	0x389
 779 0347 08       		.uleb128 0x8
 780 0348 CE020000 		.4byte	.LASF46
 781 034c 09       		.byte	0x9
 782 034d 5B       		.byte	0x5b
 783 034e 1A       		.byte	0x1a
 784 034f 89030000 		.4byte	0x389
 785 0353 00       		.byte	0
 786 0354 08       		.uleb128 0x8
 787 0355 B1010000 		.4byte	.LASF47
 788 0359 09       		.byte	0x9
 789 035a 5D       		.byte	0x5d
 790 035b 1A       		.byte	0x1a
 791 035c 89030000 		.4byte	0x389
 792 0360 04       		.byte	0x4
 793 0361 08       		.uleb128 0x8
 794 0362 DE030000 		.4byte	.LASF48
 795 0366 09       		.byte	0x9
 796 0367 5F       		.byte	0x5f
 797 0368 19       		.byte	0x19
 798 0369 3A010000 		.4byte	0x13a
ARM GAS  /var/folders/l5/0x54b2c10074c8bt31ycjvl80000gp/T//ccfU30uO.s 			page 15


 799 036d 08       		.byte	0x8
 800 036e 08       		.uleb128 0x8
 801 036f 06040000 		.4byte	.LASF49
 802 0373 09       		.byte	0x9
 803 0374 60       		.byte	0x60
 804 0375 19       		.byte	0x19
 805 0376 11030000 		.4byte	0x311
 806 037a 0C       		.byte	0xc
 807 037b 08       		.uleb128 0x8
 808 037c 83060000 		.4byte	.LASF50
 809 0380 09       		.byte	0x9
 810 0381 62       		.byte	0x62
 811 0382 1A       		.byte	0x1a
 812 0383 72020000 		.4byte	0x272
 813 0387 10       		.byte	0x10
 814 0388 00       		.byte	0
 815 0389 0B       		.uleb128 0xb
 816 038a 04       		.byte	0x4
 817 038b 2E030000 		.4byte	0x32e
 818 038f 0A       		.uleb128 0xa
 819 0390 10       		.byte	0x10
 820 0391 09       		.byte	0x9
 821 0392 6C       		.byte	0x6c
 822 0393 09       		.byte	0x9
 823 0394 CD030000 		.4byte	0x3cd
 824 0398 08       		.uleb128 0x8
 825 0399 CE020000 		.4byte	.LASF46
 826 039d 09       		.byte	0x9
 827 039e 6D       		.byte	0x6d
 828 039f 1A       		.byte	0x1a
 829 03a0 89030000 		.4byte	0x389
 830 03a4 00       		.byte	0
 831 03a5 08       		.uleb128 0x8
 832 03a6 B1010000 		.4byte	.LASF47
 833 03aa 09       		.byte	0x9
 834 03ab 6F       		.byte	0x6f
 835 03ac 1A       		.byte	0x1a
 836 03ad 89030000 		.4byte	0x389
 837 03b1 04       		.byte	0x4
 838 03b2 08       		.uleb128 0x8
 839 03b3 DE030000 		.4byte	.LASF48
 840 03b7 09       		.byte	0x9
 841 03b8 71       		.byte	0x71
 842 03b9 19       		.byte	0x19
 843 03ba 3A010000 		.4byte	0x13a
 844 03be 08       		.byte	0x8
 845 03bf 08       		.uleb128 0x8
 846 03c0 01070000 		.4byte	.LASF51
 847 03c4 09       		.byte	0x9
 848 03c5 72       		.byte	0x72
 849 03c6 19       		.byte	0x19
 850 03c7 46010000 		.4byte	0x146
 851 03cb 0C       		.byte	0xc
 852 03cc 00       		.byte	0
 853 03cd 03       		.uleb128 0x3
 854 03ce 2D040000 		.4byte	.LASF52
 855 03d2 09       		.byte	0x9
ARM GAS  /var/folders/l5/0x54b2c10074c8bt31ycjvl80000gp/T//ccfU30uO.s 			page 16


 856 03d3 73       		.byte	0x73
 857 03d4 03       		.byte	0x3
 858 03d5 8F030000 		.4byte	0x38f
 859 03d9 0F       		.uleb128 0xf
 860 03da 24000000 		.4byte	.LASF58
 861 03de 09       		.byte	0x9
 862 03df D1       		.byte	0xd1
 863 03e0 0F       		.byte	0xf
 864 03e1 CD030000 		.4byte	0x3cd
 865 03e5 0A       		.uleb128 0xa
 866 03e6 14       		.byte	0x14
 867 03e7 0A       		.byte	0xa
 868 03e8 57       		.byte	0x57
 869 03e9 09       		.byte	0x9
 870 03ea 23040000 		.4byte	0x423
 871 03ee 08       		.uleb128 0x8
 872 03ef B5050000 		.4byte	.LASF53
 873 03f3 0A       		.byte	0xa
 874 03f4 58       		.byte	0x58
 875 03f5 19       		.byte	0x19
 876 03f6 2B020000 		.4byte	0x22b
 877 03fa 00       		.byte	0
 878 03fb 08       		.uleb128 0x8
 879 03fc 40050000 		.4byte	.LASF54
 880 0400 0A       		.byte	0xa
 881 0401 59       		.byte	0x59
 882 0402 19       		.byte	0x19
 883 0403 0A010000 		.4byte	0x10a
 884 0407 08       		.byte	0x8
 885 0408 08       		.uleb128 0x8
 886 0409 44040000 		.4byte	.LASF55
 887 040d 0A       		.byte	0xa
 888 040e 5B       		.byte	0x5b
 889 040f 19       		.byte	0x19
 890 0410 F0020000 		.4byte	0x2f0
 891 0414 0C       		.byte	0xc
 892 0415 08       		.uleb128 0x8
 893 0416 8B040000 		.4byte	.LASF56
 894 041a 0A       		.byte	0xa
 895 041b 62       		.byte	0x62
 896 041c 1A       		.byte	0x1a
 897 041d 25020000 		.4byte	0x225
 898 0421 10       		.byte	0x10
 899 0422 00       		.byte	0
 900 0423 03       		.uleb128 0x3
 901 0424 C5060000 		.4byte	.LASF57
 902 0428 0A       		.byte	0xa
 903 0429 64       		.byte	0x64
 904 042a 03       		.byte	0x3
 905 042b E5030000 		.4byte	0x3e5
 906 042f 0F       		.uleb128 0xf
 907 0430 D8060000 		.4byte	.LASF59
 908 0434 0A       		.byte	0xa
 909 0435 68       		.byte	0x68
 910 0436 12       		.byte	0x12
 911 0437 23040000 		.4byte	0x423
 912 043b 07       		.uleb128 0x7
ARM GAS  /var/folders/l5/0x54b2c10074c8bt31ycjvl80000gp/T//ccfU30uO.s 			page 17


 913 043c A7030000 		.4byte	.LASF60
 914 0440 10       		.byte	0x10
 915 0441 0B       		.byte	0xb
 916 0442 25       		.byte	0x25
 917 0443 10       		.byte	0x10
 918 0444 70040000 		.4byte	0x470
 919 0448 08       		.uleb128 0x8
 920 0449 B9000000 		.4byte	.LASF61
 921 044d 0B       		.byte	0xb
 922 044e 26       		.byte	0x26
 923 044f 19       		.byte	0x19
 924 0450 2B020000 		.4byte	0x22b
 925 0454 00       		.byte	0
 926 0455 08       		.uleb128 0x8
 927 0456 66070000 		.4byte	.LASF62
 928 045a 0B       		.byte	0xb
 929 045b 28       		.byte	0x28
 930 045c 1A       		.byte	0x1a
 931 045d 25020000 		.4byte	0x225
 932 0461 08       		.byte	0x8
 933 0462 08       		.uleb128 0x8
 934 0463 0B060000 		.4byte	.LASF63
 935 0467 0B       		.byte	0xb
 936 0468 2A       		.byte	0x2a
 937 0469 1A       		.byte	0x1a
 938 046a 70040000 		.4byte	0x470
 939 046e 0C       		.byte	0xc
 940 046f 00       		.byte	0
 941 0470 0B       		.uleb128 0xb
 942 0471 04       		.byte	0x4
 943 0472 3B040000 		.4byte	0x43b
 944 0476 03       		.uleb128 0x3
 945 0477 A7030000 		.4byte	.LASF60
 946 047b 0B       		.byte	0xb
 947 047c 2C       		.byte	0x2c
 948 047d 03       		.byte	0x3
 949 047e 3B040000 		.4byte	0x43b
 950 0482 03       		.uleb128 0x3
 951 0483 EC060000 		.4byte	.LASF64
 952 0487 0C       		.byte	0xc
 953 0488 25       		.byte	0x25
 954 0489 1E       		.byte	0x1e
 955 048a 8E040000 		.4byte	0x48e
 956 048e 07       		.uleb128 0x7
 957 048f EC060000 		.4byte	.LASF64
 958 0493 10       		.byte	0x10
 959 0494 0C       		.byte	0xc
 960 0495 2A       		.byte	0x2a
 961 0496 08       		.byte	0x8
 962 0497 D0040000 		.4byte	0x4d0
 963 049b 08       		.uleb128 0x8
 964 049c 6D030000 		.4byte	.LASF65
 965 04a0 0C       		.byte	0xc
 966 04a1 2B       		.byte	0x2b
 967 04a2 1A       		.byte	0x1a
 968 04a3 D0040000 		.4byte	0x4d0
 969 04a7 00       		.byte	0
ARM GAS  /var/folders/l5/0x54b2c10074c8bt31ycjvl80000gp/T//ccfU30uO.s 			page 18


 970 04a8 08       		.uleb128 0x8
 971 04a9 05050000 		.4byte	.LASF66
 972 04ad 0C       		.byte	0xc
 973 04ae 2E       		.byte	0x2e
 974 04af 1A       		.byte	0x1a
 975 04b0 25020000 		.4byte	0x225
 976 04b4 04       		.byte	0x4
 977 04b5 08       		.uleb128 0x8
 978 04b6 95040000 		.4byte	.LASF67
 979 04ba 0C       		.byte	0xc
 980 04bb 30       		.byte	0x30
 981 04bc 19       		.byte	0x19
 982 04bd 22010000 		.4byte	0x122
 983 04c1 08       		.byte	0x8
 984 04c2 08       		.uleb128 0x8
 985 04c3 11050000 		.4byte	.LASF68
 986 04c7 0C       		.byte	0xc
 987 04c8 33       		.byte	0x33
 988 04c9 19       		.byte	0x19
 989 04ca 2E010000 		.4byte	0x12e
 990 04ce 0C       		.byte	0xc
 991 04cf 00       		.byte	0
 992 04d0 0B       		.uleb128 0xb
 993 04d1 04       		.byte	0x4
 994 04d2 82040000 		.4byte	0x482
 995 04d6 07       		.uleb128 0x7
 996 04d7 B5020000 		.4byte	.LASF69
 997 04db 04       		.byte	0x4
 998 04dc 0C       		.byte	0xc
 999 04dd 3A       		.byte	0x3a
 1000 04de 10       		.byte	0x10
 1001 04df F1040000 		.4byte	0x4f1
 1002 04e3 08       		.uleb128 0x8
 1003 04e4 B6060000 		.4byte	.LASF70
 1004 04e8 0C       		.byte	0xc
 1005 04e9 3B       		.byte	0x3b
 1006 04ea 1A       		.byte	0x1a
 1007 04eb D0040000 		.4byte	0x4d0
 1008 04ef 00       		.byte	0
 1009 04f0 00       		.byte	0
 1010 04f1 03       		.uleb128 0x3
 1011 04f2 B5020000 		.4byte	.LASF69
 1012 04f6 0C       		.byte	0xc
 1013 04f7 3E       		.byte	0x3e
 1014 04f8 03       		.byte	0x3
 1015 04f9 D6040000 		.4byte	0x4d6
 1016 04fd 10       		.uleb128 0x10
 1017 04fe 04       		.byte	0x4
 1018 04ff 07       		.byte	0x7
 1019 0500 8F       		.byte	0x8f
 1020 0501 03       		.byte	0x3
 1021 0502 37050000 		.4byte	0x537
 1022 0506 11       		.uleb128 0x11
 1023 0507 07000000 		.4byte	.LASF71
 1024 050b 07       		.byte	0x7
 1025 050c 96       		.byte	0x96
 1026 050d 19       		.byte	0x19
ARM GAS  /var/folders/l5/0x54b2c10074c8bt31ycjvl80000gp/T//ccfU30uO.s 			page 19


 1027 050e 16010000 		.4byte	0x116
 1028 0512 11       		.uleb128 0x11
 1029 0513 59000000 		.4byte	.LASF72
 1030 0517 07       		.byte	0x7
 1031 0518 9D       		.byte	0x9d
 1032 0519 19       		.byte	0x19
 1033 051a 16010000 		.4byte	0x116
 1034 051e 11       		.uleb128 0x11
 1035 051f FA060000 		.4byte	.LASF73
 1036 0523 07       		.byte	0x7
 1037 0524 A4       		.byte	0xa4
 1038 0525 1A       		.byte	0x1a
 1039 0526 72020000 		.4byte	0x272
 1040 052a 11       		.uleb128 0x11
 1041 052b 50050000 		.4byte	.LASF74
 1042 052f 07       		.byte	0x7
 1043 0530 AB       		.byte	0xab
 1044 0531 19       		.byte	0x19
 1045 0532 22010000 		.4byte	0x122
 1046 0536 00       		.byte	0
 1047 0537 0B       		.uleb128 0xb
 1048 0538 04       		.byte	0x4
 1049 0539 76040000 		.4byte	0x476
 1050 053d 0B       		.uleb128 0xb
 1051 053e 04       		.byte	0x4
 1052 053f 43050000 		.4byte	0x543
 1053 0543 12       		.uleb128 0x12
 1054 0544 16010000 		.4byte	0x116
 1055 0548 52050000 		.4byte	0x552
 1056 054c 0E       		.uleb128 0xe
 1057 054d 72020000 		.4byte	0x272
 1058 0551 00       		.byte	0
 1059 0552 03       		.uleb128 0x3
 1060 0553 AD030000 		.4byte	.LASF75
 1061 0557 0D       		.byte	0xd
 1062 0558 30       		.byte	0x30
 1063 0559 1D       		.byte	0x1d
 1064 055a 5E050000 		.4byte	0x55e
 1065 055e 07       		.uleb128 0x7
 1066 055f AD030000 		.4byte	.LASF75
 1067 0563 24       		.byte	0x24
 1068 0564 0D       		.byte	0xd
 1069 0565 3E       		.byte	0x3e
 1070 0566 08       		.byte	0x8
 1071 0567 D4050000 		.4byte	0x5d4
 1072 056b 08       		.uleb128 0x8
 1073 056c 7F000000 		.4byte	.LASF76
 1074 0570 0D       		.byte	0xd
 1075 0571 3F       		.byte	0x3f
 1076 0572 19       		.byte	0x19
 1077 0573 2B020000 		.4byte	0x22b
 1078 0577 00       		.byte	0
 1079 0578 08       		.uleb128 0x8
 1080 0579 FC030000 		.4byte	.LASF77
 1081 057d 0D       		.byte	0xd
 1082 057e 40       		.byte	0x40
 1083 057f 19       		.byte	0x19
ARM GAS  /var/folders/l5/0x54b2c10074c8bt31ycjvl80000gp/T//ccfU30uO.s 			page 20


 1084 0580 2C000000 		.4byte	0x2c
 1085 0584 08       		.byte	0x8
 1086 0585 08       		.uleb128 0x8
 1087 0586 5A010000 		.4byte	.LASF78
 1088 058a 0D       		.byte	0xd
 1089 058b 41       		.byte	0x41
 1090 058c 1A       		.byte	0x1a
 1091 058d F7050000 		.4byte	0x5f7
 1092 0591 0C       		.byte	0xc
 1093 0592 08       		.uleb128 0x8
 1094 0593 B0060000 		.4byte	.LASF79
 1095 0597 0D       		.byte	0xd
 1096 0598 42       		.byte	0x42
 1097 0599 1A       		.byte	0x1a
 1098 059a F7050000 		.4byte	0x5f7
 1099 059e 10       		.byte	0x10
 1100 059f 08       		.uleb128 0x8
 1101 05a0 3C040000 		.4byte	.LASF80
 1102 05a4 0D       		.byte	0xd
 1103 05a5 44       		.byte	0x44
 1104 05a6 1A       		.byte	0x1a
 1105 05a7 F7050000 		.4byte	0x5f7
 1106 05ab 14       		.byte	0x14
 1107 05ac 08       		.uleb128 0x8
 1108 05ad D6040000 		.4byte	.LASF81
 1109 05b1 0D       		.byte	0xd
 1110 05b2 45       		.byte	0x45
 1111 05b3 1A       		.byte	0x1a
 1112 05b4 F7050000 		.4byte	0x5f7
 1113 05b8 18       		.byte	0x18
 1114 05b9 08       		.uleb128 0x8
 1115 05ba CF060000 		.4byte	.LASF82
 1116 05be 0D       		.byte	0xd
 1117 05bf 46       		.byte	0x46
 1118 05c0 19       		.byte	0x19
 1119 05c1 D4050000 		.4byte	0x5d4
 1120 05c5 1C       		.byte	0x1c
 1121 05c6 08       		.uleb128 0x8
 1122 05c7 4D070000 		.4byte	.LASF83
 1123 05cb 0D       		.byte	0xd
 1124 05cc 47       		.byte	0x47
 1125 05cd 1A       		.byte	0x1a
 1126 05ce 72020000 		.4byte	0x272
 1127 05d2 20       		.byte	0x20
 1128 05d3 00       		.byte	0
 1129 05d4 03       		.uleb128 0x3
 1130 05d5 BD040000 		.4byte	.LASF84
 1131 05d9 0D       		.byte	0xd
 1132 05da 33       		.byte	0x33
 1133 05db 10       		.byte	0x10
 1134 05dc E0050000 		.4byte	0x5e0
 1135 05e0 0B       		.uleb128 0xb
 1136 05e1 04       		.byte	0x4
 1137 05e2 E6050000 		.4byte	0x5e6
 1138 05e6 0D       		.uleb128 0xd
 1139 05e7 F1050000 		.4byte	0x5f1
 1140 05eb 0E       		.uleb128 0xe
ARM GAS  /var/folders/l5/0x54b2c10074c8bt31ycjvl80000gp/T//ccfU30uO.s 			page 21


 1141 05ec F1050000 		.4byte	0x5f1
 1142 05f0 00       		.byte	0
 1143 05f1 0B       		.uleb128 0xb
 1144 05f2 04       		.byte	0x4
 1145 05f3 52050000 		.4byte	0x552
 1146 05f7 0B       		.uleb128 0xb
 1147 05f8 04       		.byte	0x4
 1148 05f9 99000000 		.4byte	0x99
 1149 05fd 03       		.uleb128 0x3
 1150 05fe 9C030000 		.4byte	.LASF85
 1151 0602 0D       		.byte	0xd
 1152 0603 7B       		.byte	0x7b
 1153 0604 16       		.byte	0x16
 1154 0605 52050000 		.4byte	0x552
 1155 0609 03       		.uleb128 0x3
 1156 060a 0E000000 		.4byte	.LASF86
 1157 060e 0D       		.byte	0xd
 1158 060f EE       		.byte	0xee
 1159 0610 16       		.byte	0x16
 1160 0611 52050000 		.4byte	0x552
 1161 0615 12       		.uleb128 0x12
 1162 0616 2C000000 		.4byte	0x2c
 1163 061a 2E060000 		.4byte	0x62e
 1164 061e 0E       		.uleb128 0xe
 1165 061f 72020000 		.4byte	0x272
 1166 0623 0E       		.uleb128 0xe
 1167 0624 2E060000 		.4byte	0x62e
 1168 0628 0E       		.uleb128 0xe
 1169 0629 2C000000 		.4byte	0x2c
 1170 062d 00       		.byte	0
 1171 062e 0B       		.uleb128 0xb
 1172 062f 04       		.byte	0x4
 1173 0630 A5000000 		.4byte	0xa5
 1174 0634 0B       		.uleb128 0xb
 1175 0635 04       		.byte	0x4
 1176 0636 15060000 		.4byte	0x615
 1177 063a 12       		.uleb128 0x12
 1178 063b 2C000000 		.4byte	0x2c
 1179 063f 53060000 		.4byte	0x653
 1180 0643 0E       		.uleb128 0xe
 1181 0644 72020000 		.4byte	0x272
 1182 0648 0E       		.uleb128 0xe
 1183 0649 F7050000 		.4byte	0x5f7
 1184 064d 0E       		.uleb128 0xe
 1185 064e 2C000000 		.4byte	0x2c
 1186 0652 00       		.byte	0
 1187 0653 0B       		.uleb128 0xb
 1188 0654 04       		.byte	0x4
 1189 0655 3A060000 		.4byte	0x63a
 1190 0659 12       		.uleb128 0x12
 1191 065a 16010000 		.4byte	0x116
 1192 065e 6D060000 		.4byte	0x66d
 1193 0662 0E       		.uleb128 0xe
 1194 0663 72020000 		.4byte	0x272
 1195 0667 0E       		.uleb128 0xe
 1196 0668 99000000 		.4byte	0x99
 1197 066c 00       		.byte	0
ARM GAS  /var/folders/l5/0x54b2c10074c8bt31ycjvl80000gp/T//ccfU30uO.s 			page 22


 1198 066d 0B       		.uleb128 0xb
 1199 066e 04       		.byte	0x4
 1200 066f 59060000 		.4byte	0x659
 1201 0673 13       		.uleb128 0x13
 1202 0674 5A020000 		.4byte	0x25a
 1203 0678 83060000 		.4byte	0x683
 1204 067c 14       		.uleb128 0x14
 1205 067d 38000000 		.4byte	0x38
 1206 0681 1F       		.byte	0x1f
 1207 0682 00       		.byte	0
 1208 0683 0F       		.uleb128 0xf
 1209 0684 85010000 		.4byte	.LASF87
 1210 0688 0E       		.byte	0xe
 1211 0689 82       		.byte	0x82
 1212 068a 08       		.byte	0x8
 1213 068b 73060000 		.4byte	0x673
 1214 068f 07       		.uleb128 0x7
 1215 0690 2B000000 		.4byte	.LASF88
 1216 0694 20       		.byte	0x20
 1217 0695 0F       		.byte	0xf
 1218 0696 FD       		.byte	0xfd
 1219 0697 08       		.byte	0x8
 1220 0698 0B070000 		.4byte	0x70b
 1221 069c 08       		.uleb128 0x8
 1222 069d 95010000 		.4byte	.LASF89
 1223 06a1 0F       		.byte	0xf
 1224 06a2 FE       		.byte	0xfe
 1225 06a3 19       		.byte	0x19
 1226 06a4 E1000000 		.4byte	0xe1
 1227 06a8 00       		.byte	0
 1228 06a9 08       		.uleb128 0x8
 1229 06aa BE060000 		.4byte	.LASF90
 1230 06ae 0F       		.byte	0xf
 1231 06af FF       		.byte	0xff
 1232 06b0 19       		.byte	0x19
 1233 06b1 E1000000 		.4byte	0xe1
 1234 06b5 04       		.byte	0x4
 1235 06b6 15       		.uleb128 0x15
 1236 06b7 7A010000 		.4byte	.LASF91
 1237 06bb 0F       		.byte	0xf
 1238 06bc 0001     		.2byte	0x100
 1239 06be 19       		.byte	0x19
 1240 06bf E1000000 		.4byte	0xe1
 1241 06c3 08       		.byte	0x8
 1242 06c4 15       		.uleb128 0x15
 1243 06c5 B9010000 		.4byte	.LASF92
 1244 06c9 0F       		.byte	0xf
 1245 06ca 0101     		.2byte	0x101
 1246 06cc 19       		.byte	0x19
 1247 06cd E1000000 		.4byte	0xe1
 1248 06d1 0C       		.byte	0xc
 1249 06d2 15       		.uleb128 0x15
 1250 06d3 62000000 		.4byte	.LASF93
 1251 06d7 0F       		.byte	0xf
 1252 06d8 0201     		.2byte	0x102
 1253 06da 19       		.byte	0x19
 1254 06db E1000000 		.4byte	0xe1
ARM GAS  /var/folders/l5/0x54b2c10074c8bt31ycjvl80000gp/T//ccfU30uO.s 			page 23


 1255 06df 10       		.byte	0x10
 1256 06e0 15       		.uleb128 0x15
 1257 06e1 EF030000 		.4byte	.LASF94
 1258 06e5 0F       		.byte	0xf
 1259 06e6 0301     		.2byte	0x103
 1260 06e8 19       		.byte	0x19
 1261 06e9 E1000000 		.4byte	0xe1
 1262 06ed 14       		.byte	0x14
 1263 06ee 15       		.uleb128 0x15
 1264 06ef 50010000 		.4byte	.LASF95
 1265 06f3 0F       		.byte	0xf
 1266 06f4 0401     		.2byte	0x104
 1267 06f6 19       		.byte	0x19
 1268 06f7 E1000000 		.4byte	0xe1
 1269 06fb 18       		.byte	0x18
 1270 06fc 15       		.uleb128 0x15
 1271 06fd 99070000 		.4byte	.LASF96
 1272 0701 0F       		.byte	0xf
 1273 0702 0501     		.2byte	0x105
 1274 0704 19       		.byte	0x19
 1275 0705 E1000000 		.4byte	0xe1
 1276 0709 1C       		.byte	0x1c
 1277 070a 00       		.byte	0
 1278 070b 16       		.uleb128 0x16
 1279 070c 2B000000 		.4byte	.LASF88
 1280 0710 0F       		.byte	0xf
 1281 0711 0801     		.2byte	0x108
 1282 0713 1C       		.byte	0x1c
 1283 0714 8F060000 		.4byte	0x68f
 1284 0718 12       		.uleb128 0x12
 1285 0719 16010000 		.4byte	0x116
 1286 071d 31070000 		.4byte	0x731
 1287 0721 0E       		.uleb128 0xe
 1288 0722 72020000 		.4byte	0x272
 1289 0726 0E       		.uleb128 0xe
 1290 0727 99000000 		.4byte	0x99
 1291 072b 0E       		.uleb128 0xe
 1292 072c 3A010000 		.4byte	0x13a
 1293 0730 00       		.byte	0
 1294 0731 0B       		.uleb128 0xb
 1295 0732 04       		.byte	0x4
 1296 0733 18070000 		.4byte	0x718
 1297 0737 12       		.uleb128 0x12
 1298 0738 16010000 		.4byte	0x116
 1299 073c 4B070000 		.4byte	0x74b
 1300 0740 0E       		.uleb128 0xe
 1301 0741 72020000 		.4byte	0x272
 1302 0745 0E       		.uleb128 0xe
 1303 0746 3A010000 		.4byte	0x13a
 1304 074a 00       		.byte	0
 1305 074b 0B       		.uleb128 0xb
 1306 074c 04       		.byte	0x4
 1307 074d 37070000 		.4byte	0x737
 1308 0751 12       		.uleb128 0x12
 1309 0752 2C000000 		.4byte	0x2c
 1310 0756 6F070000 		.4byte	0x76f
 1311 075a 0E       		.uleb128 0xe
ARM GAS  /var/folders/l5/0x54b2c10074c8bt31ycjvl80000gp/T//ccfU30uO.s 			page 24


 1312 075b 72020000 		.4byte	0x272
 1313 075f 0E       		.uleb128 0xe
 1314 0760 2E060000 		.4byte	0x62e
 1315 0764 0E       		.uleb128 0xe
 1316 0765 2C000000 		.4byte	0x2c
 1317 0769 0E       		.uleb128 0xe
 1318 076a 3A010000 		.4byte	0x13a
 1319 076e 00       		.byte	0
 1320 076f 0B       		.uleb128 0xb
 1321 0770 04       		.byte	0x4
 1322 0771 51070000 		.4byte	0x751
 1323 0775 12       		.uleb128 0x12
 1324 0776 2C000000 		.4byte	0x2c
 1325 077a 93070000 		.4byte	0x793
 1326 077e 0E       		.uleb128 0xe
 1327 077f 72020000 		.4byte	0x272
 1328 0783 0E       		.uleb128 0xe
 1329 0784 F7050000 		.4byte	0x5f7
 1330 0788 0E       		.uleb128 0xe
 1331 0789 2C000000 		.4byte	0x2c
 1332 078d 0E       		.uleb128 0xe
 1333 078e 3A010000 		.4byte	0x13a
 1334 0792 00       		.byte	0
 1335 0793 0B       		.uleb128 0xb
 1336 0794 04       		.byte	0x4
 1337 0795 75070000 		.4byte	0x775
 1338 0799 0A       		.uleb128 0xa
 1339 079a 18       		.byte	0x18
 1340 079b 10       		.byte	0x10
 1341 079c 2A       		.byte	0x2a
 1342 079d 09       		.byte	0x9
 1343 079e F1070000 		.4byte	0x7f1
 1344 07a2 08       		.uleb128 0x8
 1345 07a3 E6060000 		.4byte	.LASF97
 1346 07a7 10       		.byte	0x10
 1347 07a8 2F       		.byte	0x2f
 1348 07a9 15       		.byte	0x15
 1349 07aa C2000000 		.4byte	0xc2
 1350 07ae 00       		.byte	0
 1351 07af 08       		.uleb128 0x8
 1352 07b0 9D040000 		.4byte	.LASF98
 1353 07b4 10       		.byte	0x10
 1354 07b5 31       		.byte	0x31
 1355 07b6 16       		.byte	0x16
 1356 07b7 F1070000 		.4byte	0x7f1
 1357 07bb 04       		.byte	0x4
 1358 07bc 08       		.uleb128 0x8
 1359 07bd 5A030000 		.4byte	.LASF99
 1360 07c1 10       		.byte	0x10
 1361 07c2 32       		.byte	0x32
 1362 07c3 16       		.byte	0x16
 1363 07c4 F1070000 		.4byte	0x7f1
 1364 07c8 08       		.byte	0x8
 1365 07c9 08       		.uleb128 0x8
 1366 07ca CB030000 		.4byte	.LASF100
 1367 07ce 10       		.byte	0x10
 1368 07cf 33       		.byte	0x33
ARM GAS  /var/folders/l5/0x54b2c10074c8bt31ycjvl80000gp/T//ccfU30uO.s 			page 25


 1369 07d0 16       		.byte	0x16
 1370 07d1 F1070000 		.4byte	0x7f1
 1371 07d5 0C       		.byte	0xc
 1372 07d6 08       		.uleb128 0x8
 1373 07d7 A3040000 		.4byte	.LASF101
 1374 07db 10       		.byte	0x10
 1375 07dc 34       		.byte	0x34
 1376 07dd 16       		.byte	0x16
 1377 07de F1070000 		.4byte	0x7f1
 1378 07e2 10       		.byte	0x10
 1379 07e3 08       		.uleb128 0x8
 1380 07e4 47050000 		.4byte	.LASF102
 1381 07e8 10       		.byte	0x10
 1382 07e9 35       		.byte	0x35
 1383 07ea 10       		.byte	0x10
 1384 07eb DA000000 		.4byte	0xda
 1385 07ef 14       		.byte	0x14
 1386 07f0 00       		.byte	0
 1387 07f1 0B       		.uleb128 0xb
 1388 07f2 04       		.byte	0x4
 1389 07f3 CE000000 		.4byte	0xce
 1390 07f7 03       		.uleb128 0x3
 1391 07f8 4E030000 		.4byte	.LASF103
 1392 07fc 10       		.byte	0x10
 1393 07fd 37       		.byte	0x37
 1394 07fe 03       		.byte	0x3
 1395 07ff 99070000 		.4byte	0x799
 1396 0803 17       		.uleb128 0x17
 1397 0804 00       		.byte	0
 1398 0805 10       		.byte	0x10
 1399 0806 43       		.byte	0x43
 1400 0807 09       		.byte	0x9
 1401 0808 03       		.uleb128 0x3
 1402 0809 5C070000 		.4byte	.LASF104
 1403 080d 10       		.byte	0x10
 1404 080e 45       		.byte	0x45
 1405 080f 03       		.byte	0x3
 1406 0810 03080000 		.4byte	0x803
 1407 0814 04       		.uleb128 0x4
 1408 0815 08080000 		.4byte	0x808
 1409 0819 0F       		.uleb128 0xf
 1410 081a 83040000 		.4byte	.LASF105
 1411 081e 10       		.byte	0x10
 1412 081f 6D       		.byte	0x6d
 1413 0820 14       		.byte	0x14
 1414 0821 F7070000 		.4byte	0x7f7
 1415 0825 0F       		.uleb128 0xf
 1416 0826 5E050000 		.4byte	.LASF106
 1417 082a 10       		.byte	0x10
 1418 082b 6E       		.byte	0x6e
 1419 082c 14       		.byte	0x14
 1420 082d F7070000 		.4byte	0x7f7
 1421 0831 0F       		.uleb128 0xf
 1422 0832 6E070000 		.4byte	.LASF107
 1423 0836 10       		.byte	0x10
 1424 0837 75       		.byte	0x75
 1425 0838 18       		.byte	0x18
ARM GAS  /var/folders/l5/0x54b2c10074c8bt31ycjvl80000gp/T//ccfU30uO.s 			page 26


 1426 0839 14080000 		.4byte	0x814
 1427 083d 18       		.uleb128 0x18
 1428 083e 07       		.byte	0x7
 1429 083f 04       		.byte	0x4
 1430 0840 DA000000 		.4byte	0xda
 1431 0844 11       		.byte	0x11
 1432 0845 54       		.byte	0x54
 1433 0846 0E       		.byte	0xe
 1434 0847 70080000 		.4byte	0x870
 1435 084b 19       		.uleb128 0x19
 1436 084c CB000000 		.4byte	.LASF108
 1437 0850 00       		.byte	0
 1438 0851 19       		.uleb128 0x19
 1439 0852 E6030000 		.4byte	.LASF109
 1440 0856 01       		.byte	0x1
 1441 0857 19       		.uleb128 0x19
 1442 0858 31060000 		.4byte	.LASF110
 1443 085c 02       		.byte	0x2
 1444 085d 19       		.uleb128 0x19
 1445 085e 6C010000 		.4byte	.LASF111
 1446 0862 03       		.byte	0x3
 1447 0863 19       		.uleb128 0x19
 1448 0864 E6050000 		.4byte	.LASF112
 1449 0868 04       		.byte	0x4
 1450 0869 19       		.uleb128 0x19
 1451 086a 75050000 		.4byte	.LASF113
 1452 086e 05       		.byte	0x5
 1453 086f 00       		.byte	0
 1454 0870 03       		.uleb128 0x3
 1455 0871 B2040000 		.4byte	.LASF114
 1456 0875 11       		.byte	0x11
 1457 0876 5B       		.byte	0x5b
 1458 0877 03       		.byte	0x3
 1459 0878 3D080000 		.4byte	0x83d
 1460 087c 03       		.uleb128 0x3
 1461 087d 3B060000 		.4byte	.LASF115
 1462 0881 12       		.byte	0x12
 1463 0882 38       		.byte	0x38
 1464 0883 1A       		.byte	0x1a
 1465 0884 88080000 		.4byte	0x888
 1466 0888 07       		.uleb128 0x7
 1467 0889 3B060000 		.4byte	.LASF115
 1468 088d 40       		.byte	0x40
 1469 088e 12       		.byte	0x12
 1470 088f 62       		.byte	0x62
 1471 0890 08       		.byte	0x8
 1472 0891 3F090000 		.4byte	0x93f
 1473 0895 08       		.uleb128 0x8
 1474 0896 E0000000 		.4byte	.LASF116
 1475 089a 12       		.byte	0x12
 1476 089b 64       		.byte	0x64
 1477 089c 1D       		.byte	0x1d
 1478 089d 70080000 		.4byte	0x870
 1479 08a1 00       		.byte	0
 1480 08a2 08       		.uleb128 0x8
 1481 08a3 F9050000 		.4byte	.LASF117
 1482 08a7 12       		.byte	0x12
ARM GAS  /var/folders/l5/0x54b2c10074c8bt31ycjvl80000gp/T//ccfU30uO.s 			page 27


 1483 08a8 66       		.byte	0x66
 1484 08a9 1E       		.byte	0x1e
 1485 08aa 7F090000 		.4byte	0x97f
 1486 08ae 04       		.byte	0x4
 1487 08af 08       		.uleb128 0x8
 1488 08b0 EC020000 		.4byte	.LASF118
 1489 08b4 12       		.byte	0x12
 1490 08b5 68       		.byte	0x68
 1491 08b6 1D       		.byte	0x1d
 1492 08b7 3F090000 		.4byte	0x93f
 1493 08bb 08       		.byte	0x8
 1494 08bc 08       		.uleb128 0x8
 1495 08bd 78000000 		.4byte	.LASF119
 1496 08c1 12       		.byte	0x12
 1497 08c2 6A       		.byte	0x6a
 1498 08c3 1E       		.byte	0x1e
 1499 08c4 85090000 		.4byte	0x985
 1500 08c8 0C       		.byte	0xc
 1501 08c9 08       		.uleb128 0x8
 1502 08ca E9040000 		.4byte	.LASF120
 1503 08ce 12       		.byte	0x12
 1504 08cf 6D       		.byte	0x6d
 1505 08d0 1D       		.byte	0x1d
 1506 08d1 76040000 		.4byte	0x476
 1507 08d5 10       		.byte	0x10
 1508 08d6 08       		.uleb128 0x8
 1509 08d7 49010000 		.4byte	.LASF121
 1510 08db 12       		.byte	0x12
 1511 08dc 77       		.byte	0x77
 1512 08dd 1E       		.byte	0x1e
 1513 08de 25020000 		.4byte	0x225
 1514 08e2 20       		.byte	0x20
 1515 08e3 08       		.uleb128 0x8
 1516 08e4 54000000 		.4byte	.LASF122
 1517 08e8 12       		.byte	0x12
 1518 08e9 7B       		.byte	0x7b
 1519 08ea 1D       		.byte	0x1d
 1520 08eb 4B090000 		.4byte	0x94b
 1521 08ef 24       		.byte	0x24
 1522 08f0 08       		.uleb128 0x8
 1523 08f1 D6020000 		.4byte	.LASF123
 1524 08f5 12       		.byte	0x12
 1525 08f6 7F       		.byte	0x7f
 1526 08f7 1E       		.byte	0x1e
 1527 08f8 2E060000 		.4byte	0x62e
 1528 08fc 28       		.byte	0x28
 1529 08fd 08       		.uleb128 0x8
 1530 08fe 91070000 		.4byte	.LASF124
 1531 0902 12       		.byte	0x12
 1532 0903 83       		.byte	0x83
 1533 0904 1D       		.byte	0x1d
 1534 0905 2C000000 		.4byte	0x2c
 1535 0909 2C       		.byte	0x2c
 1536 090a 08       		.uleb128 0x8
 1537 090b AA060000 		.4byte	.LASF125
 1538 090f 12       		.byte	0x12
 1539 0910 87       		.byte	0x87
ARM GAS  /var/folders/l5/0x54b2c10074c8bt31ycjvl80000gp/T//ccfU30uO.s 			page 28


 1540 0911 1D       		.byte	0x1d
 1541 0912 2C000000 		.4byte	0x2c
 1542 0916 30       		.byte	0x30
 1543 0917 08       		.uleb128 0x8
 1544 0918 37000000 		.4byte	.LASF126
 1545 091c 12       		.byte	0x12
 1546 091d 8B       		.byte	0x8b
 1547 091e 1E       		.byte	0x1e
 1548 091f F7050000 		.4byte	0x5f7
 1549 0923 34       		.byte	0x34
 1550 0924 08       		.uleb128 0x8
 1551 0925 34040000 		.4byte	.LASF127
 1552 0929 12       		.byte	0x12
 1553 092a 8F       		.byte	0x8f
 1554 092b 1D       		.byte	0x1d
 1555 092c 2C000000 		.4byte	0x2c
 1556 0930 38       		.byte	0x38
 1557 0931 08       		.uleb128 0x8
 1558 0932 AC040000 		.4byte	.LASF128
 1559 0936 12       		.byte	0x12
 1560 0937 93       		.byte	0x93
 1561 0938 1D       		.byte	0x1d
 1562 0939 2C000000 		.4byte	0x2c
 1563 093d 3C       		.byte	0x3c
 1564 093e 00       		.byte	0
 1565 093f 03       		.uleb128 0x3
 1566 0940 DE040000 		.4byte	.LASF129
 1567 0944 12       		.byte	0x12
 1568 0945 42       		.byte	0x42
 1569 0946 12       		.byte	0x12
 1570 0947 C2000000 		.4byte	0xc2
 1571 094b 03       		.uleb128 0x3
 1572 094c D6000000 		.4byte	.LASF130
 1573 0950 12       		.byte	0x12
 1574 0951 48       		.byte	0x48
 1575 0952 12       		.byte	0x12
 1576 0953 AA000000 		.4byte	0xaa
 1577 0957 0A       		.uleb128 0xa
 1578 0958 04       		.byte	0x4
 1579 0959 12       		.byte	0x12
 1580 095a 57       		.byte	0x57
 1581 095b 09       		.byte	0x9
 1582 095c 6E090000 		.4byte	0x96e
 1583 0960 08       		.uleb128 0x8
 1584 0961 1C040000 		.4byte	.LASF131
 1585 0965 12       		.byte	0x12
 1586 0966 59       		.byte	0x59
 1587 0967 1D       		.byte	0x1d
 1588 0968 C2000000 		.4byte	0xc2
 1589 096c 00       		.byte	0
 1590 096d 00       		.byte	0
 1591 096e 03       		.uleb128 0x3
 1592 096f 96060000 		.4byte	.LASF132
 1593 0973 12       		.byte	0x12
 1594 0974 5B       		.byte	0x5b
 1595 0975 03       		.byte	0x3
 1596 0976 57090000 		.4byte	0x957
ARM GAS  /var/folders/l5/0x54b2c10074c8bt31ycjvl80000gp/T//ccfU30uO.s 			page 29


 1597 097a 04       		.uleb128 0x4
 1598 097b 6E090000 		.4byte	0x96e
 1599 097f 0B       		.uleb128 0xb
 1600 0980 04       		.byte	0x4
 1601 0981 7A090000 		.4byte	0x97a
 1602 0985 0B       		.uleb128 0xb
 1603 0986 04       		.byte	0x4
 1604 0987 0B070000 		.4byte	0x70b
 1605 098b 0F       		.uleb128 0xf
 1606 098c B0020000 		.4byte	.LASF133
 1607 0990 12       		.byte	0x12
 1608 0991 A6       		.byte	0xa6
 1609 0992 12       		.byte	0x12
 1610 0993 7C080000 		.4byte	0x87c
 1611 0997 18       		.uleb128 0x18
 1612 0998 07       		.byte	0x7
 1613 0999 04       		.byte	0x4
 1614 099a DA000000 		.4byte	0xda
 1615 099e 13       		.byte	0x13
 1616 099f 5D       		.byte	0x5d
 1617 09a0 0E       		.byte	0xe
 1618 09a1 B8090000 		.4byte	0x9b8
 1619 09a5 19       		.uleb128 0x19
 1620 09a6 A2050000 		.4byte	.LASF134
 1621 09aa 00       		.byte	0
 1622 09ab 19       		.uleb128 0x19
 1623 09ac B1000000 		.4byte	.LASF135
 1624 09b0 01       		.byte	0x1
 1625 09b1 19       		.uleb128 0x19
 1626 09b2 61060000 		.4byte	.LASF136
 1627 09b6 02       		.byte	0x2
 1628 09b7 00       		.byte	0
 1629 09b8 03       		.uleb128 0x3
 1630 09b9 A0060000 		.4byte	.LASF137
 1631 09bd 13       		.byte	0x13
 1632 09be 61       		.byte	0x61
 1633 09bf 03       		.byte	0x3
 1634 09c0 97090000 		.4byte	0x997
 1635 09c4 03       		.uleb128 0x3
 1636 09c5 D9050000 		.4byte	.LASF138
 1637 09c9 13       		.byte	0x13
 1638 09ca 66       		.byte	0x66
 1639 09cb 1D       		.byte	0x1d
 1640 09cc D0090000 		.4byte	0x9d0
 1641 09d0 07       		.uleb128 0x7
 1642 09d1 D9050000 		.4byte	.LASF138
 1643 09d5 74       		.byte	0x74
 1644 09d6 13       		.byte	0x13
 1645 09d7 80       		.byte	0x80
 1646 09d8 08       		.byte	0x8
 1647 09d9 370A0000 		.4byte	0xa37
 1648 09dd 09       		.uleb128 0x9
 1649 09de 766D7400 		.ascii	"vmt\000"
 1650 09e2 13       		.byte	0x13
 1651 09e3 82       		.byte	0x82
 1652 09e4 21       		.byte	0x21
 1653 09e5 BE0A0000 		.4byte	0xabe
ARM GAS  /var/folders/l5/0x54b2c10074c8bt31ycjvl80000gp/T//ccfU30uO.s 			page 30


 1654 09e9 00       		.byte	0
 1655 09ea 08       		.uleb128 0x8
 1656 09eb 35030000 		.4byte	.LASF139
 1657 09ef 13       		.byte	0x13
 1658 09f0 83       		.byte	0x83
 1659 09f1 03       		.byte	0x3
 1660 09f2 F1040000 		.4byte	0x4f1
 1661 09f6 04       		.byte	0x4
 1662 09f7 08       		.uleb128 0x8
 1663 09f8 E0000000 		.4byte	.LASF116
 1664 09fc 13       		.byte	0x13
 1665 09fd 83       		.byte	0x83
 1666 09fe 03       		.byte	0x3
 1667 09ff B8090000 		.4byte	0x9b8
 1668 0a03 08       		.byte	0x8
 1669 0a04 08       		.uleb128 0x8
 1670 0a05 06030000 		.4byte	.LASF140
 1671 0a09 13       		.byte	0x13
 1672 0a0a 83       		.byte	0x83
 1673 0a0b 03       		.byte	0x3
 1674 0a0c FD050000 		.4byte	0x5fd
 1675 0a10 0C       		.byte	0xc
 1676 0a11 08       		.uleb128 0x8
 1677 0a12 66030000 		.4byte	.LASF141
 1678 0a16 13       		.byte	0x13
 1679 0a17 83       		.byte	0x83
 1680 0a18 03       		.byte	0x3
 1681 0a19 09060000 		.4byte	0x609
 1682 0a1d 30       		.byte	0x30
 1683 0a1e 09       		.uleb128 0x9
 1684 0a1f 696200   		.ascii	"ib\000"
 1685 0a22 13       		.byte	0x13
 1686 0a23 83       		.byte	0x83
 1687 0a24 03       		.byte	0x3
 1688 0a25 C40A0000 		.4byte	0xac4
 1689 0a29 54       		.byte	0x54
 1690 0a2a 09       		.uleb128 0x9
 1691 0a2b 6F6200   		.ascii	"ob\000"
 1692 0a2e 13       		.byte	0x13
 1693 0a2f 83       		.byte	0x83
 1694 0a30 03       		.byte	0x3
 1695 0a31 C40A0000 		.4byte	0xac4
 1696 0a35 64       		.byte	0x64
 1697 0a36 00       		.byte	0
 1698 0a37 1A       		.uleb128 0x1a
 1699 0a38 53443100 		.ascii	"SD1\000"
 1700 0a3c 15       		.byte	0x15
 1701 0a3d 62       		.byte	0x62
 1702 0a3e 15       		.byte	0x15
 1703 0a3f C4090000 		.4byte	0x9c4
 1704 0a43 07       		.uleb128 0x7
 1705 0a44 DC020000 		.4byte	.LASF142
 1706 0a48 20       		.byte	0x20
 1707 0a49 13       		.byte	0x13
 1708 0a4a 75       		.byte	0x75
 1709 0a4b 08       		.byte	0x8
 1710 0a4c B90A0000 		.4byte	0xab9
ARM GAS  /var/folders/l5/0x54b2c10074c8bt31ycjvl80000gp/T//ccfU30uO.s 			page 31


 1711 0a50 08       		.uleb128 0x8
 1712 0a51 C5030000 		.4byte	.LASF143
 1713 0a55 13       		.byte	0x13
 1714 0a56 76       		.byte	0x76
 1715 0a57 03       		.byte	0x3
 1716 0a58 34060000 		.4byte	0x634
 1717 0a5c 00       		.byte	0
 1718 0a5d 08       		.uleb128 0x8
 1719 0a5e F4050000 		.4byte	.LASF144
 1720 0a62 13       		.byte	0x13
 1721 0a63 76       		.byte	0x76
 1722 0a64 03       		.byte	0x3
 1723 0a65 53060000 		.4byte	0x653
 1724 0a69 04       		.byte	0x4
 1725 0a6a 09       		.uleb128 0x9
 1726 0a6b 70757400 		.ascii	"put\000"
 1727 0a6f 13       		.byte	0x13
 1728 0a70 76       		.byte	0x76
 1729 0a71 03       		.byte	0x3
 1730 0a72 6D060000 		.4byte	0x66d
 1731 0a76 08       		.byte	0x8
 1732 0a77 09       		.uleb128 0x9
 1733 0a78 67657400 		.ascii	"get\000"
 1734 0a7c 13       		.byte	0x13
 1735 0a7d 76       		.byte	0x76
 1736 0a7e 03       		.byte	0x3
 1737 0a7f 3D050000 		.4byte	0x53d
 1738 0a83 0C       		.byte	0xc
 1739 0a84 08       		.uleb128 0x8
 1740 0a85 D9030000 		.4byte	.LASF145
 1741 0a89 13       		.byte	0x13
 1742 0a8a 76       		.byte	0x76
 1743 0a8b 03       		.byte	0x3
 1744 0a8c 31070000 		.4byte	0x731
 1745 0a90 10       		.byte	0x10
 1746 0a91 08       		.uleb128 0x8
 1747 0a92 27030000 		.4byte	.LASF146
 1748 0a96 13       		.byte	0x13
 1749 0a97 76       		.byte	0x76
 1750 0a98 03       		.byte	0x3
 1751 0a99 4B070000 		.4byte	0x74b
 1752 0a9d 14       		.byte	0x14
 1753 0a9e 08       		.uleb128 0x8
 1754 0a9f 75030000 		.4byte	.LASF147
 1755 0aa3 13       		.byte	0x13
 1756 0aa4 76       		.byte	0x76
 1757 0aa5 03       		.byte	0x3
 1758 0aa6 6F070000 		.4byte	0x76f
 1759 0aaa 18       		.byte	0x18
 1760 0aab 08       		.uleb128 0x8
 1761 0aac 72000000 		.4byte	.LASF148
 1762 0ab0 13       		.byte	0x13
 1763 0ab1 76       		.byte	0x76
 1764 0ab2 03       		.byte	0x3
 1765 0ab3 93070000 		.4byte	0x793
 1766 0ab7 1C       		.byte	0x1c
 1767 0ab8 00       		.byte	0
ARM GAS  /var/folders/l5/0x54b2c10074c8bt31ycjvl80000gp/T//ccfU30uO.s 			page 32


 1768 0ab9 04       		.uleb128 0x4
 1769 0aba 430A0000 		.4byte	0xa43
 1770 0abe 0B       		.uleb128 0xb
 1771 0abf 04       		.byte	0x4
 1772 0ac0 B90A0000 		.4byte	0xab9
 1773 0ac4 13       		.uleb128 0x13
 1774 0ac5 99000000 		.4byte	0x99
 1775 0ac9 D40A0000 		.4byte	0xad4
 1776 0acd 14       		.uleb128 0x14
 1777 0ace 38000000 		.4byte	0x38
 1778 0ad2 0F       		.byte	0xf
 1779 0ad3 00       		.byte	0
 1780 0ad4 1B       		.uleb128 0x1b
 1781 0ad5 80050000 		.4byte	.LASF165
 1782 0ad9 01       		.byte	0x1
 1783 0ada A4       		.byte	0xa4
 1784 0adb 0A       		.byte	0xa
 1785 0adc C2000000 		.4byte	0xc2
 1786 0ae0 00000000 		.4byte	.LFB14
 1787 0ae4 18000000 		.4byte	.LFE14-.LFB14
 1788 0ae8 01       		.uleb128 0x1
 1789 0ae9 9C       		.byte	0x9c
 1790 0aea 1C       		.uleb128 0x1c
 1791 0aeb 0E040000 		.4byte	.LASF166
 1792 0aef 01       		.byte	0x1
 1793 0af0 9C       		.byte	0x9c
 1794 0af1 06       		.byte	0x6
 1795 0af2 00000000 		.4byte	.LFB13
 1796 0af6 18000000 		.4byte	.LFE13-.LFB13
 1797 0afa 01       		.uleb128 0x1
 1798 0afb 9C       		.byte	0x9c
 1799 0afc 1D       		.uleb128 0x1d
 1800 0afd CA050000 		.4byte	.LASF151
 1801 0b01 01       		.byte	0x1
 1802 0b02 8D       		.byte	0x8d
 1803 0b03 06       		.byte	0x6
 1804 0b04 00000000 		.4byte	.LFB12
 1805 0b08 34000000 		.4byte	.LFE12-.LFB12
 1806 0b0c 01       		.uleb128 0x1
 1807 0b0d 9C       		.byte	0x9c
 1808 0b0e 4F0B0000 		.4byte	0xb4f
 1809 0b12 1E       		.uleb128 0x1e
 1810 0b13 1F030000 		.4byte	.LASF154
 1811 0b17 01       		.byte	0x1
 1812 0b18 8D       		.byte	0x8d
 1813 0b19 20       		.byte	0x20
 1814 0b1a C2000000 		.4byte	0xc2
 1815 0b1e 04000000 		.4byte	.LLST2
 1816 0b22 00000000 		.4byte	.LVUS2
 1817 0b26 1F       		.uleb128 0x1f
 1818 0b27 54070000 		.4byte	.LASF149
 1819 0b2b 01       		.byte	0x1
 1820 0b2c 90       		.byte	0x90
 1821 0b2d 0E       		.byte	0xe
 1822 0b2e C2000000 		.4byte	0xc2
 1823 0b32 29000000 		.4byte	.LLST3
 1824 0b36 25000000 		.4byte	.LVUS3
ARM GAS  /var/folders/l5/0x54b2c10074c8bt31ycjvl80000gp/T//ccfU30uO.s 			page 33


 1825 0b3a 1F       		.uleb128 0x1f
 1826 0b3b D1030000 		.4byte	.LASF150
 1827 0b3f 01       		.byte	0x1
 1828 0b40 93       		.byte	0x93
 1829 0b41 0E       		.byte	0xe
 1830 0b42 C2000000 		.4byte	0xc2
 1831 0b46 49000000 		.4byte	.LLST4
 1832 0b4a 47000000 		.4byte	.LVUS4
 1833 0b4e 00       		.byte	0
 1834 0b4f 1D       		.uleb128 0x1d
 1835 0b50 4D060000 		.4byte	.LASF152
 1836 0b54 01       		.byte	0x1
 1837 0b55 86       		.byte	0x86
 1838 0b56 06       		.byte	0x6
 1839 0b57 00000000 		.4byte	.LFB11
 1840 0b5b 50000000 		.4byte	.LFE11-.LFB11
 1841 0b5f 01       		.uleb128 0x1
 1842 0b60 9C       		.byte	0x9c
 1843 0b61 770B0000 		.4byte	0xb77
 1844 0b65 20       		.uleb128 0x20
 1845 0b66 050C0000 		.4byte	0xc05
 1846 0b6a 00000000 		.4byte	.LBI10
 1847 0b6e 02       		.byte	.LVU37
 1848 0b6f 18000000 		.4byte	.Ldebug_ranges0+0x18
 1849 0b73 01       		.byte	0x1
 1850 0b74 87       		.byte	0x87
 1851 0b75 03       		.byte	0x3
 1852 0b76 00       		.byte	0
 1853 0b77 1D       		.uleb128 0x1d
 1854 0b78 3B070000 		.4byte	.LASF153
 1855 0b7c 01       		.byte	0x1
 1856 0b7d 7B       		.byte	0x7b
 1857 0b7e 06       		.byte	0x6
 1858 0b7f 00000000 		.4byte	.LFB10
 1859 0b83 24000000 		.4byte	.LFE10-.LFB10
 1860 0b87 01       		.uleb128 0x1
 1861 0b88 9C       		.byte	0x9c
 1862 0b89 B40B0000 		.4byte	0xbb4
 1863 0b8d 21       		.uleb128 0x21
 1864 0b8e 6E00     		.ascii	"n\000"
 1865 0b90 01       		.byte	0x1
 1866 0b91 7B       		.byte	0x7b
 1867 0b92 21       		.byte	0x21
 1868 0b93 C2000000 		.4byte	0xc2
 1869 0b97 60000000 		.4byte	.LLST0
 1870 0b9b 5C000000 		.4byte	.LVUS0
 1871 0b9f 1F       		.uleb128 0x1f
 1872 0ba0 25040000 		.4byte	.LASF155
 1873 0ba4 01       		.byte	0x1
 1874 0ba5 7D       		.byte	0x7d
 1875 0ba6 0C       		.byte	0xc
 1876 0ba7 C2000000 		.4byte	0xc2
 1877 0bab 83000000 		.4byte	.LLST1
 1878 0baf 81000000 		.4byte	.LVUS1
 1879 0bb3 00       		.byte	0
 1880 0bb4 1D       		.uleb128 0x1d
 1881 0bb5 C6010000 		.4byte	.LASF156
ARM GAS  /var/folders/l5/0x54b2c10074c8bt31ycjvl80000gp/T//ccfU30uO.s 			page 34


 1882 0bb9 01       		.byte	0x1
 1883 0bba 5A       		.byte	0x5a
 1884 0bbb 01       		.byte	0x1
 1885 0bbc 00000000 		.4byte	.LFB9
 1886 0bc0 34000000 		.4byte	.LFE9-.LFB9
 1887 0bc4 01       		.uleb128 0x1
 1888 0bc5 9C       		.byte	0x9c
 1889 0bc6 FC0B0000 		.4byte	0xbfc
 1890 0bca 22       		.uleb128 0x22
 1891 0bcb FC0B0000 		.4byte	0xbfc
 1892 0bcf 04000000 		.4byte	.LBI6
 1893 0bd3 04       		.byte	.LVU6
 1894 0bd4 00000000 		.4byte	.Ldebug_ranges0+0
 1895 0bd8 01       		.byte	0x1
 1896 0bd9 5E       		.byte	0x5e
 1897 0bda 03       		.byte	0x3
 1898 0bdb E90B0000 		.4byte	0xbe9
 1899 0bdf 23       		.uleb128 0x23
 1900 0be0 08000000 		.4byte	.LVL0
 1901 0be4 0E0C0000 		.4byte	0xc0e
 1902 0be8 00       		.byte	0
 1903 0be9 23       		.uleb128 0x23
 1904 0bea 1C000000 		.4byte	.LVL1
 1905 0bee 1A0C0000 		.4byte	0xc1a
 1906 0bf2 23       		.uleb128 0x23
 1907 0bf3 24000000 		.4byte	.LVL2
 1908 0bf7 260C0000 		.4byte	0xc26
 1909 0bfb 00       		.byte	0
 1910 0bfc 24       		.uleb128 0x24
 1911 0bfd 6A060000 		.4byte	.LASF157
 1912 0c01 01       		.byte	0x1
 1913 0c02 47       		.byte	0x47
 1914 0c03 0D       		.byte	0xd
 1915 0c04 01       		.byte	0x1
 1916 0c05 24       		.uleb128 0x24
 1917 0c06 A3000000 		.4byte	.LASF158
 1918 0c0a 01       		.byte	0x1
 1919 0c0b 35       		.byte	0x35
 1920 0c0c 0D       		.byte	0xd
 1921 0c0d 01       		.byte	0x1
 1922 0c0e 25       		.uleb128 0x25
 1923 0c0f F3020000 		.4byte	.LASF159
 1924 0c13 F3020000 		.4byte	.LASF159
 1925 0c17 14       		.byte	0x14
 1926 0c18 F0       		.byte	0xf0
 1927 0c19 08       		.byte	0x8
 1928 0c1a 25       		.uleb128 0x25
 1929 0c1b 0C070000 		.4byte	.LASF160
 1930 0c1f 0C070000 		.4byte	.LASF160
 1931 0c23 15       		.byte	0x15
 1932 0c24 6B       		.byte	0x6b
 1933 0c25 08       		.byte	0x8
 1934 0c26 25       		.uleb128 0x25
 1935 0c27 23070000 		.4byte	.LASF161
 1936 0c2b 23070000 		.4byte	.LASF161
 1937 0c2f 12       		.byte	0x12
 1938 0c30 B8       		.byte	0xb8
ARM GAS  /var/folders/l5/0x54b2c10074c8bt31ycjvl80000gp/T//ccfU30uO.s 			page 35


 1939 0c31 08       		.byte	0x8
 1940 0c32 00       		.byte	0
 1941              		.section	.debug_abbrev,"",%progbits
 1942              	.Ldebug_abbrev0:
 1943 0000 01       		.uleb128 0x1
 1944 0001 11       		.uleb128 0x11
 1945 0002 01       		.byte	0x1
 1946 0003 25       		.uleb128 0x25
 1947 0004 0E       		.uleb128 0xe
 1948 0005 13       		.uleb128 0x13
 1949 0006 0B       		.uleb128 0xb
 1950 0007 03       		.uleb128 0x3
 1951 0008 0E       		.uleb128 0xe
 1952 0009 1B       		.uleb128 0x1b
 1953 000a 0E       		.uleb128 0xe
 1954 000b 55       		.uleb128 0x55
 1955 000c 17       		.uleb128 0x17
 1956 000d 11       		.uleb128 0x11
 1957 000e 01       		.uleb128 0x1
 1958 000f 10       		.uleb128 0x10
 1959 0010 17       		.uleb128 0x17
 1960 0011 00       		.byte	0
 1961 0012 00       		.byte	0
 1962 0013 02       		.uleb128 0x2
 1963 0014 24       		.uleb128 0x24
 1964 0015 00       		.byte	0
 1965 0016 0B       		.uleb128 0xb
 1966 0017 0B       		.uleb128 0xb
 1967 0018 3E       		.uleb128 0x3e
 1968 0019 0B       		.uleb128 0xb
 1969 001a 03       		.uleb128 0x3
 1970 001b 0E       		.uleb128 0xe
 1971 001c 00       		.byte	0
 1972 001d 00       		.byte	0
 1973 001e 03       		.uleb128 0x3
 1974 001f 16       		.uleb128 0x16
 1975 0020 00       		.byte	0
 1976 0021 03       		.uleb128 0x3
 1977 0022 0E       		.uleb128 0xe
 1978 0023 3A       		.uleb128 0x3a
 1979 0024 0B       		.uleb128 0xb
 1980 0025 3B       		.uleb128 0x3b
 1981 0026 0B       		.uleb128 0xb
 1982 0027 39       		.uleb128 0x39
 1983 0028 0B       		.uleb128 0xb
 1984 0029 49       		.uleb128 0x49
 1985 002a 13       		.uleb128 0x13
 1986 002b 00       		.byte	0
 1987 002c 00       		.byte	0
 1988 002d 04       		.uleb128 0x4
 1989 002e 26       		.uleb128 0x26
 1990 002f 00       		.byte	0
 1991 0030 49       		.uleb128 0x49
 1992 0031 13       		.uleb128 0x13
 1993 0032 00       		.byte	0
 1994 0033 00       		.byte	0
 1995 0034 05       		.uleb128 0x5
ARM GAS  /var/folders/l5/0x54b2c10074c8bt31ycjvl80000gp/T//ccfU30uO.s 			page 36


 1996 0035 35       		.uleb128 0x35
 1997 0036 00       		.byte	0
 1998 0037 49       		.uleb128 0x49
 1999 0038 13       		.uleb128 0x13
 2000 0039 00       		.byte	0
 2001 003a 00       		.byte	0
 2002 003b 06       		.uleb128 0x6
 2003 003c 24       		.uleb128 0x24
 2004 003d 00       		.byte	0
 2005 003e 0B       		.uleb128 0xb
 2006 003f 0B       		.uleb128 0xb
 2007 0040 3E       		.uleb128 0x3e
 2008 0041 0B       		.uleb128 0xb
 2009 0042 03       		.uleb128 0x3
 2010 0043 08       		.uleb128 0x8
 2011 0044 00       		.byte	0
 2012 0045 00       		.byte	0
 2013 0046 07       		.uleb128 0x7
 2014 0047 13       		.uleb128 0x13
 2015 0048 01       		.byte	0x1
 2016 0049 03       		.uleb128 0x3
 2017 004a 0E       		.uleb128 0xe
 2018 004b 0B       		.uleb128 0xb
 2019 004c 0B       		.uleb128 0xb
 2020 004d 3A       		.uleb128 0x3a
 2021 004e 0B       		.uleb128 0xb
 2022 004f 3B       		.uleb128 0x3b
 2023 0050 0B       		.uleb128 0xb
 2024 0051 39       		.uleb128 0x39
 2025 0052 0B       		.uleb128 0xb
 2026 0053 01       		.uleb128 0x1
 2027 0054 13       		.uleb128 0x13
 2028 0055 00       		.byte	0
 2029 0056 00       		.byte	0
 2030 0057 08       		.uleb128 0x8
 2031 0058 0D       		.uleb128 0xd
 2032 0059 00       		.byte	0
 2033 005a 03       		.uleb128 0x3
 2034 005b 0E       		.uleb128 0xe
 2035 005c 3A       		.uleb128 0x3a
 2036 005d 0B       		.uleb128 0xb
 2037 005e 3B       		.uleb128 0x3b
 2038 005f 0B       		.uleb128 0xb
 2039 0060 39       		.uleb128 0x39
 2040 0061 0B       		.uleb128 0xb
 2041 0062 49       		.uleb128 0x49
 2042 0063 13       		.uleb128 0x13
 2043 0064 38       		.uleb128 0x38
 2044 0065 0B       		.uleb128 0xb
 2045 0066 00       		.byte	0
 2046 0067 00       		.byte	0
 2047 0068 09       		.uleb128 0x9
 2048 0069 0D       		.uleb128 0xd
 2049 006a 00       		.byte	0
 2050 006b 03       		.uleb128 0x3
 2051 006c 08       		.uleb128 0x8
 2052 006d 3A       		.uleb128 0x3a
ARM GAS  /var/folders/l5/0x54b2c10074c8bt31ycjvl80000gp/T//ccfU30uO.s 			page 37


 2053 006e 0B       		.uleb128 0xb
 2054 006f 3B       		.uleb128 0x3b
 2055 0070 0B       		.uleb128 0xb
 2056 0071 39       		.uleb128 0x39
 2057 0072 0B       		.uleb128 0xb
 2058 0073 49       		.uleb128 0x49
 2059 0074 13       		.uleb128 0x13
 2060 0075 38       		.uleb128 0x38
 2061 0076 0B       		.uleb128 0xb
 2062 0077 00       		.byte	0
 2063 0078 00       		.byte	0
 2064 0079 0A       		.uleb128 0xa
 2065 007a 13       		.uleb128 0x13
 2066 007b 01       		.byte	0x1
 2067 007c 0B       		.uleb128 0xb
 2068 007d 0B       		.uleb128 0xb
 2069 007e 3A       		.uleb128 0x3a
 2070 007f 0B       		.uleb128 0xb
 2071 0080 3B       		.uleb128 0x3b
 2072 0081 0B       		.uleb128 0xb
 2073 0082 39       		.uleb128 0x39
 2074 0083 0B       		.uleb128 0xb
 2075 0084 01       		.uleb128 0x1
 2076 0085 13       		.uleb128 0x13
 2077 0086 00       		.byte	0
 2078 0087 00       		.byte	0
 2079 0088 0B       		.uleb128 0xb
 2080 0089 0F       		.uleb128 0xf
 2081 008a 00       		.byte	0
 2082 008b 0B       		.uleb128 0xb
 2083 008c 0B       		.uleb128 0xb
 2084 008d 49       		.uleb128 0x49
 2085 008e 13       		.uleb128 0x13
 2086 008f 00       		.byte	0
 2087 0090 00       		.byte	0
 2088 0091 0C       		.uleb128 0xc
 2089 0092 0F       		.uleb128 0xf
 2090 0093 00       		.byte	0
 2091 0094 0B       		.uleb128 0xb
 2092 0095 0B       		.uleb128 0xb
 2093 0096 00       		.byte	0
 2094 0097 00       		.byte	0
 2095 0098 0D       		.uleb128 0xd
 2096 0099 15       		.uleb128 0x15
 2097 009a 01       		.byte	0x1
 2098 009b 27       		.uleb128 0x27
 2099 009c 19       		.uleb128 0x19
 2100 009d 01       		.uleb128 0x1
 2101 009e 13       		.uleb128 0x13
 2102 009f 00       		.byte	0
 2103 00a0 00       		.byte	0
 2104 00a1 0E       		.uleb128 0xe
 2105 00a2 05       		.uleb128 0x5
 2106 00a3 00       		.byte	0
 2107 00a4 49       		.uleb128 0x49
 2108 00a5 13       		.uleb128 0x13
 2109 00a6 00       		.byte	0
ARM GAS  /var/folders/l5/0x54b2c10074c8bt31ycjvl80000gp/T//ccfU30uO.s 			page 38


 2110 00a7 00       		.byte	0
 2111 00a8 0F       		.uleb128 0xf
 2112 00a9 34       		.uleb128 0x34
 2113 00aa 00       		.byte	0
 2114 00ab 03       		.uleb128 0x3
 2115 00ac 0E       		.uleb128 0xe
 2116 00ad 3A       		.uleb128 0x3a
 2117 00ae 0B       		.uleb128 0xb
 2118 00af 3B       		.uleb128 0x3b
 2119 00b0 0B       		.uleb128 0xb
 2120 00b1 39       		.uleb128 0x39
 2121 00b2 0B       		.uleb128 0xb
 2122 00b3 49       		.uleb128 0x49
 2123 00b4 13       		.uleb128 0x13
 2124 00b5 3F       		.uleb128 0x3f
 2125 00b6 19       		.uleb128 0x19
 2126 00b7 3C       		.uleb128 0x3c
 2127 00b8 19       		.uleb128 0x19
 2128 00b9 00       		.byte	0
 2129 00ba 00       		.byte	0
 2130 00bb 10       		.uleb128 0x10
 2131 00bc 17       		.uleb128 0x17
 2132 00bd 01       		.byte	0x1
 2133 00be 0B       		.uleb128 0xb
 2134 00bf 0B       		.uleb128 0xb
 2135 00c0 3A       		.uleb128 0x3a
 2136 00c1 0B       		.uleb128 0xb
 2137 00c2 3B       		.uleb128 0x3b
 2138 00c3 0B       		.uleb128 0xb
 2139 00c4 39       		.uleb128 0x39
 2140 00c5 0B       		.uleb128 0xb
 2141 00c6 01       		.uleb128 0x1
 2142 00c7 13       		.uleb128 0x13
 2143 00c8 00       		.byte	0
 2144 00c9 00       		.byte	0
 2145 00ca 11       		.uleb128 0x11
 2146 00cb 0D       		.uleb128 0xd
 2147 00cc 00       		.byte	0
 2148 00cd 03       		.uleb128 0x3
 2149 00ce 0E       		.uleb128 0xe
 2150 00cf 3A       		.uleb128 0x3a
 2151 00d0 0B       		.uleb128 0xb
 2152 00d1 3B       		.uleb128 0x3b
 2153 00d2 0B       		.uleb128 0xb
 2154 00d3 39       		.uleb128 0x39
 2155 00d4 0B       		.uleb128 0xb
 2156 00d5 49       		.uleb128 0x49
 2157 00d6 13       		.uleb128 0x13
 2158 00d7 00       		.byte	0
 2159 00d8 00       		.byte	0
 2160 00d9 12       		.uleb128 0x12
 2161 00da 15       		.uleb128 0x15
 2162 00db 01       		.byte	0x1
 2163 00dc 27       		.uleb128 0x27
 2164 00dd 19       		.uleb128 0x19
 2165 00de 49       		.uleb128 0x49
 2166 00df 13       		.uleb128 0x13
ARM GAS  /var/folders/l5/0x54b2c10074c8bt31ycjvl80000gp/T//ccfU30uO.s 			page 39


 2167 00e0 01       		.uleb128 0x1
 2168 00e1 13       		.uleb128 0x13
 2169 00e2 00       		.byte	0
 2170 00e3 00       		.byte	0
 2171 00e4 13       		.uleb128 0x13
 2172 00e5 01       		.uleb128 0x1
 2173 00e6 01       		.byte	0x1
 2174 00e7 49       		.uleb128 0x49
 2175 00e8 13       		.uleb128 0x13
 2176 00e9 01       		.uleb128 0x1
 2177 00ea 13       		.uleb128 0x13
 2178 00eb 00       		.byte	0
 2179 00ec 00       		.byte	0
 2180 00ed 14       		.uleb128 0x14
 2181 00ee 21       		.uleb128 0x21
 2182 00ef 00       		.byte	0
 2183 00f0 49       		.uleb128 0x49
 2184 00f1 13       		.uleb128 0x13
 2185 00f2 2F       		.uleb128 0x2f
 2186 00f3 0B       		.uleb128 0xb
 2187 00f4 00       		.byte	0
 2188 00f5 00       		.byte	0
 2189 00f6 15       		.uleb128 0x15
 2190 00f7 0D       		.uleb128 0xd
 2191 00f8 00       		.byte	0
 2192 00f9 03       		.uleb128 0x3
 2193 00fa 0E       		.uleb128 0xe
 2194 00fb 3A       		.uleb128 0x3a
 2195 00fc 0B       		.uleb128 0xb
 2196 00fd 3B       		.uleb128 0x3b
 2197 00fe 05       		.uleb128 0x5
 2198 00ff 39       		.uleb128 0x39
 2199 0100 0B       		.uleb128 0xb
 2200 0101 49       		.uleb128 0x49
 2201 0102 13       		.uleb128 0x13
 2202 0103 38       		.uleb128 0x38
 2203 0104 0B       		.uleb128 0xb
 2204 0105 00       		.byte	0
 2205 0106 00       		.byte	0
 2206 0107 16       		.uleb128 0x16
 2207 0108 16       		.uleb128 0x16
 2208 0109 00       		.byte	0
 2209 010a 03       		.uleb128 0x3
 2210 010b 0E       		.uleb128 0xe
 2211 010c 3A       		.uleb128 0x3a
 2212 010d 0B       		.uleb128 0xb
 2213 010e 3B       		.uleb128 0x3b
 2214 010f 05       		.uleb128 0x5
 2215 0110 39       		.uleb128 0x39
 2216 0111 0B       		.uleb128 0xb
 2217 0112 49       		.uleb128 0x49
 2218 0113 13       		.uleb128 0x13
 2219 0114 00       		.byte	0
 2220 0115 00       		.byte	0
 2221 0116 17       		.uleb128 0x17
 2222 0117 13       		.uleb128 0x13
 2223 0118 00       		.byte	0
ARM GAS  /var/folders/l5/0x54b2c10074c8bt31ycjvl80000gp/T//ccfU30uO.s 			page 40


 2224 0119 0B       		.uleb128 0xb
 2225 011a 0B       		.uleb128 0xb
 2226 011b 3A       		.uleb128 0x3a
 2227 011c 0B       		.uleb128 0xb
 2228 011d 3B       		.uleb128 0x3b
 2229 011e 0B       		.uleb128 0xb
 2230 011f 39       		.uleb128 0x39
 2231 0120 0B       		.uleb128 0xb
 2232 0121 00       		.byte	0
 2233 0122 00       		.byte	0
 2234 0123 18       		.uleb128 0x18
 2235 0124 04       		.uleb128 0x4
 2236 0125 01       		.byte	0x1
 2237 0126 3E       		.uleb128 0x3e
 2238 0127 0B       		.uleb128 0xb
 2239 0128 0B       		.uleb128 0xb
 2240 0129 0B       		.uleb128 0xb
 2241 012a 49       		.uleb128 0x49
 2242 012b 13       		.uleb128 0x13
 2243 012c 3A       		.uleb128 0x3a
 2244 012d 0B       		.uleb128 0xb
 2245 012e 3B       		.uleb128 0x3b
 2246 012f 0B       		.uleb128 0xb
 2247 0130 39       		.uleb128 0x39
 2248 0131 0B       		.uleb128 0xb
 2249 0132 01       		.uleb128 0x1
 2250 0133 13       		.uleb128 0x13
 2251 0134 00       		.byte	0
 2252 0135 00       		.byte	0
 2253 0136 19       		.uleb128 0x19
 2254 0137 28       		.uleb128 0x28
 2255 0138 00       		.byte	0
 2256 0139 03       		.uleb128 0x3
 2257 013a 0E       		.uleb128 0xe
 2258 013b 1C       		.uleb128 0x1c
 2259 013c 0B       		.uleb128 0xb
 2260 013d 00       		.byte	0
 2261 013e 00       		.byte	0
 2262 013f 1A       		.uleb128 0x1a
 2263 0140 34       		.uleb128 0x34
 2264 0141 00       		.byte	0
 2265 0142 03       		.uleb128 0x3
 2266 0143 08       		.uleb128 0x8
 2267 0144 3A       		.uleb128 0x3a
 2268 0145 0B       		.uleb128 0xb
 2269 0146 3B       		.uleb128 0x3b
 2270 0147 0B       		.uleb128 0xb
 2271 0148 39       		.uleb128 0x39
 2272 0149 0B       		.uleb128 0xb
 2273 014a 49       		.uleb128 0x49
 2274 014b 13       		.uleb128 0x13
 2275 014c 3F       		.uleb128 0x3f
 2276 014d 19       		.uleb128 0x19
 2277 014e 3C       		.uleb128 0x3c
 2278 014f 19       		.uleb128 0x19
 2279 0150 00       		.byte	0
 2280 0151 00       		.byte	0
ARM GAS  /var/folders/l5/0x54b2c10074c8bt31ycjvl80000gp/T//ccfU30uO.s 			page 41


 2281 0152 1B       		.uleb128 0x1b
 2282 0153 2E       		.uleb128 0x2e
 2283 0154 00       		.byte	0
 2284 0155 3F       		.uleb128 0x3f
 2285 0156 19       		.uleb128 0x19
 2286 0157 03       		.uleb128 0x3
 2287 0158 0E       		.uleb128 0xe
 2288 0159 3A       		.uleb128 0x3a
 2289 015a 0B       		.uleb128 0xb
 2290 015b 3B       		.uleb128 0x3b
 2291 015c 0B       		.uleb128 0xb
 2292 015d 39       		.uleb128 0x39
 2293 015e 0B       		.uleb128 0xb
 2294 015f 27       		.uleb128 0x27
 2295 0160 19       		.uleb128 0x19
 2296 0161 49       		.uleb128 0x49
 2297 0162 13       		.uleb128 0x13
 2298 0163 11       		.uleb128 0x11
 2299 0164 01       		.uleb128 0x1
 2300 0165 12       		.uleb128 0x12
 2301 0166 06       		.uleb128 0x6
 2302 0167 40       		.uleb128 0x40
 2303 0168 18       		.uleb128 0x18
 2304 0169 9742     		.uleb128 0x2117
 2305 016b 19       		.uleb128 0x19
 2306 016c 00       		.byte	0
 2307 016d 00       		.byte	0
 2308 016e 1C       		.uleb128 0x1c
 2309 016f 2E       		.uleb128 0x2e
 2310 0170 00       		.byte	0
 2311 0171 3F       		.uleb128 0x3f
 2312 0172 19       		.uleb128 0x19
 2313 0173 03       		.uleb128 0x3
 2314 0174 0E       		.uleb128 0xe
 2315 0175 3A       		.uleb128 0x3a
 2316 0176 0B       		.uleb128 0xb
 2317 0177 3B       		.uleb128 0x3b
 2318 0178 0B       		.uleb128 0xb
 2319 0179 39       		.uleb128 0x39
 2320 017a 0B       		.uleb128 0xb
 2321 017b 27       		.uleb128 0x27
 2322 017c 19       		.uleb128 0x19
 2323 017d 11       		.uleb128 0x11
 2324 017e 01       		.uleb128 0x1
 2325 017f 12       		.uleb128 0x12
 2326 0180 06       		.uleb128 0x6
 2327 0181 40       		.uleb128 0x40
 2328 0182 18       		.uleb128 0x18
 2329 0183 9742     		.uleb128 0x2117
 2330 0185 19       		.uleb128 0x19
 2331 0186 00       		.byte	0
 2332 0187 00       		.byte	0
 2333 0188 1D       		.uleb128 0x1d
 2334 0189 2E       		.uleb128 0x2e
 2335 018a 01       		.byte	0x1
 2336 018b 3F       		.uleb128 0x3f
 2337 018c 19       		.uleb128 0x19
ARM GAS  /var/folders/l5/0x54b2c10074c8bt31ycjvl80000gp/T//ccfU30uO.s 			page 42


 2338 018d 03       		.uleb128 0x3
 2339 018e 0E       		.uleb128 0xe
 2340 018f 3A       		.uleb128 0x3a
 2341 0190 0B       		.uleb128 0xb
 2342 0191 3B       		.uleb128 0x3b
 2343 0192 0B       		.uleb128 0xb
 2344 0193 39       		.uleb128 0x39
 2345 0194 0B       		.uleb128 0xb
 2346 0195 27       		.uleb128 0x27
 2347 0196 19       		.uleb128 0x19
 2348 0197 11       		.uleb128 0x11
 2349 0198 01       		.uleb128 0x1
 2350 0199 12       		.uleb128 0x12
 2351 019a 06       		.uleb128 0x6
 2352 019b 40       		.uleb128 0x40
 2353 019c 18       		.uleb128 0x18
 2354 019d 9742     		.uleb128 0x2117
 2355 019f 19       		.uleb128 0x19
 2356 01a0 01       		.uleb128 0x1
 2357 01a1 13       		.uleb128 0x13
 2358 01a2 00       		.byte	0
 2359 01a3 00       		.byte	0
 2360 01a4 1E       		.uleb128 0x1e
 2361 01a5 05       		.uleb128 0x5
 2362 01a6 00       		.byte	0
 2363 01a7 03       		.uleb128 0x3
 2364 01a8 0E       		.uleb128 0xe
 2365 01a9 3A       		.uleb128 0x3a
 2366 01aa 0B       		.uleb128 0xb
 2367 01ab 3B       		.uleb128 0x3b
 2368 01ac 0B       		.uleb128 0xb
 2369 01ad 39       		.uleb128 0x39
 2370 01ae 0B       		.uleb128 0xb
 2371 01af 49       		.uleb128 0x49
 2372 01b0 13       		.uleb128 0x13
 2373 01b1 02       		.uleb128 0x2
 2374 01b2 17       		.uleb128 0x17
 2375 01b3 B742     		.uleb128 0x2137
 2376 01b5 17       		.uleb128 0x17
 2377 01b6 00       		.byte	0
 2378 01b7 00       		.byte	0
 2379 01b8 1F       		.uleb128 0x1f
 2380 01b9 34       		.uleb128 0x34
 2381 01ba 00       		.byte	0
 2382 01bb 03       		.uleb128 0x3
 2383 01bc 0E       		.uleb128 0xe
 2384 01bd 3A       		.uleb128 0x3a
 2385 01be 0B       		.uleb128 0xb
 2386 01bf 3B       		.uleb128 0x3b
 2387 01c0 0B       		.uleb128 0xb
 2388 01c1 39       		.uleb128 0x39
 2389 01c2 0B       		.uleb128 0xb
 2390 01c3 49       		.uleb128 0x49
 2391 01c4 13       		.uleb128 0x13
 2392 01c5 02       		.uleb128 0x2
 2393 01c6 17       		.uleb128 0x17
 2394 01c7 B742     		.uleb128 0x2137
ARM GAS  /var/folders/l5/0x54b2c10074c8bt31ycjvl80000gp/T//ccfU30uO.s 			page 43


 2395 01c9 17       		.uleb128 0x17
 2396 01ca 00       		.byte	0
 2397 01cb 00       		.byte	0
 2398 01cc 20       		.uleb128 0x20
 2399 01cd 1D       		.uleb128 0x1d
 2400 01ce 00       		.byte	0
 2401 01cf 31       		.uleb128 0x31
 2402 01d0 13       		.uleb128 0x13
 2403 01d1 52       		.uleb128 0x52
 2404 01d2 01       		.uleb128 0x1
 2405 01d3 B842     		.uleb128 0x2138
 2406 01d5 0B       		.uleb128 0xb
 2407 01d6 55       		.uleb128 0x55
 2408 01d7 17       		.uleb128 0x17
 2409 01d8 58       		.uleb128 0x58
 2410 01d9 0B       		.uleb128 0xb
 2411 01da 59       		.uleb128 0x59
 2412 01db 0B       		.uleb128 0xb
 2413 01dc 57       		.uleb128 0x57
 2414 01dd 0B       		.uleb128 0xb
 2415 01de 00       		.byte	0
 2416 01df 00       		.byte	0
 2417 01e0 21       		.uleb128 0x21
 2418 01e1 05       		.uleb128 0x5
 2419 01e2 00       		.byte	0
 2420 01e3 03       		.uleb128 0x3
 2421 01e4 08       		.uleb128 0x8
 2422 01e5 3A       		.uleb128 0x3a
 2423 01e6 0B       		.uleb128 0xb
 2424 01e7 3B       		.uleb128 0x3b
 2425 01e8 0B       		.uleb128 0xb
 2426 01e9 39       		.uleb128 0x39
 2427 01ea 0B       		.uleb128 0xb
 2428 01eb 49       		.uleb128 0x49
 2429 01ec 13       		.uleb128 0x13
 2430 01ed 02       		.uleb128 0x2
 2431 01ee 17       		.uleb128 0x17
 2432 01ef B742     		.uleb128 0x2137
 2433 01f1 17       		.uleb128 0x17
 2434 01f2 00       		.byte	0
 2435 01f3 00       		.byte	0
 2436 01f4 22       		.uleb128 0x22
 2437 01f5 1D       		.uleb128 0x1d
 2438 01f6 01       		.byte	0x1
 2439 01f7 31       		.uleb128 0x31
 2440 01f8 13       		.uleb128 0x13
 2441 01f9 52       		.uleb128 0x52
 2442 01fa 01       		.uleb128 0x1
 2443 01fb B842     		.uleb128 0x2138
 2444 01fd 0B       		.uleb128 0xb
 2445 01fe 55       		.uleb128 0x55
 2446 01ff 17       		.uleb128 0x17
 2447 0200 58       		.uleb128 0x58
 2448 0201 0B       		.uleb128 0xb
 2449 0202 59       		.uleb128 0x59
 2450 0203 0B       		.uleb128 0xb
 2451 0204 57       		.uleb128 0x57
ARM GAS  /var/folders/l5/0x54b2c10074c8bt31ycjvl80000gp/T//ccfU30uO.s 			page 44


 2452 0205 0B       		.uleb128 0xb
 2453 0206 01       		.uleb128 0x1
 2454 0207 13       		.uleb128 0x13
 2455 0208 00       		.byte	0
 2456 0209 00       		.byte	0
 2457 020a 23       		.uleb128 0x23
 2458 020b 898201   		.uleb128 0x4109
 2459 020e 00       		.byte	0
 2460 020f 11       		.uleb128 0x11
 2461 0210 01       		.uleb128 0x1
 2462 0211 31       		.uleb128 0x31
 2463 0212 13       		.uleb128 0x13
 2464 0213 00       		.byte	0
 2465 0214 00       		.byte	0
 2466 0215 24       		.uleb128 0x24
 2467 0216 2E       		.uleb128 0x2e
 2468 0217 00       		.byte	0
 2469 0218 03       		.uleb128 0x3
 2470 0219 0E       		.uleb128 0xe
 2471 021a 3A       		.uleb128 0x3a
 2472 021b 0B       		.uleb128 0xb
 2473 021c 3B       		.uleb128 0x3b
 2474 021d 0B       		.uleb128 0xb
 2475 021e 39       		.uleb128 0x39
 2476 021f 0B       		.uleb128 0xb
 2477 0220 27       		.uleb128 0x27
 2478 0221 19       		.uleb128 0x19
 2479 0222 20       		.uleb128 0x20
 2480 0223 0B       		.uleb128 0xb
 2481 0224 00       		.byte	0
 2482 0225 00       		.byte	0
 2483 0226 25       		.uleb128 0x25
 2484 0227 2E       		.uleb128 0x2e
 2485 0228 00       		.byte	0
 2486 0229 3F       		.uleb128 0x3f
 2487 022a 19       		.uleb128 0x19
 2488 022b 3C       		.uleb128 0x3c
 2489 022c 19       		.uleb128 0x19
 2490 022d 6E       		.uleb128 0x6e
 2491 022e 0E       		.uleb128 0xe
 2492 022f 03       		.uleb128 0x3
 2493 0230 0E       		.uleb128 0xe
 2494 0231 3A       		.uleb128 0x3a
 2495 0232 0B       		.uleb128 0xb
 2496 0233 3B       		.uleb128 0x3b
 2497 0234 0B       		.uleb128 0xb
 2498 0235 39       		.uleb128 0x39
 2499 0236 0B       		.uleb128 0xb
 2500 0237 00       		.byte	0
 2501 0238 00       		.byte	0
 2502 0239 00       		.byte	0
 2503              		.section	.debug_loc,"",%progbits
 2504              	.Ldebug_loc0:
 2505              	.LVUS2:
 2506 0000 00       		.uleb128 0
 2507 0001 00       		.uleb128 .LVU64
 2508 0002 00       		.uleb128 .LVU64
ARM GAS  /var/folders/l5/0x54b2c10074c8bt31ycjvl80000gp/T//ccfU30uO.s 			page 45


 2509 0003 00       		.uleb128 0
 2510              	.LLST2:
 2511 0004 00000000 		.4byte	.LVL5
 2512 0008 08000000 		.4byte	.LVL6
 2513 000c 0100     		.2byte	0x1
 2514 000e 50       		.byte	0x50
 2515 000f 08000000 		.4byte	.LVL6
 2516 0013 34000000 		.4byte	.LFE12
 2517 0017 0400     		.2byte	0x4
 2518 0019 F3       		.byte	0xf3
 2519 001a 01       		.uleb128 0x1
 2520 001b 50       		.byte	0x50
 2521 001c 9F       		.byte	0x9f
 2522 001d 00000000 		.4byte	0
 2523 0021 00000000 		.4byte	0
 2524              	.LVUS3:
 2525 0025 00       		.uleb128 .LVU65
 2526 0026 00       		.uleb128 .LVU68
 2527 0027 00       		.uleb128 .LVU73
 2528 0028 00       		.uleb128 0
 2529              	.LLST3:
 2530 0029 0C000000 		.4byte	.LVL7
 2531 002d 14000000 		.4byte	.LVL8
 2532 0031 0100     		.2byte	0x1
 2533 0033 53       		.byte	0x53
 2534 0034 24000000 		.4byte	.LVL10
 2535 0038 34000000 		.4byte	.LFE12
 2536 003c 0100     		.2byte	0x1
 2537 003e 53       		.byte	0x53
 2538 003f 00000000 		.4byte	0
 2539 0043 00000000 		.4byte	0
 2540              	.LVUS4:
 2541 0047 00       		.uleb128 .LVU71
 2542 0048 00       		.uleb128 0
 2543              	.LLST4:
 2544 0049 20000000 		.4byte	.LVL9
 2545 004d 34000000 		.4byte	.LFE12
 2546 0051 0100     		.2byte	0x1
 2547 0053 50       		.byte	0x50
 2548 0054 00000000 		.4byte	0
 2549 0058 00000000 		.4byte	0
 2550              	.LVUS0:
 2551 005c 00       		.uleb128 0
 2552 005d 00       		.uleb128 .LVU31
 2553 005e 00       		.uleb128 .LVU31
 2554 005f 00       		.uleb128 0
 2555              	.LLST0:
 2556 0060 00000000 		.4byte	.LVL3
 2557 0064 10000000 		.4byte	.LVL4
 2558 0068 0100     		.2byte	0x1
 2559 006a 50       		.byte	0x50
 2560 006b 10000000 		.4byte	.LVL4
 2561 006f 24000000 		.4byte	.LFE10
 2562 0073 0400     		.2byte	0x4
 2563 0075 F3       		.byte	0xf3
 2564 0076 01       		.uleb128 0x1
 2565 0077 50       		.byte	0x50
ARM GAS  /var/folders/l5/0x54b2c10074c8bt31ycjvl80000gp/T//ccfU30uO.s 			page 46


 2566 0078 9F       		.byte	0x9f
 2567 0079 00000000 		.4byte	0
 2568 007d 00000000 		.4byte	0
 2569              	.LVUS1:
 2570 0081 00       		.uleb128 .LVU31
 2571 0082 00       		.uleb128 0
 2572              	.LLST1:
 2573 0083 10000000 		.4byte	.LVL4
 2574 0087 24000000 		.4byte	.LFE10
 2575 008b 0100     		.2byte	0x1
 2576 008d 50       		.byte	0x50
 2577 008e 00000000 		.4byte	0
 2578 0092 00000000 		.4byte	0
 2579              		.section	.debug_aranges,"",%progbits
 2580 0000 44000000 		.4byte	0x44
 2581 0004 0200     		.2byte	0x2
 2582 0006 00000000 		.4byte	.Ldebug_info0
 2583 000a 04       		.byte	0x4
 2584 000b 00       		.byte	0
 2585 000c 0000     		.2byte	0
 2586 000e 0000     		.2byte	0
 2587 0010 00000000 		.4byte	.LFB9
 2588 0014 34000000 		.4byte	.LFE9-.LFB9
 2589 0018 00000000 		.4byte	.LFB10
 2590 001c 24000000 		.4byte	.LFE10-.LFB10
 2591 0020 00000000 		.4byte	.LFB11
 2592 0024 50000000 		.4byte	.LFE11-.LFB11
 2593 0028 00000000 		.4byte	.LFB12
 2594 002c 34000000 		.4byte	.LFE12-.LFB12
 2595 0030 00000000 		.4byte	.LFB13
 2596 0034 18000000 		.4byte	.LFE13-.LFB13
 2597 0038 00000000 		.4byte	.LFB14
 2598 003c 18000000 		.4byte	.LFE14-.LFB14
 2599 0040 00000000 		.4byte	0
 2600 0044 00000000 		.4byte	0
 2601              		.section	.debug_ranges,"",%progbits
 2602              	.Ldebug_ranges0:
 2603 0000 04000000 		.4byte	.LBB6
 2604 0004 10000000 		.4byte	.LBE6
 2605 0008 14000000 		.4byte	.LBB9
 2606 000c 18000000 		.4byte	.LBE9
 2607 0010 00000000 		.4byte	0
 2608 0014 00000000 		.4byte	0
 2609 0018 00000000 		.4byte	.LBB10
 2610 001c 00000000 		.4byte	.LBE10
 2611 0020 04000000 		.4byte	.LBB13
 2612 0024 40000000 		.4byte	.LBE13
 2613 0028 00000000 		.4byte	0
 2614 002c 00000000 		.4byte	0
 2615 0030 00000000 		.4byte	.LFB9
 2616 0034 34000000 		.4byte	.LFE9
 2617 0038 00000000 		.4byte	.LFB10
 2618 003c 24000000 		.4byte	.LFE10
 2619 0040 00000000 		.4byte	.LFB11
 2620 0044 50000000 		.4byte	.LFE11
 2621 0048 00000000 		.4byte	.LFB12
 2622 004c 34000000 		.4byte	.LFE12
ARM GAS  /var/folders/l5/0x54b2c10074c8bt31ycjvl80000gp/T//ccfU30uO.s 			page 47


 2623 0050 00000000 		.4byte	.LFB13
 2624 0054 18000000 		.4byte	.LFE13
 2625 0058 00000000 		.4byte	.LFB14
 2626 005c 18000000 		.4byte	.LFE14
 2627 0060 00000000 		.4byte	0
 2628 0064 00000000 		.4byte	0
 2629              		.section	.debug_line,"",%progbits
 2630              	.Ldebug_line0:
 2631 0000 F8030000 		.section	.debug_str,"MS",%progbits,1
 2631      03007602 
 2631      00000201 
 2631      FB0E0D00 
 2631      01010101 
 2632              	.LASF3:
 2633 0000 73697A65 		.ascii	"size_t\000"
 2633      5F7400
 2634              	.LASF71:
 2635 0007 7264796D 		.ascii	"rdymsg\000"
 2635      736700
 2636              	.LASF86:
 2637 000e 4F757470 		.ascii	"OutputQueue\000"
 2637      75745175 
 2637      65756500 
 2638              	.LASF4:
 2639 001a 5F5F7569 		.ascii	"__uint8_t\000"
 2639      6E74385F 
 2639      7400
 2640              	.LASF58:
 2641 0024 76746C69 		.ascii	"vtlist\000"
 2641      737400
 2642              	.LASF88:
 2643 002b 62736364 		.ascii	"bscdevice_t\000"
 2643      65766963 
 2643      655F7400 
 2644              	.LASF126:
 2645 0037 72786275 		.ascii	"rxbuf\000"
 2645      6600
 2646              	.LASF12:
 2647 003d 6C6F6E67 		.ascii	"long long unsigned int\000"
 2647      206C6F6E 
 2647      6720756E 
 2647      7369676E 
 2647      65642069 
 2648              	.LASF122:
 2649 0054 61646472 		.ascii	"addr\000"
 2649      00
 2650              	.LASF72:
 2651 0059 65786974 		.ascii	"exitcode\000"
 2651      636F6465 
 2651      00
 2652              	.LASF93:
 2653 0062 64617461 		.ascii	"dataFifo\000"
 2653      4669666F 
 2653      00
 2654              	.LASF29:
 2655 006b 705F7072 		.ascii	"p_prio\000"
 2655      696F00
ARM GAS  /var/folders/l5/0x54b2c10074c8bt31ycjvl80000gp/T//ccfU30uO.s 			page 48


 2656              	.LASF148:
 2657 0072 72656164 		.ascii	"readt\000"
 2657      7400
 2658              	.LASF119:
 2659 0078 64657669 		.ascii	"device\000"
 2659      636500
 2660              	.LASF76:
 2661 007f 715F7761 		.ascii	"q_waiting\000"
 2661      6974696E 
 2661      6700
 2662              	.LASF11:
 2663 0089 6C6F6E67 		.ascii	"long long int\000"
 2663      206C6F6E 
 2663      6720696E 
 2663      7400
 2664              	.LASF2:
 2665 0097 7369676E 		.ascii	"signed char\000"
 2665      65642063 
 2665      68617200 
 2666              	.LASF158:
 2667 00a3 73797374 		.ascii	"systimer_init\000"
 2667      696D6572 
 2667      5F696E69 
 2667      7400
 2668              	.LASF135:
 2669 00b1 53445F53 		.ascii	"SD_STOP\000"
 2669      544F5000 
 2670              	.LASF61:
 2671 00b9 6D5F7175 		.ascii	"m_queue\000"
 2671      65756500 
 2672              	.LASF20:
 2673 00c1 74736C69 		.ascii	"tslices_t\000"
 2673      6365735F 
 2673      7400
 2674              	.LASF108:
 2675 00cb 4932435F 		.ascii	"I2C_UNINIT\000"
 2675      554E494E 
 2675      495400
 2676              	.LASF130:
 2677 00d6 69326361 		.ascii	"i2caddr_t\000"
 2677      6464725F 
 2677      7400
 2678              	.LASF116:
 2679 00e0 73746174 		.ascii	"state\000"
 2679      6500
 2680              	.LASF0:
 2681 00e6 6C6F6E67 		.ascii	"long int\000"
 2681      20696E74 
 2681      00
 2682              	.LASF19:
 2683 00ef 74737461 		.ascii	"tstate_t\000"
 2683      74655F74 
 2683      00
 2684              	.LASF164:
 2685 00f8 2F557365 		.ascii	"/Users/fernandoguirado/eclipse-workspace/ChibiOS-RP"
 2685      72732F66 
 2685      65726E61 
ARM GAS  /var/folders/l5/0x54b2c10074c8bt31ycjvl80000gp/T//ccfU30uO.s 			page 49


 2685      6E646F67 
 2685      75697261 
 2686 012b 692D6D61 		.ascii	"i-master/testhal/BCM2835/GPIO\000"
 2686      73746572 
 2686      2F746573 
 2686      7468616C 
 2686      2F42434D 
 2687              	.LASF121:
 2688 0149 74687265 		.ascii	"thread\000"
 2688      616400
 2689              	.LASF95:
 2690 0150 64617461 		.ascii	"dataDelay\000"
 2690      44656C61 
 2690      7900
 2691              	.LASF78:
 2692 015a 715F6275 		.ascii	"q_buffer\000"
 2692      66666572 
 2692      00
 2693              	.LASF14:
 2694 0163 75696E74 		.ascii	"uint16_t\000"
 2694      31365F74 
 2694      00
 2695              	.LASF111:
 2696 016c 4932435F 		.ascii	"I2C_ACTIVE_TX\000"
 2696      41435449 
 2696      56455F54 
 2696      5800
 2697              	.LASF91:
 2698 017a 64617461 		.ascii	"dataLength\000"
 2698      4C656E67 
 2698      746800
 2699              	.LASF87:
 2700 0185 5F69646C 		.ascii	"_idle_thread_wa\000"
 2700      655F7468 
 2700      72656164 
 2700      5F776100 
 2701              	.LASF89:
 2702 0195 636F6E74 		.ascii	"control\000"
 2702      726F6C00 
 2703              	.LASF10:
 2704 019d 5F5F7569 		.ascii	"__uint32_t\000"
 2704      6E743332 
 2704      5F7400
 2705              	.LASF41:
 2706 01a8 72656761 		.ascii	"regarm_t\000"
 2706      726D5F74 
 2706      00
 2707              	.LASF47:
 2708 01b1 76745F70 		.ascii	"vt_prev\000"
 2708      72657600 
 2709              	.LASF92:
 2710 01b9 736C6176 		.ascii	"slaveAddress\000"
 2710      65416464 
 2710      72657373 
 2710      00
 2711              	.LASF156:
 2712 01c6 49727148 		.ascii	"IrqHandler\000"
ARM GAS  /var/folders/l5/0x54b2c10074c8bt31ycjvl80000gp/T//ccfU30uO.s 			page 50


 2712      616E646C 
 2712      657200
 2713              	.LASF162:
 2714 01d1 474E5520 		.ascii	"GNU C17 8.3.1 20190703 (release) [gcc-8-branch revi"
 2714      43313720 
 2714      382E332E 
 2714      31203230 
 2714      31393037 
 2715 0204 73696F6E 		.ascii	"sion 273027] -mcpu=arm1176jz-s -mabi=apcs-gnu -mno-"
 2715      20323733 
 2715      3032375D 
 2715      202D6D63 
 2715      70753D61 
 2716 0237 7468756D 		.ascii	"thumb-interwork -mfloat-abi=soft -marm -march=armv6"
 2716      622D696E 
 2716      74657277 
 2716      6F726B20 
 2716      2D6D666C 
 2717 026a 6B7A202D 		.ascii	"kz -ggdb -O2 -fomit-frame-pointer -ffunction-sectio"
 2717      67676462 
 2717      202D4F32 
 2717      202D666F 
 2717      6D69742D 
 2718 029d 6E73202D 		.ascii	"ns -fdata-sections\000"
 2718      66646174 
 2718      612D7365 
 2718      6374696F 
 2718      6E7300
 2719              	.LASF133:
 2720 02b0 49324330 		.ascii	"I2C0\000"
 2720      00
 2721              	.LASF69:
 2722 02b5 4576656E 		.ascii	"EventSource\000"
 2722      74536F75 
 2722      72636500 
 2723              	.LASF17:
 2724 02c1 756E7369 		.ascii	"unsigned int\000"
 2724      676E6564 
 2724      20696E74 
 2724      00
 2725              	.LASF46:
 2726 02ce 76745F6E 		.ascii	"vt_next\000"
 2726      65787400 
 2727              	.LASF123:
 2728 02d6 74786275 		.ascii	"txbuf\000"
 2728      6600
 2729              	.LASF142:
 2730 02dc 53657269 		.ascii	"SerialDriverVMT\000"
 2730      616C4472 
 2730      69766572 
 2730      564D5400 
 2731              	.LASF118:
 2732 02ec 6572726F 		.ascii	"errors\000"
 2732      727300
 2733              	.LASF159:
 2734 02f3 63685379 		.ascii	"chSysTimerHandlerI\000"
 2734      7354696D 
ARM GAS  /var/folders/l5/0x54b2c10074c8bt31ycjvl80000gp/T//ccfU30uO.s 			page 51


 2734      65724861 
 2734      6E646C65 
 2734      724900
 2735              	.LASF140:
 2736 0306 69717565 		.ascii	"iqueue\000"
 2736      756500
 2737              	.LASF1:
 2738 030d 6C6F6E67 		.ascii	"long unsigned int\000"
 2738      20756E73 
 2738      69676E65 
 2738      6420696E 
 2738      7400
 2739              	.LASF154:
 2740 031f 74696D65 		.ascii	"timeout\000"
 2740      6F757400 
 2741              	.LASF146:
 2742 0327 67657474 		.ascii	"gett\000"
 2742      00
 2743              	.LASF44:
 2744 032c 76746675 		.ascii	"vtfunc_t\000"
 2744      6E635F74 
 2744      00
 2745              	.LASF139:
 2746 0335 6576656E 		.ascii	"event\000"
 2746      7400
 2747              	.LASF8:
 2748 033b 73686F72 		.ascii	"short unsigned int\000"
 2748      7420756E 
 2748      7369676E 
 2748      65642069 
 2748      6E7400
 2749              	.LASF103:
 2750 034e 6770696F 		.ascii	"gpio_port_t\000"
 2750      5F706F72 
 2750      745F7400 
 2751              	.LASF99:
 2752 035a 6770636C 		.ascii	"gpclr\000"
 2752      7200
 2753              	.LASF22:
 2754 0360 6D73675F 		.ascii	"msg_t\000"
 2754      7400
 2755              	.LASF141:
 2756 0366 6F717565 		.ascii	"oqueue\000"
 2756      756500
 2757              	.LASF65:
 2758 036d 656C5F6E 		.ascii	"el_next\000"
 2758      65787400 
 2759              	.LASF147:
 2760 0375 77726974 		.ascii	"writet\000"
 2760      657400
 2761              	.LASF18:
 2762 037c 746D6F64 		.ascii	"tmode_t\000"
 2762      655F7400 
 2763              	.LASF39:
 2764 0384 54687265 		.ascii	"ThreadsList\000"
 2764      6164734C 
 2764      69737400 
ARM GAS  /var/folders/l5/0x54b2c10074c8bt31ycjvl80000gp/T//ccfU30uO.s 			page 52


 2765              	.LASF23:
 2766 0390 6576656E 		.ascii	"eventmask_t\000"
 2766      746D6173 
 2766      6B5F7400 
 2767              	.LASF85:
 2768 039c 496E7075 		.ascii	"InputQueue\000"
 2768      74517565 
 2768      756500
 2769              	.LASF60:
 2770 03a7 4D757465 		.ascii	"Mutex\000"
 2770      7800
 2771              	.LASF75:
 2772 03ad 47656E65 		.ascii	"GenericQueue\000"
 2772      72696351 
 2772      75657565 
 2772      00
 2773              	.LASF40:
 2774 03ba 73746B61 		.ascii	"stkalign_t\000"
 2774      6C69676E 
 2774      5F7400
 2775              	.LASF143:
 2776 03c5 77726974 		.ascii	"write\000"
 2776      6500
 2777              	.LASF100:
 2778 03cb 67706C65 		.ascii	"gplev\000"
 2778      7600
 2779              	.LASF150:
 2780 03d1 706D5F77 		.ascii	"pm_wdog\000"
 2780      646F6700 
 2781              	.LASF145:
 2782 03d9 70757474 		.ascii	"putt\000"
 2782      00
 2783              	.LASF48:
 2784 03de 76745F74 		.ascii	"vt_time\000"
 2784      696D6500 
 2785              	.LASF109:
 2786 03e6 4932435F 		.ascii	"I2C_STOP\000"
 2786      53544F50 
 2786      00
 2787              	.LASF94:
 2788 03ef 636C6F63 		.ascii	"clockDivider\000"
 2788      6B446976 
 2788      69646572 
 2788      00
 2789              	.LASF77:
 2790 03fc 715F636F 		.ascii	"q_counter\000"
 2790      756E7465 
 2790      7200
 2791              	.LASF49:
 2792 0406 76745F66 		.ascii	"vt_func\000"
 2792      756E6300 
 2793              	.LASF166:
 2794 040e 77617463 		.ascii	"watchdog_stop\000"
 2794      68646F67 
 2794      5F73746F 
 2794      7000
 2795              	.LASF131:
ARM GAS  /var/folders/l5/0x54b2c10074c8bt31ycjvl80000gp/T//ccfU30uO.s 			page 53


 2796 041c 69635F73 		.ascii	"ic_speed\000"
 2796      70656564 
 2796      00
 2797              	.LASF155:
 2798 0425 636F6D70 		.ascii	"compare\000"
 2798      61726500 
 2799              	.LASF52:
 2800 042d 56544C69 		.ascii	"VTList\000"
 2800      737400
 2801              	.LASF127:
 2802 0434 72786279 		.ascii	"rxbytes\000"
 2802      74657300 
 2803              	.LASF80:
 2804 043c 715F7772 		.ascii	"q_wrptr\000"
 2804      70747200 
 2805              	.LASF55:
 2806 0444 725F6374 		.ascii	"r_ctx\000"
 2806      7800
 2807              	.LASF38:
 2808 044a 54687265 		.ascii	"ThreadsQueue\000"
 2808      61647351 
 2808      75657565 
 2808      00
 2809              	.LASF163:
 2810 0457 2E2E2F2E 		.ascii	"../../../os/hal/platforms/BCM2835/hal_lld.c\000"
 2810      2E2F2E2E 
 2810      2F6F732F 
 2810      68616C2F 
 2810      706C6174 
 2811              	.LASF105:
 2812 0483 494F504F 		.ascii	"IOPORT0\000"
 2812      52543000 
 2813              	.LASF56:
 2814 048b 725F6375 		.ascii	"r_current\000"
 2814      7272656E 
 2814      7400
 2815              	.LASF67:
 2816 0495 656C5F6D 		.ascii	"el_mask\000"
 2816      61736B00 
 2817              	.LASF98:
 2818 049d 67707365 		.ascii	"gpset\000"
 2818      7400
 2819              	.LASF101:
 2820 04a3 67707075 		.ascii	"gppudclk\000"
 2820      64636C6B 
 2820      00
 2821              	.LASF128:
 2822 04ac 72786964 		.ascii	"rxidx\000"
 2822      7800
 2823              	.LASF114:
 2824 04b2 69326373 		.ascii	"i2cstate_t\000"
 2824      74617465 
 2824      5F7400
 2825              	.LASF84:
 2826 04bd 716E6F74 		.ascii	"qnotify_t\000"
 2826      6966795F 
 2826      7400
ARM GAS  /var/folders/l5/0x54b2c10074c8bt31ycjvl80000gp/T//ccfU30uO.s 			page 54


 2827              	.LASF28:
 2828 04c7 705F7072 		.ascii	"p_prev\000"
 2828      657600
 2829              	.LASF21:
 2830 04ce 74707269 		.ascii	"tprio_t\000"
 2830      6F5F7400 
 2831              	.LASF81:
 2832 04d6 715F7264 		.ascii	"q_rdptr\000"
 2832      70747200 
 2833              	.LASF129:
 2834 04de 69326366 		.ascii	"i2cflags_t\000"
 2834      6C616773 
 2834      5F7400
 2835              	.LASF120:
 2836 04e9 6D757465 		.ascii	"mutex\000"
 2836      7800
 2837              	.LASF15:
 2838 04ef 696E7433 		.ascii	"int32_t\000"
 2838      325F7400 
 2839              	.LASF5:
 2840 04f7 756E7369 		.ascii	"unsigned char\000"
 2840      676E6564 
 2840      20636861 
 2840      7200
 2841              	.LASF66:
 2842 0505 656C5F6C 		.ascii	"el_listener\000"
 2842      69737465 
 2842      6E657200 
 2843              	.LASF68:
 2844 0511 656C5F66 		.ascii	"el_flags\000"
 2844      6C616773 
 2844      00
 2845              	.LASF36:
 2846 051a 705F6D74 		.ascii	"p_mtxlist\000"
 2846      786C6973 
 2846      7400
 2847              	.LASF6:
 2848 0524 73686F72 		.ascii	"short int\000"
 2848      7420696E 
 2848      7400
 2849              	.LASF31:
 2850 052e 705F7374 		.ascii	"p_state\000"
 2850      61746500 
 2851              	.LASF33:
 2852 0536 705F7072 		.ascii	"p_preempt\000"
 2852      65656D70 
 2852      7400
 2853              	.LASF54:
 2854 0540 725F7072 		.ascii	"r_prio\000"
 2854      696F00
 2855              	.LASF102:
 2856 0547 70696E5F 		.ascii	"pin_base\000"
 2856      62617365 
 2856      00
 2857              	.LASF74:
 2858 0550 65776D61 		.ascii	"ewmask\000"
 2858      736B00
ARM GAS  /var/folders/l5/0x54b2c10074c8bt31ycjvl80000gp/T//ccfU30uO.s 			page 55


 2859              	.LASF27:
 2860 0557 705F6E65 		.ascii	"p_next\000"
 2860      787400
 2861              	.LASF106:
 2862 055e 494F504F 		.ascii	"IOPORT1\000"
 2862      52543100 
 2863              	.LASF32:
 2864 0566 705F666C 		.ascii	"p_flags\000"
 2864      61677300 
 2865              	.LASF26:
 2866 056e 54687265 		.ascii	"Thread\000"
 2866      616400
 2867              	.LASF113:
 2868 0575 4932435F 		.ascii	"I2C_LOCKED\000"
 2868      4C4F434B 
 2868      454400
 2869              	.LASF165:
 2870 0580 77617463 		.ascii	"watchdog_get_remaining\000"
 2870      68646F67 
 2870      5F676574 
 2870      5F72656D 
 2870      61696E69 
 2871              	.LASF35:
 2872 0597 705F6570 		.ascii	"p_epending\000"
 2872      656E6469 
 2872      6E6700
 2873              	.LASF134:
 2874 05a2 53445F55 		.ascii	"SD_UNINIT\000"
 2874      4E494E49 
 2874      5400
 2875              	.LASF16:
 2876 05ac 75696E74 		.ascii	"uint32_t\000"
 2876      33325F74 
 2876      00
 2877              	.LASF53:
 2878 05b5 725F7175 		.ascii	"r_queue\000"
 2878      65756500 
 2879              	.LASF45:
 2880 05bd 56697274 		.ascii	"VirtualTimer\000"
 2880      75616C54 
 2880      696D6572 
 2880      00
 2881              	.LASF151:
 2882 05ca 77617463 		.ascii	"watchdog_start\000"
 2882      68646F67 
 2882      5F737461 
 2882      727400
 2883              	.LASF138:
 2884 05d9 53657269 		.ascii	"SerialDriver\000"
 2884      616C4472 
 2884      69766572 
 2884      00
 2885              	.LASF112:
 2886 05e6 4932435F 		.ascii	"I2C_ACTIVE_RX\000"
 2886      41435449 
 2886      56455F52 
 2886      5800
ARM GAS  /var/folders/l5/0x54b2c10074c8bt31ycjvl80000gp/T//ccfU30uO.s 			page 56


 2887              	.LASF144:
 2888 05f4 72656164 		.ascii	"read\000"
 2888      00
 2889              	.LASF117:
 2890 05f9 636F6E66 		.ascii	"config\000"
 2890      696700
 2891              	.LASF7:
 2892 0600 5F5F7569 		.ascii	"__uint16_t\000"
 2892      6E743136 
 2892      5F7400
 2893              	.LASF63:
 2894 060b 6D5F6E65 		.ascii	"m_next\000"
 2894      787400
 2895              	.LASF25:
 2896 0612 73797374 		.ascii	"systime_t\000"
 2896      696D655F 
 2896      7400
 2897              	.LASF37:
 2898 061c 705F7265 		.ascii	"p_realprio\000"
 2898      616C7072 
 2898      696F00
 2899              	.LASF9:
 2900 0627 5F5F696E 		.ascii	"__int32_t\000"
 2900      7433325F 
 2900      7400
 2901              	.LASF110:
 2902 0631 4932435F 		.ascii	"I2C_READY\000"
 2902      52454144 
 2902      5900
 2903              	.LASF115:
 2904 063b 49324344 		.ascii	"I2CDriver\000"
 2904      72697665 
 2904      7200
 2905              	.LASF43:
 2906 0645 636F6E74 		.ascii	"context\000"
 2906      65787400 
 2907              	.LASF152:
 2908 064d 68616C5F 		.ascii	"hal_lld_init\000"
 2908      6C6C645F 
 2908      696E6974 
 2908      00
 2909              	.LASF42:
 2910 065a 696E7463 		.ascii	"intctx\000"
 2910      747800
 2911              	.LASF136:
 2912 0661 53445F52 		.ascii	"SD_READY\000"
 2912      45414459 
 2912      00
 2913              	.LASF157:
 2914 066a 73797374 		.ascii	"systimer_serve_interrupt\000"
 2914      696D6572 
 2914      5F736572 
 2914      76655F69 
 2914      6E746572 
 2915              	.LASF50:
 2916 0683 76745F70 		.ascii	"vt_par\000"
 2916      617200
ARM GAS  /var/folders/l5/0x54b2c10074c8bt31ycjvl80000gp/T//ccfU30uO.s 			page 57


 2917              	.LASF24:
 2918 068a 666C6167 		.ascii	"flagsmask_t\000"
 2918      736D6173 
 2918      6B5F7400 
 2919              	.LASF132:
 2920 0696 49324343 		.ascii	"I2CConfig\000"
 2920      6F6E6669 
 2920      6700
 2921              	.LASF137:
 2922 06a0 73647374 		.ascii	"sdstate_t\000"
 2922      6174655F 
 2922      7400
 2923              	.LASF125:
 2924 06aa 74786964 		.ascii	"txidx\000"
 2924      7800
 2925              	.LASF79:
 2926 06b0 715F746F 		.ascii	"q_top\000"
 2926      7000
 2927              	.LASF70:
 2928 06b6 65735F6E 		.ascii	"es_next\000"
 2928      65787400 
 2929              	.LASF90:
 2930 06be 73746174 		.ascii	"status\000"
 2930      757300
 2931              	.LASF57:
 2932 06c5 52656164 		.ascii	"ReadyList\000"
 2932      794C6973 
 2932      7400
 2933              	.LASF82:
 2934 06cf 715F6E6F 		.ascii	"q_notify\000"
 2934      74696679 
 2934      00
 2935              	.LASF59:
 2936 06d8 726C6973 		.ascii	"rlist\000"
 2936      7400
 2937              	.LASF13:
 2938 06de 75696E74 		.ascii	"uint8_t\000"
 2938      385F7400 
 2939              	.LASF97:
 2940 06e6 6C617463 		.ascii	"latch\000"
 2940      6800
 2941              	.LASF64:
 2942 06ec 4576656E 		.ascii	"EventListener\000"
 2942      744C6973 
 2942      74656E65 
 2942      7200
 2943              	.LASF73:
 2944 06fa 77746F62 		.ascii	"wtobjp\000"
 2944      6A7000
 2945              	.LASF51:
 2946 0701 76745F73 		.ascii	"vt_systime\000"
 2946      79737469 
 2946      6D6500
 2947              	.LASF160:
 2948 070c 73645F6C 		.ascii	"sd_lld_serve_interrupt\000"
 2948      6C645F73 
 2948      65727665 
ARM GAS  /var/folders/l5/0x54b2c10074c8bt31ycjvl80000gp/T//ccfU30uO.s 			page 58


 2948      5F696E74 
 2948      65727275 
 2949              	.LASF161:
 2950 0723 6932635F 		.ascii	"i2c_lld_serve_interrupt\000"
 2950      6C6C645F 
 2950      73657276 
 2950      655F696E 
 2950      74657272 
 2951              	.LASF153:
 2952 073b 64656C61 		.ascii	"delayMicroseconds\000"
 2952      794D6963 
 2952      726F7365 
 2952      636F6E64 
 2952      7300
 2953              	.LASF83:
 2954 074d 715F6C69 		.ascii	"q_link\000"
 2954      6E6B00
 2955              	.LASF149:
 2956 0754 706D5F72 		.ascii	"pm_rstc\000"
 2956      73746300 
 2957              	.LASF104:
 2958 075c 50414C43 		.ascii	"PALConfig\000"
 2958      6F6E6669 
 2958      6700
 2959              	.LASF62:
 2960 0766 6D5F6F77 		.ascii	"m_owner\000"
 2960      6E657200 
 2961              	.LASF107:
 2962 076e 70616C5F 		.ascii	"pal_default_config\000"
 2962      64656661 
 2962      756C745F 
 2962      636F6E66 
 2962      696700
 2963              	.LASF30:
 2964 0781 705F6374 		.ascii	"p_ctx\000"
 2964      7800
 2965              	.LASF34:
 2966 0787 705F7761 		.ascii	"p_waiting\000"
 2966      6974696E 
 2966      6700
 2967              	.LASF124:
 2968 0791 74786279 		.ascii	"txbytes\000"
 2968      74657300 
 2969              	.LASF96:
 2970 0799 636C6F63 		.ascii	"clockStretchTimeout\000"
 2970      6B537472 
 2970      65746368 
 2970      54696D65 
 2970      6F757400 
 2971              		.ident	"GCC: (GNU Tools for Arm Embedded Processors 8-2019-q3-update) 8.3.1 20190703 (release) [gc
ARM GAS  /var/folders/l5/0x54b2c10074c8bt31ycjvl80000gp/T//ccfU30uO.s 			page 59


DEFINED SYMBOLS
                            *ABS*:0000000000000000 hal_lld.c
/var/folders/l5/0x54b2c10074c8bt31ycjvl80000gp/T//ccfU30uO.s:6      .text.IrqHandler:0000000000000000 $a
/var/folders/l5/0x54b2c10074c8bt31ycjvl80000gp/T//ccfU30uO.s:13     .text.IrqHandler:0000000000000000 IrqHandler
/var/folders/l5/0x54b2c10074c8bt31ycjvl80000gp/T//ccfU30uO.s:80     .text.IrqHandler:0000000000000028 $d
/var/folders/l5/0x54b2c10074c8bt31ycjvl80000gp/T//ccfU30uO.s:87     .text.delayMicroseconds:0000000000000000 $a
/var/folders/l5/0x54b2c10074c8bt31ycjvl80000gp/T//ccfU30uO.s:93     .text.delayMicroseconds:0000000000000000 delayMicroseconds
/var/folders/l5/0x54b2c10074c8bt31ycjvl80000gp/T//ccfU30uO.s:123    .text.delayMicroseconds:0000000000000020 $d
/var/folders/l5/0x54b2c10074c8bt31ycjvl80000gp/T//ccfU30uO.s:128    .text.hal_lld_init:0000000000000000 $a
/var/folders/l5/0x54b2c10074c8bt31ycjvl80000gp/T//ccfU30uO.s:134    .text.hal_lld_init:0000000000000000 hal_lld_init
/var/folders/l5/0x54b2c10074c8bt31ycjvl80000gp/T//ccfU30uO.s:195    .text.hal_lld_init:0000000000000044 $d
/var/folders/l5/0x54b2c10074c8bt31ycjvl80000gp/T//ccfU30uO.s:202    .text.watchdog_start:0000000000000000 $a
/var/folders/l5/0x54b2c10074c8bt31ycjvl80000gp/T//ccfU30uO.s:208    .text.watchdog_start:0000000000000000 watchdog_start
/var/folders/l5/0x54b2c10074c8bt31ycjvl80000gp/T//ccfU30uO.s:253    .text.watchdog_start:0000000000000030 $d
/var/folders/l5/0x54b2c10074c8bt31ycjvl80000gp/T//ccfU30uO.s:258    .text.watchdog_stop:0000000000000000 $a
/var/folders/l5/0x54b2c10074c8bt31ycjvl80000gp/T//ccfU30uO.s:264    .text.watchdog_stop:0000000000000000 watchdog_stop
/var/folders/l5/0x54b2c10074c8bt31ycjvl80000gp/T//ccfU30uO.s:281    .text.watchdog_stop:0000000000000010 $d
/var/folders/l5/0x54b2c10074c8bt31ycjvl80000gp/T//ccfU30uO.s:287    .text.watchdog_get_remaining:0000000000000000 $a
/var/folders/l5/0x54b2c10074c8bt31ycjvl80000gp/T//ccfU30uO.s:293    .text.watchdog_get_remaining:0000000000000000 watchdog_get_remaining
/var/folders/l5/0x54b2c10074c8bt31ycjvl80000gp/T//ccfU30uO.s:311    .text.watchdog_get_remaining:0000000000000014 $d

UNDEFINED SYMBOLS
chSysTimerHandlerI
sd_lld_serve_interrupt
i2c_lld_serve_interrupt
_port_irq_common
SD1
I2C0
