ARM GAS  /var/folders/l5/0x54b2c10074c8bt31ycjvl80000gp/T//cc42yioC.s 			page 1


   1              		.file	"i2c.c"
   2              		.text
   3              	.Ltext0:
   4              		.cfi_sections	.debug_frame
   5              		.section	.text.i2cInit,"ax",%progbits
   6              		.align	2
   7              		.global	i2cInit
   8              		.arch armv6kz
   9              		.syntax unified
  10              		.arm
  11              		.fpu softvfp
  12              		.type	i2cInit, %function
  13              	i2cInit:
  14              	.LFB7:
  15              		.file 1 "../../../os/hal/src/i2c.c"
  16              		.loc 1 64 20 view -0
  17              		.cfi_startproc
  18              		@ args = 0, pretend = 0, frame = 0
  19              		@ frame_needed = 0, uses_anonymous_args = 0
  20              		@ link register save eliminated.
  21              		.loc 1 65 3 view .LVU1
  22 0000 FEFFFFEA 		b	i2c_lld_init
  23              	.LVL0:
  24              		.cfi_endproc
  25              	.LFE7:
  26              		.size	i2cInit, .-i2cInit
  27              		.section	.text.i2cObjectInit,"ax",%progbits
  28              		.align	2
  29              		.global	i2cObjectInit
  30              		.syntax unified
  31              		.arm
  32              		.fpu softvfp
  33              		.type	i2cObjectInit, %function
  34              	i2cObjectInit:
  35              	.LVL1:
  36              	.LFB8:
  37              		.loc 1 75 37 view -0
  38              		.cfi_startproc
  39              		@ args = 0, pretend = 0, frame = 0
  40              		@ frame_needed = 0, uses_anonymous_args = 0
  41              		@ link register save eliminated.
  42              		.loc 1 77 3 view .LVU3
  43              		.loc 1 78 16 is_stmt 0 view .LVU4
  44 0000 0120A0E3 		mov	r2, #1
  45 0004 0030A0E3 		mov	r3, #0
  46 0008 0C0080E8 		stm	r0, {r2, r3}
  47              		.loc 1 82 3 is_stmt 1 view .LVU5
  48 000c 100080E2 		add	r0, r0, #16
  49              	.LVL2:
  50              		.loc 1 82 3 is_stmt 0 view .LVU6
  51 0010 FEFFFFEA 		b	chMtxInit
  52              	.LVL3:
  53              		.loc 1 82 3 view .LVU7
  54              		.cfi_endproc
  55              	.LFE8:
  56              		.size	i2cObjectInit, .-i2cObjectInit
  57              		.section	.text.i2cStart,"ax",%progbits
ARM GAS  /var/folders/l5/0x54b2c10074c8bt31ycjvl80000gp/T//cc42yioC.s 			page 2


  58              		.align	2
  59              		.global	i2cStart
  60              		.syntax unified
  61              		.arm
  62              		.fpu softvfp
  63              		.type	i2cStart, %function
  64              	i2cStart:
  65              	.LVL4:
  66              	.LFB9:
  67              		.loc 1 101 57 is_stmt 1 view -0
  68              		.cfi_startproc
  69              		@ args = 0, pretend = 0, frame = 0
  70              		@ frame_needed = 0, uses_anonymous_args = 0
  71              		.loc 1 103 3 view .LVU9
  72              		.loc 1 103 61 view .LVU10
  73              		.loc 1 104 3 view .LVU11
  74              		.loc 1 107 31 view .LVU12
  75              		.loc 1 109 3 view .LVU13
  76              		.loc 1 101 57 is_stmt 0 view .LVU14
  77 0000 10402DE9 		push	{r4, lr}
  78              		.cfi_def_cfa_offset 8
  79              		.cfi_offset 4, -8
  80              		.cfi_offset 14, -4
  81              		.loc 1 101 57 view .LVU15
  82 0004 0040A0E1 		mov	r4, r0
  83              		.loc 1 109 3 view .LVU16
  84              		.syntax divided
  85              	@ 109 "../../../os/hal/src/i2c.c" 1
  86 0008 9FF021E3 		msr     CPSR_c, #0x9F
  87              	@ 0 "" 2
  88              		.loc 1 109 3 is_stmt 1 view .LVU17
  89              		.loc 1 109 14 view .LVU18
  90              		.loc 1 110 3 view .LVU19
  91              		.loc 1 110 16 is_stmt 0 view .LVU20
  92              		.arm
  93              		.syntax unified
  94 000c 041080E5 		str	r1, [r0, #4]
  95              		.loc 1 111 3 is_stmt 1 view .LVU21
  96 0010 FEFFFFEB 		bl	i2c_lld_start
  97              	.LVL5:
  98              		.loc 1 112 3 view .LVU22
  99              		.loc 1 112 15 is_stmt 0 view .LVU23
 100 0014 0230A0E3 		mov	r3, #2
 101 0018 003084E5 		str	r3, [r4]
 102              		.loc 1 113 3 is_stmt 1 view .LVU24
 103              		.loc 1 113 3 view .LVU25
 104              		.syntax divided
 105              	@ 113 "../../../os/hal/src/i2c.c" 1
 106 001c 1FF021E3 		msr     CPSR_c, #0x1F
 107              	@ 0 "" 2
 108              		.loc 1 113 16 view .LVU26
 109              		.loc 1 114 1 is_stmt 0 view .LVU27
 110              		.arm
 111              		.syntax unified
 112 0020 1080BDE8 		pop	{r4, pc}
 113              		.cfi_endproc
 114              	.LFE9:
ARM GAS  /var/folders/l5/0x54b2c10074c8bt31ycjvl80000gp/T//cc42yioC.s 			page 3


 115              		.size	i2cStart, .-i2cStart
 116              		.section	.text.i2cStop,"ax",%progbits
 117              		.align	2
 118              		.global	i2cStop
 119              		.syntax unified
 120              		.arm
 121              		.fpu softvfp
 122              		.type	i2cStop, %function
 123              	i2cStop:
 124              	.LVL6:
 125              	.LFB10:
 126              		.loc 1 123 31 is_stmt 1 view -0
 127              		.cfi_startproc
 128              		@ args = 0, pretend = 0, frame = 0
 129              		@ frame_needed = 0, uses_anonymous_args = 0
 130              		.loc 1 125 3 view .LVU29
 131              		.loc 1 125 38 view .LVU30
 132              		.loc 1 126 3 view .LVU31
 133              		.loc 1 129 31 view .LVU32
 134              		.loc 1 131 3 view .LVU33
 135              		.loc 1 123 31 is_stmt 0 view .LVU34
 136 0000 10402DE9 		push	{r4, lr}
 137              		.cfi_def_cfa_offset 8
 138              		.cfi_offset 4, -8
 139              		.cfi_offset 14, -4
 140              		.loc 1 123 31 view .LVU35
 141 0004 0040A0E1 		mov	r4, r0
 142              		.loc 1 131 3 view .LVU36
 143              		.syntax divided
 144              	@ 131 "../../../os/hal/src/i2c.c" 1
 145 0008 9FF021E3 		msr     CPSR_c, #0x9F
 146              	@ 0 "" 2
 147              		.loc 1 131 3 is_stmt 1 view .LVU37
 148              		.loc 1 131 14 view .LVU38
 149              		.loc 1 132 3 view .LVU39
 150              		.arm
 151              		.syntax unified
 152 000c FEFFFFEB 		bl	i2c_lld_stop
 153              	.LVL7:
 154              		.loc 1 133 3 view .LVU40
 155              		.loc 1 133 15 is_stmt 0 view .LVU41
 156 0010 0130A0E3 		mov	r3, #1
 157 0014 003084E5 		str	r3, [r4]
 158              		.loc 1 134 3 is_stmt 1 view .LVU42
 159              		.loc 1 134 3 view .LVU43
 160              		.syntax divided
 161              	@ 134 "../../../os/hal/src/i2c.c" 1
 162 0018 1FF021E3 		msr     CPSR_c, #0x1F
 163              	@ 0 "" 2
 164              		.loc 1 134 16 view .LVU44
 165              		.loc 1 135 1 is_stmt 0 view .LVU45
 166              		.arm
 167              		.syntax unified
 168 001c 1080BDE8 		pop	{r4, pc}
 169              		.cfi_endproc
 170              	.LFE10:
 171              		.size	i2cStop, .-i2cStop
ARM GAS  /var/folders/l5/0x54b2c10074c8bt31ycjvl80000gp/T//cc42yioC.s 			page 4


 172              		.section	.text.i2cGetErrors,"ax",%progbits
 173              		.align	2
 174              		.global	i2cGetErrors
 175              		.syntax unified
 176              		.arm
 177              		.fpu softvfp
 178              		.type	i2cGetErrors, %function
 179              	i2cGetErrors:
 180              	.LVL8:
 181              	.LFB11:
 182              		.loc 1 145 42 is_stmt 1 view -0
 183              		.cfi_startproc
 184              		@ args = 0, pretend = 0, frame = 0
 185              		@ frame_needed = 0, uses_anonymous_args = 0
 186              		@ link register save eliminated.
 187              		.loc 1 147 3 view .LVU47
 188              		.loc 1 147 43 view .LVU48
 189              		.loc 1 149 3 view .LVU49
 190              		.loc 1 150 1 is_stmt 0 view .LVU50
 191 0000 080090E5 		ldr	r0, [r0, #8]
 192              	.LVL9:
 193              		.loc 1 150 1 view .LVU51
 194 0004 1EFF2FE1 		bx	lr
 195              		.cfi_endproc
 196              	.LFE11:
 197              		.size	i2cGetErrors, .-i2cGetErrors
 198              		.section	.text.i2cMasterTransmitTimeout,"ax",%progbits
 199              		.align	2
 200              		.global	i2cMasterTransmitTimeout
 201              		.syntax unified
 202              		.arm
 203              		.fpu softvfp
 204              		.type	i2cMasterTransmitTimeout, %function
 205              	i2cMasterTransmitTimeout:
 206              	.LVL10:
 207              	.LFB12:
 208              		.loc 1 184 51 is_stmt 1 view -0
 209              		.cfi_startproc
 210              		@ args = 12, pretend = 0, frame = 0
 211              		@ frame_needed = 0, uses_anonymous_args = 0
 212              		.loc 1 185 3 view .LVU53
 213              		.loc 1 187 3 view .LVU54
 214              		.loc 1 191 41 view .LVU55
 215              		.loc 1 193 3 view .LVU56
 216              		.loc 1 194 61 view .LVU57
 217              		.loc 1 196 3 view .LVU58
 218              		.loc 1 184 51 is_stmt 0 view .LVU59
 219 0000 70402DE9 		push	{r4, r5, r6, lr}
 220              		.cfi_def_cfa_offset 16
 221              		.cfi_offset 4, -16
 222              		.cfi_offset 5, -12
 223              		.cfi_offset 6, -8
 224              		.cfi_offset 14, -4
 225 0004 0CD04DE2 		sub	sp, sp, #12
 226              		.cfi_def_cfa_offset 28
 227              		.loc 1 184 51 view .LVU60
 228 0008 7110FFE6 		uxth	r1, r1
ARM GAS  /var/folders/l5/0x54b2c10074c8bt31ycjvl80000gp/T//cc42yioC.s 			page 5


 229              		.loc 1 184 51 view .LVU61
 230 000c 0040A0E1 		mov	r4, r0
 231 0010 1CC09DE5 		ldr	ip, [sp, #28]
 232 0014 24609DE5 		ldr	r6, [sp, #36]
 233              		.loc 1 196 3 view .LVU62
 234              		.syntax divided
 235              	@ 196 "../../../os/hal/src/i2c.c" 1
 236 0018 9FF021E3 		msr     CPSR_c, #0x9F
 237              	@ 0 "" 2
 238              		.loc 1 196 3 is_stmt 1 view .LVU63
 239              		.loc 1 196 14 view .LVU64
 240              		.loc 1 197 3 view .LVU65
 241              		.loc 1 198 15 is_stmt 0 view .LVU66
 242              		.arm
 243              		.syntax unified
 244 001c 03E0A0E3 		mov	lr, #3
 245              		.loc 1 197 16 view .LVU67
 246 0020 0050A0E3 		mov	r5, #0
 247              		.loc 1 199 12 view .LVU68
 248 0024 00C08DE5 		str	ip, [sp]
 249 0028 20C09DE5 		ldr	ip, [sp, #32]
 250 002c 08608DE5 		str	r6, [sp, #8]
 251 0030 7CC0EFE6 		uxtb	ip, ip
 252              		.loc 1 197 16 view .LVU69
 253 0034 085080E5 		str	r5, [r0, #8]
 254              		.loc 1 198 3 is_stmt 1 view .LVU70
 255              		.loc 1 198 15 is_stmt 0 view .LVU71
 256 0038 00E080E5 		str	lr, [r0]
 257              		.loc 1 199 3 is_stmt 1 view .LVU72
 258              		.loc 1 199 12 is_stmt 0 view .LVU73
 259 003c 04C08DE5 		str	ip, [sp, #4]
 260 0040 FEFFFFEB 		bl	i2c_lld_master_transmit_timeout
 261              	.LVL11:
 262              		.loc 1 201 3 is_stmt 1 view .LVU74
 263              		.loc 1 201 6 is_stmt 0 view .LVU75
 264 0044 010070E3 		cmn	r0, #1
 265              		.loc 1 202 17 view .LVU76
 266 0048 0230A013 		movne	r3, #2
 267 004c 0530A003 		moveq	r3, #5
 268 0050 003084E5 		str	r3, [r4]
 269              		.loc 1 205 3 is_stmt 1 view .LVU77
 270              		.loc 1 205 3 view .LVU78
 271              		.syntax divided
 272              	@ 205 "../../../os/hal/src/i2c.c" 1
 273 0054 1FF021E3 		msr     CPSR_c, #0x1F
 274              	@ 0 "" 2
 275              		.loc 1 205 16 view .LVU79
 276              		.loc 1 206 3 view .LVU80
 277              		.loc 1 207 1 is_stmt 0 view .LVU81
 278              		.arm
 279              		.syntax unified
 280 0058 0CD08DE2 		add	sp, sp, #12
 281              		.cfi_def_cfa_offset 16
 282              		@ sp needed
 283 005c 7080BDE8 		pop	{r4, r5, r6, pc}
 284              		.loc 1 207 1 view .LVU82
 285              		.cfi_endproc
ARM GAS  /var/folders/l5/0x54b2c10074c8bt31ycjvl80000gp/T//cc42yioC.s 			page 6


 286              	.LFE12:
 287              		.size	i2cMasterTransmitTimeout, .-i2cMasterTransmitTimeout
 288              		.section	.text.i2cMasterReceiveTimeout,"ax",%progbits
 289              		.align	2
 290              		.global	i2cMasterReceiveTimeout
 291              		.syntax unified
 292              		.arm
 293              		.fpu softvfp
 294              		.type	i2cMasterReceiveTimeout, %function
 295              	i2cMasterReceiveTimeout:
 296              	.LVL12:
 297              	.LFB13:
 298              		.loc 1 233 49 is_stmt 1 view -0
 299              		.cfi_startproc
 300              		@ args = 4, pretend = 0, frame = 0
 301              		@ frame_needed = 0, uses_anonymous_args = 0
 302              		.loc 1 235 3 view .LVU84
 303              		.loc 1 237 3 view .LVU85
 304              		.loc 1 240 40 view .LVU86
 305              		.loc 1 242 3 view .LVU87
 306              		.loc 1 243 53 view .LVU88
 307              		.loc 1 245 3 view .LVU89
 308              		.loc 1 233 49 is_stmt 0 view .LVU90
 309 0000 30402DE9 		push	{r4, r5, lr}
 310              		.cfi_def_cfa_offset 12
 311              		.cfi_offset 4, -12
 312              		.cfi_offset 5, -8
 313              		.cfi_offset 14, -4
 314 0004 04D04DE2 		sub	sp, sp, #4
 315              		.cfi_def_cfa_offset 16
 316              		.loc 1 233 49 view .LVU91
 317 0008 7110FFE6 		uxth	r1, r1
 318              		.loc 1 233 49 view .LVU92
 319 000c 0040A0E1 		mov	r4, r0
 320 0010 10509DE5 		ldr	r5, [sp, #16]
 321              		.loc 1 245 3 view .LVU93
 322              		.syntax divided
 323              	@ 245 "../../../os/hal/src/i2c.c" 1
 324 0014 9FF021E3 		msr     CPSR_c, #0x9F
 325              	@ 0 "" 2
 326              		.loc 1 245 3 is_stmt 1 view .LVU94
 327              		.loc 1 245 14 view .LVU95
 328              		.loc 1 246 3 view .LVU96
 329              		.loc 1 246 16 is_stmt 0 view .LVU97
 330              		.arm
 331              		.syntax unified
 332 0018 00E0A0E3 		mov	lr, #0
 333              		.loc 1 247 15 view .LVU98
 334 001c 04C0A0E3 		mov	ip, #4
 335              		.loc 1 248 12 view .LVU99
 336 0020 00508DE5 		str	r5, [sp]
 337              		.loc 1 246 16 view .LVU100
 338 0024 08E080E5 		str	lr, [r0, #8]
 339              		.loc 1 247 3 is_stmt 1 view .LVU101
 340              		.loc 1 247 15 is_stmt 0 view .LVU102
 341 0028 00C080E5 		str	ip, [r0]
 342              		.loc 1 248 3 is_stmt 1 view .LVU103
ARM GAS  /var/folders/l5/0x54b2c10074c8bt31ycjvl80000gp/T//cc42yioC.s 			page 7


 343              		.loc 1 248 12 is_stmt 0 view .LVU104
 344 002c FEFFFFEB 		bl	i2c_lld_master_receive_timeout
 345              	.LVL13:
 346              		.loc 1 249 3 is_stmt 1 view .LVU105
 347              		.loc 1 249 6 is_stmt 0 view .LVU106
 348 0030 010070E3 		cmn	r0, #1
 349              		.loc 1 250 17 view .LVU107
 350 0034 0230A013 		movne	r3, #2
 351 0038 0530A003 		moveq	r3, #5
 352 003c 003084E5 		str	r3, [r4]
 353              		.loc 1 253 3 is_stmt 1 view .LVU108
 354              		.loc 1 253 3 view .LVU109
 355              		.syntax divided
 356              	@ 253 "../../../os/hal/src/i2c.c" 1
 357 0040 1FF021E3 		msr     CPSR_c, #0x1F
 358              	@ 0 "" 2
 359              		.loc 1 253 16 view .LVU110
 360              		.loc 1 254 3 view .LVU111
 361              		.loc 1 255 1 is_stmt 0 view .LVU112
 362              		.arm
 363              		.syntax unified
 364 0044 04D08DE2 		add	sp, sp, #4
 365              		.cfi_def_cfa_offset 12
 366              		@ sp needed
 367 0048 3080BDE8 		pop	{r4, r5, pc}
 368              		.loc 1 255 1 view .LVU113
 369              		.cfi_endproc
 370              	.LFE13:
 371              		.size	i2cMasterReceiveTimeout, .-i2cMasterReceiveTimeout
 372              		.section	.text.i2cAcquireBus,"ax",%progbits
 373              		.align	2
 374              		.global	i2cAcquireBus
 375              		.syntax unified
 376              		.arm
 377              		.fpu softvfp
 378              		.type	i2cAcquireBus, %function
 379              	i2cAcquireBus:
 380              	.LVL14:
 381              	.LFB14:
 382              		.loc 1 269 37 is_stmt 1 view -0
 383              		.cfi_startproc
 384              		@ args = 0, pretend = 0, frame = 0
 385              		@ frame_needed = 0, uses_anonymous_args = 0
 386              		@ link register save eliminated.
 387              		.loc 1 271 3 view .LVU115
 388              		.loc 1 271 44 view .LVU116
 389              		.loc 1 274 3 view .LVU117
 390 0000 100080E2 		add	r0, r0, #16
 391              	.LVL15:
 392              		.loc 1 274 3 is_stmt 0 view .LVU118
 393 0004 FEFFFFEA 		b	chMtxLock
 394              	.LVL16:
 395              		.loc 1 274 3 view .LVU119
 396              		.cfi_endproc
 397              	.LFE14:
 398              		.size	i2cAcquireBus, .-i2cAcquireBus
 399              		.section	.text.i2cReleaseBus,"ax",%progbits
ARM GAS  /var/folders/l5/0x54b2c10074c8bt31ycjvl80000gp/T//cc42yioC.s 			page 8


 400              		.align	2
 401              		.global	i2cReleaseBus
 402              		.syntax unified
 403              		.arm
 404              		.fpu softvfp
 405              		.type	i2cReleaseBus, %function
 406              	i2cReleaseBus:
 407              	.LVL17:
 408              	.LFB15:
 409              		.loc 1 289 37 is_stmt 1 view -0
 410              		.cfi_startproc
 411              		@ args = 0, pretend = 0, frame = 0
 412              		@ frame_needed = 0, uses_anonymous_args = 0
 413              		@ link register save eliminated.
 414              		.loc 1 291 3 view .LVU121
 415              		.loc 1 291 44 view .LVU122
 416              		.loc 1 294 3 view .LVU123
 417 0000 FEFFFFEA 		b	chMtxUnlock
 418              	.LVL18:
 419              		.loc 1 294 3 is_stmt 0 view .LVU124
 420              		.cfi_endproc
 421              	.LFE15:
 422              		.size	i2cReleaseBus, .-i2cReleaseBus
 423              		.text
 424              	.Letext0:
 425              		.file 2 "/usr/local/Cellar/arm-gcc-bin/8-2019-q3-update/lib/gcc/arm-none-eabi/8.3.1/include/stddef
 426              		.file 3 "/usr/local/Cellar/arm-gcc-bin/8-2019-q3-update/arm-none-eabi/include/machine/_default_typ
 427              		.file 4 "/usr/local/Cellar/arm-gcc-bin/8-2019-q3-update/arm-none-eabi/include/sys/_stdint.h"
 428              		.file 5 "../../../os/ports/GCC/ARM/chtypes.h"
 429              		.file 6 "../../../os/kernel/include/chlists.h"
 430              		.file 7 "../../../os/kernel/include/chthreads.h"
 431              		.file 8 "../../../os/ports/GCC/ARM/chcore.h"
 432              		.file 9 "../../../os/kernel/include/chvt.h"
 433              		.file 10 "../../../os/kernel/include/chschd.h"
 434              		.file 11 "../../../os/kernel/include/chmtx.h"
 435              		.file 12 "../../../os/kernel/include/chevents.h"
 436              		.file 13 "../../../os/kernel/include/chqueues.h"
 437              		.file 14 "../../../os/kernel/include/ch.h"
 438              		.file 15 "../../../os/hal/platforms/BCM2835/bcm2835.h"
 439              		.file 16 "../../../os/hal/platforms/BCM2835/pal_lld.h"
 440              		.file 17 "../../../os/hal/include/i2c.h"
 441              		.file 18 "../../../os/hal/platforms/BCM2835/i2c_lld.h"
 442              		.file 19 "../../../os/hal/include/serial.h"
 443              		.file 20 "../../../os/hal/platforms/BCM2835/serial_lld.h"
 444              		.section	.debug_info,"",%progbits
 445              	.Ldebug_info0:
 446 0000 5C0E0000 		.4byte	0xe5c
 447 0004 0400     		.2byte	0x4
 448 0006 00000000 		.4byte	.Ldebug_abbrev0
 449 000a 04       		.byte	0x4
 450 000b 01       		.uleb128 0x1
 451 000c 45020000 		.4byte	.LASF168
 452 0010 0C       		.byte	0xc
 453 0011 92050000 		.4byte	.LASF169
 454 0015 77010000 		.4byte	.LASF170
 455 0019 00000000 		.4byte	.Ldebug_ranges0+0
 456 001d 00000000 		.4byte	0
ARM GAS  /var/folders/l5/0x54b2c10074c8bt31ycjvl80000gp/T//cc42yioC.s 			page 9


 457 0021 00000000 		.4byte	.Ldebug_line0
 458 0025 02       		.uleb128 0x2
 459 0026 04       		.byte	0x4
 460 0027 05       		.byte	0x5
 461 0028 65010000 		.4byte	.LASF0
 462 002c 03       		.uleb128 0x3
 463 002d 00000000 		.4byte	.LASF3
 464 0031 02       		.byte	0x2
 465 0032 D8       		.byte	0xd8
 466 0033 17       		.byte	0x17
 467 0034 38000000 		.4byte	0x38
 468 0038 02       		.uleb128 0x2
 469 0039 04       		.byte	0x4
 470 003a 07       		.byte	0x7
 471 003b 6E030000 		.4byte	.LASF1
 472 003f 02       		.uleb128 0x2
 473 0040 01       		.byte	0x1
 474 0041 06       		.byte	0x6
 475 0042 E5000000 		.4byte	.LASF2
 476 0046 03       		.uleb128 0x3
 477 0047 1A000000 		.4byte	.LASF4
 478 004b 03       		.byte	0x3
 479 004c 2B       		.byte	0x2b
 480 004d 18       		.byte	0x18
 481 004e 52000000 		.4byte	0x52
 482 0052 02       		.uleb128 0x2
 483 0053 01       		.byte	0x1
 484 0054 08       		.byte	0x8
 485 0055 53050000 		.4byte	.LASF5
 486 0059 02       		.uleb128 0x2
 487 005a 02       		.byte	0x2
 488 005b 05       		.byte	0x5
 489 005c 80050000 		.4byte	.LASF6
 490 0060 03       		.uleb128 0x3
 491 0061 46060000 		.4byte	.LASF7
 492 0065 03       		.byte	0x3
 493 0066 39       		.byte	0x39
 494 0067 19       		.byte	0x19
 495 0068 6C000000 		.4byte	0x6c
 496 006c 02       		.uleb128 0x2
 497 006d 02       		.byte	0x2
 498 006e 07       		.byte	0x7
 499 006f A2030000 		.4byte	.LASF8
 500 0073 03       		.uleb128 0x3
 501 0074 6D060000 		.4byte	.LASF9
 502 0078 03       		.byte	0x3
 503 0079 4D       		.byte	0x4d
 504 007a 18       		.byte	0x18
 505 007b 25000000 		.4byte	0x25
 506 007f 03       		.uleb128 0x3
 507 0080 1C020000 		.4byte	.LASF10
 508 0084 03       		.byte	0x3
 509 0085 4F       		.byte	0x4f
 510 0086 19       		.byte	0x19
 511 0087 38000000 		.4byte	0x38
 512 008b 02       		.uleb128 0x2
 513 008c 08       		.byte	0x8
ARM GAS  /var/folders/l5/0x54b2c10074c8bt31ycjvl80000gp/T//cc42yioC.s 			page 10


 514 008d 05       		.byte	0x5
 515 008e D7000000 		.4byte	.LASF11
 516 0092 02       		.uleb128 0x2
 517 0093 08       		.byte	0x8
 518 0094 07       		.byte	0x7
 519 0095 3D000000 		.4byte	.LASF12
 520 0099 03       		.uleb128 0x3
 521 009a 23070000 		.4byte	.LASF13
 522 009e 04       		.byte	0x4
 523 009f 18       		.byte	0x18
 524 00a0 13       		.byte	0x13
 525 00a1 46000000 		.4byte	0x46
 526 00a5 04       		.uleb128 0x4
 527 00a6 99000000 		.4byte	0x99
 528 00aa 03       		.uleb128 0x3
 529 00ab E2010000 		.4byte	.LASF14
 530 00af 04       		.byte	0x4
 531 00b0 24       		.byte	0x24
 532 00b1 14       		.byte	0x14
 533 00b2 60000000 		.4byte	0x60
 534 00b6 03       		.uleb128 0x3
 535 00b7 4B050000 		.4byte	.LASF15
 536 00bb 04       		.byte	0x4
 537 00bc 2C       		.byte	0x2c
 538 00bd 13       		.byte	0x13
 539 00be 73000000 		.4byte	0x73
 540 00c2 03       		.uleb128 0x3
 541 00c3 01060000 		.4byte	.LASF16
 542 00c7 04       		.byte	0x4
 543 00c8 30       		.byte	0x30
 544 00c9 14       		.byte	0x14
 545 00ca 7F000000 		.4byte	0x7f
 546 00ce 05       		.uleb128 0x5
 547 00cf C2000000 		.4byte	0xc2
 548 00d3 06       		.uleb128 0x6
 549 00d4 04       		.byte	0x4
 550 00d5 05       		.byte	0x5
 551 00d6 696E7400 		.ascii	"int\000"
 552 00da 02       		.uleb128 0x2
 553 00db 04       		.byte	0x4
 554 00dc 07       		.byte	0x7
 555 00dd 35030000 		.4byte	.LASF17
 556 00e1 05       		.uleb128 0x5
 557 00e2 DA000000 		.4byte	0xda
 558 00e6 03       		.uleb128 0x3
 559 00e7 E3030000 		.4byte	.LASF18
 560 00eb 05       		.byte	0x5
 561 00ec 2A       		.byte	0x2a
 562 00ed 19       		.byte	0x19
 563 00ee 99000000 		.4byte	0x99
 564 00f2 03       		.uleb128 0x3
 565 00f3 6E010000 		.4byte	.LASF19
 566 00f7 05       		.byte	0x5
 567 00f8 2B       		.byte	0x2b
 568 00f9 19       		.byte	0x19
 569 00fa 99000000 		.4byte	0x99
 570 00fe 03       		.uleb128 0x3
ARM GAS  /var/folders/l5/0x54b2c10074c8bt31ycjvl80000gp/T//cc42yioC.s 			page 11


 571 00ff 40010000 		.4byte	.LASF20
 572 0103 05       		.byte	0x5
 573 0104 2D       		.byte	0x2d
 574 0105 19       		.byte	0x19
 575 0106 99000000 		.4byte	0x99
 576 010a 03       		.uleb128 0x3
 577 010b 1C050000 		.4byte	.LASF21
 578 010f 05       		.byte	0x5
 579 0110 2E       		.byte	0x2e
 580 0111 19       		.byte	0x19
 581 0112 C2000000 		.4byte	0xc2
 582 0116 03       		.uleb128 0x3
 583 0117 C7030000 		.4byte	.LASF22
 584 011b 05       		.byte	0x5
 585 011c 2F       		.byte	0x2f
 586 011d 19       		.byte	0x19
 587 011e B6000000 		.4byte	0xb6
 588 0122 03       		.uleb128 0x3
 589 0123 F7030000 		.4byte	.LASF23
 590 0127 05       		.byte	0x5
 591 0128 31       		.byte	0x31
 592 0129 19       		.byte	0x19
 593 012a C2000000 		.4byte	0xc2
 594 012e 03       		.uleb128 0x3
 595 012f C2060000 		.4byte	.LASF24
 596 0133 05       		.byte	0x5
 597 0134 32       		.byte	0x32
 598 0135 19       		.byte	0x19
 599 0136 C2000000 		.4byte	0xc2
 600 013a 03       		.uleb128 0x3
 601 013b 58060000 		.4byte	.LASF25
 602 013f 05       		.byte	0x5
 603 0140 33       		.byte	0x33
 604 0141 19       		.byte	0x19
 605 0142 C2000000 		.4byte	0xc2
 606 0146 05       		.uleb128 0x5
 607 0147 3A010000 		.4byte	0x13a
 608 014b 03       		.uleb128 0x3
 609 014c DA050000 		.4byte	.LASF26
 610 0150 06       		.byte	0x6
 611 0151 23       		.byte	0x23
 612 0152 17       		.byte	0x17
 613 0153 57010000 		.4byte	0x157
 614 0157 07       		.uleb128 0x7
 615 0158 DA050000 		.4byte	.LASF26
 616 015c 28       		.byte	0x28
 617 015d 07       		.byte	0x7
 618 015e 57       		.byte	0x57
 619 015f 08       		.byte	0x8
 620 0160 01020000 		.4byte	0x201
 621 0164 08       		.uleb128 0x8
 622 0165 C3050000 		.4byte	.LASF27
 623 0169 07       		.byte	0x7
 624 016a 58       		.byte	0x58
 625 016b 1A       		.byte	0x1a
 626 016c 25020000 		.4byte	0x225
 627 0170 00       		.byte	0
ARM GAS  /var/folders/l5/0x54b2c10074c8bt31ycjvl80000gp/T//cc42yioC.s 			page 12


 628 0171 08       		.uleb128 0x8
 629 0172 07050000 		.4byte	.LASF28
 630 0176 07       		.byte	0x7
 631 0177 5A       		.byte	0x5a
 632 0178 1A       		.byte	0x1a
 633 0179 25020000 		.4byte	0x225
 634 017d 04       		.byte	0x4
 635 017e 08       		.uleb128 0x8
 636 017f A0000000 		.4byte	.LASF29
 637 0183 07       		.byte	0x7
 638 0184 5C       		.byte	0x5c
 639 0185 19       		.byte	0x19
 640 0186 0A010000 		.4byte	0x10a
 641 018a 08       		.byte	0x8
 642 018b 08       		.uleb128 0x8
 643 018c 9D070000 		.4byte	.LASF30
 644 0190 07       		.byte	0x7
 645 0191 5D       		.byte	0x5d
 646 0192 19       		.byte	0x19
 647 0193 F0020000 		.4byte	0x2f0
 648 0197 0C       		.byte	0xc
 649 0198 08       		.uleb128 0x8
 650 0199 8A050000 		.4byte	.LASF31
 651 019d 07       		.byte	0x7
 652 019e 72       		.byte	0x72
 653 019f 19       		.byte	0x19
 654 01a0 F2000000 		.4byte	0xf2
 655 01a4 10       		.byte	0x10
 656 01a5 08       		.uleb128 0x8
 657 01a6 D2050000 		.4byte	.LASF32
 658 01aa 07       		.byte	0x7
 659 01ab 76       		.byte	0x76
 660 01ac 19       		.byte	0x19
 661 01ad E6000000 		.4byte	0xe6
 662 01b1 11       		.byte	0x11
 663 01b2 08       		.uleb128 0x8
 664 01b3 D9040000 		.4byte	.LASF33
 665 01b7 07       		.byte	0x7
 666 01b8 81       		.byte	0x81
 667 01b9 19       		.byte	0x19
 668 01ba FE000000 		.4byte	0xfe
 669 01be 12       		.byte	0x12
 670 01bf 09       		.uleb128 0x9
 671 01c0 705F7500 		.ascii	"p_u\000"
 672 01c4 07       		.byte	0x7
 673 01c5 AD       		.byte	0xad
 674 01c6 19       		.byte	0x19
 675 01c7 FD040000 		.4byte	0x4fd
 676 01cb 14       		.byte	0x14
 677 01cc 08       		.uleb128 0x8
 678 01cd A3070000 		.4byte	.LASF34
 679 01d1 07       		.byte	0x7
 680 01d2 B2       		.byte	0xb2
 681 01d3 19       		.byte	0x19
 682 01d4 4E020000 		.4byte	0x24e
 683 01d8 18       		.byte	0x18
 684 01d9 08       		.uleb128 0x8
ARM GAS  /var/folders/l5/0x54b2c10074c8bt31ycjvl80000gp/T//cc42yioC.s 			page 13


 685 01da EC050000 		.4byte	.LASF35
 686 01de 07       		.byte	0x7
 687 01df C2       		.byte	0xc2
 688 01e0 19       		.byte	0x19
 689 01e1 22010000 		.4byte	0x122
 690 01e5 1C       		.byte	0x1c
 691 01e6 08       		.uleb128 0x8
 692 01e7 76050000 		.4byte	.LASF36
 693 01eb 07       		.byte	0x7
 694 01ec C9       		.byte	0xc9
 695 01ed 1A       		.byte	0x1a
 696 01ee 37050000 		.4byte	0x537
 697 01f2 20       		.byte	0x20
 698 01f3 08       		.uleb128 0x8
 699 01f4 62060000 		.4byte	.LASF37
 700 01f8 07       		.byte	0x7
 701 01f9 CD       		.byte	0xcd
 702 01fa 19       		.byte	0x19
 703 01fb 0A010000 		.4byte	0x10a
 704 01ff 24       		.byte	0x24
 705 0200 00       		.byte	0
 706 0201 0A       		.uleb128 0xa
 707 0202 08       		.byte	0x8
 708 0203 06       		.byte	0x6
 709 0204 5A       		.byte	0x5a
 710 0205 09       		.byte	0x9
 711 0206 25020000 		.4byte	0x225
 712 020a 08       		.uleb128 0x8
 713 020b C3050000 		.4byte	.LASF27
 714 020f 06       		.byte	0x6
 715 0210 5B       		.byte	0x5b
 716 0211 1A       		.byte	0x1a
 717 0212 25020000 		.4byte	0x225
 718 0216 00       		.byte	0
 719 0217 08       		.uleb128 0x8
 720 0218 07050000 		.4byte	.LASF28
 721 021c 06       		.byte	0x6
 722 021d 5D       		.byte	0x5d
 723 021e 1A       		.byte	0x1a
 724 021f 25020000 		.4byte	0x225
 725 0223 04       		.byte	0x4
 726 0224 00       		.byte	0
 727 0225 0B       		.uleb128 0xb
 728 0226 04       		.byte	0x4
 729 0227 4B010000 		.4byte	0x14b
 730 022b 03       		.uleb128 0x3
 731 022c AA040000 		.4byte	.LASF38
 732 0230 06       		.byte	0x6
 733 0231 5F       		.byte	0x5f
 734 0232 03       		.byte	0x3
 735 0233 01020000 		.4byte	0x201
 736 0237 0A       		.uleb128 0xa
 737 0238 04       		.byte	0x4
 738 0239 06       		.byte	0x6
 739 023a 64       		.byte	0x64
 740 023b 09       		.byte	0x9
 741 023c 4E020000 		.4byte	0x24e
ARM GAS  /var/folders/l5/0x54b2c10074c8bt31ycjvl80000gp/T//cc42yioC.s 			page 14


 742 0240 08       		.uleb128 0x8
 743 0241 C3050000 		.4byte	.LASF27
 744 0245 06       		.byte	0x6
 745 0246 66       		.byte	0x66
 746 0247 16       		.byte	0x16
 747 0248 25020000 		.4byte	0x225
 748 024c 00       		.byte	0
 749 024d 00       		.byte	0
 750 024e 03       		.uleb128 0x3
 751 024f EB030000 		.4byte	.LASF39
 752 0253 06       		.byte	0x6
 753 0254 69       		.byte	0x69
 754 0255 03       		.byte	0x3
 755 0256 37020000 		.4byte	0x237
 756 025a 03       		.uleb128 0x3
 757 025b 21040000 		.4byte	.LASF40
 758 025f 08       		.byte	0x8
 759 0260 9D       		.byte	0x9d
 760 0261 12       		.byte	0x12
 761 0262 C2000000 		.4byte	0xc2
 762 0266 03       		.uleb128 0x3
 763 0267 27020000 		.4byte	.LASF41
 764 026b 08       		.byte	0x8
 765 026c A2       		.byte	0xa2
 766 026d 0F       		.byte	0xf
 767 026e 72020000 		.4byte	0x272
 768 0272 0C       		.uleb128 0xc
 769 0273 04       		.byte	0x4
 770 0274 07       		.uleb128 0x7
 771 0275 A1060000 		.4byte	.LASF42
 772 0279 24       		.byte	0x24
 773 027a 08       		.byte	0x8
 774 027b B9       		.byte	0xb9
 775 027c 08       		.byte	0x8
 776 027d F0020000 		.4byte	0x2f0
 777 0281 09       		.uleb128 0x9
 778 0282 723400   		.ascii	"r4\000"
 779 0285 08       		.byte	0x8
 780 0286 BA       		.byte	0xba
 781 0287 11       		.byte	0x11
 782 0288 66020000 		.4byte	0x266
 783 028c 00       		.byte	0
 784 028d 09       		.uleb128 0x9
 785 028e 723500   		.ascii	"r5\000"
 786 0291 08       		.byte	0x8
 787 0292 BB       		.byte	0xbb
 788 0293 11       		.byte	0x11
 789 0294 66020000 		.4byte	0x266
 790 0298 04       		.byte	0x4
 791 0299 09       		.uleb128 0x9
 792 029a 723600   		.ascii	"r6\000"
 793 029d 08       		.byte	0x8
 794 029e BC       		.byte	0xbc
 795 029f 11       		.byte	0x11
 796 02a0 66020000 		.4byte	0x266
 797 02a4 08       		.byte	0x8
 798 02a5 09       		.uleb128 0x9
ARM GAS  /var/folders/l5/0x54b2c10074c8bt31ycjvl80000gp/T//cc42yioC.s 			page 15


 799 02a6 723700   		.ascii	"r7\000"
 800 02a9 08       		.byte	0x8
 801 02aa BD       		.byte	0xbd
 802 02ab 11       		.byte	0x11
 803 02ac 66020000 		.4byte	0x266
 804 02b0 0C       		.byte	0xc
 805 02b1 09       		.uleb128 0x9
 806 02b2 723800   		.ascii	"r8\000"
 807 02b5 08       		.byte	0x8
 808 02b6 BE       		.byte	0xbe
 809 02b7 11       		.byte	0x11
 810 02b8 66020000 		.4byte	0x266
 811 02bc 10       		.byte	0x10
 812 02bd 09       		.uleb128 0x9
 813 02be 723900   		.ascii	"r9\000"
 814 02c1 08       		.byte	0x8
 815 02c2 BF       		.byte	0xbf
 816 02c3 11       		.byte	0x11
 817 02c4 66020000 		.4byte	0x266
 818 02c8 14       		.byte	0x14
 819 02c9 09       		.uleb128 0x9
 820 02ca 72313000 		.ascii	"r10\000"
 821 02ce 08       		.byte	0x8
 822 02cf C0       		.byte	0xc0
 823 02d0 11       		.byte	0x11
 824 02d1 66020000 		.4byte	0x266
 825 02d5 18       		.byte	0x18
 826 02d6 09       		.uleb128 0x9
 827 02d7 72313100 		.ascii	"r11\000"
 828 02db 08       		.byte	0x8
 829 02dc C1       		.byte	0xc1
 830 02dd 11       		.byte	0x11
 831 02de 66020000 		.4byte	0x266
 832 02e2 1C       		.byte	0x1c
 833 02e3 09       		.uleb128 0x9
 834 02e4 6C7200   		.ascii	"lr\000"
 835 02e7 08       		.byte	0x8
 836 02e8 C2       		.byte	0xc2
 837 02e9 11       		.byte	0x11
 838 02ea 66020000 		.4byte	0x266
 839 02ee 20       		.byte	0x20
 840 02ef 00       		.byte	0
 841 02f0 07       		.uleb128 0x7
 842 02f1 8B060000 		.4byte	.LASF43
 843 02f5 04       		.byte	0x4
 844 02f6 08       		.byte	0x8
 845 02f7 CA       		.byte	0xca
 846 02f8 08       		.byte	0x8
 847 02f9 0B030000 		.4byte	0x30b
 848 02fd 09       		.uleb128 0x9
 849 02fe 72313300 		.ascii	"r13\000"
 850 0302 08       		.byte	0x8
 851 0303 CB       		.byte	0xcb
 852 0304 12       		.byte	0x12
 853 0305 0B030000 		.4byte	0x30b
 854 0309 00       		.byte	0
 855 030a 00       		.byte	0
ARM GAS  /var/folders/l5/0x54b2c10074c8bt31ycjvl80000gp/T//cc42yioC.s 			page 16


 856 030b 0B       		.uleb128 0xb
 857 030c 04       		.byte	0x4
 858 030d 74020000 		.4byte	0x274
 859 0311 03       		.uleb128 0x3
 860 0312 8D030000 		.4byte	.LASF44
 861 0316 09       		.byte	0x9
 862 0317 4E       		.byte	0x4e
 863 0318 10       		.byte	0x10
 864 0319 1D030000 		.4byte	0x31d
 865 031d 0B       		.uleb128 0xb
 866 031e 04       		.byte	0x4
 867 031f 23030000 		.4byte	0x323
 868 0323 0D       		.uleb128 0xd
 869 0324 2E030000 		.4byte	0x32e
 870 0328 0E       		.uleb128 0xe
 871 0329 72020000 		.4byte	0x272
 872 032d 00       		.byte	0
 873 032e 03       		.uleb128 0x3
 874 032f 12060000 		.4byte	.LASF45
 875 0333 09       		.byte	0x9
 876 0334 53       		.byte	0x53
 877 0335 1D       		.byte	0x1d
 878 0336 3A030000 		.4byte	0x33a
 879 033a 07       		.uleb128 0x7
 880 033b 12060000 		.4byte	.LASF45
 881 033f 14       		.byte	0x14
 882 0340 09       		.byte	0x9
 883 0341 5A       		.byte	0x5a
 884 0342 08       		.byte	0x8
 885 0343 89030000 		.4byte	0x389
 886 0347 08       		.uleb128 0x8
 887 0348 42030000 		.4byte	.LASF46
 888 034c 09       		.byte	0x9
 889 034d 5B       		.byte	0x5b
 890 034e 1A       		.byte	0x1a
 891 034f 89030000 		.4byte	0x389
 892 0353 00       		.byte	0
 893 0354 08       		.uleb128 0x8
 894 0355 30020000 		.4byte	.LASF47
 895 0359 09       		.byte	0x9
 896 035a 5D       		.byte	0x5d
 897 035b 1A       		.byte	0x1a
 898 035c 89030000 		.4byte	0x389
 899 0360 04       		.byte	0x4
 900 0361 08       		.uleb128 0x8
 901 0362 4A040000 		.4byte	.LASF48
 902 0366 09       		.byte	0x9
 903 0367 5F       		.byte	0x5f
 904 0368 19       		.byte	0x19
 905 0369 3A010000 		.4byte	0x13a
 906 036d 08       		.byte	0x8
 907 036e 08       		.uleb128 0x8
 908 036f 72040000 		.4byte	.LASF49
 909 0373 09       		.byte	0x9
 910 0374 60       		.byte	0x60
 911 0375 19       		.byte	0x19
 912 0376 11030000 		.4byte	0x311
ARM GAS  /var/folders/l5/0x54b2c10074c8bt31ycjvl80000gp/T//cc42yioC.s 			page 17


 913 037a 0C       		.byte	0xc
 914 037b 08       		.uleb128 0x8
 915 037c B1060000 		.4byte	.LASF50
 916 0380 09       		.byte	0x9
 917 0381 62       		.byte	0x62
 918 0382 1A       		.byte	0x1a
 919 0383 72020000 		.4byte	0x272
 920 0387 10       		.byte	0x10
 921 0388 00       		.byte	0
 922 0389 0B       		.uleb128 0xb
 923 038a 04       		.byte	0x4
 924 038b 2E030000 		.4byte	0x32e
 925 038f 0A       		.uleb128 0xa
 926 0390 10       		.byte	0x10
 927 0391 09       		.byte	0x9
 928 0392 6C       		.byte	0x6c
 929 0393 09       		.byte	0x9
 930 0394 CD030000 		.4byte	0x3cd
 931 0398 08       		.uleb128 0x8
 932 0399 42030000 		.4byte	.LASF46
 933 039d 09       		.byte	0x9
 934 039e 6D       		.byte	0x6d
 935 039f 1A       		.byte	0x1a
 936 03a0 89030000 		.4byte	0x389
 937 03a4 00       		.byte	0
 938 03a5 08       		.uleb128 0x8
 939 03a6 30020000 		.4byte	.LASF47
 940 03aa 09       		.byte	0x9
 941 03ab 6F       		.byte	0x6f
 942 03ac 1A       		.byte	0x1a
 943 03ad 89030000 		.4byte	0x389
 944 03b1 04       		.byte	0x4
 945 03b2 08       		.uleb128 0x8
 946 03b3 4A040000 		.4byte	.LASF48
 947 03b7 09       		.byte	0x9
 948 03b8 71       		.byte	0x71
 949 03b9 19       		.byte	0x19
 950 03ba 3A010000 		.4byte	0x13a
 951 03be 08       		.byte	0x8
 952 03bf 08       		.uleb128 0x8
 953 03c0 5E070000 		.4byte	.LASF51
 954 03c4 09       		.byte	0x9
 955 03c5 72       		.byte	0x72
 956 03c6 19       		.byte	0x19
 957 03c7 46010000 		.4byte	0x146
 958 03cb 0C       		.byte	0xc
 959 03cc 00       		.byte	0
 960 03cd 03       		.uleb128 0x3
 961 03ce 8D040000 		.4byte	.LASF52
 962 03d2 09       		.byte	0x9
 963 03d3 73       		.byte	0x73
 964 03d4 03       		.byte	0x3
 965 03d5 8F030000 		.4byte	0x38f
 966 03d9 0F       		.uleb128 0xf
 967 03da 24000000 		.4byte	.LASF58
 968 03de 09       		.byte	0x9
 969 03df D1       		.byte	0xd1
ARM GAS  /var/folders/l5/0x54b2c10074c8bt31ycjvl80000gp/T//cc42yioC.s 			page 18


 970 03e0 0F       		.byte	0xf
 971 03e1 CD030000 		.4byte	0x3cd
 972 03e5 0A       		.uleb128 0xa
 973 03e6 14       		.byte	0x14
 974 03e7 0A       		.byte	0xa
 975 03e8 57       		.byte	0x57
 976 03e9 09       		.byte	0x9
 977 03ea 23040000 		.4byte	0x423
 978 03ee 08       		.uleb128 0x8
 979 03ef 0A060000 		.4byte	.LASF53
 980 03f3 0A       		.byte	0xa
 981 03f4 58       		.byte	0x58
 982 03f5 19       		.byte	0x19
 983 03f6 2B020000 		.4byte	0x22b
 984 03fa 00       		.byte	0
 985 03fb 08       		.uleb128 0x8
 986 03fc AC050000 		.4byte	.LASF54
 987 0400 0A       		.byte	0xa
 988 0401 59       		.byte	0x59
 989 0402 19       		.byte	0x19
 990 0403 0A010000 		.4byte	0x10a
 991 0407 08       		.byte	0x8
 992 0408 08       		.uleb128 0x8
 993 0409 A4040000 		.4byte	.LASF55
 994 040d 0A       		.byte	0xa
 995 040e 5B       		.byte	0x5b
 996 040f 19       		.byte	0x19
 997 0410 F0020000 		.4byte	0x2f0
 998 0414 0C       		.byte	0xc
 999 0415 08       		.uleb128 0x8
 1000 0416 BF040000 		.4byte	.LASF56
 1001 041a 0A       		.byte	0xa
 1002 041b 62       		.byte	0x62
 1003 041c 1A       		.byte	0x1a
 1004 041d 25020000 		.4byte	0x225
 1005 0421 10       		.byte	0x10
 1006 0422 00       		.byte	0
 1007 0423 03       		.uleb128 0x3
 1008 0424 0A070000 		.4byte	.LASF57
 1009 0428 0A       		.byte	0xa
 1010 0429 64       		.byte	0x64
 1011 042a 03       		.byte	0x3
 1012 042b E5030000 		.4byte	0x3e5
 1013 042f 0F       		.uleb128 0xf
 1014 0430 1D070000 		.4byte	.LASF59
 1015 0434 0A       		.byte	0xa
 1016 0435 68       		.byte	0x68
 1017 0436 12       		.byte	0x12
 1018 0437 23040000 		.4byte	0x423
 1019 043b 07       		.uleb128 0x7
 1020 043c 0E040000 		.4byte	.LASF60
 1021 0440 10       		.byte	0x10
 1022 0441 0B       		.byte	0xb
 1023 0442 25       		.byte	0x25
 1024 0443 10       		.byte	0x10
 1025 0444 70040000 		.4byte	0x470
 1026 0448 08       		.uleb128 0x8
ARM GAS  /var/folders/l5/0x54b2c10074c8bt31ycjvl80000gp/T//cc42yioC.s 			page 19


 1027 0449 F9000000 		.4byte	.LASF61
 1028 044d 0B       		.byte	0xb
 1029 044e 26       		.byte	0x26
 1030 044f 19       		.byte	0x19
 1031 0450 2B020000 		.4byte	0x22b
 1032 0454 00       		.byte	0
 1033 0455 08       		.uleb128 0x8
 1034 0456 82070000 		.4byte	.LASF62
 1035 045a 0B       		.byte	0xb
 1036 045b 28       		.byte	0x28
 1037 045c 1A       		.byte	0x1a
 1038 045d 25020000 		.4byte	0x225
 1039 0461 08       		.byte	0x8
 1040 0462 08       		.uleb128 0x8
 1041 0463 51060000 		.4byte	.LASF63
 1042 0467 0B       		.byte	0xb
 1043 0468 2A       		.byte	0x2a
 1044 0469 1A       		.byte	0x1a
 1045 046a 70040000 		.4byte	0x470
 1046 046e 0C       		.byte	0xc
 1047 046f 00       		.byte	0
 1048 0470 0B       		.uleb128 0xb
 1049 0471 04       		.byte	0x4
 1050 0472 3B040000 		.4byte	0x43b
 1051 0476 03       		.uleb128 0x3
 1052 0477 0E040000 		.4byte	.LASF60
 1053 047b 0B       		.byte	0xb
 1054 047c 2C       		.byte	0x2c
 1055 047d 03       		.byte	0x3
 1056 047e 3B040000 		.4byte	0x43b
 1057 0482 03       		.uleb128 0x3
 1058 0483 49070000 		.4byte	.LASF64
 1059 0487 0C       		.byte	0xc
 1060 0488 25       		.byte	0x25
 1061 0489 1E       		.byte	0x1e
 1062 048a 8E040000 		.4byte	0x48e
 1063 048e 07       		.uleb128 0x7
 1064 048f 49070000 		.4byte	.LASF64
 1065 0493 10       		.byte	0x10
 1066 0494 0C       		.byte	0xc
 1067 0495 2A       		.byte	0x2a
 1068 0496 08       		.byte	0x8
 1069 0497 D0040000 		.4byte	0x4d0
 1070 049b 08       		.uleb128 0x8
 1071 049c D4030000 		.4byte	.LASF65
 1072 04a0 0C       		.byte	0xc
 1073 04a1 2B       		.byte	0x2b
 1074 04a2 1A       		.byte	0x1a
 1075 04a3 D0040000 		.4byte	0x4d0
 1076 04a7 00       		.byte	0
 1077 04a8 08       		.uleb128 0x8
 1078 04a9 61050000 		.4byte	.LASF66
 1079 04ad 0C       		.byte	0xc
 1080 04ae 2E       		.byte	0x2e
 1081 04af 1A       		.byte	0x1a
 1082 04b0 25020000 		.4byte	0x225
 1083 04b4 04       		.byte	0x4
ARM GAS  /var/folders/l5/0x54b2c10074c8bt31ycjvl80000gp/T//cc42yioC.s 			page 20


 1084 04b5 08       		.uleb128 0x8
 1085 04b6 C9040000 		.4byte	.LASF67
 1086 04ba 0C       		.byte	0xc
 1087 04bb 30       		.byte	0x30
 1088 04bc 19       		.byte	0x19
 1089 04bd 22010000 		.4byte	0x122
 1090 04c1 08       		.byte	0x8
 1091 04c2 08       		.uleb128 0x8
 1092 04c3 6D050000 		.4byte	.LASF68
 1093 04c7 0C       		.byte	0xc
 1094 04c8 33       		.byte	0x33
 1095 04c9 19       		.byte	0x19
 1096 04ca 2E010000 		.4byte	0x12e
 1097 04ce 0C       		.byte	0xc
 1098 04cf 00       		.byte	0
 1099 04d0 0B       		.uleb128 0xb
 1100 04d1 04       		.byte	0x4
 1101 04d2 82040000 		.4byte	0x482
 1102 04d6 07       		.uleb128 0x7
 1103 04d7 29030000 		.4byte	.LASF69
 1104 04db 04       		.byte	0x4
 1105 04dc 0C       		.byte	0xc
 1106 04dd 3A       		.byte	0x3a
 1107 04de 10       		.byte	0x10
 1108 04df F1040000 		.4byte	0x4f1
 1109 04e3 08       		.uleb128 0x8
 1110 04e4 FB060000 		.4byte	.LASF70
 1111 04e8 0C       		.byte	0xc
 1112 04e9 3B       		.byte	0x3b
 1113 04ea 1A       		.byte	0x1a
 1114 04eb D0040000 		.4byte	0x4d0
 1115 04ef 00       		.byte	0
 1116 04f0 00       		.byte	0
 1117 04f1 03       		.uleb128 0x3
 1118 04f2 29030000 		.4byte	.LASF69
 1119 04f6 0C       		.byte	0xc
 1120 04f7 3E       		.byte	0x3e
 1121 04f8 03       		.byte	0x3
 1122 04f9 D6040000 		.4byte	0x4d6
 1123 04fd 10       		.uleb128 0x10
 1124 04fe 04       		.byte	0x4
 1125 04ff 07       		.byte	0x7
 1126 0500 8F       		.byte	0x8f
 1127 0501 03       		.byte	0x3
 1128 0502 37050000 		.4byte	0x537
 1129 0506 11       		.uleb128 0x11
 1130 0507 07000000 		.4byte	.LASF71
 1131 050b 07       		.byte	0x7
 1132 050c 96       		.byte	0x96
 1133 050d 19       		.byte	0x19
 1134 050e 16010000 		.4byte	0x116
 1135 0512 11       		.uleb128 0x11
 1136 0513 6E000000 		.4byte	.LASF72
 1137 0517 07       		.byte	0x7
 1138 0518 9D       		.byte	0x9d
 1139 0519 19       		.byte	0x19
 1140 051a 16010000 		.4byte	0x116
ARM GAS  /var/folders/l5/0x54b2c10074c8bt31ycjvl80000gp/T//cc42yioC.s 			page 21


 1141 051e 11       		.uleb128 0x11
 1142 051f 57070000 		.4byte	.LASF73
 1143 0523 07       		.byte	0x7
 1144 0524 A4       		.byte	0xa4
 1145 0525 1A       		.byte	0x1a
 1146 0526 72020000 		.4byte	0x272
 1147 052a 11       		.uleb128 0x11
 1148 052b BC050000 		.4byte	.LASF74
 1149 052f 07       		.byte	0x7
 1150 0530 AB       		.byte	0xab
 1151 0531 19       		.byte	0x19
 1152 0532 22010000 		.4byte	0x122
 1153 0536 00       		.byte	0
 1154 0537 0B       		.uleb128 0xb
 1155 0538 04       		.byte	0x4
 1156 0539 76040000 		.4byte	0x476
 1157 053d 0B       		.uleb128 0xb
 1158 053e 04       		.byte	0x4
 1159 053f 43050000 		.4byte	0x543
 1160 0543 12       		.uleb128 0x12
 1161 0544 16010000 		.4byte	0x116
 1162 0548 52050000 		.4byte	0x552
 1163 054c 0E       		.uleb128 0xe
 1164 054d 72020000 		.4byte	0x272
 1165 0551 00       		.byte	0
 1166 0552 03       		.uleb128 0x3
 1167 0553 14040000 		.4byte	.LASF75
 1168 0557 0D       		.byte	0xd
 1169 0558 30       		.byte	0x30
 1170 0559 1D       		.byte	0x1d
 1171 055a 5E050000 		.4byte	0x55e
 1172 055e 07       		.uleb128 0x7
 1173 055f 14040000 		.4byte	.LASF75
 1174 0563 24       		.byte	0x24
 1175 0564 0D       		.byte	0xd
 1176 0565 3E       		.byte	0x3e
 1177 0566 08       		.byte	0x8
 1178 0567 D4050000 		.4byte	0x5d4
 1179 056b 08       		.uleb128 0x8
 1180 056c CD000000 		.4byte	.LASF76
 1181 0570 0D       		.byte	0xd
 1182 0571 3F       		.byte	0x3f
 1183 0572 19       		.byte	0x19
 1184 0573 2B020000 		.4byte	0x22b
 1185 0577 00       		.byte	0
 1186 0578 08       		.uleb128 0x8
 1187 0579 68040000 		.4byte	.LASF77
 1188 057d 0D       		.byte	0xd
 1189 057e 40       		.byte	0x40
 1190 057f 19       		.byte	0x19
 1191 0580 2C000000 		.4byte	0x2c
 1192 0584 08       		.byte	0x8
 1193 0585 08       		.uleb128 0x8
 1194 0586 D9010000 		.4byte	.LASF78
 1195 058a 0D       		.byte	0xd
 1196 058b 41       		.byte	0x41
 1197 058c 1A       		.byte	0x1a
ARM GAS  /var/folders/l5/0x54b2c10074c8bt31ycjvl80000gp/T//cc42yioC.s 			page 22


 1198 058d F7050000 		.4byte	0x5f7
 1199 0591 0C       		.byte	0xc
 1200 0592 08       		.uleb128 0x8
 1201 0593 E8060000 		.4byte	.LASF79
 1202 0597 0D       		.byte	0xd
 1203 0598 42       		.byte	0x42
 1204 0599 1A       		.byte	0x1a
 1205 059a F7050000 		.4byte	0x5f7
 1206 059e 10       		.byte	0x10
 1207 059f 08       		.uleb128 0x8
 1208 05a0 9C040000 		.4byte	.LASF80
 1209 05a4 0D       		.byte	0xd
 1210 05a5 44       		.byte	0x44
 1211 05a6 1A       		.byte	0x1a
 1212 05a7 F7050000 		.4byte	0x5f7
 1213 05ab 14       		.byte	0x14
 1214 05ac 08       		.uleb128 0x8
 1215 05ad 24050000 		.4byte	.LASF81
 1216 05b1 0D       		.byte	0xd
 1217 05b2 45       		.byte	0x45
 1218 05b3 1A       		.byte	0x1a
 1219 05b4 F7050000 		.4byte	0x5f7
 1220 05b8 18       		.byte	0x18
 1221 05b9 08       		.uleb128 0x8
 1222 05ba 14070000 		.4byte	.LASF82
 1223 05be 0D       		.byte	0xd
 1224 05bf 46       		.byte	0x46
 1225 05c0 19       		.byte	0x19
 1226 05c1 D4050000 		.4byte	0x5d4
 1227 05c5 1C       		.byte	0x1c
 1228 05c6 08       		.uleb128 0x8
 1229 05c7 71070000 		.4byte	.LASF83
 1230 05cb 0D       		.byte	0xd
 1231 05cc 47       		.byte	0x47
 1232 05cd 1A       		.byte	0x1a
 1233 05ce 72020000 		.4byte	0x272
 1234 05d2 20       		.byte	0x20
 1235 05d3 00       		.byte	0
 1236 05d4 03       		.uleb128 0x3
 1237 05d5 FD040000 		.4byte	.LASF84
 1238 05d9 0D       		.byte	0xd
 1239 05da 33       		.byte	0x33
 1240 05db 10       		.byte	0x10
 1241 05dc E0050000 		.4byte	0x5e0
 1242 05e0 0B       		.uleb128 0xb
 1243 05e1 04       		.byte	0x4
 1244 05e2 E6050000 		.4byte	0x5e6
 1245 05e6 0D       		.uleb128 0xd
 1246 05e7 F1050000 		.4byte	0x5f1
 1247 05eb 0E       		.uleb128 0xe
 1248 05ec F1050000 		.4byte	0x5f1
 1249 05f0 00       		.byte	0
 1250 05f1 0B       		.uleb128 0xb
 1251 05f2 04       		.byte	0x4
 1252 05f3 52050000 		.4byte	0x552
 1253 05f7 0B       		.uleb128 0xb
 1254 05f8 04       		.byte	0x4
ARM GAS  /var/folders/l5/0x54b2c10074c8bt31ycjvl80000gp/T//cc42yioC.s 			page 23


 1255 05f9 99000000 		.4byte	0x99
 1256 05fd 03       		.uleb128 0x3
 1257 05fe 03040000 		.4byte	.LASF85
 1258 0602 0D       		.byte	0xd
 1259 0603 7B       		.byte	0x7b
 1260 0604 16       		.byte	0x16
 1261 0605 52050000 		.4byte	0x552
 1262 0609 03       		.uleb128 0x3
 1263 060a 0E000000 		.4byte	.LASF86
 1264 060e 0D       		.byte	0xd
 1265 060f EE       		.byte	0xee
 1266 0610 16       		.byte	0x16
 1267 0611 52050000 		.4byte	0x552
 1268 0615 12       		.uleb128 0x12
 1269 0616 2C000000 		.4byte	0x2c
 1270 061a 2E060000 		.4byte	0x62e
 1271 061e 0E       		.uleb128 0xe
 1272 061f 72020000 		.4byte	0x272
 1273 0623 0E       		.uleb128 0xe
 1274 0624 2E060000 		.4byte	0x62e
 1275 0628 0E       		.uleb128 0xe
 1276 0629 2C000000 		.4byte	0x2c
 1277 062d 00       		.byte	0
 1278 062e 0B       		.uleb128 0xb
 1279 062f 04       		.byte	0x4
 1280 0630 A5000000 		.4byte	0xa5
 1281 0634 0B       		.uleb128 0xb
 1282 0635 04       		.byte	0x4
 1283 0636 15060000 		.4byte	0x615
 1284 063a 12       		.uleb128 0x12
 1285 063b 2C000000 		.4byte	0x2c
 1286 063f 53060000 		.4byte	0x653
 1287 0643 0E       		.uleb128 0xe
 1288 0644 72020000 		.4byte	0x272
 1289 0648 0E       		.uleb128 0xe
 1290 0649 F7050000 		.4byte	0x5f7
 1291 064d 0E       		.uleb128 0xe
 1292 064e 2C000000 		.4byte	0x2c
 1293 0652 00       		.byte	0
 1294 0653 0B       		.uleb128 0xb
 1295 0654 04       		.byte	0x4
 1296 0655 3A060000 		.4byte	0x63a
 1297 0659 12       		.uleb128 0x12
 1298 065a 16010000 		.4byte	0x116
 1299 065e 6D060000 		.4byte	0x66d
 1300 0662 0E       		.uleb128 0xe
 1301 0663 72020000 		.4byte	0x272
 1302 0667 0E       		.uleb128 0xe
 1303 0668 99000000 		.4byte	0x99
 1304 066c 00       		.byte	0
 1305 066d 0B       		.uleb128 0xb
 1306 066e 04       		.byte	0x4
 1307 066f 59060000 		.4byte	0x659
 1308 0673 13       		.uleb128 0x13
 1309 0674 5A020000 		.4byte	0x25a
 1310 0678 83060000 		.4byte	0x683
 1311 067c 14       		.uleb128 0x14
ARM GAS  /var/folders/l5/0x54b2c10074c8bt31ycjvl80000gp/T//cc42yioC.s 			page 24


 1312 067d 38000000 		.4byte	0x38
 1313 0681 1F       		.byte	0x1f
 1314 0682 00       		.byte	0
 1315 0683 0F       		.uleb128 0xf
 1316 0684 04020000 		.4byte	.LASF87
 1317 0688 0E       		.byte	0xe
 1318 0689 82       		.byte	0x82
 1319 068a 08       		.byte	0x8
 1320 068b 73060000 		.4byte	0x673
 1321 068f 07       		.uleb128 0x7
 1322 0690 2B000000 		.4byte	.LASF88
 1323 0694 20       		.byte	0x20
 1324 0695 0F       		.byte	0xf
 1325 0696 FD       		.byte	0xfd
 1326 0697 08       		.byte	0x8
 1327 0698 0B070000 		.4byte	0x70b
 1328 069c 08       		.uleb128 0x8
 1329 069d 14020000 		.4byte	.LASF89
 1330 06a1 0F       		.byte	0xf
 1331 06a2 FE       		.byte	0xfe
 1332 06a3 19       		.byte	0x19
 1333 06a4 E1000000 		.4byte	0xe1
 1334 06a8 00       		.byte	0
 1335 06a9 08       		.uleb128 0x8
 1336 06aa 03070000 		.4byte	.LASF90
 1337 06ae 0F       		.byte	0xf
 1338 06af FF       		.byte	0xff
 1339 06b0 19       		.byte	0x19
 1340 06b1 E1000000 		.4byte	0xe1
 1341 06b5 04       		.byte	0x4
 1342 06b6 15       		.uleb128 0x15
 1343 06b7 F9010000 		.4byte	.LASF91
 1344 06bb 0F       		.byte	0xf
 1345 06bc 0001     		.2byte	0x100
 1346 06be 19       		.byte	0x19
 1347 06bf E1000000 		.4byte	0xe1
 1348 06c3 08       		.byte	0x8
 1349 06c4 15       		.uleb128 0x15
 1350 06c5 38020000 		.4byte	.LASF92
 1351 06c9 0F       		.byte	0xf
 1352 06ca 0101     		.2byte	0x101
 1353 06cc 19       		.byte	0x19
 1354 06cd E1000000 		.4byte	0xe1
 1355 06d1 0C       		.byte	0xc
 1356 06d2 15       		.uleb128 0x15
 1357 06d3 97000000 		.4byte	.LASF93
 1358 06d7 0F       		.byte	0xf
 1359 06d8 0201     		.2byte	0x102
 1360 06da 19       		.byte	0x19
 1361 06db E1000000 		.4byte	0xe1
 1362 06df 10       		.byte	0x10
 1363 06e0 15       		.uleb128 0x15
 1364 06e1 5B040000 		.4byte	.LASF94
 1365 06e5 0F       		.byte	0xf
 1366 06e6 0301     		.2byte	0x103
 1367 06e8 19       		.byte	0x19
 1368 06e9 E1000000 		.4byte	0xe1
ARM GAS  /var/folders/l5/0x54b2c10074c8bt31ycjvl80000gp/T//cc42yioC.s 			page 25


 1369 06ed 14       		.byte	0x14
 1370 06ee 15       		.uleb128 0x15
 1371 06ef CF010000 		.4byte	.LASF95
 1372 06f3 0F       		.byte	0xf
 1373 06f4 0401     		.2byte	0x104
 1374 06f6 19       		.byte	0x19
 1375 06f7 E1000000 		.4byte	0xe1
 1376 06fb 18       		.byte	0x18
 1377 06fc 15       		.uleb128 0x15
 1378 06fd B5070000 		.4byte	.LASF96
 1379 0701 0F       		.byte	0xf
 1380 0702 0501     		.2byte	0x105
 1381 0704 19       		.byte	0x19
 1382 0705 E1000000 		.4byte	0xe1
 1383 0709 1C       		.byte	0x1c
 1384 070a 00       		.byte	0
 1385 070b 16       		.uleb128 0x16
 1386 070c 2B000000 		.4byte	.LASF88
 1387 0710 0F       		.byte	0xf
 1388 0711 0801     		.2byte	0x108
 1389 0713 1C       		.byte	0x1c
 1390 0714 8F060000 		.4byte	0x68f
 1391 0718 12       		.uleb128 0x12
 1392 0719 16010000 		.4byte	0x116
 1393 071d 31070000 		.4byte	0x731
 1394 0721 0E       		.uleb128 0xe
 1395 0722 72020000 		.4byte	0x272
 1396 0726 0E       		.uleb128 0xe
 1397 0727 99000000 		.4byte	0x99
 1398 072b 0E       		.uleb128 0xe
 1399 072c 3A010000 		.4byte	0x13a
 1400 0730 00       		.byte	0
 1401 0731 0B       		.uleb128 0xb
 1402 0732 04       		.byte	0x4
 1403 0733 18070000 		.4byte	0x718
 1404 0737 12       		.uleb128 0x12
 1405 0738 16010000 		.4byte	0x116
 1406 073c 4B070000 		.4byte	0x74b
 1407 0740 0E       		.uleb128 0xe
 1408 0741 72020000 		.4byte	0x272
 1409 0745 0E       		.uleb128 0xe
 1410 0746 3A010000 		.4byte	0x13a
 1411 074a 00       		.byte	0
 1412 074b 0B       		.uleb128 0xb
 1413 074c 04       		.byte	0x4
 1414 074d 37070000 		.4byte	0x737
 1415 0751 12       		.uleb128 0x12
 1416 0752 2C000000 		.4byte	0x2c
 1417 0756 6F070000 		.4byte	0x76f
 1418 075a 0E       		.uleb128 0xe
 1419 075b 72020000 		.4byte	0x272
 1420 075f 0E       		.uleb128 0xe
 1421 0760 2E060000 		.4byte	0x62e
 1422 0764 0E       		.uleb128 0xe
 1423 0765 2C000000 		.4byte	0x2c
 1424 0769 0E       		.uleb128 0xe
 1425 076a 3A010000 		.4byte	0x13a
ARM GAS  /var/folders/l5/0x54b2c10074c8bt31ycjvl80000gp/T//cc42yioC.s 			page 26


 1426 076e 00       		.byte	0
 1427 076f 0B       		.uleb128 0xb
 1428 0770 04       		.byte	0x4
 1429 0771 51070000 		.4byte	0x751
 1430 0775 12       		.uleb128 0x12
 1431 0776 2C000000 		.4byte	0x2c
 1432 077a 93070000 		.4byte	0x793
 1433 077e 0E       		.uleb128 0xe
 1434 077f 72020000 		.4byte	0x272
 1435 0783 0E       		.uleb128 0xe
 1436 0784 F7050000 		.4byte	0x5f7
 1437 0788 0E       		.uleb128 0xe
 1438 0789 2C000000 		.4byte	0x2c
 1439 078d 0E       		.uleb128 0xe
 1440 078e 3A010000 		.4byte	0x13a
 1441 0792 00       		.byte	0
 1442 0793 0B       		.uleb128 0xb
 1443 0794 04       		.byte	0x4
 1444 0795 75070000 		.4byte	0x775
 1445 0799 0A       		.uleb128 0xa
 1446 079a 18       		.byte	0x18
 1447 079b 10       		.byte	0x10
 1448 079c 2A       		.byte	0x2a
 1449 079d 09       		.byte	0x9
 1450 079e F1070000 		.4byte	0x7f1
 1451 07a2 08       		.uleb128 0x8
 1452 07a3 2B070000 		.4byte	.LASF97
 1453 07a7 10       		.byte	0x10
 1454 07a8 2F       		.byte	0x2f
 1455 07a9 15       		.byte	0x15
 1456 07aa C2000000 		.4byte	0xc2
 1457 07ae 00       		.byte	0
 1458 07af 08       		.uleb128 0x8
 1459 07b0 96030000 		.4byte	.LASF98
 1460 07b4 10       		.byte	0x10
 1461 07b5 31       		.byte	0x31
 1462 07b6 16       		.byte	0x16
 1463 07b7 F1070000 		.4byte	0x7f1
 1464 07bb 04       		.byte	0x4
 1465 07bc 08       		.uleb128 0x8
 1466 07bd C1030000 		.4byte	.LASF99
 1467 07c1 10       		.byte	0x10
 1468 07c2 32       		.byte	0x32
 1469 07c3 16       		.byte	0x16
 1470 07c4 F1070000 		.4byte	0x7f1
 1471 07c8 08       		.byte	0x8
 1472 07c9 08       		.uleb128 0x8
 1473 07ca 3F040000 		.4byte	.LASF100
 1474 07ce 10       		.byte	0x10
 1475 07cf 33       		.byte	0x33
 1476 07d0 16       		.byte	0x16
 1477 07d1 F1070000 		.4byte	0x7f1
 1478 07d5 0C       		.byte	0xc
 1479 07d6 08       		.uleb128 0x8
 1480 07d7 E3040000 		.4byte	.LASF101
 1481 07db 10       		.byte	0x10
 1482 07dc 34       		.byte	0x34
ARM GAS  /var/folders/l5/0x54b2c10074c8bt31ycjvl80000gp/T//cc42yioC.s 			page 27


 1483 07dd 16       		.byte	0x16
 1484 07de F1070000 		.4byte	0x7f1
 1485 07e2 10       		.byte	0x10
 1486 07e3 08       		.uleb128 0x8
 1487 07e4 B3050000 		.4byte	.LASF102
 1488 07e8 10       		.byte	0x10
 1489 07e9 35       		.byte	0x35
 1490 07ea 10       		.byte	0x10
 1491 07eb DA000000 		.4byte	0xda
 1492 07ef 14       		.byte	0x14
 1493 07f0 00       		.byte	0
 1494 07f1 0B       		.uleb128 0xb
 1495 07f2 04       		.byte	0x4
 1496 07f3 CE000000 		.4byte	0xce
 1497 07f7 03       		.uleb128 0x3
 1498 07f8 B5030000 		.4byte	.LASF103
 1499 07fc 10       		.byte	0x10
 1500 07fd 37       		.byte	0x37
 1501 07fe 03       		.byte	0x3
 1502 07ff 99070000 		.4byte	0x799
 1503 0803 17       		.uleb128 0x17
 1504 0804 00       		.byte	0
 1505 0805 10       		.byte	0x10
 1506 0806 43       		.byte	0x43
 1507 0807 09       		.byte	0x9
 1508 0808 03       		.uleb128 0x3
 1509 0809 78070000 		.4byte	.LASF104
 1510 080d 10       		.byte	0x10
 1511 080e 45       		.byte	0x45
 1512 080f 03       		.byte	0x3
 1513 0810 03080000 		.4byte	0x803
 1514 0814 04       		.uleb128 0x4
 1515 0815 08080000 		.4byte	0x808
 1516 0819 0F       		.uleb128 0xf
 1517 081a B7040000 		.4byte	.LASF105
 1518 081e 10       		.byte	0x10
 1519 081f 6D       		.byte	0x6d
 1520 0820 14       		.byte	0x14
 1521 0821 F7070000 		.4byte	0x7f7
 1522 0825 0F       		.uleb128 0xf
 1523 0826 CA050000 		.4byte	.LASF106
 1524 082a 10       		.byte	0x10
 1525 082b 6E       		.byte	0x6e
 1526 082c 14       		.byte	0x14
 1527 082d F7070000 		.4byte	0x7f7
 1528 0831 0F       		.uleb128 0xf
 1529 0832 8A070000 		.4byte	.LASF107
 1530 0836 10       		.byte	0x10
 1531 0837 75       		.byte	0x75
 1532 0838 18       		.byte	0x18
 1533 0839 14080000 		.4byte	0x814
 1534 083d 18       		.uleb128 0x18
 1535 083e 07       		.byte	0x7
 1536 083f 04       		.byte	0x4
 1537 0840 DA000000 		.4byte	0xda
 1538 0844 11       		.byte	0x11
 1539 0845 54       		.byte	0x54
ARM GAS  /var/folders/l5/0x54b2c10074c8bt31ycjvl80000gp/T//cc42yioC.s 			page 28


 1540 0846 0E       		.byte	0xe
 1541 0847 70080000 		.4byte	0x870
 1542 084b 19       		.uleb128 0x19
 1543 084c 4A010000 		.4byte	.LASF108
 1544 0850 00       		.byte	0
 1545 0851 19       		.uleb128 0x19
 1546 0852 52040000 		.4byte	.LASF109
 1547 0856 01       		.byte	0x1
 1548 0857 19       		.uleb128 0x19
 1549 0858 77060000 		.4byte	.LASF110
 1550 085c 02       		.byte	0x2
 1551 085d 19       		.uleb128 0x19
 1552 085e EB010000 		.4byte	.LASF111
 1553 0862 03       		.byte	0x3
 1554 0863 19       		.uleb128 0x19
 1555 0864 2C060000 		.4byte	.LASF112
 1556 0868 04       		.byte	0x4
 1557 0869 19       		.uleb128 0x19
 1558 086a E1050000 		.4byte	.LASF113
 1559 086e 05       		.byte	0x5
 1560 086f 00       		.byte	0
 1561 0870 03       		.uleb128 0x3
 1562 0871 F2040000 		.4byte	.LASF114
 1563 0875 11       		.byte	0x11
 1564 0876 5B       		.byte	0x5b
 1565 0877 03       		.byte	0x3
 1566 0878 3D080000 		.4byte	0x83d
 1567 087c 03       		.uleb128 0x3
 1568 087d 81060000 		.4byte	.LASF115
 1569 0881 12       		.byte	0x12
 1570 0882 38       		.byte	0x38
 1571 0883 1A       		.byte	0x1a
 1572 0884 88080000 		.4byte	0x888
 1573 0888 07       		.uleb128 0x7
 1574 0889 81060000 		.4byte	.LASF115
 1575 088d 40       		.byte	0x40
 1576 088e 12       		.byte	0x12
 1577 088f 62       		.byte	0x62
 1578 0890 08       		.byte	0x8
 1579 0891 3F090000 		.4byte	0x93f
 1580 0895 08       		.uleb128 0x8
 1581 0896 5F010000 		.4byte	.LASF116
 1582 089a 12       		.byte	0x12
 1583 089b 64       		.byte	0x64
 1584 089c 1D       		.byte	0x1d
 1585 089d 70080000 		.4byte	0x870
 1586 08a1 00       		.byte	0
 1587 08a2 08       		.uleb128 0x8
 1588 08a3 3F060000 		.4byte	.LASF117
 1589 08a7 12       		.byte	0x12
 1590 08a8 66       		.byte	0x66
 1591 08a9 1E       		.byte	0x1e
 1592 08aa 85090000 		.4byte	0x985
 1593 08ae 04       		.byte	0x4
 1594 08af 08       		.uleb128 0x8
 1595 08b0 60030000 		.4byte	.LASF118
 1596 08b4 12       		.byte	0x12
ARM GAS  /var/folders/l5/0x54b2c10074c8bt31ycjvl80000gp/T//cc42yioC.s 			page 29


 1597 08b5 68       		.byte	0x68
 1598 08b6 1D       		.byte	0x1d
 1599 08b7 3F090000 		.4byte	0x93f
 1600 08bb 08       		.byte	0x8
 1601 08bc 08       		.uleb128 0x8
 1602 08bd C6000000 		.4byte	.LASF119
 1603 08c1 12       		.byte	0x12
 1604 08c2 6A       		.byte	0x6a
 1605 08c3 1E       		.byte	0x1e
 1606 08c4 8B090000 		.4byte	0x98b
 1607 08c8 0C       		.byte	0xc
 1608 08c9 08       		.uleb128 0x8
 1609 08ca 37050000 		.4byte	.LASF120
 1610 08ce 12       		.byte	0x12
 1611 08cf 6D       		.byte	0x6d
 1612 08d0 1D       		.byte	0x1d
 1613 08d1 76040000 		.4byte	0x476
 1614 08d5 10       		.byte	0x10
 1615 08d6 08       		.uleb128 0x8
 1616 08d7 C8010000 		.4byte	.LASF121
 1617 08db 12       		.byte	0x12
 1618 08dc 77       		.byte	0x77
 1619 08dd 1E       		.byte	0x1e
 1620 08de 25020000 		.4byte	0x225
 1621 08e2 20       		.byte	0x20
 1622 08e3 08       		.uleb128 0x8
 1623 08e4 60000000 		.4byte	.LASF122
 1624 08e8 12       		.byte	0x12
 1625 08e9 7B       		.byte	0x7b
 1626 08ea 1D       		.byte	0x1d
 1627 08eb 4B090000 		.4byte	0x94b
 1628 08ef 24       		.byte	0x24
 1629 08f0 08       		.uleb128 0x8
 1630 08f1 4A030000 		.4byte	.LASF123
 1631 08f5 12       		.byte	0x12
 1632 08f6 7F       		.byte	0x7f
 1633 08f7 1E       		.byte	0x1e
 1634 08f8 2E060000 		.4byte	0x62e
 1635 08fc 28       		.byte	0x28
 1636 08fd 08       		.uleb128 0x8
 1637 08fe AD070000 		.4byte	.LASF124
 1638 0902 12       		.byte	0x12
 1639 0903 83       		.byte	0x83
 1640 0904 1D       		.byte	0x1d
 1641 0905 2C000000 		.4byte	0x2c
 1642 0909 2C       		.byte	0x2c
 1643 090a 08       		.uleb128 0x8
 1644 090b E2060000 		.4byte	.LASF125
 1645 090f 12       		.byte	0x12
 1646 0910 87       		.byte	0x87
 1647 0911 1D       		.byte	0x1d
 1648 0912 2C000000 		.4byte	0x2c
 1649 0916 30       		.byte	0x30
 1650 0917 08       		.uleb128 0x8
 1651 0918 37000000 		.4byte	.LASF126
 1652 091c 12       		.byte	0x12
 1653 091d 8B       		.byte	0x8b
ARM GAS  /var/folders/l5/0x54b2c10074c8bt31ycjvl80000gp/T//cc42yioC.s 			page 30


 1654 091e 1E       		.byte	0x1e
 1655 091f F7050000 		.4byte	0x5f7
 1656 0923 34       		.byte	0x34
 1657 0924 08       		.uleb128 0x8
 1658 0925 94040000 		.4byte	.LASF127
 1659 0929 12       		.byte	0x12
 1660 092a 8F       		.byte	0x8f
 1661 092b 1D       		.byte	0x1d
 1662 092c 2C000000 		.4byte	0x2c
 1663 0930 38       		.byte	0x38
 1664 0931 08       		.uleb128 0x8
 1665 0932 EC040000 		.4byte	.LASF128
 1666 0936 12       		.byte	0x12
 1667 0937 93       		.byte	0x93
 1668 0938 1D       		.byte	0x1d
 1669 0939 2C000000 		.4byte	0x2c
 1670 093d 3C       		.byte	0x3c
 1671 093e 00       		.byte	0
 1672 093f 03       		.uleb128 0x3
 1673 0940 2C050000 		.4byte	.LASF129
 1674 0944 12       		.byte	0x12
 1675 0945 42       		.byte	0x42
 1676 0946 12       		.byte	0x12
 1677 0947 C2000000 		.4byte	0xc2
 1678 094b 03       		.uleb128 0x3
 1679 094c 55010000 		.4byte	.LASF130
 1680 0950 12       		.byte	0x12
 1681 0951 48       		.byte	0x48
 1682 0952 12       		.byte	0x12
 1683 0953 AA000000 		.4byte	0xaa
 1684 0957 0B       		.uleb128 0xb
 1685 0958 04       		.byte	0x4
 1686 0959 7C080000 		.4byte	0x87c
 1687 095d 0A       		.uleb128 0xa
 1688 095e 04       		.byte	0x4
 1689 095f 12       		.byte	0x12
 1690 0960 57       		.byte	0x57
 1691 0961 09       		.byte	0x9
 1692 0962 74090000 		.4byte	0x974
 1693 0966 08       		.uleb128 0x8
 1694 0967 7A040000 		.4byte	.LASF131
 1695 096b 12       		.byte	0x12
 1696 096c 59       		.byte	0x59
 1697 096d 1D       		.byte	0x1d
 1698 096e C2000000 		.4byte	0xc2
 1699 0972 00       		.byte	0
 1700 0973 00       		.byte	0
 1701 0974 03       		.uleb128 0x3
 1702 0975 CE060000 		.4byte	.LASF132
 1703 0979 12       		.byte	0x12
 1704 097a 5B       		.byte	0x5b
 1705 097b 03       		.byte	0x3
 1706 097c 5D090000 		.4byte	0x95d
 1707 0980 04       		.uleb128 0x4
 1708 0981 74090000 		.4byte	0x974
 1709 0985 0B       		.uleb128 0xb
 1710 0986 04       		.byte	0x4
ARM GAS  /var/folders/l5/0x54b2c10074c8bt31ycjvl80000gp/T//cc42yioC.s 			page 31


 1711 0987 80090000 		.4byte	0x980
 1712 098b 0B       		.uleb128 0xb
 1713 098c 04       		.byte	0x4
 1714 098d 0B070000 		.4byte	0x70b
 1715 0991 0F       		.uleb128 0xf
 1716 0992 24030000 		.4byte	.LASF133
 1717 0996 12       		.byte	0x12
 1718 0997 A6       		.byte	0xa6
 1719 0998 12       		.byte	0x12
 1720 0999 7C080000 		.4byte	0x87c
 1721 099d 18       		.uleb128 0x18
 1722 099e 07       		.byte	0x7
 1723 099f 04       		.byte	0x4
 1724 09a0 DA000000 		.4byte	0xda
 1725 09a4 13       		.byte	0x13
 1726 09a5 5D       		.byte	0x5d
 1727 09a6 0E       		.byte	0xe
 1728 09a7 BE090000 		.4byte	0x9be
 1729 09ab 19       		.uleb128 0x19
 1730 09ac F7050000 		.4byte	.LASF134
 1731 09b0 00       		.byte	0
 1732 09b1 19       		.uleb128 0x19
 1733 09b2 F1000000 		.4byte	.LASF135
 1734 09b6 01       		.byte	0x1
 1735 09b7 19       		.uleb128 0x19
 1736 09b8 A8060000 		.4byte	.LASF136
 1737 09bc 02       		.byte	0x2
 1738 09bd 00       		.byte	0
 1739 09be 03       		.uleb128 0x3
 1740 09bf D8060000 		.4byte	.LASF137
 1741 09c3 13       		.byte	0x13
 1742 09c4 61       		.byte	0x61
 1743 09c5 03       		.byte	0x3
 1744 09c6 9D090000 		.4byte	0x99d
 1745 09ca 03       		.uleb128 0x3
 1746 09cb 1F060000 		.4byte	.LASF138
 1747 09cf 13       		.byte	0x13
 1748 09d0 66       		.byte	0x66
 1749 09d1 1D       		.byte	0x1d
 1750 09d2 D6090000 		.4byte	0x9d6
 1751 09d6 07       		.uleb128 0x7
 1752 09d7 1F060000 		.4byte	.LASF138
 1753 09db 74       		.byte	0x74
 1754 09dc 13       		.byte	0x13
 1755 09dd 80       		.byte	0x80
 1756 09de 08       		.byte	0x8
 1757 09df 3D0A0000 		.4byte	0xa3d
 1758 09e3 09       		.uleb128 0x9
 1759 09e4 766D7400 		.ascii	"vmt\000"
 1760 09e8 13       		.byte	0x13
 1761 09e9 82       		.byte	0x82
 1762 09ea 21       		.byte	0x21
 1763 09eb C40A0000 		.4byte	0xac4
 1764 09ef 00       		.byte	0
 1765 09f0 08       		.uleb128 0x8
 1766 09f1 9C030000 		.4byte	.LASF139
 1767 09f5 13       		.byte	0x13
ARM GAS  /var/folders/l5/0x54b2c10074c8bt31ycjvl80000gp/T//cc42yioC.s 			page 32


 1768 09f6 83       		.byte	0x83
 1769 09f7 03       		.byte	0x3
 1770 09f8 F1040000 		.4byte	0x4f1
 1771 09fc 04       		.byte	0x4
 1772 09fd 08       		.uleb128 0x8
 1773 09fe 5F010000 		.4byte	.LASF116
 1774 0a02 13       		.byte	0x13
 1775 0a03 83       		.byte	0x83
 1776 0a04 03       		.byte	0x3
 1777 0a05 BE090000 		.4byte	0x9be
 1778 0a09 08       		.byte	0x8
 1779 0a0a 08       		.uleb128 0x8
 1780 0a0b 67030000 		.4byte	.LASF140
 1781 0a0f 13       		.byte	0x13
 1782 0a10 83       		.byte	0x83
 1783 0a11 03       		.byte	0x3
 1784 0a12 FD050000 		.4byte	0x5fd
 1785 0a16 0C       		.byte	0xc
 1786 0a17 08       		.uleb128 0x8
 1787 0a18 CD030000 		.4byte	.LASF141
 1788 0a1c 13       		.byte	0x13
 1789 0a1d 83       		.byte	0x83
 1790 0a1e 03       		.byte	0x3
 1791 0a1f 09060000 		.4byte	0x609
 1792 0a23 30       		.byte	0x30
 1793 0a24 09       		.uleb128 0x9
 1794 0a25 696200   		.ascii	"ib\000"
 1795 0a28 13       		.byte	0x13
 1796 0a29 83       		.byte	0x83
 1797 0a2a 03       		.byte	0x3
 1798 0a2b CA0A0000 		.4byte	0xaca
 1799 0a2f 54       		.byte	0x54
 1800 0a30 09       		.uleb128 0x9
 1801 0a31 6F6200   		.ascii	"ob\000"
 1802 0a34 13       		.byte	0x13
 1803 0a35 83       		.byte	0x83
 1804 0a36 03       		.byte	0x3
 1805 0a37 CA0A0000 		.4byte	0xaca
 1806 0a3b 64       		.byte	0x64
 1807 0a3c 00       		.byte	0
 1808 0a3d 1A       		.uleb128 0x1a
 1809 0a3e 53443100 		.ascii	"SD1\000"
 1810 0a42 14       		.byte	0x14
 1811 0a43 62       		.byte	0x62
 1812 0a44 15       		.byte	0x15
 1813 0a45 CA090000 		.4byte	0x9ca
 1814 0a49 07       		.uleb128 0x7
 1815 0a4a 50030000 		.4byte	.LASF142
 1816 0a4e 20       		.byte	0x20
 1817 0a4f 13       		.byte	0x13
 1818 0a50 75       		.byte	0x75
 1819 0a51 08       		.byte	0x8
 1820 0a52 BF0A0000 		.4byte	0xabf
 1821 0a56 08       		.uleb128 0x8
 1822 0a57 39040000 		.4byte	.LASF143
 1823 0a5b 13       		.byte	0x13
 1824 0a5c 76       		.byte	0x76
ARM GAS  /var/folders/l5/0x54b2c10074c8bt31ycjvl80000gp/T//cc42yioC.s 			page 33


 1825 0a5d 03       		.byte	0x3
 1826 0a5e 34060000 		.4byte	0x634
 1827 0a62 00       		.byte	0
 1828 0a63 08       		.uleb128 0x8
 1829 0a64 3A060000 		.4byte	.LASF144
 1830 0a68 13       		.byte	0x13
 1831 0a69 76       		.byte	0x76
 1832 0a6a 03       		.byte	0x3
 1833 0a6b 53060000 		.4byte	0x653
 1834 0a6f 04       		.byte	0x4
 1835 0a70 09       		.uleb128 0x9
 1836 0a71 70757400 		.ascii	"put\000"
 1837 0a75 13       		.byte	0x13
 1838 0a76 76       		.byte	0x76
 1839 0a77 03       		.byte	0x3
 1840 0a78 6D060000 		.4byte	0x66d
 1841 0a7c 08       		.byte	0x8
 1842 0a7d 09       		.uleb128 0x9
 1843 0a7e 67657400 		.ascii	"get\000"
 1844 0a82 13       		.byte	0x13
 1845 0a83 76       		.byte	0x76
 1846 0a84 03       		.byte	0x3
 1847 0a85 3D050000 		.4byte	0x53d
 1848 0a89 0C       		.byte	0xc
 1849 0a8a 08       		.uleb128 0x8
 1850 0a8b 45040000 		.4byte	.LASF145
 1851 0a8f 13       		.byte	0x13
 1852 0a90 76       		.byte	0x76
 1853 0a91 03       		.byte	0x3
 1854 0a92 31070000 		.4byte	0x731
 1855 0a96 10       		.byte	0x10
 1856 0a97 08       		.uleb128 0x8
 1857 0a98 88030000 		.4byte	.LASF146
 1858 0a9c 13       		.byte	0x13
 1859 0a9d 76       		.byte	0x76
 1860 0a9e 03       		.byte	0x3
 1861 0a9f 4B070000 		.4byte	0x74b
 1862 0aa3 14       		.byte	0x14
 1863 0aa4 08       		.uleb128 0x8
 1864 0aa5 DC030000 		.4byte	.LASF147
 1865 0aa9 13       		.byte	0x13
 1866 0aaa 76       		.byte	0x76
 1867 0aab 03       		.byte	0x3
 1868 0aac 6F070000 		.4byte	0x76f
 1869 0ab0 18       		.byte	0x18
 1870 0ab1 08       		.uleb128 0x8
 1871 0ab2 C0000000 		.4byte	.LASF148
 1872 0ab6 13       		.byte	0x13
 1873 0ab7 76       		.byte	0x76
 1874 0ab8 03       		.byte	0x3
 1875 0ab9 93070000 		.4byte	0x793
 1876 0abd 1C       		.byte	0x1c
 1877 0abe 00       		.byte	0
 1878 0abf 04       		.uleb128 0x4
 1879 0ac0 490A0000 		.4byte	0xa49
 1880 0ac4 0B       		.uleb128 0xb
 1881 0ac5 04       		.byte	0x4
ARM GAS  /var/folders/l5/0x54b2c10074c8bt31ycjvl80000gp/T//cc42yioC.s 			page 34


 1882 0ac6 BF0A0000 		.4byte	0xabf
 1883 0aca 13       		.uleb128 0x13
 1884 0acb 99000000 		.4byte	0x99
 1885 0acf DA0A0000 		.4byte	0xada
 1886 0ad3 14       		.uleb128 0x14
 1887 0ad4 38000000 		.4byte	0x38
 1888 0ad8 0F       		.byte	0xf
 1889 0ad9 00       		.byte	0
 1890 0ada 1B       		.uleb128 0x1b
 1891 0adb 84000000 		.4byte	.LASF149
 1892 0adf 01       		.byte	0x1
 1893 0ae0 2101     		.2byte	0x121
 1894 0ae2 06       		.byte	0x6
 1895 0ae3 00000000 		.4byte	.LFB15
 1896 0ae7 04000000 		.4byte	.LFE15-.LFB15
 1897 0aeb 01       		.uleb128 0x1
 1898 0aec 9C       		.byte	0x9c
 1899 0aed 100B0000 		.4byte	0xb10
 1900 0af1 1C       		.uleb128 0x1c
 1901 0af2 92000000 		.4byte	.LASF151
 1902 0af6 01       		.byte	0x1
 1903 0af7 2101     		.2byte	0x121
 1904 0af9 1F       		.byte	0x1f
 1905 0afa 57090000 		.4byte	0x957
 1906 0afe 04000000 		.4byte	.LLST16
 1907 0b02 00000000 		.4byte	.LVUS16
 1908 0b06 1D       		.uleb128 0x1d
 1909 0b07 04000000 		.4byte	.LVL18
 1910 0b0b FF0D0000 		.4byte	0xdff
 1911 0b0f 00       		.byte	0
 1912 0b10 1B       		.uleb128 0x1b
 1913 0b11 0E050000 		.4byte	.LASF150
 1914 0b15 01       		.byte	0x1
 1915 0b16 0D01     		.2byte	0x10d
 1916 0b18 06       		.byte	0x6
 1917 0b19 00000000 		.4byte	.LFB14
 1918 0b1d 08000000 		.4byte	.LFE14-.LFB14
 1919 0b21 01       		.uleb128 0x1
 1920 0b22 9C       		.byte	0x9c
 1921 0b23 500B0000 		.4byte	0xb50
 1922 0b27 1C       		.uleb128 0x1c
 1923 0b28 92000000 		.4byte	.LASF151
 1924 0b2c 01       		.byte	0x1
 1925 0b2d 0D01     		.2byte	0x10d
 1926 0b2f 1F       		.byte	0x1f
 1927 0b30 57090000 		.4byte	0x957
 1928 0b34 2B000000 		.4byte	.LLST15
 1929 0b38 25000000 		.4byte	.LVUS15
 1930 0b3c 1E       		.uleb128 0x1e
 1931 0b3d 08000000 		.4byte	.LVL16
 1932 0b41 0B0E0000 		.4byte	0xe0b
 1933 0b45 1F       		.uleb128 0x1f
 1934 0b46 01       		.uleb128 0x1
 1935 0b47 50       		.byte	0x50
 1936 0b48 05       		.uleb128 0x5
 1937 0b49 F3       		.byte	0xf3
 1938 0b4a 01       		.uleb128 0x1
ARM GAS  /var/folders/l5/0x54b2c10074c8bt31ycjvl80000gp/T//cc42yioC.s 			page 35


 1939 0b4b 50       		.byte	0x50
 1940 0b4c 23       		.byte	0x23
 1941 0b4d 10       		.uleb128 0x10
 1942 0b4e 00       		.byte	0
 1943 0b4f 00       		.byte	0
 1944 0b50 20       		.uleb128 0x20
 1945 0b51 31070000 		.4byte	.LASF152
 1946 0b55 01       		.byte	0x1
 1947 0b56 E5       		.byte	0xe5
 1948 0b57 07       		.byte	0x7
 1949 0b58 16010000 		.4byte	0x116
 1950 0b5c 00000000 		.4byte	.LFB13
 1951 0b60 4C000000 		.4byte	.LFE13-.LFB13
 1952 0b64 01       		.uleb128 0x1
 1953 0b65 9C       		.byte	0x9c
 1954 0b66 070C0000 		.4byte	0xc07
 1955 0b6a 21       		.uleb128 0x21
 1956 0b6b 92000000 		.4byte	.LASF151
 1957 0b6f 01       		.byte	0x1
 1958 0b70 E5       		.byte	0xe5
 1959 0b71 2A       		.byte	0x2a
 1960 0b72 57090000 		.4byte	0x957
 1961 0b76 5D000000 		.4byte	.LLST10
 1962 0b7a 59000000 		.4byte	.LVUS10
 1963 0b7e 21       		.uleb128 0x21
 1964 0b7f 60000000 		.4byte	.LASF122
 1965 0b83 01       		.byte	0x1
 1966 0b84 E6       		.byte	0xe6
 1967 0b85 29       		.byte	0x29
 1968 0b86 4B090000 		.4byte	0x94b
 1969 0b8a 7F000000 		.4byte	.LLST11
 1970 0b8e 7B000000 		.4byte	.LVUS11
 1971 0b92 21       		.uleb128 0x21
 1972 0b93 37000000 		.4byte	.LASF126
 1973 0b97 01       		.byte	0x1
 1974 0b98 E7       		.byte	0xe7
 1975 0b99 28       		.byte	0x28
 1976 0b9a F7050000 		.4byte	0x5f7
 1977 0b9e A4000000 		.4byte	.LLST12
 1978 0ba2 A0000000 		.4byte	.LVUS12
 1979 0ba6 21       		.uleb128 0x21
 1980 0ba7 94040000 		.4byte	.LASF127
 1981 0bab 01       		.byte	0x1
 1982 0bac E8       		.byte	0xe8
 1983 0bad 26       		.byte	0x26
 1984 0bae 2C000000 		.4byte	0x2c
 1985 0bb2 C9000000 		.4byte	.LLST13
 1986 0bb6 C5000000 		.4byte	.LVUS13
 1987 0bba 22       		.uleb128 0x22
 1988 0bbb 80030000 		.4byte	.LASF154
 1989 0bbf 01       		.byte	0x1
 1990 0bc0 E9       		.byte	0xe9
 1991 0bc1 29       		.byte	0x29
 1992 0bc2 3A010000 		.4byte	0x13a
 1993 0bc6 02       		.uleb128 0x2
 1994 0bc7 91       		.byte	0x91
 1995 0bc8 00       		.sleb128 0
ARM GAS  /var/folders/l5/0x54b2c10074c8bt31ycjvl80000gp/T//cc42yioC.s 			page 36


 1996 0bc9 23       		.uleb128 0x23
 1997 0bca 07000000 		.4byte	.LASF71
 1998 0bce 01       		.byte	0x1
 1999 0bcf EB       		.byte	0xeb
 2000 0bd0 09       		.byte	0x9
 2001 0bd1 16010000 		.4byte	0x116
 2002 0bd5 EC000000 		.4byte	.LLST14
 2003 0bd9 EA000000 		.4byte	.LVUS14
 2004 0bdd 24       		.uleb128 0x24
 2005 0bde 30000000 		.4byte	.LVL13
 2006 0be2 170E0000 		.4byte	0xe17
 2007 0be6 1F       		.uleb128 0x1f
 2008 0be7 01       		.uleb128 0x1
 2009 0be8 50       		.byte	0x50
 2010 0be9 02       		.uleb128 0x2
 2011 0bea 74       		.byte	0x74
 2012 0beb 00       		.sleb128 0
 2013 0bec 1F       		.uleb128 0x1f
 2014 0bed 01       		.uleb128 0x1
 2015 0bee 51       		.byte	0x51
 2016 0bef 07       		.uleb128 0x7
 2017 0bf0 F3       		.byte	0xf3
 2018 0bf1 01       		.uleb128 0x1
 2019 0bf2 51       		.byte	0x51
 2020 0bf3 0A       		.byte	0xa
 2021 0bf4 FFFF     		.2byte	0xffff
 2022 0bf6 1A       		.byte	0x1a
 2023 0bf7 1F       		.uleb128 0x1f
 2024 0bf8 01       		.uleb128 0x1
 2025 0bf9 52       		.byte	0x52
 2026 0bfa 03       		.uleb128 0x3
 2027 0bfb F3       		.byte	0xf3
 2028 0bfc 01       		.uleb128 0x1
 2029 0bfd 52       		.byte	0x52
 2030 0bfe 1F       		.uleb128 0x1f
 2031 0bff 01       		.uleb128 0x1
 2032 0c00 53       		.byte	0x53
 2033 0c01 03       		.uleb128 0x3
 2034 0c02 F3       		.byte	0xf3
 2035 0c03 01       		.uleb128 0x1
 2036 0c04 53       		.byte	0x53
 2037 0c05 00       		.byte	0
 2038 0c06 00       		.byte	0
 2039 0c07 20       		.uleb128 0x20
 2040 0c08 A7000000 		.4byte	.LASF153
 2041 0c0c 01       		.byte	0x1
 2042 0c0d B2       		.byte	0xb2
 2043 0c0e 07       		.byte	0x7
 2044 0c0f 16010000 		.4byte	0x116
 2045 0c13 00000000 		.4byte	.LFB12
 2046 0c17 60000000 		.4byte	.LFE12-.LFB12
 2047 0c1b 01       		.uleb128 0x1
 2048 0c1c 9C       		.byte	0x9c
 2049 0c1d E80C0000 		.4byte	0xce8
 2050 0c21 21       		.uleb128 0x21
 2051 0c22 92000000 		.4byte	.LASF151
 2052 0c26 01       		.byte	0x1
ARM GAS  /var/folders/l5/0x54b2c10074c8bt31ycjvl80000gp/T//cc42yioC.s 			page 37


 2053 0c27 B2       		.byte	0xb2
 2054 0c28 2B       		.byte	0x2b
 2055 0c29 57090000 		.4byte	0x957
 2056 0c2d 03010000 		.4byte	.LLST5
 2057 0c31 FF000000 		.4byte	.LVUS5
 2058 0c35 21       		.uleb128 0x21
 2059 0c36 60000000 		.4byte	.LASF122
 2060 0c3a 01       		.byte	0x1
 2061 0c3b B3       		.byte	0xb3
 2062 0c3c 2A       		.byte	0x2a
 2063 0c3d 4B090000 		.4byte	0x94b
 2064 0c41 25010000 		.4byte	.LLST6
 2065 0c45 21010000 		.4byte	.LVUS6
 2066 0c49 21       		.uleb128 0x21
 2067 0c4a 4A030000 		.4byte	.LASF123
 2068 0c4e 01       		.byte	0x1
 2069 0c4f B4       		.byte	0xb4
 2070 0c50 2F       		.byte	0x2f
 2071 0c51 2E060000 		.4byte	0x62e
 2072 0c55 4A010000 		.4byte	.LLST7
 2073 0c59 46010000 		.4byte	.LVUS7
 2074 0c5d 21       		.uleb128 0x21
 2075 0c5e AD070000 		.4byte	.LASF124
 2076 0c62 01       		.byte	0x1
 2077 0c63 B5       		.byte	0xb5
 2078 0c64 27       		.byte	0x27
 2079 0c65 2C000000 		.4byte	0x2c
 2080 0c69 6F010000 		.4byte	.LLST8
 2081 0c6d 6B010000 		.4byte	.LVUS8
 2082 0c71 22       		.uleb128 0x22
 2083 0c72 37000000 		.4byte	.LASF126
 2084 0c76 01       		.byte	0x1
 2085 0c77 B6       		.byte	0xb6
 2086 0c78 29       		.byte	0x29
 2087 0c79 F7050000 		.4byte	0x5f7
 2088 0c7d 02       		.uleb128 0x2
 2089 0c7e 91       		.byte	0x91
 2090 0c7f 00       		.sleb128 0
 2091 0c80 22       		.uleb128 0x22
 2092 0c81 94040000 		.4byte	.LASF127
 2093 0c85 01       		.byte	0x1
 2094 0c86 B7       		.byte	0xb7
 2095 0c87 27       		.byte	0x27
 2096 0c88 2C000000 		.4byte	0x2c
 2097 0c8c 02       		.uleb128 0x2
 2098 0c8d 91       		.byte	0x91
 2099 0c8e 04       		.sleb128 4
 2100 0c8f 22       		.uleb128 0x22
 2101 0c90 80030000 		.4byte	.LASF154
 2102 0c94 01       		.byte	0x1
 2103 0c95 B8       		.byte	0xb8
 2104 0c96 2A       		.byte	0x2a
 2105 0c97 3A010000 		.4byte	0x13a
 2106 0c9b 02       		.uleb128 0x2
 2107 0c9c 91       		.byte	0x91
 2108 0c9d 08       		.sleb128 8
 2109 0c9e 23       		.uleb128 0x23
ARM GAS  /var/folders/l5/0x54b2c10074c8bt31ycjvl80000gp/T//cc42yioC.s 			page 38


 2110 0c9f 07000000 		.4byte	.LASF71
 2111 0ca3 01       		.byte	0x1
 2112 0ca4 B9       		.byte	0xb9
 2113 0ca5 09       		.byte	0x9
 2114 0ca6 16010000 		.4byte	0x116
 2115 0caa 92010000 		.4byte	.LLST9
 2116 0cae 90010000 		.4byte	.LVUS9
 2117 0cb2 24       		.uleb128 0x24
 2118 0cb3 44000000 		.4byte	.LVL11
 2119 0cb7 230E0000 		.4byte	0xe23
 2120 0cbb 1F       		.uleb128 0x1f
 2121 0cbc 01       		.uleb128 0x1
 2122 0cbd 50       		.byte	0x50
 2123 0cbe 02       		.uleb128 0x2
 2124 0cbf 74       		.byte	0x74
 2125 0cc0 00       		.sleb128 0
 2126 0cc1 1F       		.uleb128 0x1f
 2127 0cc2 01       		.uleb128 0x1
 2128 0cc3 51       		.byte	0x51
 2129 0cc4 07       		.uleb128 0x7
 2130 0cc5 F3       		.byte	0xf3
 2131 0cc6 01       		.uleb128 0x1
 2132 0cc7 51       		.byte	0x51
 2133 0cc8 0A       		.byte	0xa
 2134 0cc9 FFFF     		.2byte	0xffff
 2135 0ccb 1A       		.byte	0x1a
 2136 0ccc 1F       		.uleb128 0x1f
 2137 0ccd 01       		.uleb128 0x1
 2138 0cce 52       		.byte	0x52
 2139 0ccf 03       		.uleb128 0x3
 2140 0cd0 F3       		.byte	0xf3
 2141 0cd1 01       		.uleb128 0x1
 2142 0cd2 52       		.byte	0x52
 2143 0cd3 1F       		.uleb128 0x1f
 2144 0cd4 01       		.uleb128 0x1
 2145 0cd5 53       		.byte	0x53
 2146 0cd6 03       		.uleb128 0x3
 2147 0cd7 F3       		.byte	0xf3
 2148 0cd8 01       		.uleb128 0x1
 2149 0cd9 53       		.byte	0x53
 2150 0cda 1F       		.uleb128 0x1f
 2151 0cdb 02       		.uleb128 0x2
 2152 0cdc 7D       		.byte	0x7d
 2153 0cdd 04       		.sleb128 4
 2154 0cde 07       		.uleb128 0x7
 2155 0cdf 91       		.byte	0x91
 2156 0ce0 7C       		.sleb128 -4
 2157 0ce1 94       		.byte	0x94
 2158 0ce2 01       		.byte	0x1
 2159 0ce3 08       		.byte	0x8
 2160 0ce4 FF       		.byte	0xff
 2161 0ce5 1A       		.byte	0x1a
 2162 0ce6 00       		.byte	0
 2163 0ce7 00       		.byte	0
 2164 0ce8 20       		.uleb128 0x20
 2165 0ce9 77000000 		.4byte	.LASF155
 2166 0ced 01       		.byte	0x1
ARM GAS  /var/folders/l5/0x54b2c10074c8bt31ycjvl80000gp/T//cc42yioC.s 			page 39


 2167 0cee 91       		.byte	0x91
 2168 0cef 0C       		.byte	0xc
 2169 0cf0 3F090000 		.4byte	0x93f
 2170 0cf4 00000000 		.4byte	.LFB11
 2171 0cf8 08000000 		.4byte	.LFE11-.LFB11
 2172 0cfc 01       		.uleb128 0x1
 2173 0cfd 9C       		.byte	0x9c
 2174 0cfe 170D0000 		.4byte	0xd17
 2175 0d02 21       		.uleb128 0x21
 2176 0d03 92000000 		.4byte	.LASF151
 2177 0d07 01       		.byte	0x1
 2178 0d08 91       		.byte	0x91
 2179 0d09 24       		.byte	0x24
 2180 0d0a 57090000 		.4byte	0x957
 2181 0d0e A9010000 		.4byte	.LLST4
 2182 0d12 A5010000 		.4byte	.LVUS4
 2183 0d16 00       		.byte	0
 2184 0d17 25       		.uleb128 0x25
 2185 0d18 D1040000 		.4byte	.LASF156
 2186 0d1c 01       		.byte	0x1
 2187 0d1d 7B       		.byte	0x7b
 2188 0d1e 06       		.byte	0x6
 2189 0d1f 00000000 		.4byte	.LFB10
 2190 0d23 20000000 		.4byte	.LFE10-.LFB10
 2191 0d27 01       		.uleb128 0x1
 2192 0d28 9C       		.byte	0x9c
 2193 0d29 520D0000 		.4byte	0xd52
 2194 0d2d 21       		.uleb128 0x21
 2195 0d2e 92000000 		.4byte	.LASF151
 2196 0d32 01       		.byte	0x1
 2197 0d33 7B       		.byte	0x7b
 2198 0d34 19       		.byte	0x19
 2199 0d35 57090000 		.4byte	0x957
 2200 0d39 CE010000 		.4byte	.LLST3
 2201 0d3d CA010000 		.4byte	.LVUS3
 2202 0d41 24       		.uleb128 0x24
 2203 0d42 10000000 		.4byte	.LVL7
 2204 0d46 2F0E0000 		.4byte	0xe2f
 2205 0d4a 1F       		.uleb128 0x1f
 2206 0d4b 01       		.uleb128 0x1
 2207 0d4c 50       		.byte	0x50
 2208 0d4d 02       		.uleb128 0x2
 2209 0d4e 74       		.byte	0x74
 2210 0d4f 00       		.sleb128 0
 2211 0d50 00       		.byte	0
 2212 0d51 00       		.byte	0
 2213 0d52 25       		.uleb128 0x25
 2214 0d53 65000000 		.4byte	.LASF157
 2215 0d57 01       		.byte	0x1
 2216 0d58 65       		.byte	0x65
 2217 0d59 06       		.byte	0x6
 2218 0d5a 00000000 		.4byte	.LFB9
 2219 0d5e 24000000 		.4byte	.LFE9-.LFB9
 2220 0d62 01       		.uleb128 0x1
 2221 0d63 9C       		.byte	0x9c
 2222 0d64 A10D0000 		.4byte	0xda1
 2223 0d68 21       		.uleb128 0x21
ARM GAS  /var/folders/l5/0x54b2c10074c8bt31ycjvl80000gp/T//cc42yioC.s 			page 40


 2224 0d69 92000000 		.4byte	.LASF151
 2225 0d6d 01       		.byte	0x1
 2226 0d6e 65       		.byte	0x65
 2227 0d6f 1A       		.byte	0x1a
 2228 0d70 57090000 		.4byte	0x957
 2229 0d74 F0010000 		.4byte	.LLST1
 2230 0d78 EC010000 		.4byte	.LVUS1
 2231 0d7c 21       		.uleb128 0x21
 2232 0d7d 3F060000 		.4byte	.LASF117
 2233 0d81 01       		.byte	0x1
 2234 0d82 65       		.byte	0x65
 2235 0d83 31       		.byte	0x31
 2236 0d84 85090000 		.4byte	0x985
 2237 0d88 12020000 		.4byte	.LLST2
 2238 0d8c 0E020000 		.4byte	.LVUS2
 2239 0d90 24       		.uleb128 0x24
 2240 0d91 14000000 		.4byte	.LVL5
 2241 0d95 3B0E0000 		.4byte	0xe3b
 2242 0d99 1F       		.uleb128 0x1f
 2243 0d9a 01       		.uleb128 0x1
 2244 0d9b 50       		.byte	0x50
 2245 0d9c 02       		.uleb128 0x2
 2246 0d9d 74       		.byte	0x74
 2247 0d9e 00       		.sleb128 0
 2248 0d9f 00       		.byte	0
 2249 0da0 00       		.byte	0
 2250 0da1 25       		.uleb128 0x25
 2251 0da2 93060000 		.4byte	.LASF158
 2252 0da6 01       		.byte	0x1
 2253 0da7 4B       		.byte	0x4b
 2254 0da8 06       		.byte	0x6
 2255 0da9 00000000 		.4byte	.LFB8
 2256 0dad 14000000 		.4byte	.LFE8-.LFB8
 2257 0db1 01       		.uleb128 0x1
 2258 0db2 9C       		.byte	0x9c
 2259 0db3 DF0D0000 		.4byte	0xddf
 2260 0db7 21       		.uleb128 0x21
 2261 0db8 92000000 		.4byte	.LASF151
 2262 0dbc 01       		.byte	0x1
 2263 0dbd 4B       		.byte	0x4b
 2264 0dbe 1F       		.byte	0x1f
 2265 0dbf 57090000 		.4byte	0x957
 2266 0dc3 39020000 		.4byte	.LLST0
 2267 0dc7 33020000 		.4byte	.LVUS0
 2268 0dcb 1E       		.uleb128 0x1e
 2269 0dcc 14000000 		.4byte	.LVL3
 2270 0dd0 470E0000 		.4byte	0xe47
 2271 0dd4 1F       		.uleb128 0x1f
 2272 0dd5 01       		.uleb128 0x1
 2273 0dd6 50       		.byte	0x50
 2274 0dd7 05       		.uleb128 0x5
 2275 0dd8 F3       		.byte	0xf3
 2276 0dd9 01       		.uleb128 0x1
 2277 0dda 50       		.byte	0x50
 2278 0ddb 23       		.byte	0x23
 2279 0ddc 10       		.uleb128 0x10
 2280 0ddd 00       		.byte	0
ARM GAS  /var/folders/l5/0x54b2c10074c8bt31ycjvl80000gp/T//cc42yioC.s 			page 41


 2281 0dde 00       		.byte	0
 2282 0ddf 25       		.uleb128 0x25
 2283 0de0 69070000 		.4byte	.LASF159
 2284 0de4 01       		.byte	0x1
 2285 0de5 40       		.byte	0x40
 2286 0de6 06       		.byte	0x6
 2287 0de7 00000000 		.4byte	.LFB7
 2288 0deb 04000000 		.4byte	.LFE7-.LFB7
 2289 0def 01       		.uleb128 0x1
 2290 0df0 9C       		.byte	0x9c
 2291 0df1 FF0D0000 		.4byte	0xdff
 2292 0df5 1D       		.uleb128 0x1d
 2293 0df6 04000000 		.4byte	.LVL0
 2294 0dfa 530E0000 		.4byte	0xe53
 2295 0dfe 00       		.byte	0
 2296 0dff 26       		.uleb128 0x26
 2297 0e00 54000000 		.4byte	.LASF160
 2298 0e04 54000000 		.4byte	.LASF160
 2299 0e08 0B       		.byte	0xb
 2300 0e09 36       		.byte	0x36
 2301 0e0a 0A       		.byte	0xa
 2302 0e0b 26       		.uleb128 0x26
 2303 0e0c 83040000 		.4byte	.LASF161
 2304 0e10 83040000 		.4byte	.LASF161
 2305 0e14 0B       		.byte	0xb
 2306 0e15 32       		.byte	0x32
 2307 0e16 08       		.byte	0x8
 2308 0e17 26       		.uleb128 0x26
 2309 0e18 01010000 		.4byte	.LASF162
 2310 0e1c 01010000 		.4byte	.LASF162
 2311 0e20 12       		.byte	0x12
 2312 0e21 B4       		.byte	0xb4
 2313 0e22 09       		.byte	0x9
 2314 0e23 26       		.uleb128 0x26
 2315 0e24 20010000 		.4byte	.LASF163
 2316 0e28 20010000 		.4byte	.LASF163
 2317 0e2c 12       		.byte	0x12
 2318 0e2d AF       		.byte	0xaf
 2319 0e2e 09       		.byte	0x9
 2320 0e2f 26       		.uleb128 0x26
 2321 0e30 2C040000 		.4byte	.LASF164
 2322 0e34 2C040000 		.4byte	.LASF164
 2323 0e38 12       		.byte	0x12
 2324 0e39 AD       		.byte	0xad
 2325 0e3a 08       		.byte	0x8
 2326 0e3b 26       		.uleb128 0x26
 2327 0e3c 3D050000 		.4byte	.LASF165
 2328 0e40 3D050000 		.4byte	.LASF165
 2329 0e44 12       		.byte	0x12
 2330 0e45 AC       		.byte	0xac
 2331 0e46 08       		.byte	0x8
 2332 0e47 26       		.uleb128 0x26
 2333 0e48 B8060000 		.4byte	.LASF166
 2334 0e4c B8060000 		.4byte	.LASF166
 2335 0e50 0B       		.byte	0xb
 2336 0e51 31       		.byte	0x31
 2337 0e52 08       		.byte	0x8
ARM GAS  /var/folders/l5/0x54b2c10074c8bt31ycjvl80000gp/T//cc42yioC.s 			page 42


 2338 0e53 26       		.uleb128 0x26
 2339 0e54 EE060000 		.4byte	.LASF167
 2340 0e58 EE060000 		.4byte	.LASF167
 2341 0e5c 12       		.byte	0x12
 2342 0e5d AB       		.byte	0xab
 2343 0e5e 08       		.byte	0x8
 2344 0e5f 00       		.byte	0
 2345              		.section	.debug_abbrev,"",%progbits
 2346              	.Ldebug_abbrev0:
 2347 0000 01       		.uleb128 0x1
 2348 0001 11       		.uleb128 0x11
 2349 0002 01       		.byte	0x1
 2350 0003 25       		.uleb128 0x25
 2351 0004 0E       		.uleb128 0xe
 2352 0005 13       		.uleb128 0x13
 2353 0006 0B       		.uleb128 0xb
 2354 0007 03       		.uleb128 0x3
 2355 0008 0E       		.uleb128 0xe
 2356 0009 1B       		.uleb128 0x1b
 2357 000a 0E       		.uleb128 0xe
 2358 000b 55       		.uleb128 0x55
 2359 000c 17       		.uleb128 0x17
 2360 000d 11       		.uleb128 0x11
 2361 000e 01       		.uleb128 0x1
 2362 000f 10       		.uleb128 0x10
 2363 0010 17       		.uleb128 0x17
 2364 0011 00       		.byte	0
 2365 0012 00       		.byte	0
 2366 0013 02       		.uleb128 0x2
 2367 0014 24       		.uleb128 0x24
 2368 0015 00       		.byte	0
 2369 0016 0B       		.uleb128 0xb
 2370 0017 0B       		.uleb128 0xb
 2371 0018 3E       		.uleb128 0x3e
 2372 0019 0B       		.uleb128 0xb
 2373 001a 03       		.uleb128 0x3
 2374 001b 0E       		.uleb128 0xe
 2375 001c 00       		.byte	0
 2376 001d 00       		.byte	0
 2377 001e 03       		.uleb128 0x3
 2378 001f 16       		.uleb128 0x16
 2379 0020 00       		.byte	0
 2380 0021 03       		.uleb128 0x3
 2381 0022 0E       		.uleb128 0xe
 2382 0023 3A       		.uleb128 0x3a
 2383 0024 0B       		.uleb128 0xb
 2384 0025 3B       		.uleb128 0x3b
 2385 0026 0B       		.uleb128 0xb
 2386 0027 39       		.uleb128 0x39
 2387 0028 0B       		.uleb128 0xb
 2388 0029 49       		.uleb128 0x49
 2389 002a 13       		.uleb128 0x13
 2390 002b 00       		.byte	0
 2391 002c 00       		.byte	0
 2392 002d 04       		.uleb128 0x4
 2393 002e 26       		.uleb128 0x26
 2394 002f 00       		.byte	0
ARM GAS  /var/folders/l5/0x54b2c10074c8bt31ycjvl80000gp/T//cc42yioC.s 			page 43


 2395 0030 49       		.uleb128 0x49
 2396 0031 13       		.uleb128 0x13
 2397 0032 00       		.byte	0
 2398 0033 00       		.byte	0
 2399 0034 05       		.uleb128 0x5
 2400 0035 35       		.uleb128 0x35
 2401 0036 00       		.byte	0
 2402 0037 49       		.uleb128 0x49
 2403 0038 13       		.uleb128 0x13
 2404 0039 00       		.byte	0
 2405 003a 00       		.byte	0
 2406 003b 06       		.uleb128 0x6
 2407 003c 24       		.uleb128 0x24
 2408 003d 00       		.byte	0
 2409 003e 0B       		.uleb128 0xb
 2410 003f 0B       		.uleb128 0xb
 2411 0040 3E       		.uleb128 0x3e
 2412 0041 0B       		.uleb128 0xb
 2413 0042 03       		.uleb128 0x3
 2414 0043 08       		.uleb128 0x8
 2415 0044 00       		.byte	0
 2416 0045 00       		.byte	0
 2417 0046 07       		.uleb128 0x7
 2418 0047 13       		.uleb128 0x13
 2419 0048 01       		.byte	0x1
 2420 0049 03       		.uleb128 0x3
 2421 004a 0E       		.uleb128 0xe
 2422 004b 0B       		.uleb128 0xb
 2423 004c 0B       		.uleb128 0xb
 2424 004d 3A       		.uleb128 0x3a
 2425 004e 0B       		.uleb128 0xb
 2426 004f 3B       		.uleb128 0x3b
 2427 0050 0B       		.uleb128 0xb
 2428 0051 39       		.uleb128 0x39
 2429 0052 0B       		.uleb128 0xb
 2430 0053 01       		.uleb128 0x1
 2431 0054 13       		.uleb128 0x13
 2432 0055 00       		.byte	0
 2433 0056 00       		.byte	0
 2434 0057 08       		.uleb128 0x8
 2435 0058 0D       		.uleb128 0xd
 2436 0059 00       		.byte	0
 2437 005a 03       		.uleb128 0x3
 2438 005b 0E       		.uleb128 0xe
 2439 005c 3A       		.uleb128 0x3a
 2440 005d 0B       		.uleb128 0xb
 2441 005e 3B       		.uleb128 0x3b
 2442 005f 0B       		.uleb128 0xb
 2443 0060 39       		.uleb128 0x39
 2444 0061 0B       		.uleb128 0xb
 2445 0062 49       		.uleb128 0x49
 2446 0063 13       		.uleb128 0x13
 2447 0064 38       		.uleb128 0x38
 2448 0065 0B       		.uleb128 0xb
 2449 0066 00       		.byte	0
 2450 0067 00       		.byte	0
 2451 0068 09       		.uleb128 0x9
ARM GAS  /var/folders/l5/0x54b2c10074c8bt31ycjvl80000gp/T//cc42yioC.s 			page 44


 2452 0069 0D       		.uleb128 0xd
 2453 006a 00       		.byte	0
 2454 006b 03       		.uleb128 0x3
 2455 006c 08       		.uleb128 0x8
 2456 006d 3A       		.uleb128 0x3a
 2457 006e 0B       		.uleb128 0xb
 2458 006f 3B       		.uleb128 0x3b
 2459 0070 0B       		.uleb128 0xb
 2460 0071 39       		.uleb128 0x39
 2461 0072 0B       		.uleb128 0xb
 2462 0073 49       		.uleb128 0x49
 2463 0074 13       		.uleb128 0x13
 2464 0075 38       		.uleb128 0x38
 2465 0076 0B       		.uleb128 0xb
 2466 0077 00       		.byte	0
 2467 0078 00       		.byte	0
 2468 0079 0A       		.uleb128 0xa
 2469 007a 13       		.uleb128 0x13
 2470 007b 01       		.byte	0x1
 2471 007c 0B       		.uleb128 0xb
 2472 007d 0B       		.uleb128 0xb
 2473 007e 3A       		.uleb128 0x3a
 2474 007f 0B       		.uleb128 0xb
 2475 0080 3B       		.uleb128 0x3b
 2476 0081 0B       		.uleb128 0xb
 2477 0082 39       		.uleb128 0x39
 2478 0083 0B       		.uleb128 0xb
 2479 0084 01       		.uleb128 0x1
 2480 0085 13       		.uleb128 0x13
 2481 0086 00       		.byte	0
 2482 0087 00       		.byte	0
 2483 0088 0B       		.uleb128 0xb
 2484 0089 0F       		.uleb128 0xf
 2485 008a 00       		.byte	0
 2486 008b 0B       		.uleb128 0xb
 2487 008c 0B       		.uleb128 0xb
 2488 008d 49       		.uleb128 0x49
 2489 008e 13       		.uleb128 0x13
 2490 008f 00       		.byte	0
 2491 0090 00       		.byte	0
 2492 0091 0C       		.uleb128 0xc
 2493 0092 0F       		.uleb128 0xf
 2494 0093 00       		.byte	0
 2495 0094 0B       		.uleb128 0xb
 2496 0095 0B       		.uleb128 0xb
 2497 0096 00       		.byte	0
 2498 0097 00       		.byte	0
 2499 0098 0D       		.uleb128 0xd
 2500 0099 15       		.uleb128 0x15
 2501 009a 01       		.byte	0x1
 2502 009b 27       		.uleb128 0x27
 2503 009c 19       		.uleb128 0x19
 2504 009d 01       		.uleb128 0x1
 2505 009e 13       		.uleb128 0x13
 2506 009f 00       		.byte	0
 2507 00a0 00       		.byte	0
 2508 00a1 0E       		.uleb128 0xe
ARM GAS  /var/folders/l5/0x54b2c10074c8bt31ycjvl80000gp/T//cc42yioC.s 			page 45


 2509 00a2 05       		.uleb128 0x5
 2510 00a3 00       		.byte	0
 2511 00a4 49       		.uleb128 0x49
 2512 00a5 13       		.uleb128 0x13
 2513 00a6 00       		.byte	0
 2514 00a7 00       		.byte	0
 2515 00a8 0F       		.uleb128 0xf
 2516 00a9 34       		.uleb128 0x34
 2517 00aa 00       		.byte	0
 2518 00ab 03       		.uleb128 0x3
 2519 00ac 0E       		.uleb128 0xe
 2520 00ad 3A       		.uleb128 0x3a
 2521 00ae 0B       		.uleb128 0xb
 2522 00af 3B       		.uleb128 0x3b
 2523 00b0 0B       		.uleb128 0xb
 2524 00b1 39       		.uleb128 0x39
 2525 00b2 0B       		.uleb128 0xb
 2526 00b3 49       		.uleb128 0x49
 2527 00b4 13       		.uleb128 0x13
 2528 00b5 3F       		.uleb128 0x3f
 2529 00b6 19       		.uleb128 0x19
 2530 00b7 3C       		.uleb128 0x3c
 2531 00b8 19       		.uleb128 0x19
 2532 00b9 00       		.byte	0
 2533 00ba 00       		.byte	0
 2534 00bb 10       		.uleb128 0x10
 2535 00bc 17       		.uleb128 0x17
 2536 00bd 01       		.byte	0x1
 2537 00be 0B       		.uleb128 0xb
 2538 00bf 0B       		.uleb128 0xb
 2539 00c0 3A       		.uleb128 0x3a
 2540 00c1 0B       		.uleb128 0xb
 2541 00c2 3B       		.uleb128 0x3b
 2542 00c3 0B       		.uleb128 0xb
 2543 00c4 39       		.uleb128 0x39
 2544 00c5 0B       		.uleb128 0xb
 2545 00c6 01       		.uleb128 0x1
 2546 00c7 13       		.uleb128 0x13
 2547 00c8 00       		.byte	0
 2548 00c9 00       		.byte	0
 2549 00ca 11       		.uleb128 0x11
 2550 00cb 0D       		.uleb128 0xd
 2551 00cc 00       		.byte	0
 2552 00cd 03       		.uleb128 0x3
 2553 00ce 0E       		.uleb128 0xe
 2554 00cf 3A       		.uleb128 0x3a
 2555 00d0 0B       		.uleb128 0xb
 2556 00d1 3B       		.uleb128 0x3b
 2557 00d2 0B       		.uleb128 0xb
 2558 00d3 39       		.uleb128 0x39
 2559 00d4 0B       		.uleb128 0xb
 2560 00d5 49       		.uleb128 0x49
 2561 00d6 13       		.uleb128 0x13
 2562 00d7 00       		.byte	0
 2563 00d8 00       		.byte	0
 2564 00d9 12       		.uleb128 0x12
 2565 00da 15       		.uleb128 0x15
ARM GAS  /var/folders/l5/0x54b2c10074c8bt31ycjvl80000gp/T//cc42yioC.s 			page 46


 2566 00db 01       		.byte	0x1
 2567 00dc 27       		.uleb128 0x27
 2568 00dd 19       		.uleb128 0x19
 2569 00de 49       		.uleb128 0x49
 2570 00df 13       		.uleb128 0x13
 2571 00e0 01       		.uleb128 0x1
 2572 00e1 13       		.uleb128 0x13
 2573 00e2 00       		.byte	0
 2574 00e3 00       		.byte	0
 2575 00e4 13       		.uleb128 0x13
 2576 00e5 01       		.uleb128 0x1
 2577 00e6 01       		.byte	0x1
 2578 00e7 49       		.uleb128 0x49
 2579 00e8 13       		.uleb128 0x13
 2580 00e9 01       		.uleb128 0x1
 2581 00ea 13       		.uleb128 0x13
 2582 00eb 00       		.byte	0
 2583 00ec 00       		.byte	0
 2584 00ed 14       		.uleb128 0x14
 2585 00ee 21       		.uleb128 0x21
 2586 00ef 00       		.byte	0
 2587 00f0 49       		.uleb128 0x49
 2588 00f1 13       		.uleb128 0x13
 2589 00f2 2F       		.uleb128 0x2f
 2590 00f3 0B       		.uleb128 0xb
 2591 00f4 00       		.byte	0
 2592 00f5 00       		.byte	0
 2593 00f6 15       		.uleb128 0x15
 2594 00f7 0D       		.uleb128 0xd
 2595 00f8 00       		.byte	0
 2596 00f9 03       		.uleb128 0x3
 2597 00fa 0E       		.uleb128 0xe
 2598 00fb 3A       		.uleb128 0x3a
 2599 00fc 0B       		.uleb128 0xb
 2600 00fd 3B       		.uleb128 0x3b
 2601 00fe 05       		.uleb128 0x5
 2602 00ff 39       		.uleb128 0x39
 2603 0100 0B       		.uleb128 0xb
 2604 0101 49       		.uleb128 0x49
 2605 0102 13       		.uleb128 0x13
 2606 0103 38       		.uleb128 0x38
 2607 0104 0B       		.uleb128 0xb
 2608 0105 00       		.byte	0
 2609 0106 00       		.byte	0
 2610 0107 16       		.uleb128 0x16
 2611 0108 16       		.uleb128 0x16
 2612 0109 00       		.byte	0
 2613 010a 03       		.uleb128 0x3
 2614 010b 0E       		.uleb128 0xe
 2615 010c 3A       		.uleb128 0x3a
 2616 010d 0B       		.uleb128 0xb
 2617 010e 3B       		.uleb128 0x3b
 2618 010f 05       		.uleb128 0x5
 2619 0110 39       		.uleb128 0x39
 2620 0111 0B       		.uleb128 0xb
 2621 0112 49       		.uleb128 0x49
 2622 0113 13       		.uleb128 0x13
ARM GAS  /var/folders/l5/0x54b2c10074c8bt31ycjvl80000gp/T//cc42yioC.s 			page 47


 2623 0114 00       		.byte	0
 2624 0115 00       		.byte	0
 2625 0116 17       		.uleb128 0x17
 2626 0117 13       		.uleb128 0x13
 2627 0118 00       		.byte	0
 2628 0119 0B       		.uleb128 0xb
 2629 011a 0B       		.uleb128 0xb
 2630 011b 3A       		.uleb128 0x3a
 2631 011c 0B       		.uleb128 0xb
 2632 011d 3B       		.uleb128 0x3b
 2633 011e 0B       		.uleb128 0xb
 2634 011f 39       		.uleb128 0x39
 2635 0120 0B       		.uleb128 0xb
 2636 0121 00       		.byte	0
 2637 0122 00       		.byte	0
 2638 0123 18       		.uleb128 0x18
 2639 0124 04       		.uleb128 0x4
 2640 0125 01       		.byte	0x1
 2641 0126 3E       		.uleb128 0x3e
 2642 0127 0B       		.uleb128 0xb
 2643 0128 0B       		.uleb128 0xb
 2644 0129 0B       		.uleb128 0xb
 2645 012a 49       		.uleb128 0x49
 2646 012b 13       		.uleb128 0x13
 2647 012c 3A       		.uleb128 0x3a
 2648 012d 0B       		.uleb128 0xb
 2649 012e 3B       		.uleb128 0x3b
 2650 012f 0B       		.uleb128 0xb
 2651 0130 39       		.uleb128 0x39
 2652 0131 0B       		.uleb128 0xb
 2653 0132 01       		.uleb128 0x1
 2654 0133 13       		.uleb128 0x13
 2655 0134 00       		.byte	0
 2656 0135 00       		.byte	0
 2657 0136 19       		.uleb128 0x19
 2658 0137 28       		.uleb128 0x28
 2659 0138 00       		.byte	0
 2660 0139 03       		.uleb128 0x3
 2661 013a 0E       		.uleb128 0xe
 2662 013b 1C       		.uleb128 0x1c
 2663 013c 0B       		.uleb128 0xb
 2664 013d 00       		.byte	0
 2665 013e 00       		.byte	0
 2666 013f 1A       		.uleb128 0x1a
 2667 0140 34       		.uleb128 0x34
 2668 0141 00       		.byte	0
 2669 0142 03       		.uleb128 0x3
 2670 0143 08       		.uleb128 0x8
 2671 0144 3A       		.uleb128 0x3a
 2672 0145 0B       		.uleb128 0xb
 2673 0146 3B       		.uleb128 0x3b
 2674 0147 0B       		.uleb128 0xb
 2675 0148 39       		.uleb128 0x39
 2676 0149 0B       		.uleb128 0xb
 2677 014a 49       		.uleb128 0x49
 2678 014b 13       		.uleb128 0x13
 2679 014c 3F       		.uleb128 0x3f
ARM GAS  /var/folders/l5/0x54b2c10074c8bt31ycjvl80000gp/T//cc42yioC.s 			page 48


 2680 014d 19       		.uleb128 0x19
 2681 014e 3C       		.uleb128 0x3c
 2682 014f 19       		.uleb128 0x19
 2683 0150 00       		.byte	0
 2684 0151 00       		.byte	0
 2685 0152 1B       		.uleb128 0x1b
 2686 0153 2E       		.uleb128 0x2e
 2687 0154 01       		.byte	0x1
 2688 0155 3F       		.uleb128 0x3f
 2689 0156 19       		.uleb128 0x19
 2690 0157 03       		.uleb128 0x3
 2691 0158 0E       		.uleb128 0xe
 2692 0159 3A       		.uleb128 0x3a
 2693 015a 0B       		.uleb128 0xb
 2694 015b 3B       		.uleb128 0x3b
 2695 015c 05       		.uleb128 0x5
 2696 015d 39       		.uleb128 0x39
 2697 015e 0B       		.uleb128 0xb
 2698 015f 27       		.uleb128 0x27
 2699 0160 19       		.uleb128 0x19
 2700 0161 11       		.uleb128 0x11
 2701 0162 01       		.uleb128 0x1
 2702 0163 12       		.uleb128 0x12
 2703 0164 06       		.uleb128 0x6
 2704 0165 40       		.uleb128 0x40
 2705 0166 18       		.uleb128 0x18
 2706 0167 9742     		.uleb128 0x2117
 2707 0169 19       		.uleb128 0x19
 2708 016a 01       		.uleb128 0x1
 2709 016b 13       		.uleb128 0x13
 2710 016c 00       		.byte	0
 2711 016d 00       		.byte	0
 2712 016e 1C       		.uleb128 0x1c
 2713 016f 05       		.uleb128 0x5
 2714 0170 00       		.byte	0
 2715 0171 03       		.uleb128 0x3
 2716 0172 0E       		.uleb128 0xe
 2717 0173 3A       		.uleb128 0x3a
 2718 0174 0B       		.uleb128 0xb
 2719 0175 3B       		.uleb128 0x3b
 2720 0176 05       		.uleb128 0x5
 2721 0177 39       		.uleb128 0x39
 2722 0178 0B       		.uleb128 0xb
 2723 0179 49       		.uleb128 0x49
 2724 017a 13       		.uleb128 0x13
 2725 017b 02       		.uleb128 0x2
 2726 017c 17       		.uleb128 0x17
 2727 017d B742     		.uleb128 0x2137
 2728 017f 17       		.uleb128 0x17
 2729 0180 00       		.byte	0
 2730 0181 00       		.byte	0
 2731 0182 1D       		.uleb128 0x1d
 2732 0183 898201   		.uleb128 0x4109
 2733 0186 00       		.byte	0
 2734 0187 11       		.uleb128 0x11
 2735 0188 01       		.uleb128 0x1
 2736 0189 9542     		.uleb128 0x2115
ARM GAS  /var/folders/l5/0x54b2c10074c8bt31ycjvl80000gp/T//cc42yioC.s 			page 49


 2737 018b 19       		.uleb128 0x19
 2738 018c 31       		.uleb128 0x31
 2739 018d 13       		.uleb128 0x13
 2740 018e 00       		.byte	0
 2741 018f 00       		.byte	0
 2742 0190 1E       		.uleb128 0x1e
 2743 0191 898201   		.uleb128 0x4109
 2744 0194 01       		.byte	0x1
 2745 0195 11       		.uleb128 0x11
 2746 0196 01       		.uleb128 0x1
 2747 0197 9542     		.uleb128 0x2115
 2748 0199 19       		.uleb128 0x19
 2749 019a 31       		.uleb128 0x31
 2750 019b 13       		.uleb128 0x13
 2751 019c 00       		.byte	0
 2752 019d 00       		.byte	0
 2753 019e 1F       		.uleb128 0x1f
 2754 019f 8A8201   		.uleb128 0x410a
 2755 01a2 00       		.byte	0
 2756 01a3 02       		.uleb128 0x2
 2757 01a4 18       		.uleb128 0x18
 2758 01a5 9142     		.uleb128 0x2111
 2759 01a7 18       		.uleb128 0x18
 2760 01a8 00       		.byte	0
 2761 01a9 00       		.byte	0
 2762 01aa 20       		.uleb128 0x20
 2763 01ab 2E       		.uleb128 0x2e
 2764 01ac 01       		.byte	0x1
 2765 01ad 3F       		.uleb128 0x3f
 2766 01ae 19       		.uleb128 0x19
 2767 01af 03       		.uleb128 0x3
 2768 01b0 0E       		.uleb128 0xe
 2769 01b1 3A       		.uleb128 0x3a
 2770 01b2 0B       		.uleb128 0xb
 2771 01b3 3B       		.uleb128 0x3b
 2772 01b4 0B       		.uleb128 0xb
 2773 01b5 39       		.uleb128 0x39
 2774 01b6 0B       		.uleb128 0xb
 2775 01b7 27       		.uleb128 0x27
 2776 01b8 19       		.uleb128 0x19
 2777 01b9 49       		.uleb128 0x49
 2778 01ba 13       		.uleb128 0x13
 2779 01bb 11       		.uleb128 0x11
 2780 01bc 01       		.uleb128 0x1
 2781 01bd 12       		.uleb128 0x12
 2782 01be 06       		.uleb128 0x6
 2783 01bf 40       		.uleb128 0x40
 2784 01c0 18       		.uleb128 0x18
 2785 01c1 9742     		.uleb128 0x2117
 2786 01c3 19       		.uleb128 0x19
 2787 01c4 01       		.uleb128 0x1
 2788 01c5 13       		.uleb128 0x13
 2789 01c6 00       		.byte	0
 2790 01c7 00       		.byte	0
 2791 01c8 21       		.uleb128 0x21
 2792 01c9 05       		.uleb128 0x5
 2793 01ca 00       		.byte	0
ARM GAS  /var/folders/l5/0x54b2c10074c8bt31ycjvl80000gp/T//cc42yioC.s 			page 50


 2794 01cb 03       		.uleb128 0x3
 2795 01cc 0E       		.uleb128 0xe
 2796 01cd 3A       		.uleb128 0x3a
 2797 01ce 0B       		.uleb128 0xb
 2798 01cf 3B       		.uleb128 0x3b
 2799 01d0 0B       		.uleb128 0xb
 2800 01d1 39       		.uleb128 0x39
 2801 01d2 0B       		.uleb128 0xb
 2802 01d3 49       		.uleb128 0x49
 2803 01d4 13       		.uleb128 0x13
 2804 01d5 02       		.uleb128 0x2
 2805 01d6 17       		.uleb128 0x17
 2806 01d7 B742     		.uleb128 0x2137
 2807 01d9 17       		.uleb128 0x17
 2808 01da 00       		.byte	0
 2809 01db 00       		.byte	0
 2810 01dc 22       		.uleb128 0x22
 2811 01dd 05       		.uleb128 0x5
 2812 01de 00       		.byte	0
 2813 01df 03       		.uleb128 0x3
 2814 01e0 0E       		.uleb128 0xe
 2815 01e1 3A       		.uleb128 0x3a
 2816 01e2 0B       		.uleb128 0xb
 2817 01e3 3B       		.uleb128 0x3b
 2818 01e4 0B       		.uleb128 0xb
 2819 01e5 39       		.uleb128 0x39
 2820 01e6 0B       		.uleb128 0xb
 2821 01e7 49       		.uleb128 0x49
 2822 01e8 13       		.uleb128 0x13
 2823 01e9 02       		.uleb128 0x2
 2824 01ea 18       		.uleb128 0x18
 2825 01eb 00       		.byte	0
 2826 01ec 00       		.byte	0
 2827 01ed 23       		.uleb128 0x23
 2828 01ee 34       		.uleb128 0x34
 2829 01ef 00       		.byte	0
 2830 01f0 03       		.uleb128 0x3
 2831 01f1 0E       		.uleb128 0xe
 2832 01f2 3A       		.uleb128 0x3a
 2833 01f3 0B       		.uleb128 0xb
 2834 01f4 3B       		.uleb128 0x3b
 2835 01f5 0B       		.uleb128 0xb
 2836 01f6 39       		.uleb128 0x39
 2837 01f7 0B       		.uleb128 0xb
 2838 01f8 49       		.uleb128 0x49
 2839 01f9 13       		.uleb128 0x13
 2840 01fa 02       		.uleb128 0x2
 2841 01fb 17       		.uleb128 0x17
 2842 01fc B742     		.uleb128 0x2137
 2843 01fe 17       		.uleb128 0x17
 2844 01ff 00       		.byte	0
 2845 0200 00       		.byte	0
 2846 0201 24       		.uleb128 0x24
 2847 0202 898201   		.uleb128 0x4109
 2848 0205 01       		.byte	0x1
 2849 0206 11       		.uleb128 0x11
 2850 0207 01       		.uleb128 0x1
ARM GAS  /var/folders/l5/0x54b2c10074c8bt31ycjvl80000gp/T//cc42yioC.s 			page 51


 2851 0208 31       		.uleb128 0x31
 2852 0209 13       		.uleb128 0x13
 2853 020a 00       		.byte	0
 2854 020b 00       		.byte	0
 2855 020c 25       		.uleb128 0x25
 2856 020d 2E       		.uleb128 0x2e
 2857 020e 01       		.byte	0x1
 2858 020f 3F       		.uleb128 0x3f
 2859 0210 19       		.uleb128 0x19
 2860 0211 03       		.uleb128 0x3
 2861 0212 0E       		.uleb128 0xe
 2862 0213 3A       		.uleb128 0x3a
 2863 0214 0B       		.uleb128 0xb
 2864 0215 3B       		.uleb128 0x3b
 2865 0216 0B       		.uleb128 0xb
 2866 0217 39       		.uleb128 0x39
 2867 0218 0B       		.uleb128 0xb
 2868 0219 27       		.uleb128 0x27
 2869 021a 19       		.uleb128 0x19
 2870 021b 11       		.uleb128 0x11
 2871 021c 01       		.uleb128 0x1
 2872 021d 12       		.uleb128 0x12
 2873 021e 06       		.uleb128 0x6
 2874 021f 40       		.uleb128 0x40
 2875 0220 18       		.uleb128 0x18
 2876 0221 9742     		.uleb128 0x2117
 2877 0223 19       		.uleb128 0x19
 2878 0224 01       		.uleb128 0x1
 2879 0225 13       		.uleb128 0x13
 2880 0226 00       		.byte	0
 2881 0227 00       		.byte	0
 2882 0228 26       		.uleb128 0x26
 2883 0229 2E       		.uleb128 0x2e
 2884 022a 00       		.byte	0
 2885 022b 3F       		.uleb128 0x3f
 2886 022c 19       		.uleb128 0x19
 2887 022d 3C       		.uleb128 0x3c
 2888 022e 19       		.uleb128 0x19
 2889 022f 6E       		.uleb128 0x6e
 2890 0230 0E       		.uleb128 0xe
 2891 0231 03       		.uleb128 0x3
 2892 0232 0E       		.uleb128 0xe
 2893 0233 3A       		.uleb128 0x3a
 2894 0234 0B       		.uleb128 0xb
 2895 0235 3B       		.uleb128 0x3b
 2896 0236 0B       		.uleb128 0xb
 2897 0237 39       		.uleb128 0x39
 2898 0238 0B       		.uleb128 0xb
 2899 0239 00       		.byte	0
 2900 023a 00       		.byte	0
 2901 023b 00       		.byte	0
 2902              		.section	.debug_loc,"",%progbits
 2903              	.Ldebug_loc0:
 2904              	.LVUS16:
 2905 0000 00       		.uleb128 0
 2906 0001 00       		.uleb128 .LVU124
 2907 0002 00       		.uleb128 .LVU124
ARM GAS  /var/folders/l5/0x54b2c10074c8bt31ycjvl80000gp/T//cc42yioC.s 			page 52


 2908 0003 00       		.uleb128 0
 2909              	.LLST16:
 2910 0004 00000000 		.4byte	.LVL17
 2911 0008 03000000 		.4byte	.LVL18-1
 2912 000c 0100     		.2byte	0x1
 2913 000e 50       		.byte	0x50
 2914 000f 03000000 		.4byte	.LVL18-1
 2915 0013 04000000 		.4byte	.LFE15
 2916 0017 0400     		.2byte	0x4
 2917 0019 F3       		.byte	0xf3
 2918 001a 01       		.uleb128 0x1
 2919 001b 50       		.byte	0x50
 2920 001c 9F       		.byte	0x9f
 2921 001d 00000000 		.4byte	0
 2922 0021 00000000 		.4byte	0
 2923              	.LVUS15:
 2924 0025 00       		.uleb128 0
 2925 0026 00       		.uleb128 .LVU118
 2926 0027 00       		.uleb128 .LVU118
 2927 0028 00       		.uleb128 .LVU119
 2928 0029 00       		.uleb128 .LVU119
 2929 002a 00       		.uleb128 0
 2930              	.LLST15:
 2931 002b 00000000 		.4byte	.LVL14
 2932 002f 04000000 		.4byte	.LVL15
 2933 0033 0100     		.2byte	0x1
 2934 0035 50       		.byte	0x50
 2935 0036 04000000 		.4byte	.LVL15
 2936 003a 07000000 		.4byte	.LVL16-1
 2937 003e 0300     		.2byte	0x3
 2938 0040 70       		.byte	0x70
 2939 0041 70       		.sleb128 -16
 2940 0042 9F       		.byte	0x9f
 2941 0043 07000000 		.4byte	.LVL16-1
 2942 0047 08000000 		.4byte	.LFE14
 2943 004b 0400     		.2byte	0x4
 2944 004d F3       		.byte	0xf3
 2945 004e 01       		.uleb128 0x1
 2946 004f 50       		.byte	0x50
 2947 0050 9F       		.byte	0x9f
 2948 0051 00000000 		.4byte	0
 2949 0055 00000000 		.4byte	0
 2950              	.LVUS10:
 2951 0059 00       		.uleb128 0
 2952 005a 00       		.uleb128 .LVU105
 2953 005b 00       		.uleb128 .LVU105
 2954 005c 00       		.uleb128 0
 2955              	.LLST10:
 2956 005d 00000000 		.4byte	.LVL12
 2957 0061 2F000000 		.4byte	.LVL13-1
 2958 0065 0100     		.2byte	0x1
 2959 0067 50       		.byte	0x50
 2960 0068 2F000000 		.4byte	.LVL13-1
 2961 006c 4C000000 		.4byte	.LFE13
 2962 0070 0100     		.2byte	0x1
 2963 0072 54       		.byte	0x54
 2964 0073 00000000 		.4byte	0
ARM GAS  /var/folders/l5/0x54b2c10074c8bt31ycjvl80000gp/T//cc42yioC.s 			page 53


 2965 0077 00000000 		.4byte	0
 2966              	.LVUS11:
 2967 007b 00       		.uleb128 0
 2968 007c 00       		.uleb128 .LVU105
 2969 007d 00       		.uleb128 .LVU105
 2970 007e 00       		.uleb128 0
 2971              	.LLST11:
 2972 007f 00000000 		.4byte	.LVL12
 2973 0083 2F000000 		.4byte	.LVL13-1
 2974 0087 0100     		.2byte	0x1
 2975 0089 51       		.byte	0x51
 2976 008a 2F000000 		.4byte	.LVL13-1
 2977 008e 4C000000 		.4byte	.LFE13
 2978 0092 0400     		.2byte	0x4
 2979 0094 F3       		.byte	0xf3
 2980 0095 01       		.uleb128 0x1
 2981 0096 51       		.byte	0x51
 2982 0097 9F       		.byte	0x9f
 2983 0098 00000000 		.4byte	0
 2984 009c 00000000 		.4byte	0
 2985              	.LVUS12:
 2986 00a0 00       		.uleb128 0
 2987 00a1 00       		.uleb128 .LVU105
 2988 00a2 00       		.uleb128 .LVU105
 2989 00a3 00       		.uleb128 0
 2990              	.LLST12:
 2991 00a4 00000000 		.4byte	.LVL12
 2992 00a8 2F000000 		.4byte	.LVL13-1
 2993 00ac 0100     		.2byte	0x1
 2994 00ae 52       		.byte	0x52
 2995 00af 2F000000 		.4byte	.LVL13-1
 2996 00b3 4C000000 		.4byte	.LFE13
 2997 00b7 0400     		.2byte	0x4
 2998 00b9 F3       		.byte	0xf3
 2999 00ba 01       		.uleb128 0x1
 3000 00bb 52       		.byte	0x52
 3001 00bc 9F       		.byte	0x9f
 3002 00bd 00000000 		.4byte	0
 3003 00c1 00000000 		.4byte	0
 3004              	.LVUS13:
 3005 00c5 00       		.uleb128 0
 3006 00c6 00       		.uleb128 .LVU105
 3007 00c7 00       		.uleb128 .LVU105
 3008 00c8 00       		.uleb128 0
 3009              	.LLST13:
 3010 00c9 00000000 		.4byte	.LVL12
 3011 00cd 2F000000 		.4byte	.LVL13-1
 3012 00d1 0100     		.2byte	0x1
 3013 00d3 53       		.byte	0x53
 3014 00d4 2F000000 		.4byte	.LVL13-1
 3015 00d8 4C000000 		.4byte	.LFE13
 3016 00dc 0400     		.2byte	0x4
 3017 00de F3       		.byte	0xf3
 3018 00df 01       		.uleb128 0x1
 3019 00e0 53       		.byte	0x53
 3020 00e1 9F       		.byte	0x9f
 3021 00e2 00000000 		.4byte	0
ARM GAS  /var/folders/l5/0x54b2c10074c8bt31ycjvl80000gp/T//cc42yioC.s 			page 54


 3022 00e6 00000000 		.4byte	0
 3023              	.LVUS14:
 3024 00ea 00       		.uleb128 .LVU105
 3025 00eb 00       		.uleb128 0
 3026              	.LLST14:
 3027 00ec 30000000 		.4byte	.LVL13
 3028 00f0 4C000000 		.4byte	.LFE13
 3029 00f4 0100     		.2byte	0x1
 3030 00f6 50       		.byte	0x50
 3031 00f7 00000000 		.4byte	0
 3032 00fb 00000000 		.4byte	0
 3033              	.LVUS5:
 3034 00ff 00       		.uleb128 0
 3035 0100 00       		.uleb128 .LVU74
 3036 0101 00       		.uleb128 .LVU74
 3037 0102 00       		.uleb128 0
 3038              	.LLST5:
 3039 0103 00000000 		.4byte	.LVL10
 3040 0107 43000000 		.4byte	.LVL11-1
 3041 010b 0100     		.2byte	0x1
 3042 010d 50       		.byte	0x50
 3043 010e 43000000 		.4byte	.LVL11-1
 3044 0112 60000000 		.4byte	.LFE12
 3045 0116 0100     		.2byte	0x1
 3046 0118 54       		.byte	0x54
 3047 0119 00000000 		.4byte	0
 3048 011d 00000000 		.4byte	0
 3049              	.LVUS6:
 3050 0121 00       		.uleb128 0
 3051 0122 00       		.uleb128 .LVU74
 3052 0123 00       		.uleb128 .LVU74
 3053 0124 00       		.uleb128 0
 3054              	.LLST6:
 3055 0125 00000000 		.4byte	.LVL10
 3056 0129 43000000 		.4byte	.LVL11-1
 3057 012d 0100     		.2byte	0x1
 3058 012f 51       		.byte	0x51
 3059 0130 43000000 		.4byte	.LVL11-1
 3060 0134 60000000 		.4byte	.LFE12
 3061 0138 0400     		.2byte	0x4
 3062 013a F3       		.byte	0xf3
 3063 013b 01       		.uleb128 0x1
 3064 013c 51       		.byte	0x51
 3065 013d 9F       		.byte	0x9f
 3066 013e 00000000 		.4byte	0
 3067 0142 00000000 		.4byte	0
 3068              	.LVUS7:
 3069 0146 00       		.uleb128 0
 3070 0147 00       		.uleb128 .LVU74
 3071 0148 00       		.uleb128 .LVU74
 3072 0149 00       		.uleb128 0
 3073              	.LLST7:
 3074 014a 00000000 		.4byte	.LVL10
 3075 014e 43000000 		.4byte	.LVL11-1
 3076 0152 0100     		.2byte	0x1
 3077 0154 52       		.byte	0x52
 3078 0155 43000000 		.4byte	.LVL11-1
ARM GAS  /var/folders/l5/0x54b2c10074c8bt31ycjvl80000gp/T//cc42yioC.s 			page 55


 3079 0159 60000000 		.4byte	.LFE12
 3080 015d 0400     		.2byte	0x4
 3081 015f F3       		.byte	0xf3
 3082 0160 01       		.uleb128 0x1
 3083 0161 52       		.byte	0x52
 3084 0162 9F       		.byte	0x9f
 3085 0163 00000000 		.4byte	0
 3086 0167 00000000 		.4byte	0
 3087              	.LVUS8:
 3088 016b 00       		.uleb128 0
 3089 016c 00       		.uleb128 .LVU74
 3090 016d 00       		.uleb128 .LVU74
 3091 016e 00       		.uleb128 0
 3092              	.LLST8:
 3093 016f 00000000 		.4byte	.LVL10
 3094 0173 43000000 		.4byte	.LVL11-1
 3095 0177 0100     		.2byte	0x1
 3096 0179 53       		.byte	0x53
 3097 017a 43000000 		.4byte	.LVL11-1
 3098 017e 60000000 		.4byte	.LFE12
 3099 0182 0400     		.2byte	0x4
 3100 0184 F3       		.byte	0xf3
 3101 0185 01       		.uleb128 0x1
 3102 0186 53       		.byte	0x53
 3103 0187 9F       		.byte	0x9f
 3104 0188 00000000 		.4byte	0
 3105 018c 00000000 		.4byte	0
 3106              	.LVUS9:
 3107 0190 00       		.uleb128 .LVU74
 3108 0191 00       		.uleb128 0
 3109              	.LLST9:
 3110 0192 44000000 		.4byte	.LVL11
 3111 0196 60000000 		.4byte	.LFE12
 3112 019a 0100     		.2byte	0x1
 3113 019c 50       		.byte	0x50
 3114 019d 00000000 		.4byte	0
 3115 01a1 00000000 		.4byte	0
 3116              	.LVUS4:
 3117 01a5 00       		.uleb128 0
 3118 01a6 00       		.uleb128 .LVU51
 3119 01a7 00       		.uleb128 .LVU51
 3120 01a8 00       		.uleb128 0
 3121              	.LLST4:
 3122 01a9 00000000 		.4byte	.LVL8
 3123 01ad 04000000 		.4byte	.LVL9
 3124 01b1 0100     		.2byte	0x1
 3125 01b3 50       		.byte	0x50
 3126 01b4 04000000 		.4byte	.LVL9
 3127 01b8 08000000 		.4byte	.LFE11
 3128 01bc 0400     		.2byte	0x4
 3129 01be F3       		.byte	0xf3
 3130 01bf 01       		.uleb128 0x1
 3131 01c0 50       		.byte	0x50
 3132 01c1 9F       		.byte	0x9f
 3133 01c2 00000000 		.4byte	0
 3134 01c6 00000000 		.4byte	0
 3135              	.LVUS3:
ARM GAS  /var/folders/l5/0x54b2c10074c8bt31ycjvl80000gp/T//cc42yioC.s 			page 56


 3136 01ca 00       		.uleb128 0
 3137 01cb 00       		.uleb128 .LVU40
 3138 01cc 00       		.uleb128 .LVU40
 3139 01cd 00       		.uleb128 0
 3140              	.LLST3:
 3141 01ce 00000000 		.4byte	.LVL6
 3142 01d2 0F000000 		.4byte	.LVL7-1
 3143 01d6 0100     		.2byte	0x1
 3144 01d8 50       		.byte	0x50
 3145 01d9 0F000000 		.4byte	.LVL7-1
 3146 01dd 20000000 		.4byte	.LFE10
 3147 01e1 0100     		.2byte	0x1
 3148 01e3 54       		.byte	0x54
 3149 01e4 00000000 		.4byte	0
 3150 01e8 00000000 		.4byte	0
 3151              	.LVUS1:
 3152 01ec 00       		.uleb128 0
 3153 01ed 00       		.uleb128 .LVU22
 3154 01ee 00       		.uleb128 .LVU22
 3155 01ef 00       		.uleb128 0
 3156              	.LLST1:
 3157 01f0 00000000 		.4byte	.LVL4
 3158 01f4 13000000 		.4byte	.LVL5-1
 3159 01f8 0100     		.2byte	0x1
 3160 01fa 50       		.byte	0x50
 3161 01fb 13000000 		.4byte	.LVL5-1
 3162 01ff 24000000 		.4byte	.LFE9
 3163 0203 0100     		.2byte	0x1
 3164 0205 54       		.byte	0x54
 3165 0206 00000000 		.4byte	0
 3166 020a 00000000 		.4byte	0
 3167              	.LVUS2:
 3168 020e 00       		.uleb128 0
 3169 020f 00       		.uleb128 .LVU22
 3170 0210 00       		.uleb128 .LVU22
 3171 0211 00       		.uleb128 0
 3172              	.LLST2:
 3173 0212 00000000 		.4byte	.LVL4
 3174 0216 13000000 		.4byte	.LVL5-1
 3175 021a 0100     		.2byte	0x1
 3176 021c 51       		.byte	0x51
 3177 021d 13000000 		.4byte	.LVL5-1
 3178 0221 24000000 		.4byte	.LFE9
 3179 0225 0400     		.2byte	0x4
 3180 0227 F3       		.byte	0xf3
 3181 0228 01       		.uleb128 0x1
 3182 0229 51       		.byte	0x51
 3183 022a 9F       		.byte	0x9f
 3184 022b 00000000 		.4byte	0
 3185 022f 00000000 		.4byte	0
 3186              	.LVUS0:
 3187 0233 00       		.uleb128 0
 3188 0234 00       		.uleb128 .LVU6
 3189 0235 00       		.uleb128 .LVU6
 3190 0236 00       		.uleb128 .LVU7
 3191 0237 00       		.uleb128 .LVU7
 3192 0238 00       		.uleb128 0
ARM GAS  /var/folders/l5/0x54b2c10074c8bt31ycjvl80000gp/T//cc42yioC.s 			page 57


 3193              	.LLST0:
 3194 0239 00000000 		.4byte	.LVL1
 3195 023d 10000000 		.4byte	.LVL2
 3196 0241 0100     		.2byte	0x1
 3197 0243 50       		.byte	0x50
 3198 0244 10000000 		.4byte	.LVL2
 3199 0248 13000000 		.4byte	.LVL3-1
 3200 024c 0300     		.2byte	0x3
 3201 024e 70       		.byte	0x70
 3202 024f 70       		.sleb128 -16
 3203 0250 9F       		.byte	0x9f
 3204 0251 13000000 		.4byte	.LVL3-1
 3205 0255 14000000 		.4byte	.LFE8
 3206 0259 0400     		.2byte	0x4
 3207 025b F3       		.byte	0xf3
 3208 025c 01       		.uleb128 0x1
 3209 025d 50       		.byte	0x50
 3210 025e 9F       		.byte	0x9f
 3211 025f 00000000 		.4byte	0
 3212 0263 00000000 		.4byte	0
 3213              		.section	.debug_aranges,"",%progbits
 3214 0000 5C000000 		.4byte	0x5c
 3215 0004 0200     		.2byte	0x2
 3216 0006 00000000 		.4byte	.Ldebug_info0
 3217 000a 04       		.byte	0x4
 3218 000b 00       		.byte	0
 3219 000c 0000     		.2byte	0
 3220 000e 0000     		.2byte	0
 3221 0010 00000000 		.4byte	.LFB7
 3222 0014 04000000 		.4byte	.LFE7-.LFB7
 3223 0018 00000000 		.4byte	.LFB8
 3224 001c 14000000 		.4byte	.LFE8-.LFB8
 3225 0020 00000000 		.4byte	.LFB9
 3226 0024 24000000 		.4byte	.LFE9-.LFB9
 3227 0028 00000000 		.4byte	.LFB10
 3228 002c 20000000 		.4byte	.LFE10-.LFB10
 3229 0030 00000000 		.4byte	.LFB11
 3230 0034 08000000 		.4byte	.LFE11-.LFB11
 3231 0038 00000000 		.4byte	.LFB12
 3232 003c 60000000 		.4byte	.LFE12-.LFB12
 3233 0040 00000000 		.4byte	.LFB13
 3234 0044 4C000000 		.4byte	.LFE13-.LFB13
 3235 0048 00000000 		.4byte	.LFB14
 3236 004c 08000000 		.4byte	.LFE14-.LFB14
 3237 0050 00000000 		.4byte	.LFB15
 3238 0054 04000000 		.4byte	.LFE15-.LFB15
 3239 0058 00000000 		.4byte	0
 3240 005c 00000000 		.4byte	0
 3241              		.section	.debug_ranges,"",%progbits
 3242              	.Ldebug_ranges0:
 3243 0000 00000000 		.4byte	.LFB7
 3244 0004 04000000 		.4byte	.LFE7
 3245 0008 00000000 		.4byte	.LFB8
 3246 000c 14000000 		.4byte	.LFE8
 3247 0010 00000000 		.4byte	.LFB9
 3248 0014 24000000 		.4byte	.LFE9
 3249 0018 00000000 		.4byte	.LFB10
ARM GAS  /var/folders/l5/0x54b2c10074c8bt31ycjvl80000gp/T//cc42yioC.s 			page 58


 3250 001c 20000000 		.4byte	.LFE10
 3251 0020 00000000 		.4byte	.LFB11
 3252 0024 08000000 		.4byte	.LFE11
 3253 0028 00000000 		.4byte	.LFB12
 3254 002c 60000000 		.4byte	.LFE12
 3255 0030 00000000 		.4byte	.LFB13
 3256 0034 4C000000 		.4byte	.LFE13
 3257 0038 00000000 		.4byte	.LFB14
 3258 003c 08000000 		.4byte	.LFE14
 3259 0040 00000000 		.4byte	.LFB15
 3260 0044 04000000 		.4byte	.LFE15
 3261 0048 00000000 		.4byte	0
 3262 004c 00000000 		.4byte	0
 3263              		.section	.debug_line,"",%progbits
 3264              	.Ldebug_line0:
 3265 0000 7E040000 		.section	.debug_str,"MS",%progbits,1
 3265      03007B02 
 3265      00000201 
 3265      FB0E0D00 
 3265      01010101 
 3266              	.LASF3:
 3267 0000 73697A65 		.ascii	"size_t\000"
 3267      5F7400
 3268              	.LASF71:
 3269 0007 7264796D 		.ascii	"rdymsg\000"
 3269      736700
 3270              	.LASF86:
 3271 000e 4F757470 		.ascii	"OutputQueue\000"
 3271      75745175 
 3271      65756500 
 3272              	.LASF4:
 3273 001a 5F5F7569 		.ascii	"__uint8_t\000"
 3273      6E74385F 
 3273      7400
 3274              	.LASF58:
 3275 0024 76746C69 		.ascii	"vtlist\000"
 3275      737400
 3276              	.LASF88:
 3277 002b 62736364 		.ascii	"bscdevice_t\000"
 3277      65766963 
 3277      655F7400 
 3278              	.LASF126:
 3279 0037 72786275 		.ascii	"rxbuf\000"
 3279      6600
 3280              	.LASF12:
 3281 003d 6C6F6E67 		.ascii	"long long unsigned int\000"
 3281      206C6F6E 
 3281      6720756E 
 3281      7369676E 
 3281      65642069 
 3282              	.LASF160:
 3283 0054 63684D74 		.ascii	"chMtxUnlock\000"
 3283      78556E6C 
 3283      6F636B00 
 3284              	.LASF122:
 3285 0060 61646472 		.ascii	"addr\000"
 3285      00
ARM GAS  /var/folders/l5/0x54b2c10074c8bt31ycjvl80000gp/T//cc42yioC.s 			page 59


 3286              	.LASF157:
 3287 0065 69326353 		.ascii	"i2cStart\000"
 3287      74617274 
 3287      00
 3288              	.LASF72:
 3289 006e 65786974 		.ascii	"exitcode\000"
 3289      636F6465 
 3289      00
 3290              	.LASF155:
 3291 0077 69326347 		.ascii	"i2cGetErrors\000"
 3291      65744572 
 3291      726F7273 
 3291      00
 3292              	.LASF149:
 3293 0084 69326352 		.ascii	"i2cReleaseBus\000"
 3293      656C6561 
 3293      73654275 
 3293      7300
 3294              	.LASF151:
 3295 0092 69326370 		.ascii	"i2cp\000"
 3295      00
 3296              	.LASF93:
 3297 0097 64617461 		.ascii	"dataFifo\000"
 3297      4669666F 
 3297      00
 3298              	.LASF29:
 3299 00a0 705F7072 		.ascii	"p_prio\000"
 3299      696F00
 3300              	.LASF153:
 3301 00a7 6932634D 		.ascii	"i2cMasterTransmitTimeout\000"
 3301      61737465 
 3301      72547261 
 3301      6E736D69 
 3301      7454696D 
 3302              	.LASF148:
 3303 00c0 72656164 		.ascii	"readt\000"
 3303      7400
 3304              	.LASF119:
 3305 00c6 64657669 		.ascii	"device\000"
 3305      636500
 3306              	.LASF76:
 3307 00cd 715F7761 		.ascii	"q_waiting\000"
 3307      6974696E 
 3307      6700
 3308              	.LASF11:
 3309 00d7 6C6F6E67 		.ascii	"long long int\000"
 3309      206C6F6E 
 3309      6720696E 
 3309      7400
 3310              	.LASF2:
 3311 00e5 7369676E 		.ascii	"signed char\000"
 3311      65642063 
 3311      68617200 
 3312              	.LASF135:
 3313 00f1 53445F53 		.ascii	"SD_STOP\000"
 3313      544F5000 
 3314              	.LASF61:
ARM GAS  /var/folders/l5/0x54b2c10074c8bt31ycjvl80000gp/T//cc42yioC.s 			page 60


 3315 00f9 6D5F7175 		.ascii	"m_queue\000"
 3315      65756500 
 3316              	.LASF162:
 3317 0101 6932635F 		.ascii	"i2c_lld_master_receive_timeout\000"
 3317      6C6C645F 
 3317      6D617374 
 3317      65725F72 
 3317      65636569 
 3318              	.LASF163:
 3319 0120 6932635F 		.ascii	"i2c_lld_master_transmit_timeout\000"
 3319      6C6C645F 
 3319      6D617374 
 3319      65725F74 
 3319      72616E73 
 3320              	.LASF20:
 3321 0140 74736C69 		.ascii	"tslices_t\000"
 3321      6365735F 
 3321      7400
 3322              	.LASF108:
 3323 014a 4932435F 		.ascii	"I2C_UNINIT\000"
 3323      554E494E 
 3323      495400
 3324              	.LASF130:
 3325 0155 69326361 		.ascii	"i2caddr_t\000"
 3325      6464725F 
 3325      7400
 3326              	.LASF116:
 3327 015f 73746174 		.ascii	"state\000"
 3327      6500
 3328              	.LASF0:
 3329 0165 6C6F6E67 		.ascii	"long int\000"
 3329      20696E74 
 3329      00
 3330              	.LASF19:
 3331 016e 74737461 		.ascii	"tstate_t\000"
 3331      74655F74 
 3331      00
 3332              	.LASF170:
 3333 0177 2F557365 		.ascii	"/Users/fernandoguirado/eclipse-workspace/ChibiOS-RP"
 3333      72732F66 
 3333      65726E61 
 3333      6E646F67 
 3333      75697261 
 3334 01aa 692D6D61 		.ascii	"i-master/testhal/BCM2835/GPIO\000"
 3334      73746572 
 3334      2F746573 
 3334      7468616C 
 3334      2F42434D 
 3335              	.LASF121:
 3336 01c8 74687265 		.ascii	"thread\000"
 3336      616400
 3337              	.LASF95:
 3338 01cf 64617461 		.ascii	"dataDelay\000"
 3338      44656C61 
 3338      7900
 3339              	.LASF78:
 3340 01d9 715F6275 		.ascii	"q_buffer\000"
ARM GAS  /var/folders/l5/0x54b2c10074c8bt31ycjvl80000gp/T//cc42yioC.s 			page 61


 3340      66666572 
 3340      00
 3341              	.LASF14:
 3342 01e2 75696E74 		.ascii	"uint16_t\000"
 3342      31365F74 
 3342      00
 3343              	.LASF111:
 3344 01eb 4932435F 		.ascii	"I2C_ACTIVE_TX\000"
 3344      41435449 
 3344      56455F54 
 3344      5800
 3345              	.LASF91:
 3346 01f9 64617461 		.ascii	"dataLength\000"
 3346      4C656E67 
 3346      746800
 3347              	.LASF87:
 3348 0204 5F69646C 		.ascii	"_idle_thread_wa\000"
 3348      655F7468 
 3348      72656164 
 3348      5F776100 
 3349              	.LASF89:
 3350 0214 636F6E74 		.ascii	"control\000"
 3350      726F6C00 
 3351              	.LASF10:
 3352 021c 5F5F7569 		.ascii	"__uint32_t\000"
 3352      6E743332 
 3352      5F7400
 3353              	.LASF41:
 3354 0227 72656761 		.ascii	"regarm_t\000"
 3354      726D5F74 
 3354      00
 3355              	.LASF47:
 3356 0230 76745F70 		.ascii	"vt_prev\000"
 3356      72657600 
 3357              	.LASF92:
 3358 0238 736C6176 		.ascii	"slaveAddress\000"
 3358      65416464 
 3358      72657373 
 3358      00
 3359              	.LASF168:
 3360 0245 474E5520 		.ascii	"GNU C17 8.3.1 20190703 (release) [gcc-8-branch revi"
 3360      43313720 
 3360      382E332E 
 3360      31203230 
 3360      31393037 
 3361 0278 73696F6E 		.ascii	"sion 273027] -mcpu=arm1176jz-s -mabi=apcs-gnu -mno-"
 3361      20323733 
 3361      3032375D 
 3361      202D6D63 
 3361      70753D61 
 3362 02ab 7468756D 		.ascii	"thumb-interwork -mfloat-abi=soft -marm -march=armv6"
 3362      622D696E 
 3362      74657277 
 3362      6F726B20 
 3362      2D6D666C 
 3363 02de 6B7A202D 		.ascii	"kz -ggdb -O2 -fomit-frame-pointer -ffunction-sectio"
 3363      67676462 
ARM GAS  /var/folders/l5/0x54b2c10074c8bt31ycjvl80000gp/T//cc42yioC.s 			page 62


 3363      202D4F32 
 3363      202D666F 
 3363      6D69742D 
 3364 0311 6E73202D 		.ascii	"ns -fdata-sections\000"
 3364      66646174 
 3364      612D7365 
 3364      6374696F 
 3364      6E7300
 3365              	.LASF133:
 3366 0324 49324330 		.ascii	"I2C0\000"
 3366      00
 3367              	.LASF69:
 3368 0329 4576656E 		.ascii	"EventSource\000"
 3368      74536F75 
 3368      72636500 
 3369              	.LASF17:
 3370 0335 756E7369 		.ascii	"unsigned int\000"
 3370      676E6564 
 3370      20696E74 
 3370      00
 3371              	.LASF46:
 3372 0342 76745F6E 		.ascii	"vt_next\000"
 3372      65787400 
 3373              	.LASF123:
 3374 034a 74786275 		.ascii	"txbuf\000"
 3374      6600
 3375              	.LASF142:
 3376 0350 53657269 		.ascii	"SerialDriverVMT\000"
 3376      616C4472 
 3376      69766572 
 3376      564D5400 
 3377              	.LASF118:
 3378 0360 6572726F 		.ascii	"errors\000"
 3378      727300
 3379              	.LASF140:
 3380 0367 69717565 		.ascii	"iqueue\000"
 3380      756500
 3381              	.LASF1:
 3382 036e 6C6F6E67 		.ascii	"long unsigned int\000"
 3382      20756E73 
 3382      69676E65 
 3382      6420696E 
 3382      7400
 3383              	.LASF154:
 3384 0380 74696D65 		.ascii	"timeout\000"
 3384      6F757400 
 3385              	.LASF146:
 3386 0388 67657474 		.ascii	"gett\000"
 3386      00
 3387              	.LASF44:
 3388 038d 76746675 		.ascii	"vtfunc_t\000"
 3388      6E635F74 
 3388      00
 3389              	.LASF98:
 3390 0396 67707365 		.ascii	"gpset\000"
 3390      7400
 3391              	.LASF139:
ARM GAS  /var/folders/l5/0x54b2c10074c8bt31ycjvl80000gp/T//cc42yioC.s 			page 63


 3392 039c 6576656E 		.ascii	"event\000"
 3392      7400
 3393              	.LASF8:
 3394 03a2 73686F72 		.ascii	"short unsigned int\000"
 3394      7420756E 
 3394      7369676E 
 3394      65642069 
 3394      6E7400
 3395              	.LASF103:
 3396 03b5 6770696F 		.ascii	"gpio_port_t\000"
 3396      5F706F72 
 3396      745F7400 
 3397              	.LASF99:
 3398 03c1 6770636C 		.ascii	"gpclr\000"
 3398      7200
 3399              	.LASF22:
 3400 03c7 6D73675F 		.ascii	"msg_t\000"
 3400      7400
 3401              	.LASF141:
 3402 03cd 6F717565 		.ascii	"oqueue\000"
 3402      756500
 3403              	.LASF65:
 3404 03d4 656C5F6E 		.ascii	"el_next\000"
 3404      65787400 
 3405              	.LASF147:
 3406 03dc 77726974 		.ascii	"writet\000"
 3406      657400
 3407              	.LASF18:
 3408 03e3 746D6F64 		.ascii	"tmode_t\000"
 3408      655F7400 
 3409              	.LASF39:
 3410 03eb 54687265 		.ascii	"ThreadsList\000"
 3410      6164734C 
 3410      69737400 
 3411              	.LASF23:
 3412 03f7 6576656E 		.ascii	"eventmask_t\000"
 3412      746D6173 
 3412      6B5F7400 
 3413              	.LASF85:
 3414 0403 496E7075 		.ascii	"InputQueue\000"
 3414      74517565 
 3414      756500
 3415              	.LASF60:
 3416 040e 4D757465 		.ascii	"Mutex\000"
 3416      7800
 3417              	.LASF75:
 3418 0414 47656E65 		.ascii	"GenericQueue\000"
 3418      72696351 
 3418      75657565 
 3418      00
 3419              	.LASF40:
 3420 0421 73746B61 		.ascii	"stkalign_t\000"
 3420      6C69676E 
 3420      5F7400
 3421              	.LASF164:
 3422 042c 6932635F 		.ascii	"i2c_lld_stop\000"
 3422      6C6C645F 
ARM GAS  /var/folders/l5/0x54b2c10074c8bt31ycjvl80000gp/T//cc42yioC.s 			page 64


 3422      73746F70 
 3422      00
 3423              	.LASF143:
 3424 0439 77726974 		.ascii	"write\000"
 3424      6500
 3425              	.LASF100:
 3426 043f 67706C65 		.ascii	"gplev\000"
 3426      7600
 3427              	.LASF145:
 3428 0445 70757474 		.ascii	"putt\000"
 3428      00
 3429              	.LASF48:
 3430 044a 76745F74 		.ascii	"vt_time\000"
 3430      696D6500 
 3431              	.LASF109:
 3432 0452 4932435F 		.ascii	"I2C_STOP\000"
 3432      53544F50 
 3432      00
 3433              	.LASF94:
 3434 045b 636C6F63 		.ascii	"clockDivider\000"
 3434      6B446976 
 3434      69646572 
 3434      00
 3435              	.LASF77:
 3436 0468 715F636F 		.ascii	"q_counter\000"
 3436      756E7465 
 3436      7200
 3437              	.LASF49:
 3438 0472 76745F66 		.ascii	"vt_func\000"
 3438      756E6300 
 3439              	.LASF131:
 3440 047a 69635F73 		.ascii	"ic_speed\000"
 3440      70656564 
 3440      00
 3441              	.LASF161:
 3442 0483 63684D74 		.ascii	"chMtxLock\000"
 3442      784C6F63 
 3442      6B00
 3443              	.LASF52:
 3444 048d 56544C69 		.ascii	"VTList\000"
 3444      737400
 3445              	.LASF127:
 3446 0494 72786279 		.ascii	"rxbytes\000"
 3446      74657300 
 3447              	.LASF80:
 3448 049c 715F7772 		.ascii	"q_wrptr\000"
 3448      70747200 
 3449              	.LASF55:
 3450 04a4 725F6374 		.ascii	"r_ctx\000"
 3450      7800
 3451              	.LASF38:
 3452 04aa 54687265 		.ascii	"ThreadsQueue\000"
 3452      61647351 
 3452      75657565 
 3452      00
 3453              	.LASF105:
 3454 04b7 494F504F 		.ascii	"IOPORT0\000"
ARM GAS  /var/folders/l5/0x54b2c10074c8bt31ycjvl80000gp/T//cc42yioC.s 			page 65


 3454      52543000 
 3455              	.LASF56:
 3456 04bf 725F6375 		.ascii	"r_current\000"
 3456      7272656E 
 3456      7400
 3457              	.LASF67:
 3458 04c9 656C5F6D 		.ascii	"el_mask\000"
 3458      61736B00 
 3459              	.LASF156:
 3460 04d1 69326353 		.ascii	"i2cStop\000"
 3460      746F7000 
 3461              	.LASF33:
 3462 04d9 705F7072 		.ascii	"p_preempt\000"
 3462      65656D70 
 3462      7400
 3463              	.LASF101:
 3464 04e3 67707075 		.ascii	"gppudclk\000"
 3464      64636C6B 
 3464      00
 3465              	.LASF128:
 3466 04ec 72786964 		.ascii	"rxidx\000"
 3466      7800
 3467              	.LASF114:
 3468 04f2 69326373 		.ascii	"i2cstate_t\000"
 3468      74617465 
 3468      5F7400
 3469              	.LASF84:
 3470 04fd 716E6F74 		.ascii	"qnotify_t\000"
 3470      6966795F 
 3470      7400
 3471              	.LASF28:
 3472 0507 705F7072 		.ascii	"p_prev\000"
 3472      657600
 3473              	.LASF150:
 3474 050e 69326341 		.ascii	"i2cAcquireBus\000"
 3474      63717569 
 3474      72654275 
 3474      7300
 3475              	.LASF21:
 3476 051c 74707269 		.ascii	"tprio_t\000"
 3476      6F5F7400 
 3477              	.LASF81:
 3478 0524 715F7264 		.ascii	"q_rdptr\000"
 3478      70747200 
 3479              	.LASF129:
 3480 052c 69326366 		.ascii	"i2cflags_t\000"
 3480      6C616773 
 3480      5F7400
 3481              	.LASF120:
 3482 0537 6D757465 		.ascii	"mutex\000"
 3482      7800
 3483              	.LASF165:
 3484 053d 6932635F 		.ascii	"i2c_lld_start\000"
 3484      6C6C645F 
 3484      73746172 
 3484      7400
 3485              	.LASF15:
ARM GAS  /var/folders/l5/0x54b2c10074c8bt31ycjvl80000gp/T//cc42yioC.s 			page 66


 3486 054b 696E7433 		.ascii	"int32_t\000"
 3486      325F7400 
 3487              	.LASF5:
 3488 0553 756E7369 		.ascii	"unsigned char\000"
 3488      676E6564 
 3488      20636861 
 3488      7200
 3489              	.LASF66:
 3490 0561 656C5F6C 		.ascii	"el_listener\000"
 3490      69737465 
 3490      6E657200 
 3491              	.LASF68:
 3492 056d 656C5F66 		.ascii	"el_flags\000"
 3492      6C616773 
 3492      00
 3493              	.LASF36:
 3494 0576 705F6D74 		.ascii	"p_mtxlist\000"
 3494      786C6973 
 3494      7400
 3495              	.LASF6:
 3496 0580 73686F72 		.ascii	"short int\000"
 3496      7420696E 
 3496      7400
 3497              	.LASF31:
 3498 058a 705F7374 		.ascii	"p_state\000"
 3498      61746500 
 3499              	.LASF169:
 3500 0592 2E2E2F2E 		.ascii	"../../../os/hal/src/i2c.c\000"
 3500      2E2F2E2E 
 3500      2F6F732F 
 3500      68616C2F 
 3500      7372632F 
 3501              	.LASF54:
 3502 05ac 725F7072 		.ascii	"r_prio\000"
 3502      696F00
 3503              	.LASF102:
 3504 05b3 70696E5F 		.ascii	"pin_base\000"
 3504      62617365 
 3504      00
 3505              	.LASF74:
 3506 05bc 65776D61 		.ascii	"ewmask\000"
 3506      736B00
 3507              	.LASF27:
 3508 05c3 705F6E65 		.ascii	"p_next\000"
 3508      787400
 3509              	.LASF106:
 3510 05ca 494F504F 		.ascii	"IOPORT1\000"
 3510      52543100 
 3511              	.LASF32:
 3512 05d2 705F666C 		.ascii	"p_flags\000"
 3512      61677300 
 3513              	.LASF26:
 3514 05da 54687265 		.ascii	"Thread\000"
 3514      616400
 3515              	.LASF113:
 3516 05e1 4932435F 		.ascii	"I2C_LOCKED\000"
 3516      4C4F434B 
ARM GAS  /var/folders/l5/0x54b2c10074c8bt31ycjvl80000gp/T//cc42yioC.s 			page 67


 3516      454400
 3517              	.LASF35:
 3518 05ec 705F6570 		.ascii	"p_epending\000"
 3518      656E6469 
 3518      6E6700
 3519              	.LASF134:
 3520 05f7 53445F55 		.ascii	"SD_UNINIT\000"
 3520      4E494E49 
 3520      5400
 3521              	.LASF16:
 3522 0601 75696E74 		.ascii	"uint32_t\000"
 3522      33325F74 
 3522      00
 3523              	.LASF53:
 3524 060a 725F7175 		.ascii	"r_queue\000"
 3524      65756500 
 3525              	.LASF45:
 3526 0612 56697274 		.ascii	"VirtualTimer\000"
 3526      75616C54 
 3526      696D6572 
 3526      00
 3527              	.LASF138:
 3528 061f 53657269 		.ascii	"SerialDriver\000"
 3528      616C4472 
 3528      69766572 
 3528      00
 3529              	.LASF112:
 3530 062c 4932435F 		.ascii	"I2C_ACTIVE_RX\000"
 3530      41435449 
 3530      56455F52 
 3530      5800
 3531              	.LASF144:
 3532 063a 72656164 		.ascii	"read\000"
 3532      00
 3533              	.LASF117:
 3534 063f 636F6E66 		.ascii	"config\000"
 3534      696700
 3535              	.LASF7:
 3536 0646 5F5F7569 		.ascii	"__uint16_t\000"
 3536      6E743136 
 3536      5F7400
 3537              	.LASF63:
 3538 0651 6D5F6E65 		.ascii	"m_next\000"
 3538      787400
 3539              	.LASF25:
 3540 0658 73797374 		.ascii	"systime_t\000"
 3540      696D655F 
 3540      7400
 3541              	.LASF37:
 3542 0662 705F7265 		.ascii	"p_realprio\000"
 3542      616C7072 
 3542      696F00
 3543              	.LASF9:
 3544 066d 5F5F696E 		.ascii	"__int32_t\000"
 3544      7433325F 
 3544      7400
 3545              	.LASF110:
ARM GAS  /var/folders/l5/0x54b2c10074c8bt31ycjvl80000gp/T//cc42yioC.s 			page 68


 3546 0677 4932435F 		.ascii	"I2C_READY\000"
 3546      52454144 
 3546      5900
 3547              	.LASF115:
 3548 0681 49324344 		.ascii	"I2CDriver\000"
 3548      72697665 
 3548      7200
 3549              	.LASF43:
 3550 068b 636F6E74 		.ascii	"context\000"
 3550      65787400 
 3551              	.LASF158:
 3552 0693 6932634F 		.ascii	"i2cObjectInit\000"
 3552      626A6563 
 3552      74496E69 
 3552      7400
 3553              	.LASF42:
 3554 06a1 696E7463 		.ascii	"intctx\000"
 3554      747800
 3555              	.LASF136:
 3556 06a8 53445F52 		.ascii	"SD_READY\000"
 3556      45414459 
 3556      00
 3557              	.LASF50:
 3558 06b1 76745F70 		.ascii	"vt_par\000"
 3558      617200
 3559              	.LASF166:
 3560 06b8 63684D74 		.ascii	"chMtxInit\000"
 3560      78496E69 
 3560      7400
 3561              	.LASF24:
 3562 06c2 666C6167 		.ascii	"flagsmask_t\000"
 3562      736D6173 
 3562      6B5F7400 
 3563              	.LASF132:
 3564 06ce 49324343 		.ascii	"I2CConfig\000"
 3564      6F6E6669 
 3564      6700
 3565              	.LASF137:
 3566 06d8 73647374 		.ascii	"sdstate_t\000"
 3566      6174655F 
 3566      7400
 3567              	.LASF125:
 3568 06e2 74786964 		.ascii	"txidx\000"
 3568      7800
 3569              	.LASF79:
 3570 06e8 715F746F 		.ascii	"q_top\000"
 3570      7000
 3571              	.LASF167:
 3572 06ee 6932635F 		.ascii	"i2c_lld_init\000"
 3572      6C6C645F 
 3572      696E6974 
 3572      00
 3573              	.LASF70:
 3574 06fb 65735F6E 		.ascii	"es_next\000"
 3574      65787400 
 3575              	.LASF90:
 3576 0703 73746174 		.ascii	"status\000"
ARM GAS  /var/folders/l5/0x54b2c10074c8bt31ycjvl80000gp/T//cc42yioC.s 			page 69


 3576      757300
 3577              	.LASF57:
 3578 070a 52656164 		.ascii	"ReadyList\000"
 3578      794C6973 
 3578      7400
 3579              	.LASF82:
 3580 0714 715F6E6F 		.ascii	"q_notify\000"
 3580      74696679 
 3580      00
 3581              	.LASF59:
 3582 071d 726C6973 		.ascii	"rlist\000"
 3582      7400
 3583              	.LASF13:
 3584 0723 75696E74 		.ascii	"uint8_t\000"
 3584      385F7400 
 3585              	.LASF97:
 3586 072b 6C617463 		.ascii	"latch\000"
 3586      6800
 3587              	.LASF152:
 3588 0731 6932634D 		.ascii	"i2cMasterReceiveTimeout\000"
 3588      61737465 
 3588      72526563 
 3588      65697665 
 3588      54696D65 
 3589              	.LASF64:
 3590 0749 4576656E 		.ascii	"EventListener\000"
 3590      744C6973 
 3590      74656E65 
 3590      7200
 3591              	.LASF73:
 3592 0757 77746F62 		.ascii	"wtobjp\000"
 3592      6A7000
 3593              	.LASF51:
 3594 075e 76745F73 		.ascii	"vt_systime\000"
 3594      79737469 
 3594      6D6500
 3595              	.LASF159:
 3596 0769 69326349 		.ascii	"i2cInit\000"
 3596      6E697400 
 3597              	.LASF83:
 3598 0771 715F6C69 		.ascii	"q_link\000"
 3598      6E6B00
 3599              	.LASF104:
 3600 0778 50414C43 		.ascii	"PALConfig\000"
 3600      6F6E6669 
 3600      6700
 3601              	.LASF62:
 3602 0782 6D5F6F77 		.ascii	"m_owner\000"
 3602      6E657200 
 3603              	.LASF107:
 3604 078a 70616C5F 		.ascii	"pal_default_config\000"
 3604      64656661 
 3604      756C745F 
 3604      636F6E66 
 3604      696700
 3605              	.LASF30:
 3606 079d 705F6374 		.ascii	"p_ctx\000"
ARM GAS  /var/folders/l5/0x54b2c10074c8bt31ycjvl80000gp/T//cc42yioC.s 			page 70


 3606      7800
 3607              	.LASF34:
 3608 07a3 705F7761 		.ascii	"p_waiting\000"
 3608      6974696E 
 3608      6700
 3609              	.LASF124:
 3610 07ad 74786279 		.ascii	"txbytes\000"
 3610      74657300 
 3611              	.LASF96:
 3612 07b5 636C6F63 		.ascii	"clockStretchTimeout\000"
 3612      6B537472 
 3612      65746368 
 3612      54696D65 
 3612      6F757400 
 3613              		.ident	"GCC: (GNU Tools for Arm Embedded Processors 8-2019-q3-update) 8.3.1 20190703 (release) [gc
ARM GAS  /var/folders/l5/0x54b2c10074c8bt31ycjvl80000gp/T//cc42yioC.s 			page 71


DEFINED SYMBOLS
                            *ABS*:0000000000000000 i2c.c
/var/folders/l5/0x54b2c10074c8bt31ycjvl80000gp/T//cc42yioC.s:6      .text.i2cInit:0000000000000000 $a
/var/folders/l5/0x54b2c10074c8bt31ycjvl80000gp/T//cc42yioC.s:13     .text.i2cInit:0000000000000000 i2cInit
/var/folders/l5/0x54b2c10074c8bt31ycjvl80000gp/T//cc42yioC.s:28     .text.i2cObjectInit:0000000000000000 $a
/var/folders/l5/0x54b2c10074c8bt31ycjvl80000gp/T//cc42yioC.s:34     .text.i2cObjectInit:0000000000000000 i2cObjectInit
/var/folders/l5/0x54b2c10074c8bt31ycjvl80000gp/T//cc42yioC.s:58     .text.i2cStart:0000000000000000 $a
/var/folders/l5/0x54b2c10074c8bt31ycjvl80000gp/T//cc42yioC.s:64     .text.i2cStart:0000000000000000 i2cStart
/var/folders/l5/0x54b2c10074c8bt31ycjvl80000gp/T//cc42yioC.s:117    .text.i2cStop:0000000000000000 $a
/var/folders/l5/0x54b2c10074c8bt31ycjvl80000gp/T//cc42yioC.s:123    .text.i2cStop:0000000000000000 i2cStop
/var/folders/l5/0x54b2c10074c8bt31ycjvl80000gp/T//cc42yioC.s:173    .text.i2cGetErrors:0000000000000000 $a
/var/folders/l5/0x54b2c10074c8bt31ycjvl80000gp/T//cc42yioC.s:179    .text.i2cGetErrors:0000000000000000 i2cGetErrors
/var/folders/l5/0x54b2c10074c8bt31ycjvl80000gp/T//cc42yioC.s:199    .text.i2cMasterTransmitTimeout:0000000000000000 $a
/var/folders/l5/0x54b2c10074c8bt31ycjvl80000gp/T//cc42yioC.s:205    .text.i2cMasterTransmitTimeout:0000000000000000 i2cMasterTransmitTimeout
/var/folders/l5/0x54b2c10074c8bt31ycjvl80000gp/T//cc42yioC.s:289    .text.i2cMasterReceiveTimeout:0000000000000000 $a
/var/folders/l5/0x54b2c10074c8bt31ycjvl80000gp/T//cc42yioC.s:295    .text.i2cMasterReceiveTimeout:0000000000000000 i2cMasterReceiveTimeout
/var/folders/l5/0x54b2c10074c8bt31ycjvl80000gp/T//cc42yioC.s:373    .text.i2cAcquireBus:0000000000000000 $a
/var/folders/l5/0x54b2c10074c8bt31ycjvl80000gp/T//cc42yioC.s:379    .text.i2cAcquireBus:0000000000000000 i2cAcquireBus
/var/folders/l5/0x54b2c10074c8bt31ycjvl80000gp/T//cc42yioC.s:400    .text.i2cReleaseBus:0000000000000000 $a
/var/folders/l5/0x54b2c10074c8bt31ycjvl80000gp/T//cc42yioC.s:406    .text.i2cReleaseBus:0000000000000000 i2cReleaseBus

UNDEFINED SYMBOLS
i2c_lld_init
chMtxInit
i2c_lld_start
i2c_lld_stop
i2c_lld_master_transmit_timeout
i2c_lld_master_receive_timeout
chMtxLock
chMtxUnlock
