ARM GAS  /var/folders/l5/0x54b2c10074c8bt31ycjvl80000gp/T//cc42yioC.s 			page 1


   1              		.file	"i2c.c"
   2              		.text
   3              	.Ltext0:
   4              		.cfi_sections	.debug_frame
   5              		.section	.text.i2cInit,"ax",%progbits
   6              		.align	2
   7              		.global	i2cInit
   8              		.arch armv6kz
   9              		.syntax unified
  10              		.arm
  11              		.fpu softvfp
  12              		.type	i2cInit, %function
  13              	i2cInit:
  14              	.LFB7:
  15              		.file 1 "../../../os/hal/src/i2c.c"
  16              		.loc 1 64 20 view -0
  17              		.cfi_startproc
  18              		@ args = 0, pretend = 0, frame = 0
  19              		@ frame_needed = 0, uses_anonymous_args = 0
  20              		@ link register save eliminated.
  21              		.loc 1 65 3 view .LVU1
  22 0000 FEFFFFEA 		b	i2c_lld_init
  23              	.LVL0:
  24              		.cfi_endproc
  25              	.LFE7:
  26              		.size	i2cInit, .-i2cInit
  27              		.section	.text.i2cObjectInit,"ax",%progbits
  28              		.align	2
  29              		.global	i2cObjectInit
  30              		.syntax unified
  31              		.arm
  32              		.fpu softvfp
  33              		.type	i2cObjectInit, %function
  34              	i2cObjectInit:
  35              	.LVL1:
  36              	.LFB8:
  37              		.loc 1 75 37 view -0
  38              		.cfi_startproc
  39              		@ args = 0, pretend = 0, frame = 0
  40              		@ frame_needed = 0, uses_anonymous_args = 0
  41              		@ link register save eliminated.
  42              		.loc 1 77 3 view .LVU3
  43              		.loc 1 78 16 is_stmt 0 view .LVU4
  44 0000 0120A0E3 		mov	r2, #1
  45 0004 0030A0E3 		mov	r3, #0
  46 0008 0C0080E8 		stm	r0, {r2, r3}
  47              		.loc 1 82 3 is_stmt 1 view .LVU5
  48 000c 100080E2 		add	r0, r0, #16
  49              	.LVL2:
  50              		.loc 1 82 3 is_stmt 0 view .LVU6
  51 0010 FEFFFFEA 		b	chMtxInit
  52              	.LVL3:
  53              		.loc 1 82 3 view .LVU7
  54              		.cfi_endproc
  55              	.LFE8:
  56              		.size	i2cObjectInit, .-i2cObjectInit
  57              		.section	.text.i2cStart,"ax",%progbits
ARM GAS  /var/folders/l5/0x54b2c10074c8bt31ycjvl80000gp/T//cc42yioC.s 			page 2


  58              		.align	2
  59              		.global	i2cStart
  60              		.syntax unified
  61              		.arm
  62              		.fpu softvfp
  63              		.type	i2cStart, %function
  64              	i2cStart:
  65              	.LVL4:
  66              	.LFB9:
  67              		.loc 1 101 57 is_stmt 1 view -0
  68              		.cfi_startproc
  69              		@ args = 0, pretend = 0, frame = 0
  70              		@ frame_needed = 0, uses_anonymous_args = 0
  71              		.loc 1 103 3 view .LVU9
  72              		.loc 1 103 61 view .LVU10
  73              		.loc 1 104 3 view .LVU11
  74              		.loc 1 107 31 view .LVU12
  75              		.loc 1 109 3 view .LVU13
  76              		.loc 1 101 57 is_stmt 0 view .LVU14
  77 0000 10402DE9 		push	{r4, lr}
  78              		.cfi_def_cfa_offset 8
  79              		.cfi_offset 4, -8
  80              		.cfi_offset 14, -4
  81              		.loc 1 101 57 view .LVU15
  82 0004 0040A0E1 		mov	r4, r0
  83              		.loc 1 109 3 view .LVU16
  84              		.syntax divided
  85              	@ 109 "../../../os/hal/src/i2c.c" 1
  86 0008 9FF021E3 		msr     CPSR_c, #0x9F
  87              	@ 0 "" 2
  88              		.loc 1 109 3 is_stmt 1 view .LVU17
  89              		.loc 1 109 14 view .LVU18
  90              		.loc 1 110 3 view .LVU19
  91              		.loc 1 110 16 is_stmt 0 view .LVU20
  92              		.arm
  93              		.syntax unified
  94 000c 041080E5 		str	r1, [r0, #4]
  95              		.loc 1 111 3 is_stmt 1 view .LVU21
  96 0010 FEFFFFEB 		bl	i2c_lld_start
  97              	.LVL5:
  98              		.loc 1 112 3 view .LVU22
  99              		.loc 1 112 15 is_stmt 0 view .LVU23
 100 0014 0230A0E3 		mov	r3, #2
 101 0018 003084E5 		str	r3, [r4]
 102              		.loc 1 113 3 is_stmt 1 view .LVU24
 103              		.loc 1 113 3 view .LVU25
 104              		.syntax divided
 105              	@ 113 "../../../os/hal/src/i2c.c" 1
 106 001c 1FF021E3 		msr     CPSR_c, #0x1F
 107              	@ 0 "" 2
 108              		.loc 1 113 16 view .LVU26
 109              		.loc 1 114 1 is_stmt 0 view .LVU27
 110              		.arm
 111              		.syntax unified
 112 0020 1080BDE8 		pop	{r4, pc}
 113              		.cfi_endproc
 114              	.LFE9:
ARM GAS  /var/folders/l5/0x54b2c10074c8bt31ycjvl80000gp/T//cc42yioC.s 			page 3


 115              		.size	i2cStart, .-i2cStart
 116              		.section	.text.i2cStop,"ax",%progbits
 117              		.align	2
 118              		.global	i2cStop
 119              		.syntax unified
 120              		.arm
 121              		.fpu softvfp
 122              		.type	i2cStop, %function
 123              	i2cStop:
 124              	.LVL6:
 125              	.LFB10:
 126              		.loc 1 123 31 is_stmt 1 view -0
 127              		.cfi_startproc
 128              		@ args = 0, pretend = 0, frame = 0
 129              		@ frame_needed = 0, uses_anonymous_args = 0
 130              		.loc 1 125 3 view .LVU29
 131              		.loc 1 125 38 view .LVU30
 132              		.loc 1 126 3 view .LVU31
 133              		.loc 1 129 31 view .LVU32
 134              		.loc 1 131 3 view .LVU33
 135              		.loc 1 123 31 is_stmt 0 view .LVU34
 136 0000 10402DE9 		push	{r4, lr}
 137              		.cfi_def_cfa_offset 8
 138              		.cfi_offset 4, -8
 139              		.cfi_offset 14, -4
 140              		.loc 1 123 31 view .LVU35
 141 0004 0040A0E1 		mov	r4, r0
 142              		.loc 1 131 3 view .LVU36
 143              		.syntax divided
 144              	@ 131 "../../../os/hal/src/i2c.c" 1
 145 0008 9FF021E3 		msr     CPSR_c, #0x9F
 146              	@ 0 "" 2
 147              		.loc 1 131 3 is_stmt 1 view .LVU37
 148              		.loc 1 131 14 view .LVU38
 149              		.loc 1 132 3 view .LVU39
 150              		.arm
 151              		.syntax unified
 152 000c FEFFFFEB 		bl	i2c_lld_stop
 153              	.LVL7:
 154              		.loc 1 133 3 view .LVU40
 155              		.loc 1 133 15 is_stmt 0 view .LVU41
 156 0010 0130A0E3 		mov	r3, #1
 157 0014 003084E5 		str	r3, [r4]
 158              		.loc 1 134 3 is_stmt 1 view .LVU42
 159              		.loc 1 134 3 view .LVU43
 160              		.syntax divided
 161              	@ 134 "../../../os/hal/src/i2c.c" 1
 162 0018 1FF021E3 		msr     CPSR_c, #0x1F
 163              	@ 0 "" 2
 164              		.loc 1 134 16 view .LVU44
 165              		.loc 1 135 1 is_stmt 0 view .LVU45
 166              		.arm
 167              		.syntax unified
 168 001c 1080BDE8 		pop	{r4, pc}
 169              		.cfi_endproc
 170              	.LFE10:
 171              		.size	i2cStop, .-i2cStop
ARM GAS  /var/folders/l5/0x54b2c10074c8bt31ycjvl80000gp/T//cc42yioC.s 			page 4


 172              		.section	.text.i2cGetErrors,"ax",%progbits
 173              		.align	2
 174              		.global	i2cGetErrors
 175              		.syntax unified
 176              		.arm
 177              		.fpu softvfp
 178              		.type	i2cGetErrors, %function
 179              	i2cGetErrors:
 180              	.LVL8:
 181              	.LFB11:
 182              		.loc 1 145 42 is_stmt 1 view -0
 183              		.cfi_startproc
 184              		@ args = 0, pretend = 0, frame = 0
 185              		@ frame_needed = 0, uses_anonymous_args = 0
 186              		@ link register save eliminated.
 187              		.loc 1 147 3 view .LVU47
 188              		.loc 1 147 43 view .LVU48
 189              		.loc 1 149 3 view .LVU49
 190              		.loc 1 150 1 is_stmt 0 view .LVU50
 191 0000 080090E5 		ldr	r0, [r0, #8]
 192              	.LVL9:
 193              		.loc 1 150 1 view .LVU51
 194 0004 1EFF2FE1 		bx	lr
 195              		.cfi_endproc
 196              	.LFE11:
 197              		.size	i2cGetErrors, .-i2cGetErrors
 198              		.section	.text.i2cMasterTransmitTimeout,"ax",%progbits
 199              		.align	2
 200              		.global	i2cMasterTransmitTimeout
 201              		.syntax unified
 202              		.arm
 203              		.fpu softvfp
 204              		.type	i2cMasterTransmitTimeout, %function
 205              	i2cMasterTransmitTimeout:
 206              	.LVL10:
 207              	.LFB12:
 208              		.loc 1 184 51 is_stmt 1 view -0
 209              		.cfi_startproc
 210              		@ args = 12, pretend = 0, frame = 0
 211              		@ frame_needed = 0, uses_anonymous_args = 0
 212              		.loc 1 185 3 view .LVU53
 213              		.loc 1 187 3 view .LVU54
 214              		.loc 1 191 41 view .LVU55
 215              		.loc 1 193 3 view .LVU56
 216              		.loc 1 194 61 view .LVU57
 217              		.loc 1 196 3 view .LVU58
 218              		.loc 1 184 51 is_stmt 0 view .LVU59
 219 0000 70402DE9 		push	{r4, r5, r6, lr}
 220              		.cfi_def_cfa_offset 16
 221              		.cfi_offset 4, -16
 222              		.cfi_offset 5, -12
 223              		.cfi_offset 6, -8
 224              		.cfi_offset 14, -4
 225 0004 0CD04DE2 		sub	sp, sp, #12
 226              		.cfi_def_cfa_offset 28
 227              		.loc 1 184 51 view .LVU60
 228 0008 7110FFE6 		uxth	r1, r1
ARM GAS  /var/folders/l5/0x54b2c10074c8bt31ycjvl80000gp/T//cc42yioC.s 			page 5


 229              		.loc 1 184 51 view .LVU61
 230 000c 0040A0E1 		mov	r4, r0
 231 0010 1CC09DE5 		ldr	ip, [sp, #28]
 232 0014 24609DE5 		ldr	r6, [sp, #36]
 233              		.loc 1 196 3 view .LVU62
 234              		.syntax divided
 235              	@ 196 "../../../os/hal/src/i2c.c" 1
 236 0018 9FF021E3 		msr     CPSR_c, #0x9F
 237              	@ 0 "" 2
 238              		.loc 1 196 3 is_stmt 1 view .LVU63
 239              		.loc 1 196 14 view .LVU64
 240              		.loc 1 197 3 view .LVU65
 241              		.loc 1 198 15 is_stmt 0 view .LVU66
 242              		.arm
 243              		.syntax unified
 244 001c 03E0A0E3 		mov	lr, #3
 245              		.loc 1 197 16 view .LVU67
 246 0020 0050A0E3 		mov	r5, #0
 247              		.loc 1 199 12 view .LVU68
 248 0024 00C08DE5 		str	ip, [sp]
 249 0028 20C09DE5 		ldr	ip, [sp, #32]
 250 002c 08608DE5 		str	r6, [sp, #8]
 251 0030 7CC0EFE6 		uxtb	ip, ip
 252              		.loc 1 197 16 view .LVU69
 253 0034 085080E5 		str	r5, [r0, #8]
 254              		.loc 1 198 3 is_stmt 1 view .LVU70
 255              		.loc 1 198 15 is_stmt 0 view .LVU71
 256 0038 00E080E5 		str	lr, [r0]
 257              		.loc 1 199 3 is_stmt 1 view .LVU72
 258              		.loc 1 199 12 is_stmt 0 view .LVU73
 259 003c 04C08DE5 		str	ip, [sp, #4]
 260 0040 FEFFFFEB 		bl	i2c_lld_master_transmit_timeout
 261              	.LVL11:
 262              		.loc 1 201 3 is_stmt 1 view .LVU74
 263              		.loc 1 201 6 is_stmt 0 view .LVU75
 264 0044 010070E3 		cmn	r0, #1
 265              		.loc 1 202 17 view .LVU76
 266 0048 0230A013 		movne	r3, #2
 267 004c 0530A003 		moveq	r3, #5
 268 0050 003084E5 		str	r3, [r4]
 269              		.loc 1 205 3 is_stmt 1 view .LVU77
 270              		.loc 1 205 3 view .LVU78
 271              		.syntax divided
 272              	@ 205 "../../../os/hal/src/i2c.c" 1
 273 0054 1FF021E3 		msr     CPSR_c, #0x1F
 274              	@ 0 "" 2
 275              		.loc 1 205 16 view .LVU79
 276              		.loc 1 206 3 view .LVU80
 277              		.loc 1 207 1 is_stmt 0 view .LVU81
 278              		.arm
 279              		.syntax unified
 280 0058 0CD08DE2 		add	sp, sp, #12
 281              		.cfi_def_cfa_offset 16
 282              		@ sp needed
 283 005c 7080BDE8 		pop	{r4, r5, r6, pc}
 284              		.loc 1 207 1 view .LVU82
 285              		.cfi_endproc
ARM GAS  /var/folders/l5/0x54b2c10074c8bt31ycjvl80000gp/T//cc42yioC.s 			page 6


 286              	.LFE12:
 287              		.size	i2cMasterTransmitTimeout, .-i2cMasterTransmitTimeout
 288              		.section	.text.i2cMasterReceiveTimeout,"ax",%progbits
 289              		.align	2
 290              		.global	i2cMasterReceiveTimeout
 291              		.syntax unified
 292              		.arm
 293              		.fpu softvfp
 294              		.type	i2cMasterReceiveTimeout, %function
 295              	i2cMasterReceiveTimeout:
 296              	.LVL12:
 297              	.LFB13:
 298              		.loc 1 233 49 is_stmt 1 view -0
 299              		.cfi_startproc
 300              		@ args = 4, pretend = 0, frame = 0
 301              		@ frame_needed = 0, uses_anonymous_args = 0
 302              		.loc 1 235 3 view .LVU84
 303              		.loc 1 237 3 view .LVU85
 304              		.loc 1 240 40 view .LVU86
 305              		.loc 1 242 3 view .LVU87
 306              		.loc 1 243 53 view .LVU88
 307              		.loc 1 245 3 view .LVU89
 308              		.loc 1 233 49 is_stmt 0 view .LVU90
 309 0000 30402DE9 		push	{r4, r5, lr}
 310              		.cfi_def_cfa_offset 12
 311              		.cfi_offset 4, -12
 312              		.cfi_offset 5, -8
 313              		.cfi_offset 14, -4
 314 0004 04D04DE2 		sub	sp, sp, #4
 315              		.cfi_def_cfa_offset 16
 316              		.loc 1 233 49 view .LVU91
 317 0008 7110FFE6 		uxth	r1, r1
 318              		.loc 1 233 49 view .LVU92
 319 000c 0040A0E1 		mov	r4, r0
 320 0010 10509DE5 		ldr	r5, [sp, #16]
 321              		.loc 1 245 3 view .LVU93
 322              		.syntax divided
 323              	@ 245 "../../../os/hal/src/i2c.c" 1
 324 0014 9FF021E3 		msr     CPSR_c, #0x9F
 325              	@ 0 "" 2
 326              		.loc 1 245 3 is_stmt 1 view .LVU94
 327              		.loc 1 245 14 view .LVU95
 328              		.loc 1 246 3 view .LVU96
 329              		.loc 1 246 16 is_stmt 0 view .LVU97
 330              		.arm
 331              		.syntax unified
 332 0018 00E0A0E3 		mov	lr, #0
 333              		.loc 1 247 15 view .LVU98
 334 001c 04C0A0E3 		mov	ip, #4
 335              		.loc 1 248 12 view .LVU99
 336 0020 00508DE5 		str	r5, [sp]
 337              		.loc 1 246 16 view .LVU100
 338 0024 08E080E5 		str	lr, [r0, #8]
 339              		.loc 1 247 3 is_stmt 1 view .LVU101
 340              		.loc 1 247 15 is_stmt 0 view .LVU102
 341 0028 00C080E5 		str	ip, [r0]
 342              		.loc 1 248 3 is_stmt 1 view .LVU103
ARM GAS  /var/folders/l5/0x54b2c10074c8bt31ycjvl80000gp/T//cc42yioC.s 			page 7


 343              		.loc 1 248 12 is_stmt 0 view .LVU104
 344 002c FEFFFFEB 		bl	i2c_lld_master_receive_timeout
 345              	.LVL13:
 346              		.loc 1 249 3 is_stmt 1 view .LVU105
 347              		.loc 1 249 6 is_stmt 0 view .LVU106
 348 0030 010070E3 		cmn	r0, #1
 349              		.loc 1 250 17 view .LVU107
 350 0034 0230A013 		movne	r3, #2
 351 0038 0530A003 		moveq	r3, #5
 352 003c 003084E5 		str	r3, [r4]
 353              		.loc 1 253 3 is_stmt 1 view .LVU108
 354              		.loc 1 253 3 view .LVU109
 355              		.syntax divided
 356              	@ 253 "../../../os/hal/src/i2c.c" 1
 357 0040 1FF021E3 		msr     CPSR_c, #0x1F
 358              	@ 0 "" 2
 359              		.loc 1 253 16 view .LVU110
 360              		.loc 1 254 3 view .LVU111
 361              		.loc 1 255 1 is_stmt 0 view .LVU112
 362              		.arm
 363              		.syntax unified
 364 0044 04D08DE2 		add	sp, sp, #4
 365              		.cfi_def_cfa_offset 12
 366              		@ sp needed
 367 0048 3080BDE8 		pop	{r4, r5, pc}
 368              		.loc 1 255 1 view .LVU113
 369              		.cfi_endproc
 370              	.LFE13:
 371              		.size	i2cMasterReceiveTimeout, .-i2cMasterReceiveTimeout
 372              		.section	.text.i2cAcquireBus,"ax",%progbits
 373              		.align	2
 374              		.global	i2cAcquireBus
 375              		.syntax unified
 376              		.arm
 377              		.fpu softvfp
 378              		.type	i2cAcquireBus, %function
 379              	i2cAcquireBus:
 380              	.LVL14:
 381              	.LFB14:
 382              		.loc 1 269 37 is_stmt 1 view -0
 383              		.cfi_startproc
 384              		@ args = 0, pretend = 0, frame = 0
 385              		@ frame_needed = 0, uses_anonymous_args = 0
 386              		@ link register save eliminated.
 387              		.loc 1 271 3 view .LVU115
 388              		.loc 1 271 44 view .LVU116
 389              		.loc 1 274 3 view .LVU117
 390 0000 100080E2 		add	r0, r0, #16
 391              	.LVL15:
 392              		.loc 1 274 3 is_stmt 0 view .LVU118
 393 0004 FEFFFFEA 		b	chMtxLock
 394              	.LVL16:
 395              		.loc 1 274 3 view .LVU119
 396              		.cfi_endproc
 397              	.LFE14:
 398              		.size	i2cAcquireBus, .-i2cAcquireBus
 399              		.section	.text.i2cReleaseBus,"ax",%progbits
ARM GAS  /var/folders/l5/0x54b2c10074c8bt31ycjvl80000gp/T//cc42yioC.s 			page 8


 400              		.align	2
 401              		.global	i2cReleaseBus
 402              		.syntax unified
 403              		.arm
 404              		.fpu softvfp
 405              		.type	i2cReleaseBus, %function
 406              	i2cReleaseBus:
 407              	.LVL17:
 408              	.LFB15:
 409              		.loc 1 289 37 is_stmt 1 view -0
 410              		.cfi_startproc
 411              		@ args = 0, pretend = 0, frame = 0
 412              		@ frame_needed = 0, uses_anonymous_args = 0
 413              		@ link register save eliminated.
 414              		.loc 1 291 3 view .LVU121
 415              		.loc 1 291 44 view .LVU122
 416              		.loc 1 294 3 view .LVU123
 417 0000 FEFFFFEA 		b	chMtxUnlock
 418              	.LVL18:
 419              		.loc 1 294 3 is_stmt 0 view .LVU124
 420              		.cfi_endproc
 421              	.LFE15:
 422              		.size	i2cReleaseBus, .-i2cReleaseBus
 423              		.text
 424              	.Letext0:
 425              		.file 2 "/usr/local/Cellar/arm-gcc-bin/8-2019-q3-update/lib/gcc/arm-none-eabi/8.3.1/include/stddef
 426              		.file 3 "/usr/local/Cellar/arm-gcc-bin/8-2019-q3-update/arm-none-eabi/include/machine/_default_typ
 427              		.file 4 "/usr/local/Cellar/arm-gcc-bin/8-2019-q3-update/arm-none-eabi/include/sys/_stdint.h"
 428              		.file 5 "../../../os/ports/GCC/ARM/chtypes.h"
 429              		.file 6 "../../../os/kernel/include/chlists.h"
 430              		.file 7 "../../../os/kernel/include/chthreads.h"
 431              		.file 8 "../../../os/ports/GCC/ARM/chcore.h"
 432              		.file 9 "../../../os/kernel/include/chvt.h"
 433              		.file 10 "../../../os/kernel/include/chschd.h"
 434              		.file 11 "../../../os/kernel/include/chmtx.h"
 435              		.file 12 "../../../os/kernel/include/chevents.h"
 436              		.file 13 "../../../os/kernel/include/chqueues.h"
 437              		.file 14 "../../../os/kernel/include/ch.h"
 438              		.file 15 "../../../os/hal/platforms/BCM2835/bcm2835.h"
 439              		.file 16 "../../../os/hal/platforms/BCM2835/pal_lld.h"
 440              		.file 17 "../../../os/hal/include/i2c.h"
 441              		.file 18 "../../../os/hal/platforms/BCM2835/i2c_lld.h"
 442              		.file 19 "../../../os/hal/include/serial.h"
 443              		.file 20 "../../../os/hal/platforms/BCM2835/serial_lld.h"