ARM GAS  /var/folders/l5/0x54b2c10074c8bt31ycjvl80000gp/T//ccp7rYYt.s 			page 1


   1              		.file	"serial.c"
   2              		.text
   3              	.Ltext0:
   4              		.cfi_sections	.debug_frame
   5              		.section	.text.readt,"ax",%progbits
   6              		.align	2
   7              		.arch armv6kz
   8              		.syntax unified
   9              		.arm
  10              		.fpu softvfp
  11              		.type	readt, %function
  12              	readt:
  13              	.LVL0:
  14              	.LFB14:
  15              		.file 1 "../../../os/hal/src/serial.c"
  16              		.loc 1 92 70 view -0
  17              		.cfi_startproc
  18              		@ args = 0, pretend = 0, frame = 0
  19              		@ frame_needed = 0, uses_anonymous_args = 0
  20              		@ link register save eliminated.
  21              		.loc 1 94 3 view .LVU1
  22              		.loc 1 94 10 is_stmt 0 view .LVU2
  23 0000 0C0080E2 		add	r0, r0, #12
  24              	.LVL1:
  25              		.loc 1 94 10 view .LVU3
  26 0004 FEFFFFEA 		b	chIQReadTimeout
  27              	.LVL2:
  28              		.loc 1 94 10 view .LVU4
  29              		.cfi_endproc
  30              	.LFE14:
  31              		.size	readt, .-readt
  32              		.section	.text.read,"ax",%progbits
  33              		.align	2
  34              		.syntax unified
  35              		.arm
  36              		.fpu softvfp
  37              		.type	read, %function
  38              	read:
  39              	.LVL3:
  40              	.LFB8:
  41              		.loc 1 61 53 is_stmt 1 view -0
  42              		.cfi_startproc
  43              		@ args = 0, pretend = 0, frame = 0
  44              		@ frame_needed = 0, uses_anonymous_args = 0
  45              		@ link register save eliminated.
  46              		.loc 1 63 3 view .LVU6
  47              		.loc 1 63 10 is_stmt 0 view .LVU7
  48 0000 0C0080E2 		add	r0, r0, #12
  49              	.LVL4:
  50              		.loc 1 63 10 view .LVU8
  51 0004 0030E0E3 		mvn	r3, #0
  52 0008 FEFFFFEA 		b	chIQReadTimeout
  53              	.LVL5:
  54              		.loc 1 63 10 view .LVU9
  55              		.cfi_endproc
  56              	.LFE8:
  57              		.size	read, .-read
ARM GAS  /var/folders/l5/0x54b2c10074c8bt31ycjvl80000gp/T//ccp7rYYt.s 			page 2


  58              		.section	.text.writet,"ax",%progbits
  59              		.align	2
  60              		.syntax unified
  61              		.arm
  62              		.fpu softvfp
  63              		.type	writet, %function
  64              	writet:
  65              	.LVL6:
  66              	.LFB13:
  67              		.loc 1 87 77 is_stmt 1 view -0
  68              		.cfi_startproc
  69              		@ args = 0, pretend = 0, frame = 0
  70              		@ frame_needed = 0, uses_anonymous_args = 0
  71              		@ link register save eliminated.
  72              		.loc 1 89 3 view .LVU11
  73              		.loc 1 89 10 is_stmt 0 view .LVU12
  74 0000 300080E2 		add	r0, r0, #48
  75              	.LVL7:
  76              		.loc 1 89 10 view .LVU13
  77 0004 FEFFFFEA 		b	chOQWriteTimeout
  78              	.LVL8:
  79              		.loc 1 89 10 view .LVU14
  80              		.cfi_endproc
  81              	.LFE13:
  82              		.size	writet, .-writet
  83              		.section	.text.write,"ax",%progbits
  84              		.align	2
  85              		.syntax unified
  86              		.arm
  87              		.fpu softvfp
  88              		.type	write, %function
  89              	write:
  90              	.LVL9:
  91              	.LFB7:
  92              		.loc 1 55 60 is_stmt 1 view -0
  93              		.cfi_startproc
  94              		@ args = 0, pretend = 0, frame = 0
  95              		@ frame_needed = 0, uses_anonymous_args = 0
  96              		@ link register save eliminated.
  97              		.loc 1 57 3 view .LVU16
  98              		.loc 1 57 10 is_stmt 0 view .LVU17
  99 0000 300080E2 		add	r0, r0, #48
 100              	.LVL10:
 101              		.loc 1 57 10 view .LVU18
 102 0004 0030E0E3 		mvn	r3, #0
 103 0008 FEFFFFEA 		b	chOQWriteTimeout
 104              	.LVL11:
 105              		.loc 1 57 10 view .LVU19
 106              		.cfi_endproc
 107              	.LFE7:
 108              		.size	write, .-write
 109              		.section	.text.gett,"ax",%progbits
 110              		.align	2
 111              		.syntax unified
 112              		.arm
 113              		.fpu softvfp
 114              		.type	gett, %function
ARM GAS  /var/folders/l5/0x54b2c10074c8bt31ycjvl80000gp/T//ccp7rYYt.s 			page 3


 115              	gett:
 116              	.LVL12:
 117              	.LFB12:
 118              		.loc 1 82 48 is_stmt 1 view -0
 119              		.cfi_startproc
 120              		@ args = 0, pretend = 0, frame = 0
 121              		@ frame_needed = 0, uses_anonymous_args = 0
 122              		@ link register save eliminated.
 123              		.loc 1 84 3 view .LVU21
 124              		.loc 1 84 10 is_stmt 0 view .LVU22
 125 0000 0C0080E2 		add	r0, r0, #12
 126              	.LVL13:
 127              		.loc 1 84 10 view .LVU23
 128 0004 FEFFFFEA 		b	chIQGetTimeout
 129              	.LVL14:
 130              		.loc 1 84 10 view .LVU24
 131              		.cfi_endproc
 132              	.LFE12:
 133              		.size	gett, .-gett
 134              		.section	.text.get,"ax",%progbits
 135              		.align	2
 136              		.syntax unified
 137              		.arm
 138              		.fpu softvfp
 139              		.type	get, %function
 140              	get:
 141              	.LVL15:
 142              	.LFB10:
 143              		.loc 1 72 28 is_stmt 1 view -0
 144              		.cfi_startproc
 145              		@ args = 0, pretend = 0, frame = 0
 146              		@ frame_needed = 0, uses_anonymous_args = 0
 147              		@ link register save eliminated.
 148              		.loc 1 74 3 view .LVU26
 149              		.loc 1 74 10 is_stmt 0 view .LVU27
 150 0000 0C0080E2 		add	r0, r0, #12
 151              	.LVL16:
 152              		.loc 1 74 10 view .LVU28
 153 0004 0010E0E3 		mvn	r1, #0
 154 0008 FEFFFFEA 		b	chIQGetTimeout
 155              	.LVL17:
 156              		.loc 1 74 10 view .LVU29
 157              		.cfi_endproc
 158              	.LFE10:
 159              		.size	get, .-get
 160              		.section	.text.putt,"ax",%progbits
 161              		.align	2
 162              		.syntax unified
 163              		.arm
 164              		.fpu softvfp
 165              		.type	putt, %function
 166              	putt:
 167              	.LVL18:
 168              	.LFB11:
 169              		.loc 1 77 59 is_stmt 1 view -0
 170              		.cfi_startproc
 171              		@ args = 0, pretend = 0, frame = 0
ARM GAS  /var/folders/l5/0x54b2c10074c8bt31ycjvl80000gp/T//ccp7rYYt.s 			page 4


 172              		@ frame_needed = 0, uses_anonymous_args = 0
 173              		@ link register save eliminated.
 174              		.loc 1 79 3 view .LVU31
 175              		.loc 1 79 10 is_stmt 0 view .LVU32
 176 0000 7110EFE6 		uxtb	r1, r1
 177              		.loc 1 79 10 view .LVU33
 178 0004 300080E2 		add	r0, r0, #48
 179              	.LVL19:
 180              		.loc 1 79 10 view .LVU34
 181 0008 FEFFFFEA 		b	chOQPutTimeout
 182              	.LVL20:
 183              		.loc 1 79 10 view .LVU35
 184              		.cfi_endproc
 185              	.LFE11:
 186              		.size	putt, .-putt
 187              		.section	.text.put,"ax",%progbits
 188              		.align	2
 189              		.syntax unified
 190              		.arm
 191              		.fpu softvfp
 192              		.type	put, %function
 193              	put:
 194              	.LVL21:
 195              	.LFB9:
 196              		.loc 1 67 39 is_stmt 1 view -0
 197              		.cfi_startproc
 198              		@ args = 0, pretend = 0, frame = 0
 199              		@ frame_needed = 0, uses_anonymous_args = 0
 200              		@ link register save eliminated.
 201              		.loc 1 69 3 view .LVU37
 202              		.loc 1 69 10 is_stmt 0 view .LVU38
 203 0000 7110EFE6 		uxtb	r1, r1
 204              		.loc 1 69 10 view .LVU39
 205 0004 300080E2 		add	r0, r0, #48
 206              	.LVL22:
 207              		.loc 1 69 10 view .LVU40
 208 0008 0020E0E3 		mvn	r2, #0
 209 000c FEFFFFEA 		b	chOQPutTimeout
 210              	.LVL23:
 211              		.loc 1 69 10 view .LVU41
 212              		.cfi_endproc
 213              	.LFE9:
 214              		.size	put, .-put
 215              		.section	.text.sdInit,"ax",%progbits
 216              		.align	2
 217              		.global	sdInit
 218              		.syntax unified
 219              		.arm
 220              		.fpu softvfp
 221              		.type	sdInit, %function
 222              	sdInit:
 223              	.LFB15:
 224              		.loc 1 113 19 is_stmt 1 view -0
 225              		.cfi_startproc
 226              		@ args = 0, pretend = 0, frame = 0
 227              		@ frame_needed = 0, uses_anonymous_args = 0
 228              		@ link register save eliminated.
ARM GAS  /var/folders/l5/0x54b2c10074c8bt31ycjvl80000gp/T//ccp7rYYt.s 			page 5


 229              		.loc 1 115 3 view .LVU43
 230 0000 FEFFFFEA 		b	sd_lld_init
 231              	.LVL24:
 232              		.cfi_endproc
 233              	.LFE15:
 234              		.size	sdInit, .-sdInit
 235              		.section	.text.sdObjectInit,"ax",%progbits
 236              		.align	2
 237              		.global	sdObjectInit
 238              		.syntax unified
 239              		.arm
 240              		.fpu softvfp
 241              		.type	sdObjectInit, %function
 242              	sdObjectInit:
 243              	.LVL25:
 244              	.LFB16:
 245              		.loc 1 133 76 view -0
 246              		.cfi_startproc
 247              		@ args = 0, pretend = 0, frame = 0
 248              		@ frame_needed = 0, uses_anonymous_args = 0
 249              		.loc 1 135 3 view .LVU45
 250              		.loc 1 133 76 is_stmt 0 view .LVU46
 251 0000 30402DE9 		push	{r4, r5, lr}
 252              		.cfi_def_cfa_offset 12
 253              		.cfi_offset 4, -12
 254              		.cfi_offset 5, -8
 255              		.cfi_offset 14, -4
 256              		.loc 1 137 14 view .LVU47
 257 0004 01C0A0E3 		mov	ip, #1
 258              		.loc 1 133 76 view .LVU48
 259 0008 0040A0E1 		mov	r4, r0
 260 000c 0250A0E1 		mov	r5, r2
 261              		.loc 1 135 12 view .LVU49
 262 0010 40309FE5 		ldr	r3, .L13
 263              		.loc 1 133 76 view .LVU50
 264 0014 04D04DE2 		sub	sp, sp, #4
 265              		.cfi_def_cfa_offset 16
 266              		.loc 1 138 3 view .LVU51
 267 0018 00008DE5 		str	r0, [sp]
 268              		.loc 1 135 12 view .LVU52
 269 001c 043080E4 		str	r3, [r0], #4
 270              	.LVL26:
 271              		.loc 1 136 3 is_stmt 1 view .LVU53
 272              		.loc 1 137 14 is_stmt 0 view .LVU54
 273 0020 011084E9 		stmib	r4, {r0, ip}
 274              		.loc 1 138 3 is_stmt 1 view .LVU55
 275 0024 0130A0E1 		mov	r3, r1
 276 0028 0C0084E2 		add	r0, r4, #12
 277 002c 541084E2 		add	r1, r4, #84
 278              	.LVL27:
 279              		.loc 1 138 3 is_stmt 0 view .LVU56
 280 0030 1020A0E3 		mov	r2, #16
 281              	.LVL28:
 282              		.loc 1 138 3 view .LVU57
 283 0034 FEFFFFEB 		bl	chIQInit
 284              	.LVL29:
 285              		.loc 1 139 3 is_stmt 1 view .LVU58
ARM GAS  /var/folders/l5/0x54b2c10074c8bt31ycjvl80000gp/T//ccp7rYYt.s 			page 6


 286 0038 00408DE5 		str	r4, [sp]
 287 003c 0530A0E1 		mov	r3, r5
 288 0040 641084E2 		add	r1, r4, #100
 289 0044 300084E2 		add	r0, r4, #48
 290 0048 1020A0E3 		mov	r2, #16
 291 004c FEFFFFEB 		bl	chOQInit
 292              	.LVL30:
 293              		.loc 1 140 1 is_stmt 0 view .LVU59
 294 0050 04D08DE2 		add	sp, sp, #4
 295              		.cfi_def_cfa_offset 12
 296              		@ sp needed
 297 0054 3080BDE8 		pop	{r4, r5, pc}
 298              	.LVL31:
 299              	.L14:
 300              		.loc 1 140 1 view .LVU60
 301              		.align	2
 302              	.L13:
 303 0058 00000000 		.word	.LANCHOR0
 304              		.cfi_endproc
 305              	.LFE16:
 306              		.size	sdObjectInit, .-sdObjectInit
 307              		.section	.text.sdStart,"ax",%progbits
 308              		.align	2
 309              		.global	sdStart
 310              		.syntax unified
 311              		.arm
 312              		.fpu softvfp
 313              		.type	sdStart, %function
 314              	sdStart:
 315              	.LVL32:
 316              	.LFB17:
 317              		.loc 1 152 61 is_stmt 1 view -0
 318              		.cfi_startproc
 319              		@ args = 0, pretend = 0, frame = 0
 320              		@ frame_needed = 0, uses_anonymous_args = 0
 321              		.loc 1 154 3 view .LVU62
 322              		.loc 1 154 37 view .LVU63
 323              		.loc 1 156 3 view .LVU64
 324              		.loc 1 152 61 is_stmt 0 view .LVU65
 325 0000 10402DE9 		push	{r4, lr}
 326              		.cfi_def_cfa_offset 8
 327              		.cfi_offset 4, -8
 328              		.cfi_offset 14, -4
 329              		.loc 1 152 61 view .LVU66
 330 0004 0040A0E1 		mov	r4, r0
 331              		.loc 1 156 3 view .LVU67
 332              		.syntax divided
 333              	@ 156 "../../../os/hal/src/serial.c" 1
 334 0008 9FF021E3 		msr     CPSR_c, #0x9F
 335              	@ 0 "" 2
 336              		.loc 1 156 3 is_stmt 1 view .LVU68
 337              		.loc 1 156 14 view .LVU69
 338              		.loc 1 157 3 view .LVU70
 339              		.loc 1 159 31 view .LVU71
 340              		.loc 1 160 3 view .LVU72
 341              		.arm
 342              		.syntax unified
ARM GAS  /var/folders/l5/0x54b2c10074c8bt31ycjvl80000gp/T//ccp7rYYt.s 			page 7


 343 000c FEFFFFEB 		bl	sd_lld_start
 344              	.LVL33:
 345              		.loc 1 161 3 view .LVU73
 346              		.loc 1 161 14 is_stmt 0 view .LVU74
 347 0010 0230A0E3 		mov	r3, #2
 348 0014 083084E5 		str	r3, [r4, #8]
 349              		.loc 1 162 3 is_stmt 1 view .LVU75
 350              		.loc 1 162 3 view .LVU76
 351              		.syntax divided
 352              	@ 162 "../../../os/hal/src/serial.c" 1
 353 0018 1FF021E3 		msr     CPSR_c, #0x1F
 354              	@ 0 "" 2
 355              		.loc 1 162 16 view .LVU77
 356              		.loc 1 163 1 is_stmt 0 view .LVU78
 357              		.arm
 358              		.syntax unified
 359 001c 1080BDE8 		pop	{r4, pc}
 360              		.cfi_endproc
 361              	.LFE17:
 362              		.size	sdStart, .-sdStart
 363              		.section	.text.sdStop,"ax",%progbits
 364              		.align	2
 365              		.global	sdStop
 366              		.syntax unified
 367              		.arm
 368              		.fpu softvfp
 369              		.type	sdStop, %function
 370              	sdStop:
 371              	.LVL34:
 372              	.LFB18:
 373              		.loc 1 174 32 is_stmt 1 view -0
 374              		.cfi_startproc
 375              		@ args = 0, pretend = 0, frame = 0
 376              		@ frame_needed = 0, uses_anonymous_args = 0
 377              		.loc 1 176 3 view .LVU80
 378              		.loc 1 176 36 view .LVU81
 379              		.loc 1 178 3 view .LVU82
 380              		.loc 1 174 32 is_stmt 0 view .LVU83
 381 0000 10402DE9 		push	{r4, lr}
 382              		.cfi_def_cfa_offset 8
 383              		.cfi_offset 4, -8
 384              		.cfi_offset 14, -4
 385              		.loc 1 174 32 view .LVU84
 386 0004 0040A0E1 		mov	r4, r0
 387              		.loc 1 178 3 view .LVU85
 388              		.syntax divided
 389              	@ 178 "../../../os/hal/src/serial.c" 1
 390 0008 9FF021E3 		msr     CPSR_c, #0x9F
 391              	@ 0 "" 2
 392              		.loc 1 178 3 is_stmt 1 view .LVU86
 393              		.loc 1 178 14 view .LVU87
 394              		.loc 1 179 3 view .LVU88
 395              		.loc 1 181 31 view .LVU89
 396              		.loc 1 182 3 view .LVU90
 397              		.arm
 398              		.syntax unified
 399 000c FEFFFFEB 		bl	sd_lld_stop
ARM GAS  /var/folders/l5/0x54b2c10074c8bt31ycjvl80000gp/T//ccp7rYYt.s 			page 8


 400              	.LVL35:
 401              		.loc 1 183 3 view .LVU91
 402              		.loc 1 183 14 is_stmt 0 view .LVU92
 403 0010 0130A0E3 		mov	r3, #1
 404              		.loc 1 184 3 view .LVU93
 405 0014 300084E2 		add	r0, r4, #48
 406              		.loc 1 183 14 view .LVU94
 407 0018 083084E5 		str	r3, [r4, #8]
 408              		.loc 1 184 3 is_stmt 1 view .LVU95
 409 001c FEFFFFEB 		bl	chOQResetI
 410              	.LVL36:
 411              		.loc 1 185 3 view .LVU96
 412 0020 0C0084E2 		add	r0, r4, #12
 413 0024 FEFFFFEB 		bl	chIQResetI
 414              	.LVL37:
 415              		.loc 1 186 3 view .LVU97
 416 0028 FEFFFFEB 		bl	chSchRescheduleS
 417              	.LVL38:
 418              		.loc 1 187 3 view .LVU98
 419              		.loc 1 187 3 view .LVU99
 420              		.syntax divided
 421              	@ 187 "../../../os/hal/src/serial.c" 1
 422 002c 1FF021E3 		msr     CPSR_c, #0x1F
 423              	@ 0 "" 2
 424              		.loc 1 187 16 view .LVU100
 425              		.loc 1 188 1 is_stmt 0 view .LVU101
 426              		.arm
 427              		.syntax unified
 428 0030 1080BDE8 		pop	{r4, pc}
 429              		.cfi_endproc
 430              	.LFE18:
 431              		.size	sdStop, .-sdStop
 432              		.section	.text.sdIncomingDataI,"ax",%progbits
 433              		.align	2
 434              		.global	sdIncomingDataI
 435              		.syntax unified
 436              		.arm
 437              		.fpu softvfp
 438              		.type	sdIncomingDataI, %function
 439              	sdIncomingDataI:
 440              	.LVL39:
 441              	.LFB19:
 442              		.loc 1 206 52 is_stmt 1 view -0
 443              		.cfi_startproc
 444              		@ args = 0, pretend = 0, frame = 0
 445              		@ frame_needed = 0, uses_anonymous_args = 0
 446              		.loc 1 208 3 view .LVU103
 447              		.loc 1 208 21 view .LVU104
 448              		.loc 1 209 3 view .LVU105
 449              		.loc 1 209 45 view .LVU106
 450              		.loc 1 211 3 view .LVU107
 451              		.loc 1 211 6 is_stmt 0 view .LVU108
 452 0000 143090E5 		ldr	r3, [r0, #20]
 453              		.loc 1 206 52 view .LVU109
 454 0004 30402DE9 		push	{r4, r5, lr}
 455              		.cfi_def_cfa_offset 12
 456              		.cfi_offset 4, -12
ARM GAS  /var/folders/l5/0x54b2c10074c8bt31ycjvl80000gp/T//ccp7rYYt.s 			page 9


 457              		.cfi_offset 5, -8
 458              		.cfi_offset 14, -4
 459              		.loc 1 211 6 view .LVU110
 460 0008 000053E3 		cmp	r3, #0
 461              		.loc 1 206 52 view .LVU111
 462 000c 0040A0E1 		mov	r4, r0
 463 0010 7150EFE6 		uxtb	r5, r1
 464              		.loc 1 211 6 view .LVU112
 465 0014 0800000A 		beq	.L23
 466              	.LVL40:
 467              	.L20:
 468              		.loc 1 212 43 is_stmt 1 discriminator 1 view .LVU113
 469              		.loc 1 213 3 discriminator 1 view .LVU114
 470              		.loc 1 213 7 is_stmt 0 discriminator 1 view .LVU115
 471 0018 0510A0E1 		mov	r1, r5
 472 001c 0C0084E2 		add	r0, r4, #12
 473 0020 FEFFFFEB 		bl	chIQPutI
 474              	.LVL41:
 475              		.loc 1 213 6 discriminator 1 view .LVU116
 476 0024 000050E3 		cmp	r0, #0
 477 0028 3080BDA8 		popge	{r4, r5, pc}
 478              		.loc 1 214 5 is_stmt 1 view .LVU117
 479 002c 040084E2 		add	r0, r4, #4
 480 0030 8010A0E3 		mov	r1, #128
 481              		.loc 1 215 1 is_stmt 0 view .LVU118
 482 0034 3040BDE8 		pop	{r4, r5, lr}
 483              		.cfi_remember_state
 484              		.cfi_restore 14
 485              		.cfi_restore 5
 486              		.cfi_restore 4
 487              		.cfi_def_cfa_offset 0
 488              	.LVL42:
 489              		.loc 1 214 5 view .LVU119
 490 0038 FEFFFFEA 		b	chEvtBroadcastFlagsI
 491              	.LVL43:
 492              	.L23:
 493              		.cfi_restore_state
 494              		.loc 1 212 5 is_stmt 1 view .LVU120
 495 003c 0410A0E3 		mov	r1, #4
 496              	.LVL44:
 497              		.loc 1 212 5 is_stmt 0 view .LVU121
 498 0040 010080E0 		add	r0, r0, r1
 499              	.LVL45:
 500              		.loc 1 212 5 view .LVU122
 501 0044 FEFFFFEB 		bl	chEvtBroadcastFlagsI
 502              	.LVL46:
 503 0048 F2FFFFEA 		b	.L20
 504              		.cfi_endproc
 505              	.LFE19:
 506              		.size	sdIncomingDataI, .-sdIncomingDataI
 507              		.section	.text.sdRequestDataI,"ax",%progbits
 508              		.align	2
 509              		.global	sdRequestDataI
 510              		.syntax unified
 511              		.arm
 512              		.fpu softvfp
 513              		.type	sdRequestDataI, %function
ARM GAS  /var/folders/l5/0x54b2c10074c8bt31ycjvl80000gp/T//ccp7rYYt.s 			page 10


 514              	sdRequestDataI:
 515              	.LVL47:
 516              	.LFB20:
 517              		.loc 1 232 41 is_stmt 1 view -0
 518              		.cfi_startproc
 519              		@ args = 0, pretend = 0, frame = 0
 520              		@ frame_needed = 0, uses_anonymous_args = 0
 521              		.loc 1 233 3 view .LVU124
 522              		.loc 1 235 3 view .LVU125
 523              		.loc 1 235 21 view .LVU126
 524              		.loc 1 236 3 view .LVU127
 525              		.loc 1 236 44 view .LVU128
 526              		.loc 1 238 3 view .LVU129
 527              		.loc 1 232 41 is_stmt 0 view .LVU130
 528 0000 30402DE9 		push	{r4, r5, lr}
 529              		.cfi_def_cfa_offset 12
 530              		.cfi_offset 4, -12
 531              		.cfi_offset 5, -8
 532              		.cfi_offset 14, -4
 533              		.loc 1 232 41 view .LVU131
 534 0004 0040A0E1 		mov	r4, r0
 535              		.loc 1 238 7 view .LVU132
 536 0008 300080E2 		add	r0, r0, #48
 537              	.LVL48:
 538              		.loc 1 238 7 view .LVU133
 539 000c FEFFFFEB 		bl	chOQGetI
 540              	.LVL49:
 541              		.loc 1 239 3 is_stmt 1 view .LVU134
 542              		.loc 1 239 6 is_stmt 0 view .LVU135
 543 0010 005050E2 		subs	r5, r0, #0
 544 0014 010000BA 		blt	.L27
 545              		.loc 1 242 1 view .LVU136
 546 0018 0500A0E1 		mov	r0, r5
 547              		.loc 1 242 1 view .LVU137
 548 001c 3080BDE8 		pop	{r4, r5, pc}
 549              	.L27:
 550              		.loc 1 240 5 is_stmt 1 view .LVU138
 551 0020 040084E2 		add	r0, r4, #4
 552 0024 0810A0E3 		mov	r1, #8
 553 0028 FEFFFFEB 		bl	chEvtBroadcastFlagsI
 554              	.LVL50:
 555              		.loc 1 240 40 view .LVU139
 556              		.loc 1 241 3 view .LVU140
 557              		.loc 1 242 1 is_stmt 0 view .LVU141
 558 002c 0500A0E1 		mov	r0, r5
 559 0030 3080BDE8 		pop	{r4, r5, pc}
 560              		.cfi_endproc
 561              	.LFE20:
 562              		.size	sdRequestDataI, .-sdRequestDataI
 563              		.section	.rodata.vmt,"a"
 564              		.align	2
 565              		.set	.LANCHOR0,. + 0
 566              		.type	vmt, %object
 567              		.size	vmt, 32
 568              	vmt:
 569 0000 00000000 		.word	write
 570 0004 00000000 		.word	read
ARM GAS  /var/folders/l5/0x54b2c10074c8bt31ycjvl80000gp/T//ccp7rYYt.s 			page 11


 571 0008 00000000 		.word	put
 572 000c 00000000 		.word	get
 573 0010 00000000 		.word	putt
 574 0014 00000000 		.word	gett
 575 0018 00000000 		.word	writet
 576 001c 00000000 		.word	readt
 577              		.text
 578              	.Letext0:
 579              		.file 2 "/usr/local/Cellar/arm-gcc-bin/8-2019-q3-update/lib/gcc/arm-none-eabi/8.3.1/include/stddef
 580              		.file 3 "/usr/local/Cellar/arm-gcc-bin/8-2019-q3-update/arm-none-eabi/include/machine/_default_typ
 581              		.file 4 "/usr/local/Cellar/arm-gcc-bin/8-2019-q3-update/arm-none-eabi/include/sys/_stdint.h"
 582              		.file 5 "../../../os/ports/GCC/ARM/chtypes.h"
 583              		.file 6 "../../../os/kernel/include/chlists.h"
 584              		.file 7 "../../../os/kernel/include/chthreads.h"
 585              		.file 8 "../../../os/ports/GCC/ARM/chcore.h"
 586              		.file 9 "../../../os/kernel/include/chvt.h"
 587              		.file 10 "../../../os/kernel/include/chschd.h"
 588              		.file 11 "../../../os/kernel/include/chmtx.h"
 589              		.file 12 "../../../os/kernel/include/chevents.h"
 590              		.file 13 "../../../os/kernel/include/chqueues.h"
 591              		.file 14 "../../../os/kernel/include/ch.h"
 592              		.file 15 "../../../os/hal/platforms/BCM2835/bcm2835.h"
 593              		.file 16 "../../../os/hal/platforms/BCM2835/pal_lld.h"
 594              		.file 17 "../../../os/hal/include/i2c.h"
 595              		.file 18 "../../../os/hal/platforms/BCM2835/i2c_lld.h"
 596              		.file 19 "../../../os/hal/include/serial.h"
 597              		.file 20 "../../../os/hal/platforms/BCM2835/serial_lld.h"
 598              		.section	.debug_info,"",%progbits
 599              	.Ldebug_info0:
 600 0000 ED110000 		.4byte	0x11ed
 601 0004 0400     		.2byte	0x4
 602 0006 00000000 		.4byte	.Ldebug_abbrev0
 603 000a 04       		.byte	0x4
 604 000b 01       		.uleb128 0x1
 605 000c 49020000 		.4byte	.LASF176
 606 0010 0C       		.byte	0xc
 607 0011 57060000 		.4byte	.LASF177
 608 0015 29010000 		.4byte	.LASF178
 609 0019 00000000 		.4byte	.Ldebug_ranges0+0
 610 001d 00000000 		.4byte	0
 611 0021 00000000 		.4byte	.Ldebug_line0
 612 0025 02       		.uleb128 0x2
 613 0026 04       		.byte	0x4
 614 0027 05       		.byte	0x5
 615 0028 17010000 		.4byte	.LASF0
 616 002c 03       		.uleb128 0x3
 617 002d 13000000 		.4byte	.LASF3
 618 0031 02       		.byte	0x2
 619 0032 D8       		.byte	0xd8
 620 0033 17       		.byte	0x17
 621 0034 38000000 		.4byte	0x38
 622 0038 02       		.uleb128 0x2
 623 0039 04       		.byte	0x4
 624 003a 07       		.byte	0x7
 625 003b 85030000 		.4byte	.LASF1
 626 003f 02       		.uleb128 0x2
 627 0040 01       		.byte	0x1
ARM GAS  /var/folders/l5/0x54b2c10074c8bt31ycjvl80000gp/T//ccp7rYYt.s 			page 12


 628 0041 06       		.byte	0x6
 629 0042 CF000000 		.4byte	.LASF2
 630 0046 03       		.uleb128 0x3
 631 0047 36000000 		.4byte	.LASF4
 632 004b 03       		.byte	0x3
 633 004c 2B       		.byte	0x2b
 634 004d 18       		.byte	0x18
 635 004e 52000000 		.4byte	0x52
 636 0052 02       		.uleb128 0x2
 637 0053 01       		.byte	0x1
 638 0054 08       		.byte	0x8
 639 0055 42050000 		.4byte	.LASF5
 640 0059 02       		.uleb128 0x2
 641 005a 02       		.byte	0x2
 642 005b 05       		.byte	0x5
 643 005c 7C050000 		.4byte	.LASF6
 644 0060 03       		.uleb128 0x3
 645 0061 ED010000 		.4byte	.LASF7
 646 0065 03       		.byte	0x3
 647 0066 39       		.byte	0x39
 648 0067 19       		.byte	0x19
 649 0068 6C000000 		.4byte	0x6c
 650 006c 02       		.uleb128 0x2
 651 006d 02       		.byte	0x2
 652 006e 07       		.byte	0x7
 653 006f B3030000 		.4byte	.LASF8
 654 0073 03       		.uleb128 0x3
 655 0074 90060000 		.4byte	.LASF9
 656 0078 03       		.byte	0x3
 657 0079 4D       		.byte	0x4d
 658 007a 18       		.byte	0x18
 659 007b 25000000 		.4byte	0x25
 660 007f 03       		.uleb128 0x3
 661 0080 11020000 		.4byte	.LASF10
 662 0084 03       		.byte	0x3
 663 0085 4F       		.byte	0x4f
 664 0086 19       		.byte	0x19
 665 0087 38000000 		.4byte	0x38
 666 008b 02       		.uleb128 0x2
 667 008c 08       		.byte	0x8
 668 008d 05       		.byte	0x5
 669 008e C1000000 		.4byte	.LASF11
 670 0092 02       		.uleb128 0x2
 671 0093 08       		.byte	0x8
 672 0094 07       		.byte	0x7
 673 0095 75000000 		.4byte	.LASF12
 674 0099 03       		.uleb128 0x3
 675 009a 48070000 		.4byte	.LASF13
 676 009e 04       		.byte	0x4
 677 009f 18       		.byte	0x18
 678 00a0 13       		.byte	0x13
 679 00a1 46000000 		.4byte	0x46
 680 00a5 04       		.uleb128 0x4
 681 00a6 99000000 		.4byte	0x99
 682 00aa 03       		.uleb128 0x3
 683 00ab 9D010000 		.4byte	.LASF14
 684 00af 04       		.byte	0x4
ARM GAS  /var/folders/l5/0x54b2c10074c8bt31ycjvl80000gp/T//ccp7rYYt.s 			page 13


 685 00b0 24       		.byte	0x24
 686 00b1 14       		.byte	0x14
 687 00b2 60000000 		.4byte	0x60
 688 00b6 03       		.uleb128 0x3
 689 00b7 3A050000 		.4byte	.LASF15
 690 00bb 04       		.byte	0x4
 691 00bc 2C       		.byte	0x2c
 692 00bd 13       		.byte	0x13
 693 00be 73000000 		.4byte	0x73
 694 00c2 03       		.uleb128 0x3
 695 00c3 FA050000 		.4byte	.LASF16
 696 00c7 04       		.byte	0x4
 697 00c8 30       		.byte	0x30
 698 00c9 14       		.byte	0x14
 699 00ca 7F000000 		.4byte	0x7f
 700 00ce 05       		.uleb128 0x5
 701 00cf C2000000 		.4byte	0xc2
 702 00d3 06       		.uleb128 0x6
 703 00d4 04       		.byte	0x4
 704 00d5 05       		.byte	0x5
 705 00d6 696E7400 		.ascii	"int\000"
 706 00da 02       		.uleb128 0x2
 707 00db 04       		.byte	0x4
 708 00dc 07       		.byte	0x7
 709 00dd 39030000 		.4byte	.LASF17
 710 00e1 05       		.uleb128 0x5
 711 00e2 DA000000 		.4byte	0xda
 712 00e6 03       		.uleb128 0x3
 713 00e7 E3000000 		.4byte	.LASF18
 714 00eb 05       		.byte	0x5
 715 00ec 29       		.byte	0x29
 716 00ed 19       		.byte	0x19
 717 00ee B6000000 		.4byte	0xb6
 718 00f2 03       		.uleb128 0x3
 719 00f3 F4030000 		.4byte	.LASF19
 720 00f7 05       		.byte	0x5
 721 00f8 2A       		.byte	0x2a
 722 00f9 19       		.byte	0x19
 723 00fa 99000000 		.4byte	0x99
 724 00fe 03       		.uleb128 0x3
 725 00ff 20010000 		.4byte	.LASF20
 726 0103 05       		.byte	0x5
 727 0104 2B       		.byte	0x2b
 728 0105 19       		.byte	0x19
 729 0106 99000000 		.4byte	0x99
 730 010a 03       		.uleb128 0x3
 731 010b F2000000 		.4byte	.LASF21
 732 010f 05       		.byte	0x5
 733 0110 2D       		.byte	0x2d
 734 0111 19       		.byte	0x19
 735 0112 99000000 		.4byte	0x99
 736 0116 03       		.uleb128 0x3
 737 0117 19050000 		.4byte	.LASF22
 738 011b 05       		.byte	0x5
 739 011c 2E       		.byte	0x2e
 740 011d 19       		.byte	0x19
 741 011e C2000000 		.4byte	0xc2
ARM GAS  /var/folders/l5/0x54b2c10074c8bt31ycjvl80000gp/T//ccp7rYYt.s 			page 14


 742 0122 03       		.uleb128 0x3
 743 0123 D8030000 		.4byte	.LASF23
 744 0127 05       		.byte	0x5
 745 0128 2F       		.byte	0x2f
 746 0129 19       		.byte	0x19
 747 012a B6000000 		.4byte	0xb6
 748 012e 03       		.uleb128 0x3
 749 012f 08040000 		.4byte	.LASF24
 750 0133 05       		.byte	0x5
 751 0134 31       		.byte	0x31
 752 0135 19       		.byte	0x19
 753 0136 C2000000 		.4byte	0xc2
 754 013a 03       		.uleb128 0x3
 755 013b D8060000 		.4byte	.LASF25
 756 013f 05       		.byte	0x5
 757 0140 32       		.byte	0x32
 758 0141 19       		.byte	0x19
 759 0142 C2000000 		.4byte	0xc2
 760 0146 03       		.uleb128 0x3
 761 0147 7B060000 		.4byte	.LASF26
 762 014b 05       		.byte	0x5
 763 014c 33       		.byte	0x33
 764 014d 19       		.byte	0x19
 765 014e C2000000 		.4byte	0xc2
 766 0152 05       		.uleb128 0x5
 767 0153 46010000 		.4byte	0x146
 768 0157 03       		.uleb128 0x3
 769 0158 D3050000 		.4byte	.LASF27
 770 015c 06       		.byte	0x6
 771 015d 23       		.byte	0x23
 772 015e 17       		.byte	0x17
 773 015f 63010000 		.4byte	0x163
 774 0163 07       		.uleb128 0x7
 775 0164 D3050000 		.4byte	.LASF27
 776 0168 28       		.byte	0x28
 777 0169 07       		.byte	0x7
 778 016a 57       		.byte	0x57
 779 016b 08       		.byte	0x8
 780 016c 0D020000 		.4byte	0x20d
 781 0170 08       		.uleb128 0x8
 782 0171 BC050000 		.4byte	.LASF28
 783 0175 07       		.byte	0x7
 784 0176 58       		.byte	0x58
 785 0177 1A       		.byte	0x1a
 786 0178 31020000 		.4byte	0x231
 787 017c 00       		.byte	0
 788 017d 08       		.uleb128 0x8
 789 017e 12050000 		.4byte	.LASF29
 790 0182 07       		.byte	0x7
 791 0183 5A       		.byte	0x5a
 792 0184 1A       		.byte	0x1a
 793 0185 31020000 		.4byte	0x231
 794 0189 04       		.byte	0x4
 795 018a 08       		.uleb128 0x8
 796 018b A3000000 		.4byte	.LASF30
 797 018f 07       		.byte	0x7
 798 0190 5C       		.byte	0x5c
ARM GAS  /var/folders/l5/0x54b2c10074c8bt31ycjvl80000gp/T//ccp7rYYt.s 			page 15


 799 0191 19       		.byte	0x19
 800 0192 16010000 		.4byte	0x116
 801 0196 08       		.byte	0x8
 802 0197 08       		.uleb128 0x8
 803 0198 CC070000 		.4byte	.LASF31
 804 019c 07       		.byte	0x7
 805 019d 5D       		.byte	0x5d
 806 019e 19       		.byte	0x19
 807 019f FC020000 		.4byte	0x2fc
 808 01a3 0C       		.byte	0xc
 809 01a4 08       		.uleb128 0x8
 810 01a5 86050000 		.4byte	.LASF32
 811 01a9 07       		.byte	0x7
 812 01aa 72       		.byte	0x72
 813 01ab 19       		.byte	0x19
 814 01ac FE000000 		.4byte	0xfe
 815 01b0 10       		.byte	0x10
 816 01b1 08       		.uleb128 0x8
 817 01b2 CB050000 		.4byte	.LASF33
 818 01b6 07       		.byte	0x7
 819 01b7 76       		.byte	0x76
 820 01b8 19       		.byte	0x19
 821 01b9 F2000000 		.4byte	0xf2
 822 01bd 11       		.byte	0x11
 823 01be 08       		.uleb128 0x8
 824 01bf 8E050000 		.4byte	.LASF34
 825 01c3 07       		.byte	0x7
 826 01c4 81       		.byte	0x81
 827 01c5 19       		.byte	0x19
 828 01c6 0A010000 		.4byte	0x10a
 829 01ca 12       		.byte	0x12
 830 01cb 09       		.uleb128 0x9
 831 01cc 705F7500 		.ascii	"p_u\000"
 832 01d0 07       		.byte	0x7
 833 01d1 AD       		.byte	0xad
 834 01d2 19       		.byte	0x19
 835 01d3 09050000 		.4byte	0x509
 836 01d7 14       		.byte	0x14
 837 01d8 08       		.uleb128 0x8
 838 01d9 D2070000 		.4byte	.LASF35
 839 01dd 07       		.byte	0x7
 840 01de B2       		.byte	0xb2
 841 01df 19       		.byte	0x19
 842 01e0 5A020000 		.4byte	0x25a
 843 01e4 18       		.byte	0x18
 844 01e5 08       		.uleb128 0x8
 845 01e6 E5050000 		.4byte	.LASF36
 846 01ea 07       		.byte	0x7
 847 01eb C2       		.byte	0xc2
 848 01ec 19       		.byte	0x19
 849 01ed 2E010000 		.4byte	0x12e
 850 01f1 1C       		.byte	0x1c
 851 01f2 08       		.uleb128 0x8
 852 01f3 72050000 		.4byte	.LASF37
 853 01f7 07       		.byte	0x7
 854 01f8 C9       		.byte	0xc9
 855 01f9 1A       		.byte	0x1a
ARM GAS  /var/folders/l5/0x54b2c10074c8bt31ycjvl80000gp/T//ccp7rYYt.s 			page 16


 856 01fa 43050000 		.4byte	0x543
 857 01fe 20       		.byte	0x20
 858 01ff 08       		.uleb128 0x8
 859 0200 85060000 		.4byte	.LASF38
 860 0204 07       		.byte	0x7
 861 0205 CD       		.byte	0xcd
 862 0206 19       		.byte	0x19
 863 0207 16010000 		.4byte	0x116
 864 020b 24       		.byte	0x24
 865 020c 00       		.byte	0
 866 020d 0A       		.uleb128 0xa
 867 020e 08       		.byte	0x8
 868 020f 06       		.byte	0x6
 869 0210 5A       		.byte	0x5a
 870 0211 09       		.byte	0x9
 871 0212 31020000 		.4byte	0x231
 872 0216 08       		.uleb128 0x8
 873 0217 BC050000 		.4byte	.LASF28
 874 021b 06       		.byte	0x6
 875 021c 5B       		.byte	0x5b
 876 021d 1A       		.byte	0x1a
 877 021e 31020000 		.4byte	0x231
 878 0222 00       		.byte	0
 879 0223 08       		.uleb128 0x8
 880 0224 12050000 		.4byte	.LASF29
 881 0228 06       		.byte	0x6
 882 0229 5D       		.byte	0x5d
 883 022a 1A       		.byte	0x1a
 884 022b 31020000 		.4byte	0x231
 885 022f 04       		.byte	0x4
 886 0230 00       		.byte	0
 887 0231 0B       		.uleb128 0xb
 888 0232 04       		.byte	0x4
 889 0233 57010000 		.4byte	0x157
 890 0237 03       		.uleb128 0x3
 891 0238 B5040000 		.4byte	.LASF39
 892 023c 06       		.byte	0x6
 893 023d 5F       		.byte	0x5f
 894 023e 03       		.byte	0x3
 895 023f 0D020000 		.4byte	0x20d
 896 0243 0A       		.uleb128 0xa
 897 0244 04       		.byte	0x4
 898 0245 06       		.byte	0x6
 899 0246 64       		.byte	0x64
 900 0247 09       		.byte	0x9
 901 0248 5A020000 		.4byte	0x25a
 902 024c 08       		.uleb128 0x8
 903 024d BC050000 		.4byte	.LASF28
 904 0251 06       		.byte	0x6
 905 0252 66       		.byte	0x66
 906 0253 16       		.byte	0x16
 907 0254 31020000 		.4byte	0x231
 908 0258 00       		.byte	0
 909 0259 00       		.byte	0
 910 025a 03       		.uleb128 0x3
 911 025b FC030000 		.4byte	.LASF40
 912 025f 06       		.byte	0x6
ARM GAS  /var/folders/l5/0x54b2c10074c8bt31ycjvl80000gp/T//ccp7rYYt.s 			page 17


 913 0260 69       		.byte	0x69
 914 0261 03       		.byte	0x3
 915 0262 43020000 		.4byte	0x243
 916 0266 03       		.uleb128 0x3
 917 0267 32040000 		.4byte	.LASF41
 918 026b 08       		.byte	0x8
 919 026c 9D       		.byte	0x9d
 920 026d 12       		.byte	0x12
 921 026e C2000000 		.4byte	0xc2
 922 0272 03       		.uleb128 0x3
 923 0273 1C020000 		.4byte	.LASF42
 924 0277 08       		.byte	0x8
 925 0278 A2       		.byte	0xa2
 926 0279 0F       		.byte	0xf
 927 027a 7E020000 		.4byte	0x27e
 928 027e 0C       		.uleb128 0xc
 929 027f 04       		.byte	0x4
 930 0280 07       		.uleb128 0x7
 931 0281 C1060000 		.4byte	.LASF43
 932 0285 24       		.byte	0x24
 933 0286 08       		.byte	0x8
 934 0287 B9       		.byte	0xb9
 935 0288 08       		.byte	0x8
 936 0289 FC020000 		.4byte	0x2fc
 937 028d 09       		.uleb128 0x9
 938 028e 723400   		.ascii	"r4\000"
 939 0291 08       		.byte	0x8
 940 0292 BA       		.byte	0xba
 941 0293 11       		.byte	0x11
 942 0294 72020000 		.4byte	0x272
 943 0298 00       		.byte	0
 944 0299 09       		.uleb128 0x9
 945 029a 723500   		.ascii	"r5\000"
 946 029d 08       		.byte	0x8
 947 029e BB       		.byte	0xbb
 948 029f 11       		.byte	0x11
 949 02a0 72020000 		.4byte	0x272
 950 02a4 04       		.byte	0x4
 951 02a5 09       		.uleb128 0x9
 952 02a6 723600   		.ascii	"r6\000"
 953 02a9 08       		.byte	0x8
 954 02aa BC       		.byte	0xbc
 955 02ab 11       		.byte	0x11
 956 02ac 72020000 		.4byte	0x272
 957 02b0 08       		.byte	0x8
 958 02b1 09       		.uleb128 0x9
 959 02b2 723700   		.ascii	"r7\000"
 960 02b5 08       		.byte	0x8
 961 02b6 BD       		.byte	0xbd
 962 02b7 11       		.byte	0x11
 963 02b8 72020000 		.4byte	0x272
 964 02bc 0C       		.byte	0xc
 965 02bd 09       		.uleb128 0x9
 966 02be 723800   		.ascii	"r8\000"
 967 02c1 08       		.byte	0x8
 968 02c2 BE       		.byte	0xbe
 969 02c3 11       		.byte	0x11
ARM GAS  /var/folders/l5/0x54b2c10074c8bt31ycjvl80000gp/T//ccp7rYYt.s 			page 18


 970 02c4 72020000 		.4byte	0x272
 971 02c8 10       		.byte	0x10
 972 02c9 09       		.uleb128 0x9
 973 02ca 723900   		.ascii	"r9\000"
 974 02cd 08       		.byte	0x8
 975 02ce BF       		.byte	0xbf
 976 02cf 11       		.byte	0x11
 977 02d0 72020000 		.4byte	0x272
 978 02d4 14       		.byte	0x14
 979 02d5 09       		.uleb128 0x9
 980 02d6 72313000 		.ascii	"r10\000"
 981 02da 08       		.byte	0x8
 982 02db C0       		.byte	0xc0
 983 02dc 11       		.byte	0x11
 984 02dd 72020000 		.4byte	0x272
 985 02e1 18       		.byte	0x18
 986 02e2 09       		.uleb128 0x9
 987 02e3 72313100 		.ascii	"r11\000"
 988 02e7 08       		.byte	0x8
 989 02e8 C1       		.byte	0xc1
 990 02e9 11       		.byte	0x11
 991 02ea 72020000 		.4byte	0x272
 992 02ee 1C       		.byte	0x1c
 993 02ef 09       		.uleb128 0x9
 994 02f0 6C7200   		.ascii	"lr\000"
 995 02f3 08       		.byte	0x8
 996 02f4 C2       		.byte	0xc2
 997 02f5 11       		.byte	0x11
 998 02f6 72020000 		.4byte	0x272
 999 02fa 20       		.byte	0x20
 1000 02fb 00       		.byte	0
 1001 02fc 07       		.uleb128 0x7
 1002 02fd B9060000 		.4byte	.LASF44
 1003 0301 04       		.byte	0x4
 1004 0302 08       		.byte	0x8
 1005 0303 CA       		.byte	0xca
 1006 0304 08       		.byte	0x8
 1007 0305 17030000 		.4byte	0x317
 1008 0309 09       		.uleb128 0x9
 1009 030a 72313300 		.ascii	"r13\000"
 1010 030e 08       		.byte	0x8
 1011 030f CB       		.byte	0xcb
 1012 0310 12       		.byte	0x12
 1013 0311 17030000 		.4byte	0x317
 1014 0315 00       		.byte	0
 1015 0316 00       		.byte	0
 1016 0317 0B       		.uleb128 0xb
 1017 0318 04       		.byte	0x4
 1018 0319 80020000 		.4byte	0x280
 1019 031d 03       		.uleb128 0x3
 1020 031e A4030000 		.4byte	.LASF45
 1021 0322 09       		.byte	0x9
 1022 0323 4E       		.byte	0x4e
 1023 0324 10       		.byte	0x10
 1024 0325 29030000 		.4byte	0x329
 1025 0329 0B       		.uleb128 0xb
 1026 032a 04       		.byte	0x4
ARM GAS  /var/folders/l5/0x54b2c10074c8bt31ycjvl80000gp/T//ccp7rYYt.s 			page 19


 1027 032b 2F030000 		.4byte	0x32f
 1028 032f 0D       		.uleb128 0xd
 1029 0330 3A030000 		.4byte	0x33a
 1030 0334 0E       		.uleb128 0xe
 1031 0335 7E020000 		.4byte	0x27e
 1032 0339 00       		.byte	0
 1033 033a 03       		.uleb128 0x3
 1034 033b 0B060000 		.4byte	.LASF46
 1035 033f 09       		.byte	0x9
 1036 0340 53       		.byte	0x53
 1037 0341 1D       		.byte	0x1d
 1038 0342 46030000 		.4byte	0x346
 1039 0346 07       		.uleb128 0x7
 1040 0347 0B060000 		.4byte	.LASF46
 1041 034b 14       		.byte	0x14
 1042 034c 09       		.byte	0x9
 1043 034d 5A       		.byte	0x5a
 1044 034e 08       		.byte	0x8
 1045 034f 95030000 		.4byte	0x395
 1046 0353 08       		.uleb128 0x8
 1047 0354 46030000 		.4byte	.LASF47
 1048 0358 09       		.byte	0x9
 1049 0359 5B       		.byte	0x5b
 1050 035a 1A       		.byte	0x1a
 1051 035b 95030000 		.4byte	0x395
 1052 035f 00       		.byte	0
 1053 0360 08       		.uleb128 0x8
 1054 0361 25020000 		.4byte	.LASF48
 1055 0365 09       		.byte	0x9
 1056 0366 5D       		.byte	0x5d
 1057 0367 1A       		.byte	0x1a
 1058 0368 95030000 		.4byte	0x395
 1059 036c 04       		.byte	0x4
 1060 036d 08       		.uleb128 0x8
 1061 036e 5F040000 		.4byte	.LASF49
 1062 0372 09       		.byte	0x9
 1063 0373 5F       		.byte	0x5f
 1064 0374 19       		.byte	0x19
 1065 0375 46010000 		.4byte	0x146
 1066 0379 08       		.byte	0x8
 1067 037a 08       		.uleb128 0x8
 1068 037b 87040000 		.4byte	.LASF50
 1069 037f 09       		.byte	0x9
 1070 0380 60       		.byte	0x60
 1071 0381 19       		.byte	0x19
 1072 0382 1D030000 		.4byte	0x31d
 1073 0386 0C       		.byte	0xc
 1074 0387 08       		.uleb128 0x8
 1075 0388 D1060000 		.4byte	.LASF51
 1076 038c 09       		.byte	0x9
 1077 038d 62       		.byte	0x62
 1078 038e 1A       		.byte	0x1a
 1079 038f 7E020000 		.4byte	0x27e
 1080 0393 10       		.byte	0x10
 1081 0394 00       		.byte	0
 1082 0395 0B       		.uleb128 0xb
 1083 0396 04       		.byte	0x4
ARM GAS  /var/folders/l5/0x54b2c10074c8bt31ycjvl80000gp/T//ccp7rYYt.s 			page 20


 1084 0397 3A030000 		.4byte	0x33a
 1085 039b 0A       		.uleb128 0xa
 1086 039c 10       		.byte	0x10
 1087 039d 09       		.byte	0x9
 1088 039e 6C       		.byte	0x6c
 1089 039f 09       		.byte	0x9
 1090 03a0 D9030000 		.4byte	0x3d9
 1091 03a4 08       		.uleb128 0x8
 1092 03a5 46030000 		.4byte	.LASF47
 1093 03a9 09       		.byte	0x9
 1094 03aa 6D       		.byte	0x6d
 1095 03ab 1A       		.byte	0x1a
 1096 03ac 95030000 		.4byte	0x395
 1097 03b0 00       		.byte	0
 1098 03b1 08       		.uleb128 0x8
 1099 03b2 25020000 		.4byte	.LASF48
 1100 03b6 09       		.byte	0x9
 1101 03b7 6F       		.byte	0x6f
 1102 03b8 1A       		.byte	0x1a
 1103 03b9 95030000 		.4byte	0x395
 1104 03bd 04       		.byte	0x4
 1105 03be 08       		.uleb128 0x8
 1106 03bf 5F040000 		.4byte	.LASF49
 1107 03c3 09       		.byte	0x9
 1108 03c4 71       		.byte	0x71
 1109 03c5 19       		.byte	0x19
 1110 03c6 46010000 		.4byte	0x146
 1111 03ca 08       		.byte	0x8
 1112 03cb 08       		.uleb128 0x8
 1113 03cc 82070000 		.4byte	.LASF52
 1114 03d0 09       		.byte	0x9
 1115 03d1 72       		.byte	0x72
 1116 03d2 19       		.byte	0x19
 1117 03d3 52010000 		.4byte	0x152
 1118 03d7 0C       		.byte	0xc
 1119 03d8 00       		.byte	0
 1120 03d9 03       		.uleb128 0x3
 1121 03da 98040000 		.4byte	.LASF53
 1122 03de 09       		.byte	0x9
 1123 03df 73       		.byte	0x73
 1124 03e0 03       		.byte	0x3
 1125 03e1 9B030000 		.4byte	0x39b
 1126 03e5 0F       		.uleb128 0xf
 1127 03e6 50000000 		.4byte	.LASF59
 1128 03ea 09       		.byte	0x9
 1129 03eb D1       		.byte	0xd1
 1130 03ec 0F       		.byte	0xf
 1131 03ed D9030000 		.4byte	0x3d9
 1132 03f1 0A       		.uleb128 0xa
 1133 03f2 14       		.byte	0x14
 1134 03f3 0A       		.byte	0xa
 1135 03f4 57       		.byte	0x57
 1136 03f5 09       		.byte	0x9
 1137 03f6 2F040000 		.4byte	0x42f
 1138 03fa 08       		.uleb128 0x8
 1139 03fb 03060000 		.4byte	.LASF54
 1140 03ff 0A       		.byte	0xa
ARM GAS  /var/folders/l5/0x54b2c10074c8bt31ycjvl80000gp/T//ccp7rYYt.s 			page 21


 1141 0400 58       		.byte	0x58
 1142 0401 19       		.byte	0x19
 1143 0402 37020000 		.4byte	0x237
 1144 0406 00       		.byte	0
 1145 0407 08       		.uleb128 0x8
 1146 0408 A5050000 		.4byte	.LASF55
 1147 040c 0A       		.byte	0xa
 1148 040d 59       		.byte	0x59
 1149 040e 19       		.byte	0x19
 1150 040f 16010000 		.4byte	0x116
 1151 0413 08       		.byte	0x8
 1152 0414 08       		.uleb128 0x8
 1153 0415 AF040000 		.4byte	.LASF56
 1154 0419 0A       		.byte	0xa
 1155 041a 5B       		.byte	0x5b
 1156 041b 19       		.byte	0x19
 1157 041c FC020000 		.4byte	0x2fc
 1158 0420 0C       		.byte	0xc
 1159 0421 08       		.uleb128 0x8
 1160 0422 D6040000 		.4byte	.LASF57
 1161 0426 0A       		.byte	0xa
 1162 0427 62       		.byte	0x62
 1163 0428 1A       		.byte	0x1a
 1164 0429 31020000 		.4byte	0x231
 1165 042d 10       		.byte	0x10
 1166 042e 00       		.byte	0
 1167 042f 03       		.uleb128 0x3
 1168 0430 20070000 		.4byte	.LASF58
 1169 0434 0A       		.byte	0xa
 1170 0435 64       		.byte	0x64
 1171 0436 03       		.byte	0x3
 1172 0437 F1030000 		.4byte	0x3f1
 1173 043b 0F       		.uleb128 0xf
 1174 043c 33070000 		.4byte	.LASF60
 1175 0440 0A       		.byte	0xa
 1176 0441 68       		.byte	0x68
 1177 0442 12       		.byte	0x12
 1178 0443 2F040000 		.4byte	0x42f
 1179 0447 07       		.uleb128 0x7
 1180 0448 1F040000 		.4byte	.LASF61
 1181 044c 10       		.byte	0x10
 1182 044d 0B       		.byte	0xb
 1183 044e 25       		.byte	0x25
 1184 044f 10       		.byte	0x10
 1185 0450 7C040000 		.4byte	0x47c
 1186 0454 08       		.uleb128 0x8
 1187 0455 EA000000 		.4byte	.LASF62
 1188 0459 0B       		.byte	0xb
 1189 045a 26       		.byte	0x26
 1190 045b 19       		.byte	0x19
 1191 045c 37020000 		.4byte	0x237
 1192 0460 00       		.byte	0
 1193 0461 08       		.uleb128 0x8
 1194 0462 B1070000 		.4byte	.LASF63
 1195 0466 0B       		.byte	0xb
 1196 0467 28       		.byte	0x28
 1197 0468 1A       		.byte	0x1a
ARM GAS  /var/folders/l5/0x54b2c10074c8bt31ycjvl80000gp/T//ccp7rYYt.s 			page 22


 1198 0469 31020000 		.4byte	0x231
 1199 046d 08       		.byte	0x8
 1200 046e 08       		.uleb128 0x8
 1201 046f 74060000 		.4byte	.LASF64
 1202 0473 0B       		.byte	0xb
 1203 0474 2A       		.byte	0x2a
 1204 0475 1A       		.byte	0x1a
 1205 0476 7C040000 		.4byte	0x47c
 1206 047a 0C       		.byte	0xc
 1207 047b 00       		.byte	0
 1208 047c 0B       		.uleb128 0xb
 1209 047d 04       		.byte	0x4
 1210 047e 47040000 		.4byte	0x447
 1211 0482 03       		.uleb128 0x3
 1212 0483 1F040000 		.4byte	.LASF61
 1213 0487 0B       		.byte	0xb
 1214 0488 2C       		.byte	0x2c
 1215 0489 03       		.byte	0x3
 1216 048a 47040000 		.4byte	0x447
 1217 048e 03       		.uleb128 0x3
 1218 048f 6D070000 		.4byte	.LASF65
 1219 0493 0C       		.byte	0xc
 1220 0494 25       		.byte	0x25
 1221 0495 1E       		.byte	0x1e
 1222 0496 9A040000 		.4byte	0x49a
 1223 049a 07       		.uleb128 0x7
 1224 049b 6D070000 		.4byte	.LASF65
 1225 049f 10       		.byte	0x10
 1226 04a0 0C       		.byte	0xc
 1227 04a1 2A       		.byte	0x2a
 1228 04a2 08       		.byte	0x8
 1229 04a3 DC040000 		.4byte	0x4dc
 1230 04a7 08       		.uleb128 0x8
 1231 04a8 E5030000 		.4byte	.LASF66
 1232 04ac 0C       		.byte	0xc
 1233 04ad 2B       		.byte	0x2b
 1234 04ae 1A       		.byte	0x1a
 1235 04af DC040000 		.4byte	0x4dc
 1236 04b3 00       		.byte	0
 1237 04b4 08       		.uleb128 0x8
 1238 04b5 5D050000 		.4byte	.LASF67
 1239 04b9 0C       		.byte	0xc
 1240 04ba 2E       		.byte	0x2e
 1241 04bb 1A       		.byte	0x1a
 1242 04bc 31020000 		.4byte	0x231
 1243 04c0 04       		.byte	0x4
 1244 04c1 08       		.uleb128 0x8
 1245 04c2 E0040000 		.4byte	.LASF68
 1246 04c6 0C       		.byte	0xc
 1247 04c7 30       		.byte	0x30
 1248 04c8 19       		.byte	0x19
 1249 04c9 2E010000 		.4byte	0x12e
 1250 04cd 08       		.byte	0x8
 1251 04ce 08       		.uleb128 0x8
 1252 04cf 69050000 		.4byte	.LASF69
 1253 04d3 0C       		.byte	0xc
 1254 04d4 33       		.byte	0x33
ARM GAS  /var/folders/l5/0x54b2c10074c8bt31ycjvl80000gp/T//ccp7rYYt.s 			page 23


 1255 04d5 19       		.byte	0x19
 1256 04d6 3A010000 		.4byte	0x13a
 1257 04da 0C       		.byte	0xc
 1258 04db 00       		.byte	0
 1259 04dc 0B       		.uleb128 0xb
 1260 04dd 04       		.byte	0x4
 1261 04de 8E040000 		.4byte	0x48e
 1262 04e2 07       		.uleb128 0x7
 1263 04e3 2D030000 		.4byte	.LASF70
 1264 04e7 04       		.byte	0x4
 1265 04e8 0C       		.byte	0xc
 1266 04e9 3A       		.byte	0x3a
 1267 04ea 10       		.byte	0x10
 1268 04eb FD040000 		.4byte	0x4fd
 1269 04ef 08       		.uleb128 0x8
 1270 04f0 11070000 		.4byte	.LASF71
 1271 04f4 0C       		.byte	0xc
 1272 04f5 3B       		.byte	0x3b
 1273 04f6 1A       		.byte	0x1a
 1274 04f7 DC040000 		.4byte	0x4dc
 1275 04fb 00       		.byte	0
 1276 04fc 00       		.byte	0
 1277 04fd 03       		.uleb128 0x3
 1278 04fe 2D030000 		.4byte	.LASF70
 1279 0502 0C       		.byte	0xc
 1280 0503 3E       		.byte	0x3e
 1281 0504 03       		.byte	0x3
 1282 0505 E2040000 		.4byte	0x4e2
 1283 0509 10       		.uleb128 0x10
 1284 050a 04       		.byte	0x4
 1285 050b 07       		.byte	0x7
 1286 050c 8F       		.byte	0x8f
 1287 050d 03       		.byte	0x3
 1288 050e 43050000 		.4byte	0x543
 1289 0512 11       		.uleb128 0x11
 1290 0513 1A000000 		.4byte	.LASF72
 1291 0517 07       		.byte	0x7
 1292 0518 96       		.byte	0x96
 1293 0519 19       		.byte	0x19
 1294 051a 22010000 		.4byte	0x122
 1295 051e 11       		.uleb128 0x11
 1296 051f 91000000 		.4byte	.LASF73
 1297 0523 07       		.byte	0x7
 1298 0524 9D       		.byte	0x9d
 1299 0525 19       		.byte	0x19
 1300 0526 22010000 		.4byte	0x122
 1301 052a 11       		.uleb128 0x11
 1302 052b 7B070000 		.4byte	.LASF74
 1303 052f 07       		.byte	0x7
 1304 0530 A4       		.byte	0xa4
 1305 0531 1A       		.byte	0x1a
 1306 0532 7E020000 		.4byte	0x27e
 1307 0536 11       		.uleb128 0x11
 1308 0537 B5050000 		.4byte	.LASF75
 1309 053b 07       		.byte	0x7
 1310 053c AB       		.byte	0xab
 1311 053d 19       		.byte	0x19
ARM GAS  /var/folders/l5/0x54b2c10074c8bt31ycjvl80000gp/T//ccp7rYYt.s 			page 24


 1312 053e 2E010000 		.4byte	0x12e
 1313 0542 00       		.byte	0
 1314 0543 0B       		.uleb128 0xb
 1315 0544 04       		.byte	0x4
 1316 0545 82040000 		.4byte	0x482
 1317 0549 0B       		.uleb128 0xb
 1318 054a 04       		.byte	0x4
 1319 054b 4F050000 		.4byte	0x54f
 1320 054f 12       		.uleb128 0x12
 1321 0550 22010000 		.4byte	0x122
 1322 0554 5E050000 		.4byte	0x55e
 1323 0558 0E       		.uleb128 0xe
 1324 0559 7E020000 		.4byte	0x27e
 1325 055d 00       		.byte	0
 1326 055e 03       		.uleb128 0x3
 1327 055f 25040000 		.4byte	.LASF76
 1328 0563 0D       		.byte	0xd
 1329 0564 30       		.byte	0x30
 1330 0565 1D       		.byte	0x1d
 1331 0566 6A050000 		.4byte	0x56a
 1332 056a 07       		.uleb128 0x7
 1333 056b 25040000 		.4byte	.LASF76
 1334 056f 24       		.byte	0x24
 1335 0570 0D       		.byte	0xd
 1336 0571 3E       		.byte	0x3e
 1337 0572 08       		.byte	0x8
 1338 0573 E0050000 		.4byte	0x5e0
 1339 0577 08       		.uleb128 0x8
 1340 0578 B7000000 		.4byte	.LASF77
 1341 057c 0D       		.byte	0xd
 1342 057d 3F       		.byte	0x3f
 1343 057e 19       		.byte	0x19
 1344 057f 37020000 		.4byte	0x237
 1345 0583 00       		.byte	0
 1346 0584 08       		.uleb128 0x8
 1347 0585 7D040000 		.4byte	.LASF78
 1348 0589 0D       		.byte	0xd
 1349 058a 40       		.byte	0x40
 1350 058b 19       		.byte	0x19
 1351 058c 2C000000 		.4byte	0x2c
 1352 0590 08       		.byte	0x8
 1353 0591 08       		.uleb128 0x8
 1354 0592 94010000 		.4byte	.LASF79
 1355 0596 0D       		.byte	0xd
 1356 0597 41       		.byte	0x41
 1357 0598 1A       		.byte	0x1a
 1358 0599 03060000 		.4byte	0x603
 1359 059d 0C       		.byte	0xc
 1360 059e 08       		.uleb128 0x8
 1361 059f 0B070000 		.4byte	.LASF80
 1362 05a3 0D       		.byte	0xd
 1363 05a4 42       		.byte	0x42
 1364 05a5 1A       		.byte	0x1a
 1365 05a6 03060000 		.4byte	0x603
 1366 05aa 10       		.byte	0x10
 1367 05ab 08       		.uleb128 0x8
 1368 05ac A7040000 		.4byte	.LASF81
ARM GAS  /var/folders/l5/0x54b2c10074c8bt31ycjvl80000gp/T//ccp7rYYt.s 			page 25


 1369 05b0 0D       		.byte	0xd
 1370 05b1 44       		.byte	0x44
 1371 05b2 1A       		.byte	0x1a
 1372 05b3 03060000 		.4byte	0x603
 1373 05b7 14       		.byte	0x14
 1374 05b8 08       		.uleb128 0x8
 1375 05b9 21050000 		.4byte	.LASF82
 1376 05bd 0D       		.byte	0xd
 1377 05be 45       		.byte	0x45
 1378 05bf 1A       		.byte	0x1a
 1379 05c0 03060000 		.4byte	0x603
 1380 05c4 18       		.byte	0x18
 1381 05c5 08       		.uleb128 0x8
 1382 05c6 2A070000 		.4byte	.LASF83
 1383 05ca 0D       		.byte	0xd
 1384 05cb 46       		.byte	0x46
 1385 05cc 19       		.byte	0x19
 1386 05cd E0050000 		.4byte	0x5e0
 1387 05d1 1C       		.byte	0x1c
 1388 05d2 08       		.uleb128 0x8
 1389 05d3 A0070000 		.4byte	.LASF84
 1390 05d7 0D       		.byte	0xd
 1391 05d8 47       		.byte	0x47
 1392 05d9 1A       		.byte	0x1a
 1393 05da 7E020000 		.4byte	0x27e
 1394 05de 20       		.byte	0x20
 1395 05df 00       		.byte	0
 1396 05e0 03       		.uleb128 0x3
 1397 05e1 08050000 		.4byte	.LASF85
 1398 05e5 0D       		.byte	0xd
 1399 05e6 33       		.byte	0x33
 1400 05e7 10       		.byte	0x10
 1401 05e8 EC050000 		.4byte	0x5ec
 1402 05ec 0B       		.uleb128 0xb
 1403 05ed 04       		.byte	0x4
 1404 05ee F2050000 		.4byte	0x5f2
 1405 05f2 0D       		.uleb128 0xd
 1406 05f3 FD050000 		.4byte	0x5fd
 1407 05f7 0E       		.uleb128 0xe
 1408 05f8 FD050000 		.4byte	0x5fd
 1409 05fc 00       		.byte	0
 1410 05fd 0B       		.uleb128 0xb
 1411 05fe 04       		.byte	0x4
 1412 05ff 5E050000 		.4byte	0x55e
 1413 0603 0B       		.uleb128 0xb
 1414 0604 04       		.byte	0x4
 1415 0605 99000000 		.4byte	0x99
 1416 0609 03       		.uleb128 0x3
 1417 060a 14040000 		.4byte	.LASF86
 1418 060e 0D       		.byte	0xd
 1419 060f 7B       		.byte	0x7b
 1420 0610 16       		.byte	0x16
 1421 0611 5E050000 		.4byte	0x55e
 1422 0615 03       		.uleb128 0x3
 1423 0616 2A000000 		.4byte	.LASF87
 1424 061a 0D       		.byte	0xd
 1425 061b EE       		.byte	0xee
ARM GAS  /var/folders/l5/0x54b2c10074c8bt31ycjvl80000gp/T//ccp7rYYt.s 			page 26


 1426 061c 16       		.byte	0x16
 1427 061d 5E050000 		.4byte	0x55e
 1428 0621 12       		.uleb128 0x12
 1429 0622 2C000000 		.4byte	0x2c
 1430 0626 3A060000 		.4byte	0x63a
 1431 062a 0E       		.uleb128 0xe
 1432 062b 7E020000 		.4byte	0x27e
 1433 062f 0E       		.uleb128 0xe
 1434 0630 3A060000 		.4byte	0x63a
 1435 0634 0E       		.uleb128 0xe
 1436 0635 2C000000 		.4byte	0x2c
 1437 0639 00       		.byte	0
 1438 063a 0B       		.uleb128 0xb
 1439 063b 04       		.byte	0x4
 1440 063c A5000000 		.4byte	0xa5
 1441 0640 0B       		.uleb128 0xb
 1442 0641 04       		.byte	0x4
 1443 0642 21060000 		.4byte	0x621
 1444 0646 12       		.uleb128 0x12
 1445 0647 2C000000 		.4byte	0x2c
 1446 064b 5F060000 		.4byte	0x65f
 1447 064f 0E       		.uleb128 0xe
 1448 0650 7E020000 		.4byte	0x27e
 1449 0654 0E       		.uleb128 0xe
 1450 0655 03060000 		.4byte	0x603
 1451 0659 0E       		.uleb128 0xe
 1452 065a 2C000000 		.4byte	0x2c
 1453 065e 00       		.byte	0
 1454 065f 0B       		.uleb128 0xb
 1455 0660 04       		.byte	0x4
 1456 0661 46060000 		.4byte	0x646
 1457 0665 12       		.uleb128 0x12
 1458 0666 22010000 		.4byte	0x122
 1459 066a 79060000 		.4byte	0x679
 1460 066e 0E       		.uleb128 0xe
 1461 066f 7E020000 		.4byte	0x27e
 1462 0673 0E       		.uleb128 0xe
 1463 0674 99000000 		.4byte	0x99
 1464 0678 00       		.byte	0
 1465 0679 0B       		.uleb128 0xb
 1466 067a 04       		.byte	0x4
 1467 067b 65060000 		.4byte	0x665
 1468 067f 13       		.uleb128 0x13
 1469 0680 66020000 		.4byte	0x266
 1470 0684 8F060000 		.4byte	0x68f
 1471 0688 14       		.uleb128 0x14
 1472 0689 38000000 		.4byte	0x38
 1473 068d 1F       		.byte	0x1f
 1474 068e 00       		.byte	0
 1475 068f 0F       		.uleb128 0xf
 1476 0690 D4010000 		.4byte	.LASF88
 1477 0694 0E       		.byte	0xe
 1478 0695 82       		.byte	0x82
 1479 0696 08       		.byte	0x8
 1480 0697 7F060000 		.4byte	0x67f
 1481 069b 07       		.uleb128 0x7
 1482 069c 57000000 		.4byte	.LASF89
ARM GAS  /var/folders/l5/0x54b2c10074c8bt31ycjvl80000gp/T//ccp7rYYt.s 			page 27


 1483 06a0 20       		.byte	0x20
 1484 06a1 0F       		.byte	0xf
 1485 06a2 FD       		.byte	0xfd
 1486 06a3 08       		.byte	0x8
 1487 06a4 17070000 		.4byte	0x717
 1488 06a8 08       		.uleb128 0x8
 1489 06a9 09020000 		.4byte	.LASF90
 1490 06ad 0F       		.byte	0xf
 1491 06ae FE       		.byte	0xfe
 1492 06af 19       		.byte	0x19
 1493 06b0 E1000000 		.4byte	0xe1
 1494 06b4 00       		.byte	0
 1495 06b5 08       		.uleb128 0x8
 1496 06b6 19070000 		.4byte	.LASF91
 1497 06ba 0F       		.byte	0xf
 1498 06bb FF       		.byte	0xff
 1499 06bc 19       		.byte	0x19
 1500 06bd E1000000 		.4byte	0xe1
 1501 06c1 04       		.byte	0x4
 1502 06c2 15       		.uleb128 0x15
 1503 06c3 C9010000 		.4byte	.LASF92
 1504 06c7 0F       		.byte	0xf
 1505 06c8 0001     		.2byte	0x100
 1506 06ca 19       		.byte	0x19
 1507 06cb E1000000 		.4byte	0xe1
 1508 06cf 08       		.byte	0x8
 1509 06d0 15       		.uleb128 0x15
 1510 06d1 3C020000 		.4byte	.LASF93
 1511 06d5 0F       		.byte	0xf
 1512 06d6 0101     		.2byte	0x101
 1513 06d8 19       		.byte	0x19
 1514 06d9 E1000000 		.4byte	0xe1
 1515 06dd 0C       		.byte	0xc
 1516 06de 15       		.uleb128 0x15
 1517 06df 9A000000 		.4byte	.LASF94
 1518 06e3 0F       		.byte	0xf
 1519 06e4 0201     		.2byte	0x102
 1520 06e6 19       		.byte	0x19
 1521 06e7 E1000000 		.4byte	0xe1
 1522 06eb 10       		.byte	0x10
 1523 06ec 15       		.uleb128 0x15
 1524 06ed 70040000 		.4byte	.LASF95
 1525 06f1 0F       		.byte	0xf
 1526 06f2 0301     		.2byte	0x103
 1527 06f4 19       		.byte	0x19
 1528 06f5 E1000000 		.4byte	0xe1
 1529 06f9 14       		.byte	0x14
 1530 06fa 15       		.uleb128 0x15
 1531 06fb 8A010000 		.4byte	.LASF96
 1532 06ff 0F       		.byte	0xf
 1533 0700 0401     		.2byte	0x104
 1534 0702 19       		.byte	0x19
 1535 0703 E1000000 		.4byte	0xe1
 1536 0707 18       		.byte	0x18
 1537 0708 15       		.uleb128 0x15
 1538 0709 E4070000 		.4byte	.LASF97
 1539 070d 0F       		.byte	0xf
ARM GAS  /var/folders/l5/0x54b2c10074c8bt31ycjvl80000gp/T//ccp7rYYt.s 			page 28


 1540 070e 0501     		.2byte	0x105
 1541 0710 19       		.byte	0x19
 1542 0711 E1000000 		.4byte	0xe1
 1543 0715 1C       		.byte	0x1c
 1544 0716 00       		.byte	0
 1545 0717 16       		.uleb128 0x16
 1546 0718 57000000 		.4byte	.LASF89
 1547 071c 0F       		.byte	0xf
 1548 071d 0801     		.2byte	0x108
 1549 071f 1C       		.byte	0x1c
 1550 0720 9B060000 		.4byte	0x69b
 1551 0724 12       		.uleb128 0x12
 1552 0725 22010000 		.4byte	0x122
 1553 0729 3D070000 		.4byte	0x73d
 1554 072d 0E       		.uleb128 0xe
 1555 072e 7E020000 		.4byte	0x27e
 1556 0732 0E       		.uleb128 0xe
 1557 0733 99000000 		.4byte	0x99
 1558 0737 0E       		.uleb128 0xe
 1559 0738 46010000 		.4byte	0x146
 1560 073c 00       		.byte	0
 1561 073d 0B       		.uleb128 0xb
 1562 073e 04       		.byte	0x4
 1563 073f 24070000 		.4byte	0x724
 1564 0743 12       		.uleb128 0x12
 1565 0744 22010000 		.4byte	0x122
 1566 0748 57070000 		.4byte	0x757
 1567 074c 0E       		.uleb128 0xe
 1568 074d 7E020000 		.4byte	0x27e
 1569 0751 0E       		.uleb128 0xe
 1570 0752 46010000 		.4byte	0x146
 1571 0756 00       		.byte	0
 1572 0757 0B       		.uleb128 0xb
 1573 0758 04       		.byte	0x4
 1574 0759 43070000 		.4byte	0x743
 1575 075d 12       		.uleb128 0x12
 1576 075e 2C000000 		.4byte	0x2c
 1577 0762 7B070000 		.4byte	0x77b
 1578 0766 0E       		.uleb128 0xe
 1579 0767 7E020000 		.4byte	0x27e
 1580 076b 0E       		.uleb128 0xe
 1581 076c 3A060000 		.4byte	0x63a
 1582 0770 0E       		.uleb128 0xe
 1583 0771 2C000000 		.4byte	0x2c
 1584 0775 0E       		.uleb128 0xe
 1585 0776 46010000 		.4byte	0x146
 1586 077a 00       		.byte	0
 1587 077b 0B       		.uleb128 0xb
 1588 077c 04       		.byte	0x4
 1589 077d 5D070000 		.4byte	0x75d
 1590 0781 12       		.uleb128 0x12
 1591 0782 2C000000 		.4byte	0x2c
 1592 0786 9F070000 		.4byte	0x79f
 1593 078a 0E       		.uleb128 0xe
 1594 078b 7E020000 		.4byte	0x27e
 1595 078f 0E       		.uleb128 0xe
 1596 0790 03060000 		.4byte	0x603
ARM GAS  /var/folders/l5/0x54b2c10074c8bt31ycjvl80000gp/T//ccp7rYYt.s 			page 29


 1597 0794 0E       		.uleb128 0xe
 1598 0795 2C000000 		.4byte	0x2c
 1599 0799 0E       		.uleb128 0xe
 1600 079a 46010000 		.4byte	0x146
 1601 079e 00       		.byte	0
 1602 079f 0B       		.uleb128 0xb
 1603 07a0 04       		.byte	0x4
 1604 07a1 81070000 		.4byte	0x781
 1605 07a5 0A       		.uleb128 0xa
 1606 07a6 18       		.byte	0x18
 1607 07a7 10       		.byte	0x10
 1608 07a8 2A       		.byte	0x2a
 1609 07a9 09       		.byte	0x9
 1610 07aa FD070000 		.4byte	0x7fd
 1611 07ae 08       		.uleb128 0x8
 1612 07af 50070000 		.4byte	.LASF98
 1613 07b3 10       		.byte	0x10
 1614 07b4 2F       		.byte	0x2f
 1615 07b5 15       		.byte	0x15
 1616 07b6 C2000000 		.4byte	0xc2
 1617 07ba 00       		.byte	0
 1618 07bb 08       		.uleb128 0x8
 1619 07bc E8040000 		.4byte	.LASF99
 1620 07c0 10       		.byte	0x10
 1621 07c1 31       		.byte	0x31
 1622 07c2 16       		.byte	0x16
 1623 07c3 FD070000 		.4byte	0x7fd
 1624 07c7 04       		.byte	0x4
 1625 07c8 08       		.uleb128 0x8
 1626 07c9 D2030000 		.4byte	.LASF100
 1627 07cd 10       		.byte	0x10
 1628 07ce 32       		.byte	0x32
 1629 07cf 16       		.byte	0x16
 1630 07d0 FD070000 		.4byte	0x7fd
 1631 07d4 08       		.byte	0x8
 1632 07d5 08       		.uleb128 0x8
 1633 07d6 54040000 		.4byte	.LASF101
 1634 07da 10       		.byte	0x10
 1635 07db 33       		.byte	0x33
 1636 07dc 16       		.byte	0x16
 1637 07dd FD070000 		.4byte	0x7fd
 1638 07e1 0C       		.byte	0xc
 1639 07e2 08       		.uleb128 0x8
 1640 07e3 EE040000 		.4byte	.LASF102
 1641 07e7 10       		.byte	0x10
 1642 07e8 34       		.byte	0x34
 1643 07e9 16       		.byte	0x16
 1644 07ea FD070000 		.4byte	0x7fd
 1645 07ee 10       		.byte	0x10
 1646 07ef 08       		.uleb128 0x8
 1647 07f0 AC050000 		.4byte	.LASF103
 1648 07f4 10       		.byte	0x10
 1649 07f5 35       		.byte	0x35
 1650 07f6 10       		.byte	0x10
 1651 07f7 DA000000 		.4byte	0xda
 1652 07fb 14       		.byte	0x14
 1653 07fc 00       		.byte	0
ARM GAS  /var/folders/l5/0x54b2c10074c8bt31ycjvl80000gp/T//ccp7rYYt.s 			page 30


 1654 07fd 0B       		.uleb128 0xb
 1655 07fe 04       		.byte	0x4
 1656 07ff CE000000 		.4byte	0xce
 1657 0803 03       		.uleb128 0x3
 1658 0804 C6030000 		.4byte	.LASF104
 1659 0808 10       		.byte	0x10
 1660 0809 37       		.byte	0x37
 1661 080a 03       		.byte	0x3
 1662 080b A5070000 		.4byte	0x7a5
 1663 080f 17       		.uleb128 0x17
 1664 0810 00       		.byte	0
 1665 0811 10       		.byte	0x10
 1666 0812 43       		.byte	0x43
 1667 0813 09       		.byte	0x9
 1668 0814 03       		.uleb128 0x3
 1669 0815 A7070000 		.4byte	.LASF105
 1670 0819 10       		.byte	0x10
 1671 081a 45       		.byte	0x45
 1672 081b 03       		.byte	0x3
 1673 081c 0F080000 		.4byte	0x80f
 1674 0820 04       		.uleb128 0x4
 1675 0821 14080000 		.4byte	0x814
 1676 0825 0F       		.uleb128 0xf
 1677 0826 C2040000 		.4byte	.LASF106
 1678 082a 10       		.byte	0x10
 1679 082b 6D       		.byte	0x6d
 1680 082c 14       		.byte	0x14
 1681 082d 03080000 		.4byte	0x803
 1682 0831 0F       		.uleb128 0xf
 1683 0832 C3050000 		.4byte	.LASF107
 1684 0836 10       		.byte	0x10
 1685 0837 6E       		.byte	0x6e
 1686 0838 14       		.byte	0x14
 1687 0839 03080000 		.4byte	0x803
 1688 083d 0F       		.uleb128 0xf
 1689 083e B9070000 		.4byte	.LASF108
 1690 0842 10       		.byte	0x10
 1691 0843 75       		.byte	0x75
 1692 0844 18       		.byte	0x18
 1693 0845 20080000 		.4byte	0x820
 1694 0849 18       		.uleb128 0x18
 1695 084a 07       		.byte	0x7
 1696 084b 04       		.byte	0x4
 1697 084c DA000000 		.4byte	0xda
 1698 0850 11       		.byte	0x11
 1699 0851 54       		.byte	0x54
 1700 0852 0E       		.byte	0xe
 1701 0853 7C080000 		.4byte	0x87c
 1702 0857 19       		.uleb128 0x19
 1703 0858 FC000000 		.4byte	.LASF109
 1704 085c 00       		.byte	0
 1705 085d 19       		.uleb128 0x19
 1706 085e 67040000 		.4byte	.LASF110
 1707 0862 01       		.byte	0x1
 1708 0863 19       		.uleb128 0x19
 1709 0864 9A060000 		.4byte	.LASF111
 1710 0868 02       		.byte	0x2
ARM GAS  /var/folders/l5/0x54b2c10074c8bt31ycjvl80000gp/T//ccp7rYYt.s 			page 31


 1711 0869 19       		.uleb128 0x19
 1712 086a BB010000 		.4byte	.LASF112
 1713 086e 03       		.byte	0x3
 1714 086f 19       		.uleb128 0x19
 1715 0870 25060000 		.4byte	.LASF113
 1716 0874 04       		.byte	0x4
 1717 0875 19       		.uleb128 0x19
 1718 0876 DA050000 		.4byte	.LASF114
 1719 087a 05       		.byte	0x5
 1720 087b 00       		.byte	0
 1721 087c 03       		.uleb128 0x3
 1722 087d FD040000 		.4byte	.LASF115
 1723 0881 11       		.byte	0x11
 1724 0882 5B       		.byte	0x5b
 1725 0883 03       		.byte	0x3
 1726 0884 49080000 		.4byte	0x849
 1727 0888 03       		.uleb128 0x3
 1728 0889 A4060000 		.4byte	.LASF116
 1729 088d 12       		.byte	0x12
 1730 088e 38       		.byte	0x38
 1731 088f 1A       		.byte	0x1a
 1732 0890 94080000 		.4byte	0x894
 1733 0894 07       		.uleb128 0x7
 1734 0895 A4060000 		.4byte	.LASF116
 1735 0899 40       		.byte	0x40
 1736 089a 12       		.byte	0x12
 1737 089b 62       		.byte	0x62
 1738 089c 08       		.byte	0x8
 1739 089d 4B090000 		.4byte	0x94b
 1740 08a1 08       		.uleb128 0x8
 1741 08a2 11010000 		.4byte	.LASF117
 1742 08a6 12       		.byte	0x12
 1743 08a7 64       		.byte	0x64
 1744 08a8 1D       		.byte	0x1d
 1745 08a9 7C080000 		.4byte	0x87c
 1746 08ad 00       		.byte	0
 1747 08ae 08       		.uleb128 0x8
 1748 08af 48060000 		.4byte	.LASF118
 1749 08b3 12       		.byte	0x12
 1750 08b4 66       		.byte	0x66
 1751 08b5 1E       		.byte	0x1e
 1752 08b6 8B090000 		.4byte	0x98b
 1753 08ba 04       		.byte	0x4
 1754 08bb 08       		.uleb128 0x8
 1755 08bc 77030000 		.4byte	.LASF119
 1756 08c0 12       		.byte	0x12
 1757 08c1 68       		.byte	0x68
 1758 08c2 1D       		.byte	0x1d
 1759 08c3 4B090000 		.4byte	0x94b
 1760 08c7 08       		.byte	0x8
 1761 08c8 08       		.uleb128 0x8
 1762 08c9 B0000000 		.4byte	.LASF120
 1763 08cd 12       		.byte	0x12
 1764 08ce 6A       		.byte	0x6a
 1765 08cf 1E       		.byte	0x1e
 1766 08d0 91090000 		.4byte	0x991
 1767 08d4 0C       		.byte	0xc
ARM GAS  /var/folders/l5/0x54b2c10074c8bt31ycjvl80000gp/T//ccp7rYYt.s 			page 32


 1768 08d5 08       		.uleb128 0x8
 1769 08d6 34050000 		.4byte	.LASF121
 1770 08da 12       		.byte	0x12
 1771 08db 6D       		.byte	0x6d
 1772 08dc 1D       		.byte	0x1d
 1773 08dd 82040000 		.4byte	0x482
 1774 08e1 10       		.byte	0x10
 1775 08e2 08       		.uleb128 0x8
 1776 08e3 83010000 		.4byte	.LASF122
 1777 08e7 12       		.byte	0x12
 1778 08e8 77       		.byte	0x77
 1779 08e9 1E       		.byte	0x1e
 1780 08ea 31020000 		.4byte	0x231
 1781 08ee 20       		.byte	0x20
 1782 08ef 08       		.uleb128 0x8
 1783 08f0 8C000000 		.4byte	.LASF123
 1784 08f4 12       		.byte	0x12
 1785 08f5 7B       		.byte	0x7b
 1786 08f6 1D       		.byte	0x1d
 1787 08f7 57090000 		.4byte	0x957
 1788 08fb 24       		.byte	0x24
 1789 08fc 08       		.uleb128 0x8
 1790 08fd 4E030000 		.4byte	.LASF124
 1791 0901 12       		.byte	0x12
 1792 0902 7F       		.byte	0x7f
 1793 0903 1E       		.byte	0x1e
 1794 0904 3A060000 		.4byte	0x63a
 1795 0908 28       		.byte	0x28
 1796 0909 08       		.uleb128 0x8
 1797 090a DC070000 		.4byte	.LASF125
 1798 090e 12       		.byte	0x12
 1799 090f 83       		.byte	0x83
 1800 0910 1D       		.byte	0x1d
 1801 0911 2C000000 		.4byte	0x2c
 1802 0915 2C       		.byte	0x2c
 1803 0916 08       		.uleb128 0x8
 1804 0917 F8060000 		.4byte	.LASF126
 1805 091b 12       		.byte	0x12
 1806 091c 87       		.byte	0x87
 1807 091d 1D       		.byte	0x1d
 1808 091e 2C000000 		.4byte	0x2c
 1809 0922 30       		.byte	0x30
 1810 0923 08       		.uleb128 0x8
 1811 0924 63000000 		.4byte	.LASF127
 1812 0928 12       		.byte	0x12
 1813 0929 8B       		.byte	0x8b
 1814 092a 1E       		.byte	0x1e
 1815 092b 03060000 		.4byte	0x603
 1816 092f 34       		.byte	0x34
 1817 0930 08       		.uleb128 0x8
 1818 0931 9F040000 		.4byte	.LASF128
 1819 0935 12       		.byte	0x12
 1820 0936 8F       		.byte	0x8f
 1821 0937 1D       		.byte	0x1d
 1822 0938 2C000000 		.4byte	0x2c
 1823 093c 38       		.byte	0x38
 1824 093d 08       		.uleb128 0x8
ARM GAS  /var/folders/l5/0x54b2c10074c8bt31ycjvl80000gp/T//ccp7rYYt.s 			page 33


 1825 093e F7040000 		.4byte	.LASF129
 1826 0942 12       		.byte	0x12
 1827 0943 93       		.byte	0x93
 1828 0944 1D       		.byte	0x1d
 1829 0945 2C000000 		.4byte	0x2c
 1830 0949 3C       		.byte	0x3c
 1831 094a 00       		.byte	0
 1832 094b 03       		.uleb128 0x3
 1833 094c 29050000 		.4byte	.LASF130
 1834 0950 12       		.byte	0x12
 1835 0951 42       		.byte	0x42
 1836 0952 12       		.byte	0x12
 1837 0953 C2000000 		.4byte	0xc2
 1838 0957 03       		.uleb128 0x3
 1839 0958 07010000 		.4byte	.LASF131
 1840 095c 12       		.byte	0x12
 1841 095d 48       		.byte	0x48
 1842 095e 12       		.byte	0x12
 1843 095f AA000000 		.4byte	0xaa
 1844 0963 0A       		.uleb128 0xa
 1845 0964 04       		.byte	0x4
 1846 0965 12       		.byte	0x12
 1847 0966 57       		.byte	0x57
 1848 0967 09       		.byte	0x9
 1849 0968 7A090000 		.4byte	0x97a
 1850 096c 08       		.uleb128 0x8
 1851 096d 8F040000 		.4byte	.LASF132
 1852 0971 12       		.byte	0x12
 1853 0972 59       		.byte	0x59
 1854 0973 1D       		.byte	0x1d
 1855 0974 C2000000 		.4byte	0xc2
 1856 0978 00       		.byte	0
 1857 0979 00       		.byte	0
 1858 097a 03       		.uleb128 0x3
 1859 097b E4060000 		.4byte	.LASF133
 1860 097f 12       		.byte	0x12
 1861 0980 5B       		.byte	0x5b
 1862 0981 03       		.byte	0x3
 1863 0982 63090000 		.4byte	0x963
 1864 0986 04       		.uleb128 0x4
 1865 0987 7A090000 		.4byte	0x97a
 1866 098b 0B       		.uleb128 0xb
 1867 098c 04       		.byte	0x4
 1868 098d 86090000 		.4byte	0x986
 1869 0991 0B       		.uleb128 0xb
 1870 0992 04       		.byte	0x4
 1871 0993 17070000 		.4byte	0x717
 1872 0997 0F       		.uleb128 0xf
 1873 0998 28030000 		.4byte	.LASF134
 1874 099c 12       		.byte	0x12
 1875 099d A6       		.byte	0xa6
 1876 099e 12       		.byte	0x12
 1877 099f 88080000 		.4byte	0x888
 1878 09a3 18       		.uleb128 0x18
 1879 09a4 07       		.byte	0x7
 1880 09a5 04       		.byte	0x4
 1881 09a6 DA000000 		.4byte	0xda
ARM GAS  /var/folders/l5/0x54b2c10074c8bt31ycjvl80000gp/T//ccp7rYYt.s 			page 34


 1882 09aa 13       		.byte	0x13
 1883 09ab 5D       		.byte	0x5d
 1884 09ac 0E       		.byte	0xe
 1885 09ad C4090000 		.4byte	0x9c4
 1886 09b1 19       		.uleb128 0x19
 1887 09b2 F0050000 		.4byte	.LASF135
 1888 09b6 00       		.byte	0
 1889 09b7 19       		.uleb128 0x19
 1890 09b8 DB000000 		.4byte	.LASF136
 1891 09bc 01       		.byte	0x1
 1892 09bd 19       		.uleb128 0x19
 1893 09be C8060000 		.4byte	.LASF137
 1894 09c2 02       		.byte	0x2
 1895 09c3 00       		.byte	0
 1896 09c4 03       		.uleb128 0x3
 1897 09c5 EE060000 		.4byte	.LASF138
 1898 09c9 13       		.byte	0x13
 1899 09ca 61       		.byte	0x61
 1900 09cb 03       		.byte	0x3
 1901 09cc A3090000 		.4byte	0x9a3
 1902 09d0 03       		.uleb128 0x3
 1903 09d1 18060000 		.4byte	.LASF139
 1904 09d5 13       		.byte	0x13
 1905 09d6 66       		.byte	0x66
 1906 09d7 1D       		.byte	0x1d
 1907 09d8 DC090000 		.4byte	0x9dc
 1908 09dc 07       		.uleb128 0x7
 1909 09dd 18060000 		.4byte	.LASF139
 1910 09e1 74       		.byte	0x74
 1911 09e2 13       		.byte	0x13
 1912 09e3 80       		.byte	0x80
 1913 09e4 08       		.byte	0x8
 1914 09e5 430A0000 		.4byte	0xa43
 1915 09e9 09       		.uleb128 0x9
 1916 09ea 766D7400 		.ascii	"vmt\000"
 1917 09ee 13       		.byte	0x13
 1918 09ef 82       		.byte	0x82
 1919 09f0 21       		.byte	0x21
 1920 09f1 F20A0000 		.4byte	0xaf2
 1921 09f5 00       		.byte	0
 1922 09f6 08       		.uleb128 0x8
 1923 09f7 AD030000 		.4byte	.LASF140
 1924 09fb 13       		.byte	0x13
 1925 09fc 83       		.byte	0x83
 1926 09fd 03       		.byte	0x3
 1927 09fe FD040000 		.4byte	0x4fd
 1928 0a02 04       		.byte	0x4
 1929 0a03 08       		.uleb128 0x8
 1930 0a04 11010000 		.4byte	.LASF117
 1931 0a08 13       		.byte	0x13
 1932 0a09 83       		.byte	0x83
 1933 0a0a 03       		.byte	0x3
 1934 0a0b C4090000 		.4byte	0x9c4
 1935 0a0f 08       		.byte	0x8
 1936 0a10 08       		.uleb128 0x8
 1937 0a11 7E030000 		.4byte	.LASF141
 1938 0a15 13       		.byte	0x13
ARM GAS  /var/folders/l5/0x54b2c10074c8bt31ycjvl80000gp/T//ccp7rYYt.s 			page 35


 1939 0a16 83       		.byte	0x83
 1940 0a17 03       		.byte	0x3
 1941 0a18 09060000 		.4byte	0x609
 1942 0a1c 0C       		.byte	0xc
 1943 0a1d 08       		.uleb128 0x8
 1944 0a1e DE030000 		.4byte	.LASF142
 1945 0a22 13       		.byte	0x13
 1946 0a23 83       		.byte	0x83
 1947 0a24 03       		.byte	0x3
 1948 0a25 15060000 		.4byte	0x615
 1949 0a29 30       		.byte	0x30
 1950 0a2a 09       		.uleb128 0x9
 1951 0a2b 696200   		.ascii	"ib\000"
 1952 0a2e 13       		.byte	0x13
 1953 0a2f 83       		.byte	0x83
 1954 0a30 03       		.byte	0x3
 1955 0a31 F80A0000 		.4byte	0xaf8
 1956 0a35 54       		.byte	0x54
 1957 0a36 09       		.uleb128 0x9
 1958 0a37 6F6200   		.ascii	"ob\000"
 1959 0a3a 13       		.byte	0x13
 1960 0a3b 83       		.byte	0x83
 1961 0a3c 03       		.byte	0x3
 1962 0a3d F80A0000 		.4byte	0xaf8
 1963 0a41 64       		.byte	0x64
 1964 0a42 00       		.byte	0
 1965 0a43 0A       		.uleb128 0xa
 1966 0a44 04       		.byte	0x4
 1967 0a45 14       		.byte	0x14
 1968 0a46 42       		.byte	0x42
 1969 0a47 09       		.byte	0x9
 1970 0a48 5A0A0000 		.4byte	0xa5a
 1971 0a4c 08       		.uleb128 0x8
 1972 0a4d 09000000 		.4byte	.LASF143
 1973 0a51 14       		.byte	0x14
 1974 0a52 44       		.byte	0x44
 1975 0a53 1C       		.byte	0x1c
 1976 0a54 C2000000 		.4byte	0xc2
 1977 0a58 00       		.byte	0
 1978 0a59 00       		.byte	0
 1979 0a5a 03       		.uleb128 0x3
 1980 0a5b FE060000 		.4byte	.LASF144
 1981 0a5f 14       		.byte	0x14
 1982 0a60 45       		.byte	0x45
 1983 0a61 03       		.byte	0x3
 1984 0a62 430A0000 		.4byte	0xa43
 1985 0a66 04       		.uleb128 0x4
 1986 0a67 5A0A0000 		.4byte	0xa5a
 1987 0a6b 1A       		.uleb128 0x1a
 1988 0a6c 53443100 		.ascii	"SD1\000"
 1989 0a70 14       		.byte	0x14
 1990 0a71 62       		.byte	0x62
 1991 0a72 15       		.byte	0x15
 1992 0a73 D0090000 		.4byte	0x9d0
 1993 0a77 07       		.uleb128 0x7
 1994 0a78 54030000 		.4byte	.LASF145
 1995 0a7c 20       		.byte	0x20
ARM GAS  /var/folders/l5/0x54b2c10074c8bt31ycjvl80000gp/T//ccp7rYYt.s 			page 36


 1996 0a7d 13       		.byte	0x13
 1997 0a7e 75       		.byte	0x75
 1998 0a7f 08       		.byte	0x8
 1999 0a80 ED0A0000 		.4byte	0xaed
 2000 0a84 08       		.uleb128 0x8
 2001 0a85 4E040000 		.4byte	.LASF146
 2002 0a89 13       		.byte	0x13
 2003 0a8a 76       		.byte	0x76
 2004 0a8b 03       		.byte	0x3
 2005 0a8c 40060000 		.4byte	0x640
 2006 0a90 00       		.byte	0
 2007 0a91 08       		.uleb128 0x8
 2008 0a92 33060000 		.4byte	.LASF147
 2009 0a96 13       		.byte	0x13
 2010 0a97 76       		.byte	0x76
 2011 0a98 03       		.byte	0x3
 2012 0a99 5F060000 		.4byte	0x65f
 2013 0a9d 04       		.byte	0x4
 2014 0a9e 09       		.uleb128 0x9
 2015 0a9f 70757400 		.ascii	"put\000"
 2016 0aa3 13       		.byte	0x13
 2017 0aa4 76       		.byte	0x76
 2018 0aa5 03       		.byte	0x3
 2019 0aa6 79060000 		.4byte	0x679
 2020 0aaa 08       		.byte	0x8
 2021 0aab 09       		.uleb128 0x9
 2022 0aac 67657400 		.ascii	"get\000"
 2023 0ab0 13       		.byte	0x13
 2024 0ab1 76       		.byte	0x76
 2025 0ab2 03       		.byte	0x3
 2026 0ab3 49050000 		.4byte	0x549
 2027 0ab7 0C       		.byte	0xc
 2028 0ab8 08       		.uleb128 0x8
 2029 0ab9 5A040000 		.4byte	.LASF148
 2030 0abd 13       		.byte	0x13
 2031 0abe 76       		.byte	0x76
 2032 0abf 03       		.byte	0x3
 2033 0ac0 3D070000 		.4byte	0x73d
 2034 0ac4 10       		.byte	0x10
 2035 0ac5 08       		.uleb128 0x8
 2036 0ac6 9F030000 		.4byte	.LASF149
 2037 0aca 13       		.byte	0x13
 2038 0acb 76       		.byte	0x76
 2039 0acc 03       		.byte	0x3
 2040 0acd 57070000 		.4byte	0x757
 2041 0ad1 14       		.byte	0x14
 2042 0ad2 08       		.uleb128 0x8
 2043 0ad3 ED030000 		.4byte	.LASF150
 2044 0ad7 13       		.byte	0x13
 2045 0ad8 76       		.byte	0x76
 2046 0ad9 03       		.byte	0x3
 2047 0ada 7B070000 		.4byte	0x77b
 2048 0ade 18       		.byte	0x18
 2049 0adf 08       		.uleb128 0x8
 2050 0ae0 AA000000 		.4byte	.LASF151
 2051 0ae4 13       		.byte	0x13
 2052 0ae5 76       		.byte	0x76
ARM GAS  /var/folders/l5/0x54b2c10074c8bt31ycjvl80000gp/T//ccp7rYYt.s 			page 37


 2053 0ae6 03       		.byte	0x3
 2054 0ae7 9F070000 		.4byte	0x79f
 2055 0aeb 1C       		.byte	0x1c
 2056 0aec 00       		.byte	0
 2057 0aed 04       		.uleb128 0x4
 2058 0aee 770A0000 		.4byte	0xa77
 2059 0af2 0B       		.uleb128 0xb
 2060 0af3 04       		.byte	0x4
 2061 0af4 ED0A0000 		.4byte	0xaed
 2062 0af8 13       		.uleb128 0x13
 2063 0af9 99000000 		.4byte	0x99
 2064 0afd 080B0000 		.4byte	0xb08
 2065 0b01 14       		.uleb128 0x14
 2066 0b02 38000000 		.4byte	0x38
 2067 0b06 0F       		.byte	0xf
 2068 0b07 00       		.byte	0
 2069 0b08 1B       		.uleb128 0x1b
 2070 0b09 766D7400 		.ascii	"vmt\000"
 2071 0b0d 01       		.byte	0x1
 2072 0b0e 61       		.byte	0x61
 2073 0b0f 25       		.byte	0x25
 2074 0b10 ED0A0000 		.4byte	0xaed
 2075 0b14 05       		.uleb128 0x5
 2076 0b15 03       		.byte	0x3
 2077 0b16 00000000 		.4byte	vmt
 2078 0b1a 1C       		.uleb128 0x1c
 2079 0b1b 39070000 		.4byte	.LASF179
 2080 0b1f 01       		.byte	0x1
 2081 0b20 E8       		.byte	0xe8
 2082 0b21 07       		.byte	0x7
 2083 0b22 22010000 		.4byte	0x122
 2084 0b26 00000000 		.4byte	.LFB20
 2085 0b2a 34000000 		.4byte	.LFE20-.LFB20
 2086 0b2e 01       		.uleb128 0x1
 2087 0b2f 9C       		.byte	0x9c
 2088 0b30 840B0000 		.4byte	0xb84
 2089 0b34 1D       		.uleb128 0x1d
 2090 0b35 73647000 		.ascii	"sdp\000"
 2091 0b39 01       		.byte	0x1
 2092 0b3a E8       		.byte	0xe8
 2093 0b3b 24       		.byte	0x24
 2094 0b3c 840B0000 		.4byte	0xb84
 2095 0b40 04000000 		.4byte	.LLST30
 2096 0b44 00000000 		.4byte	.LVUS30
 2097 0b48 1E       		.uleb128 0x1e
 2098 0b49 6200     		.ascii	"b\000"
 2099 0b4b 01       		.byte	0x1
 2100 0b4c E9       		.byte	0xe9
 2101 0b4d 0A       		.byte	0xa
 2102 0b4e 22010000 		.4byte	0x122
 2103 0b52 24000000 		.4byte	.LLST31
 2104 0b56 22000000 		.4byte	.LVUS31
 2105 0b5a 1F       		.uleb128 0x1f
 2106 0b5b 10000000 		.4byte	.LVL49
 2107 0b5f 32110000 		.4byte	0x1132
 2108 0b63 6E0B0000 		.4byte	0xb6e
 2109 0b67 20       		.uleb128 0x20
ARM GAS  /var/folders/l5/0x54b2c10074c8bt31ycjvl80000gp/T//ccp7rYYt.s 			page 38


 2110 0b68 01       		.uleb128 0x1
 2111 0b69 50       		.byte	0x50
 2112 0b6a 02       		.uleb128 0x2
 2113 0b6b 74       		.byte	0x74
 2114 0b6c 30       		.sleb128 48
 2115 0b6d 00       		.byte	0
 2116 0b6e 21       		.uleb128 0x21
 2117 0b6f 2C000000 		.4byte	.LVL50
 2118 0b73 3F110000 		.4byte	0x113f
 2119 0b77 20       		.uleb128 0x20
 2120 0b78 01       		.uleb128 0x1
 2121 0b79 50       		.byte	0x50
 2122 0b7a 02       		.uleb128 0x2
 2123 0b7b 74       		.byte	0x74
 2124 0b7c 04       		.sleb128 4
 2125 0b7d 20       		.uleb128 0x20
 2126 0b7e 01       		.uleb128 0x1
 2127 0b7f 51       		.byte	0x51
 2128 0b80 01       		.uleb128 0x1
 2129 0b81 38       		.byte	0x38
 2130 0b82 00       		.byte	0
 2131 0b83 00       		.byte	0
 2132 0b84 0B       		.uleb128 0xb
 2133 0b85 04       		.byte	0x4
 2134 0b86 D0090000 		.4byte	0x9d0
 2135 0b8a 22       		.uleb128 0x22
 2136 0b8b 38060000 		.4byte	.LASF152
 2137 0b8f 01       		.byte	0x1
 2138 0b90 CE       		.byte	0xce
 2139 0b91 06       		.byte	0x6
 2140 0b92 00000000 		.4byte	.LFB19
 2141 0b96 4C000000 		.4byte	.LFE19-.LFB19
 2142 0b9a 01       		.uleb128 0x1
 2143 0b9b 9C       		.byte	0x9c
 2144 0b9c 130C0000 		.4byte	0xc13
 2145 0ba0 1D       		.uleb128 0x1d
 2146 0ba1 73647000 		.ascii	"sdp\000"
 2147 0ba5 01       		.byte	0x1
 2148 0ba6 CE       		.byte	0xce
 2149 0ba7 24       		.byte	0x24
 2150 0ba8 840B0000 		.4byte	0xb84
 2151 0bac 43000000 		.4byte	.LLST28
 2152 0bb0 37000000 		.4byte	.LVUS28
 2153 0bb4 1D       		.uleb128 0x1d
 2154 0bb5 6200     		.ascii	"b\000"
 2155 0bb7 01       		.byte	0x1
 2156 0bb8 CE       		.byte	0xce
 2157 0bb9 31       		.byte	0x31
 2158 0bba 99000000 		.4byte	0x99
 2159 0bbe 9C000000 		.4byte	.LLST29
 2160 0bc2 92000000 		.4byte	.LVUS29
 2161 0bc6 1F       		.uleb128 0x1f
 2162 0bc7 24000000 		.4byte	.LVL41
 2163 0bcb 4B110000 		.4byte	0x114b
 2164 0bcf E00B0000 		.4byte	0xbe0
 2165 0bd3 20       		.uleb128 0x20
 2166 0bd4 01       		.uleb128 0x1
ARM GAS  /var/folders/l5/0x54b2c10074c8bt31ycjvl80000gp/T//ccp7rYYt.s 			page 39


 2167 0bd5 50       		.byte	0x50
 2168 0bd6 02       		.uleb128 0x2
 2169 0bd7 74       		.byte	0x74
 2170 0bd8 0C       		.sleb128 12
 2171 0bd9 20       		.uleb128 0x20
 2172 0bda 01       		.uleb128 0x1
 2173 0bdb 51       		.byte	0x51
 2174 0bdc 02       		.uleb128 0x2
 2175 0bdd 75       		.byte	0x75
 2176 0bde 00       		.sleb128 0
 2177 0bdf 00       		.byte	0
 2178 0be0 23       		.uleb128 0x23
 2179 0be1 3C000000 		.4byte	.LVL43
 2180 0be5 3F110000 		.4byte	0x113f
 2181 0be9 FD0B0000 		.4byte	0xbfd
 2182 0bed 20       		.uleb128 0x20
 2183 0bee 01       		.uleb128 0x1
 2184 0bef 50       		.byte	0x50
 2185 0bf0 05       		.uleb128 0x5
 2186 0bf1 F3       		.byte	0xf3
 2187 0bf2 01       		.uleb128 0x1
 2188 0bf3 50       		.byte	0x50
 2189 0bf4 23       		.byte	0x23
 2190 0bf5 04       		.uleb128 0x4
 2191 0bf6 20       		.uleb128 0x20
 2192 0bf7 01       		.uleb128 0x1
 2193 0bf8 51       		.byte	0x51
 2194 0bf9 02       		.uleb128 0x2
 2195 0bfa 08       		.byte	0x8
 2196 0bfb 80       		.byte	0x80
 2197 0bfc 00       		.byte	0
 2198 0bfd 21       		.uleb128 0x21
 2199 0bfe 48000000 		.4byte	.LVL46
 2200 0c02 3F110000 		.4byte	0x113f
 2201 0c06 20       		.uleb128 0x20
 2202 0c07 01       		.uleb128 0x1
 2203 0c08 50       		.byte	0x50
 2204 0c09 02       		.uleb128 0x2
 2205 0c0a 74       		.byte	0x74
 2206 0c0b 04       		.sleb128 4
 2207 0c0c 20       		.uleb128 0x20
 2208 0c0d 01       		.uleb128 0x1
 2209 0c0e 51       		.byte	0x51
 2210 0c0f 01       		.uleb128 0x1
 2211 0c10 34       		.byte	0x34
 2212 0c11 00       		.byte	0
 2213 0c12 00       		.byte	0
 2214 0c13 22       		.uleb128 0x22
 2215 0c14 CA040000 		.4byte	.LASF153
 2216 0c18 01       		.byte	0x1
 2217 0c19 AE       		.byte	0xae
 2218 0c1a 06       		.byte	0x6
 2219 0c1b 00000000 		.4byte	.LFB18
 2220 0c1f 34000000 		.4byte	.LFE18-.LFB18
 2221 0c23 01       		.uleb128 0x1
 2222 0c24 9C       		.byte	0x9c
 2223 0c25 830C0000 		.4byte	0xc83
ARM GAS  /var/folders/l5/0x54b2c10074c8bt31ycjvl80000gp/T//ccp7rYYt.s 			page 40


 2224 0c29 1D       		.uleb128 0x1d
 2225 0c2a 73647000 		.ascii	"sdp\000"
 2226 0c2e 01       		.byte	0x1
 2227 0c2f AE       		.byte	0xae
 2228 0c30 1B       		.byte	0x1b
 2229 0c31 840B0000 		.4byte	0xb84
 2230 0c35 E2000000 		.4byte	.LLST27
 2231 0c39 DE000000 		.4byte	.LVUS27
 2232 0c3d 1F       		.uleb128 0x1f
 2233 0c3e 10000000 		.4byte	.LVL35
 2234 0c42 58110000 		.4byte	0x1158
 2235 0c46 510C0000 		.4byte	0xc51
 2236 0c4a 20       		.uleb128 0x20
 2237 0c4b 01       		.uleb128 0x1
 2238 0c4c 50       		.byte	0x50
 2239 0c4d 02       		.uleb128 0x2
 2240 0c4e 74       		.byte	0x74
 2241 0c4f 00       		.sleb128 0
 2242 0c50 00       		.byte	0
 2243 0c51 1F       		.uleb128 0x1f
 2244 0c52 20000000 		.4byte	.LVL36
 2245 0c56 64110000 		.4byte	0x1164
 2246 0c5a 650C0000 		.4byte	0xc65
 2247 0c5e 20       		.uleb128 0x20
 2248 0c5f 01       		.uleb128 0x1
 2249 0c60 50       		.byte	0x50
 2250 0c61 02       		.uleb128 0x2
 2251 0c62 74       		.byte	0x74
 2252 0c63 30       		.sleb128 48
 2253 0c64 00       		.byte	0
 2254 0c65 1F       		.uleb128 0x1f
 2255 0c66 28000000 		.4byte	.LVL37
 2256 0c6a 71110000 		.4byte	0x1171
 2257 0c6e 790C0000 		.4byte	0xc79
 2258 0c72 20       		.uleb128 0x20
 2259 0c73 01       		.uleb128 0x1
 2260 0c74 50       		.byte	0x50
 2261 0c75 02       		.uleb128 0x2
 2262 0c76 74       		.byte	0x74
 2263 0c77 0C       		.sleb128 12
 2264 0c78 00       		.byte	0
 2265 0c79 24       		.uleb128 0x24
 2266 0c7a 2C000000 		.4byte	.LVL38
 2267 0c7e 7E110000 		.4byte	0x117e
 2268 0c82 00       		.byte	0
 2269 0c83 22       		.uleb128 0x22
 2270 0c84 4F060000 		.4byte	.LASF154
 2271 0c88 01       		.byte	0x1
 2272 0c89 98       		.byte	0x98
 2273 0c8a 06       		.byte	0x6
 2274 0c8b 00000000 		.4byte	.LFB17
 2275 0c8f 20000000 		.4byte	.LFE17-.LFB17
 2276 0c93 01       		.uleb128 0x1
 2277 0c94 9C       		.byte	0x9c
 2278 0c95 D90C0000 		.4byte	0xcd9
 2279 0c99 1D       		.uleb128 0x1d
 2280 0c9a 73647000 		.ascii	"sdp\000"
ARM GAS  /var/folders/l5/0x54b2c10074c8bt31ycjvl80000gp/T//ccp7rYYt.s 			page 41


 2281 0c9e 01       		.byte	0x1
 2282 0c9f 98       		.byte	0x98
 2283 0ca0 1C       		.byte	0x1c
 2284 0ca1 840B0000 		.4byte	0xb84
 2285 0ca5 04010000 		.4byte	.LLST25
 2286 0ca9 00010000 		.4byte	.LVUS25
 2287 0cad 25       		.uleb128 0x25
 2288 0cae 48060000 		.4byte	.LASF118
 2289 0cb2 01       		.byte	0x1
 2290 0cb3 98       		.byte	0x98
 2291 0cb4 35       		.byte	0x35
 2292 0cb5 D90C0000 		.4byte	0xcd9
 2293 0cb9 26010000 		.4byte	.LLST26
 2294 0cbd 22010000 		.4byte	.LVUS26
 2295 0cc1 21       		.uleb128 0x21
 2296 0cc2 10000000 		.4byte	.LVL33
 2297 0cc6 8A110000 		.4byte	0x118a
 2298 0cca 20       		.uleb128 0x20
 2299 0ccb 01       		.uleb128 0x1
 2300 0ccc 50       		.byte	0x50
 2301 0ccd 02       		.uleb128 0x2
 2302 0cce 74       		.byte	0x74
 2303 0ccf 00       		.sleb128 0
 2304 0cd0 20       		.uleb128 0x20
 2305 0cd1 01       		.uleb128 0x1
 2306 0cd2 51       		.byte	0x51
 2307 0cd3 03       		.uleb128 0x3
 2308 0cd4 F3       		.byte	0xf3
 2309 0cd5 01       		.uleb128 0x1
 2310 0cd6 51       		.byte	0x51
 2311 0cd7 00       		.byte	0
 2312 0cd8 00       		.byte	0
 2313 0cd9 0B       		.uleb128 0xb
 2314 0cda 04       		.byte	0x4
 2315 0cdb 660A0000 		.4byte	0xa66
 2316 0cdf 22       		.uleb128 0x22
 2317 0ce0 98050000 		.4byte	.LASF155
 2318 0ce4 01       		.byte	0x1
 2319 0ce5 85       		.byte	0x85
 2320 0ce6 06       		.byte	0x6
 2321 0ce7 00000000 		.4byte	.LFB16
 2322 0ceb 5C000000 		.4byte	.LFE16-.LFB16
 2323 0cef 01       		.uleb128 0x1
 2324 0cf0 9C       		.byte	0x9c
 2325 0cf1 820D0000 		.4byte	0xd82
 2326 0cf5 1D       		.uleb128 0x1d
 2327 0cf6 73647000 		.ascii	"sdp\000"
 2328 0cfa 01       		.byte	0x1
 2329 0cfb 85       		.byte	0x85
 2330 0cfc 21       		.byte	0x21
 2331 0cfd 840B0000 		.4byte	0xb84
 2332 0d01 4D010000 		.4byte	.LLST22
 2333 0d05 47010000 		.4byte	.LVUS22
 2334 0d09 25       		.uleb128 0x25
 2335 0d0a 6F030000 		.4byte	.LASF156
 2336 0d0e 01       		.byte	0x1
 2337 0d0f 85       		.byte	0x85
ARM GAS  /var/folders/l5/0x54b2c10074c8bt31ycjvl80000gp/T//ccp7rYYt.s 			page 42


 2338 0d10 30       		.byte	0x30
 2339 0d11 E0050000 		.4byte	0x5e0
 2340 0d15 7F010000 		.4byte	.LLST23
 2341 0d19 79010000 		.4byte	.LVUS23
 2342 0d1d 25       		.uleb128 0x25
 2343 0d1e 56070000 		.4byte	.LASF157
 2344 0d22 01       		.byte	0x1
 2345 0d23 85       		.byte	0x85
 2346 0d24 43       		.byte	0x43
 2347 0d25 E0050000 		.4byte	0x5e0
 2348 0d29 B1010000 		.4byte	.LLST24
 2349 0d2d AB010000 		.4byte	.LVUS24
 2350 0d31 1F       		.uleb128 0x1f
 2351 0d32 38000000 		.4byte	.LVL29
 2352 0d36 96110000 		.4byte	0x1196
 2353 0d3a 580D0000 		.4byte	0xd58
 2354 0d3e 20       		.uleb128 0x20
 2355 0d3f 01       		.uleb128 0x1
 2356 0d40 50       		.byte	0x50
 2357 0d41 02       		.uleb128 0x2
 2358 0d42 74       		.byte	0x74
 2359 0d43 0C       		.sleb128 12
 2360 0d44 20       		.uleb128 0x20
 2361 0d45 01       		.uleb128 0x1
 2362 0d46 51       		.byte	0x51
 2363 0d47 03       		.uleb128 0x3
 2364 0d48 74       		.byte	0x74
 2365 0d49 D400     		.sleb128 84
 2366 0d4b 20       		.uleb128 0x20
 2367 0d4c 01       		.uleb128 0x1
 2368 0d4d 52       		.byte	0x52
 2369 0d4e 01       		.uleb128 0x1
 2370 0d4f 40       		.byte	0x40
 2371 0d50 20       		.uleb128 0x20
 2372 0d51 01       		.uleb128 0x1
 2373 0d52 53       		.byte	0x53
 2374 0d53 03       		.uleb128 0x3
 2375 0d54 F3       		.byte	0xf3
 2376 0d55 01       		.uleb128 0x1
 2377 0d56 51       		.byte	0x51
 2378 0d57 00       		.byte	0
 2379 0d58 21       		.uleb128 0x21
 2380 0d59 50000000 		.4byte	.LVL30
 2381 0d5d A3110000 		.4byte	0x11a3
 2382 0d61 20       		.uleb128 0x20
 2383 0d62 01       		.uleb128 0x1
 2384 0d63 50       		.byte	0x50
 2385 0d64 02       		.uleb128 0x2
 2386 0d65 74       		.byte	0x74
 2387 0d66 30       		.sleb128 48
 2388 0d67 20       		.uleb128 0x20
 2389 0d68 01       		.uleb128 0x1
 2390 0d69 51       		.byte	0x51
 2391 0d6a 03       		.uleb128 0x3
 2392 0d6b 74       		.byte	0x74
 2393 0d6c E400     		.sleb128 100
 2394 0d6e 20       		.uleb128 0x20
ARM GAS  /var/folders/l5/0x54b2c10074c8bt31ycjvl80000gp/T//ccp7rYYt.s 			page 43


 2395 0d6f 01       		.uleb128 0x1
 2396 0d70 52       		.byte	0x52
 2397 0d71 01       		.uleb128 0x1
 2398 0d72 40       		.byte	0x40
 2399 0d73 20       		.uleb128 0x20
 2400 0d74 01       		.uleb128 0x1
 2401 0d75 53       		.byte	0x53
 2402 0d76 02       		.uleb128 0x2
 2403 0d77 75       		.byte	0x75
 2404 0d78 00       		.sleb128 0
 2405 0d79 20       		.uleb128 0x20
 2406 0d7a 02       		.uleb128 0x2
 2407 0d7b 7D       		.byte	0x7d
 2408 0d7c 00       		.sleb128 0
 2409 0d7d 02       		.uleb128 0x2
 2410 0d7e 74       		.byte	0x74
 2411 0d7f 00       		.sleb128 0
 2412 0d80 00       		.byte	0
 2413 0d81 00       		.byte	0
 2414 0d82 22       		.uleb128 0x22
 2415 0d83 99070000 		.4byte	.LASF158
 2416 0d87 01       		.byte	0x1
 2417 0d88 71       		.byte	0x71
 2418 0d89 06       		.byte	0x6
 2419 0d8a 00000000 		.4byte	.LFB15
 2420 0d8e 04000000 		.4byte	.LFE15-.LFB15
 2421 0d92 01       		.uleb128 0x1
 2422 0d93 9C       		.byte	0x9c
 2423 0d94 A20D0000 		.4byte	0xda2
 2424 0d98 26       		.uleb128 0x26
 2425 0d99 04000000 		.4byte	.LVL24
 2426 0d9d B0110000 		.4byte	0x11b0
 2427 0da1 00       		.byte	0
 2428 0da2 27       		.uleb128 0x27
 2429 0da3 AA000000 		.4byte	.LASF151
 2430 0da7 01       		.byte	0x1
 2431 0da8 5C       		.byte	0x5c
 2432 0da9 0F       		.byte	0xf
 2433 0daa 2C000000 		.4byte	0x2c
 2434 0dae 00000000 		.4byte	.LFB14
 2435 0db2 08000000 		.4byte	.LFE14-.LFB14
 2436 0db6 01       		.uleb128 0x1
 2437 0db7 9C       		.byte	0x9c
 2438 0db8 310E0000 		.4byte	0xe31
 2439 0dbc 1D       		.uleb128 0x1d
 2440 0dbd 697000   		.ascii	"ip\000"
 2441 0dc0 01       		.byte	0x1
 2442 0dc1 5C       		.byte	0x5c
 2443 0dc2 1B       		.byte	0x1b
 2444 0dc3 7E020000 		.4byte	0x27e
 2445 0dc7 E3010000 		.4byte	.LLST0
 2446 0dcb DD010000 		.4byte	.LVUS0
 2447 0dcf 1D       		.uleb128 0x1d
 2448 0dd0 627000   		.ascii	"bp\000"
 2449 0dd3 01       		.byte	0x1
 2450 0dd4 5C       		.byte	0x5c
 2451 0dd5 28       		.byte	0x28
ARM GAS  /var/folders/l5/0x54b2c10074c8bt31ycjvl80000gp/T//ccp7rYYt.s 			page 44


 2452 0dd6 03060000 		.4byte	0x603
 2453 0dda 15020000 		.4byte	.LLST1
 2454 0dde 11020000 		.4byte	.LVUS1
 2455 0de2 1D       		.uleb128 0x1d
 2456 0de3 6E00     		.ascii	"n\000"
 2457 0de5 01       		.byte	0x1
 2458 0de6 5C       		.byte	0x5c
 2459 0de7 33       		.byte	0x33
 2460 0de8 2C000000 		.4byte	0x2c
 2461 0dec 3A020000 		.4byte	.LLST2
 2462 0df0 36020000 		.4byte	.LVUS2
 2463 0df4 25       		.uleb128 0x25
 2464 0df5 D1040000 		.4byte	.LASF159
 2465 0df9 01       		.byte	0x1
 2466 0dfa 5C       		.byte	0x5c
 2467 0dfb 40       		.byte	0x40
 2468 0dfc 46010000 		.4byte	0x146
 2469 0e00 5F020000 		.4byte	.LLST3
 2470 0e04 5B020000 		.4byte	.LVUS3
 2471 0e08 28       		.uleb128 0x28
 2472 0e09 08000000 		.4byte	.LVL2
 2473 0e0d BC110000 		.4byte	0x11bc
 2474 0e11 20       		.uleb128 0x20
 2475 0e12 01       		.uleb128 0x1
 2476 0e13 50       		.byte	0x50
 2477 0e14 05       		.uleb128 0x5
 2478 0e15 F3       		.byte	0xf3
 2479 0e16 01       		.uleb128 0x1
 2480 0e17 50       		.byte	0x50
 2481 0e18 23       		.byte	0x23
 2482 0e19 0C       		.uleb128 0xc
 2483 0e1a 20       		.uleb128 0x20
 2484 0e1b 01       		.uleb128 0x1
 2485 0e1c 51       		.byte	0x51
 2486 0e1d 03       		.uleb128 0x3
 2487 0e1e F3       		.byte	0xf3
 2488 0e1f 01       		.uleb128 0x1
 2489 0e20 51       		.byte	0x51
 2490 0e21 20       		.uleb128 0x20
 2491 0e22 01       		.uleb128 0x1
 2492 0e23 52       		.byte	0x52
 2493 0e24 03       		.uleb128 0x3
 2494 0e25 F3       		.byte	0xf3
 2495 0e26 01       		.uleb128 0x1
 2496 0e27 52       		.byte	0x52
 2497 0e28 20       		.uleb128 0x20
 2498 0e29 01       		.uleb128 0x1
 2499 0e2a 53       		.byte	0x53
 2500 0e2b 03       		.uleb128 0x3
 2501 0e2c F3       		.byte	0xf3
 2502 0e2d 01       		.uleb128 0x1
 2503 0e2e 53       		.byte	0x53
 2504 0e2f 00       		.byte	0
 2505 0e30 00       		.byte	0
 2506 0e31 27       		.uleb128 0x27
 2507 0e32 ED030000 		.4byte	.LASF150
 2508 0e36 01       		.byte	0x1
ARM GAS  /var/folders/l5/0x54b2c10074c8bt31ycjvl80000gp/T//ccp7rYYt.s 			page 45


 2509 0e37 57       		.byte	0x57
 2510 0e38 0F       		.byte	0xf
 2511 0e39 2C000000 		.4byte	0x2c
 2512 0e3d 00000000 		.4byte	.LFB13
 2513 0e41 08000000 		.4byte	.LFE13-.LFB13
 2514 0e45 01       		.uleb128 0x1
 2515 0e46 9C       		.byte	0x9c
 2516 0e47 C00E0000 		.4byte	0xec0
 2517 0e4b 1D       		.uleb128 0x1d
 2518 0e4c 697000   		.ascii	"ip\000"
 2519 0e4f 01       		.byte	0x1
 2520 0e50 57       		.byte	0x57
 2521 0e51 1C       		.byte	0x1c
 2522 0e52 7E020000 		.4byte	0x27e
 2523 0e56 86020000 		.4byte	.LLST7
 2524 0e5a 80020000 		.4byte	.LVUS7
 2525 0e5e 1D       		.uleb128 0x1d
 2526 0e5f 627000   		.ascii	"bp\000"
 2527 0e62 01       		.byte	0x1
 2528 0e63 57       		.byte	0x57
 2529 0e64 2F       		.byte	0x2f
 2530 0e65 3A060000 		.4byte	0x63a
 2531 0e69 B8020000 		.4byte	.LLST8
 2532 0e6d B4020000 		.4byte	.LVUS8
 2533 0e71 1D       		.uleb128 0x1d
 2534 0e72 6E00     		.ascii	"n\000"
 2535 0e74 01       		.byte	0x1
 2536 0e75 57       		.byte	0x57
 2537 0e76 3A       		.byte	0x3a
 2538 0e77 2C000000 		.4byte	0x2c
 2539 0e7b DD020000 		.4byte	.LLST9
 2540 0e7f D9020000 		.4byte	.LVUS9
 2541 0e83 25       		.uleb128 0x25
 2542 0e84 D1040000 		.4byte	.LASF159
 2543 0e88 01       		.byte	0x1
 2544 0e89 57       		.byte	0x57
 2545 0e8a 47       		.byte	0x47
 2546 0e8b 46010000 		.4byte	0x146
 2547 0e8f 02030000 		.4byte	.LLST10
 2548 0e93 FE020000 		.4byte	.LVUS10
 2549 0e97 28       		.uleb128 0x28
 2550 0e98 08000000 		.4byte	.LVL8
 2551 0e9c C9110000 		.4byte	0x11c9
 2552 0ea0 20       		.uleb128 0x20
 2553 0ea1 01       		.uleb128 0x1
 2554 0ea2 50       		.byte	0x50
 2555 0ea3 05       		.uleb128 0x5
 2556 0ea4 F3       		.byte	0xf3
 2557 0ea5 01       		.uleb128 0x1
 2558 0ea6 50       		.byte	0x50
 2559 0ea7 23       		.byte	0x23
 2560 0ea8 30       		.uleb128 0x30
 2561 0ea9 20       		.uleb128 0x20
 2562 0eaa 01       		.uleb128 0x1
 2563 0eab 51       		.byte	0x51
 2564 0eac 03       		.uleb128 0x3
 2565 0ead F3       		.byte	0xf3
ARM GAS  /var/folders/l5/0x54b2c10074c8bt31ycjvl80000gp/T//ccp7rYYt.s 			page 46


 2566 0eae 01       		.uleb128 0x1
 2567 0eaf 51       		.byte	0x51
 2568 0eb0 20       		.uleb128 0x20
 2569 0eb1 01       		.uleb128 0x1
 2570 0eb2 52       		.byte	0x52
 2571 0eb3 03       		.uleb128 0x3
 2572 0eb4 F3       		.byte	0xf3
 2573 0eb5 01       		.uleb128 0x1
 2574 0eb6 52       		.byte	0x52
 2575 0eb7 20       		.uleb128 0x20
 2576 0eb8 01       		.uleb128 0x1
 2577 0eb9 53       		.byte	0x53
 2578 0eba 03       		.uleb128 0x3
 2579 0ebb F3       		.byte	0xf3
 2580 0ebc 01       		.uleb128 0x1
 2581 0ebd 53       		.byte	0x53
 2582 0ebe 00       		.byte	0
 2583 0ebf 00       		.byte	0
 2584 0ec0 27       		.uleb128 0x27
 2585 0ec1 9F030000 		.4byte	.LASF149
 2586 0ec5 01       		.byte	0x1
 2587 0ec6 52       		.byte	0x52
 2588 0ec7 0E       		.byte	0xe
 2589 0ec8 22010000 		.4byte	0x122
 2590 0ecc 00000000 		.4byte	.LFB12
 2591 0ed0 08000000 		.4byte	.LFE12-.LFB12
 2592 0ed4 01       		.uleb128 0x1
 2593 0ed5 9C       		.byte	0x9c
 2594 0ed6 1C0F0000 		.4byte	0xf1c
 2595 0eda 1D       		.uleb128 0x1d
 2596 0edb 697000   		.ascii	"ip\000"
 2597 0ede 01       		.byte	0x1
 2598 0edf 52       		.byte	0x52
 2599 0ee0 19       		.byte	0x19
 2600 0ee1 7E020000 		.4byte	0x27e
 2601 0ee5 29030000 		.4byte	.LLST14
 2602 0ee9 23030000 		.4byte	.LVUS14
 2603 0eed 25       		.uleb128 0x25
 2604 0eee 97030000 		.4byte	.LASF160
 2605 0ef2 01       		.byte	0x1
 2606 0ef3 52       		.byte	0x52
 2607 0ef4 27       		.byte	0x27
 2608 0ef5 46010000 		.4byte	0x146
 2609 0ef9 5B030000 		.4byte	.LLST15
 2610 0efd 57030000 		.4byte	.LVUS15
 2611 0f01 28       		.uleb128 0x28
 2612 0f02 08000000 		.4byte	.LVL14
 2613 0f06 D6110000 		.4byte	0x11d6
 2614 0f0a 20       		.uleb128 0x20
 2615 0f0b 01       		.uleb128 0x1
 2616 0f0c 50       		.byte	0x50
 2617 0f0d 05       		.uleb128 0x5
 2618 0f0e F3       		.byte	0xf3
 2619 0f0f 01       		.uleb128 0x1
 2620 0f10 50       		.byte	0x50
 2621 0f11 23       		.byte	0x23
 2622 0f12 0C       		.uleb128 0xc
ARM GAS  /var/folders/l5/0x54b2c10074c8bt31ycjvl80000gp/T//ccp7rYYt.s 			page 47


 2623 0f13 20       		.uleb128 0x20
 2624 0f14 01       		.uleb128 0x1
 2625 0f15 51       		.byte	0x51
 2626 0f16 03       		.uleb128 0x3
 2627 0f17 F3       		.byte	0xf3
 2628 0f18 01       		.uleb128 0x1
 2629 0f19 51       		.byte	0x51
 2630 0f1a 00       		.byte	0
 2631 0f1b 00       		.byte	0
 2632 0f1c 27       		.uleb128 0x27
 2633 0f1d 5A040000 		.4byte	.LASF148
 2634 0f21 01       		.byte	0x1
 2635 0f22 4D       		.byte	0x4d
 2636 0f23 0E       		.byte	0xe
 2637 0f24 22010000 		.4byte	0x122
 2638 0f28 00000000 		.4byte	.LFB11
 2639 0f2c 0C000000 		.4byte	.LFE11-.LFB11
 2640 0f30 01       		.uleb128 0x1
 2641 0f31 9C       		.byte	0x9c
 2642 0f32 940F0000 		.4byte	0xf94
 2643 0f36 1D       		.uleb128 0x1d
 2644 0f37 697000   		.ascii	"ip\000"
 2645 0f3a 01       		.byte	0x1
 2646 0f3b 4D       		.byte	0x4d
 2647 0f3c 19       		.byte	0x19
 2648 0f3d 7E020000 		.4byte	0x27e
 2649 0f41 82030000 		.4byte	.LLST17
 2650 0f45 7C030000 		.4byte	.LVUS17
 2651 0f49 1D       		.uleb128 0x1d
 2652 0f4a 6200     		.ascii	"b\000"
 2653 0f4c 01       		.byte	0x1
 2654 0f4d 4D       		.byte	0x4d
 2655 0f4e 25       		.byte	0x25
 2656 0f4f 99000000 		.4byte	0x99
 2657 0f53 B4030000 		.4byte	.LLST18
 2658 0f57 B0030000 		.4byte	.LVUS18
 2659 0f5b 25       		.uleb128 0x25
 2660 0f5c 97030000 		.4byte	.LASF160
 2661 0f60 01       		.byte	0x1
 2662 0f61 4D       		.byte	0x4d
 2663 0f62 32       		.byte	0x32
 2664 0f63 46010000 		.4byte	0x146
 2665 0f67 D9030000 		.4byte	.LLST19
 2666 0f6b D5030000 		.4byte	.LVUS19
 2667 0f6f 28       		.uleb128 0x28
 2668 0f70 0C000000 		.4byte	.LVL20
 2669 0f74 E3110000 		.4byte	0x11e3
 2670 0f78 20       		.uleb128 0x20
 2671 0f79 01       		.uleb128 0x1
 2672 0f7a 50       		.byte	0x50
 2673 0f7b 05       		.uleb128 0x5
 2674 0f7c F3       		.byte	0xf3
 2675 0f7d 01       		.uleb128 0x1
 2676 0f7e 50       		.byte	0x50
 2677 0f7f 23       		.byte	0x23
 2678 0f80 30       		.uleb128 0x30
 2679 0f81 20       		.uleb128 0x20
ARM GAS  /var/folders/l5/0x54b2c10074c8bt31ycjvl80000gp/T//ccp7rYYt.s 			page 48


 2680 0f82 01       		.uleb128 0x1
 2681 0f83 51       		.byte	0x51
 2682 0f84 06       		.uleb128 0x6
 2683 0f85 F3       		.byte	0xf3
 2684 0f86 01       		.uleb128 0x1
 2685 0f87 51       		.byte	0x51
 2686 0f88 08       		.byte	0x8
 2687 0f89 FF       		.byte	0xff
 2688 0f8a 1A       		.byte	0x1a
 2689 0f8b 20       		.uleb128 0x20
 2690 0f8c 01       		.uleb128 0x1
 2691 0f8d 52       		.byte	0x52
 2692 0f8e 03       		.uleb128 0x3
 2693 0f8f F3       		.byte	0xf3
 2694 0f90 01       		.uleb128 0x1
 2695 0f91 52       		.byte	0x52
 2696 0f92 00       		.byte	0
 2697 0f93 00       		.byte	0
 2698 0f94 29       		.uleb128 0x29
 2699 0f95 67657400 		.ascii	"get\000"
 2700 0f99 01       		.byte	0x1
 2701 0f9a 48       		.byte	0x48
 2702 0f9b 0E       		.byte	0xe
 2703 0f9c 22010000 		.4byte	0x122
 2704 0fa0 00000000 		.4byte	.LFB10
 2705 0fa4 0C000000 		.4byte	.LFE10-.LFB10
 2706 0fa8 01       		.uleb128 0x1
 2707 0fa9 9C       		.byte	0x9c
 2708 0faa DB0F0000 		.4byte	0xfdb
 2709 0fae 1D       		.uleb128 0x1d
 2710 0faf 697000   		.ascii	"ip\000"
 2711 0fb2 01       		.byte	0x1
 2712 0fb3 48       		.byte	0x48
 2713 0fb4 18       		.byte	0x18
 2714 0fb5 7E020000 		.4byte	0x27e
 2715 0fb9 00040000 		.4byte	.LLST16
 2716 0fbd FA030000 		.4byte	.LVUS16
 2717 0fc1 28       		.uleb128 0x28
 2718 0fc2 0C000000 		.4byte	.LVL17
 2719 0fc6 D6110000 		.4byte	0x11d6
 2720 0fca 20       		.uleb128 0x20
 2721 0fcb 01       		.uleb128 0x1
 2722 0fcc 50       		.byte	0x50
 2723 0fcd 05       		.uleb128 0x5
 2724 0fce F3       		.byte	0xf3
 2725 0fcf 01       		.uleb128 0x1
 2726 0fd0 50       		.byte	0x50
 2727 0fd1 23       		.byte	0x23
 2728 0fd2 0C       		.uleb128 0xc
 2729 0fd3 20       		.uleb128 0x20
 2730 0fd4 01       		.uleb128 0x1
 2731 0fd5 51       		.byte	0x51
 2732 0fd6 02       		.uleb128 0x2
 2733 0fd7 09       		.byte	0x9
 2734 0fd8 FF       		.byte	0xff
 2735 0fd9 00       		.byte	0
 2736 0fda 00       		.byte	0
ARM GAS  /var/folders/l5/0x54b2c10074c8bt31ycjvl80000gp/T//ccp7rYYt.s 			page 49


 2737 0fdb 29       		.uleb128 0x29
 2738 0fdc 70757400 		.ascii	"put\000"
 2739 0fe0 01       		.byte	0x1
 2740 0fe1 43       		.byte	0x43
 2741 0fe2 0E       		.byte	0xe
 2742 0fe3 22010000 		.4byte	0x122
 2743 0fe7 00000000 		.4byte	.LFB9
 2744 0feb 10000000 		.4byte	.LFE9-.LFB9
 2745 0fef 01       		.uleb128 0x1
 2746 0ff0 9C       		.byte	0x9c
 2747 0ff1 3E100000 		.4byte	0x103e
 2748 0ff5 1D       		.uleb128 0x1d
 2749 0ff6 697000   		.ascii	"ip\000"
 2750 0ff9 01       		.byte	0x1
 2751 0ffa 43       		.byte	0x43
 2752 0ffb 18       		.byte	0x18
 2753 0ffc 7E020000 		.4byte	0x27e
 2754 1000 34040000 		.4byte	.LLST20
 2755 1004 2E040000 		.4byte	.LVUS20
 2756 1008 1D       		.uleb128 0x1d
 2757 1009 6200     		.ascii	"b\000"
 2758 100b 01       		.byte	0x1
 2759 100c 43       		.byte	0x43
 2760 100d 24       		.byte	0x24
 2761 100e 99000000 		.4byte	0x99
 2762 1012 66040000 		.4byte	.LLST21
 2763 1016 62040000 		.4byte	.LVUS21
 2764 101a 28       		.uleb128 0x28
 2765 101b 10000000 		.4byte	.LVL23
 2766 101f E3110000 		.4byte	0x11e3
 2767 1023 20       		.uleb128 0x20
 2768 1024 01       		.uleb128 0x1
 2769 1025 50       		.byte	0x50
 2770 1026 05       		.uleb128 0x5
 2771 1027 F3       		.byte	0xf3
 2772 1028 01       		.uleb128 0x1
 2773 1029 50       		.byte	0x50
 2774 102a 23       		.byte	0x23
 2775 102b 30       		.uleb128 0x30
 2776 102c 20       		.uleb128 0x20
 2777 102d 01       		.uleb128 0x1
 2778 102e 51       		.byte	0x51
 2779 102f 06       		.uleb128 0x6
 2780 1030 F3       		.byte	0xf3
 2781 1031 01       		.uleb128 0x1
 2782 1032 51       		.byte	0x51
 2783 1033 08       		.byte	0x8
 2784 1034 FF       		.byte	0xff
 2785 1035 1A       		.byte	0x1a
 2786 1036 20       		.uleb128 0x20
 2787 1037 01       		.uleb128 0x1
 2788 1038 52       		.byte	0x52
 2789 1039 02       		.uleb128 0x2
 2790 103a 09       		.byte	0x9
 2791 103b FF       		.byte	0xff
 2792 103c 00       		.byte	0
 2793 103d 00       		.byte	0
ARM GAS  /var/folders/l5/0x54b2c10074c8bt31ycjvl80000gp/T//ccp7rYYt.s 			page 50


 2794 103e 27       		.uleb128 0x27
 2795 103f 33060000 		.4byte	.LASF147
 2796 1043 01       		.byte	0x1
 2797 1044 3D       		.byte	0x3d
 2798 1045 0F       		.byte	0xf
 2799 1046 2C000000 		.4byte	0x2c
 2800 104a 00000000 		.4byte	.LFB8
 2801 104e 0C000000 		.4byte	.LFE8-.LFB8
 2802 1052 01       		.uleb128 0x1
 2803 1053 9C       		.byte	0x9c
 2804 1054 B8100000 		.4byte	0x10b8
 2805 1058 1D       		.uleb128 0x1d
 2806 1059 697000   		.ascii	"ip\000"
 2807 105c 01       		.byte	0x1
 2808 105d 3D       		.byte	0x3d
 2809 105e 1A       		.byte	0x1a
 2810 105f 7E020000 		.4byte	0x27e
 2811 1063 8D040000 		.4byte	.LLST4
 2812 1067 87040000 		.4byte	.LVUS4
 2813 106b 1D       		.uleb128 0x1d
 2814 106c 627000   		.ascii	"bp\000"
 2815 106f 01       		.byte	0x1
 2816 1070 3D       		.byte	0x3d
 2817 1071 27       		.byte	0x27
 2818 1072 03060000 		.4byte	0x603
 2819 1076 BF040000 		.4byte	.LLST5
 2820 107a BB040000 		.4byte	.LVUS5
 2821 107e 1D       		.uleb128 0x1d
 2822 107f 6E00     		.ascii	"n\000"
 2823 1081 01       		.byte	0x1
 2824 1082 3D       		.byte	0x3d
 2825 1083 32       		.byte	0x32
 2826 1084 2C000000 		.4byte	0x2c
 2827 1088 E4040000 		.4byte	.LLST6
 2828 108c E0040000 		.4byte	.LVUS6
 2829 1090 28       		.uleb128 0x28
 2830 1091 0C000000 		.4byte	.LVL5
 2831 1095 BC110000 		.4byte	0x11bc
 2832 1099 20       		.uleb128 0x20
 2833 109a 01       		.uleb128 0x1
 2834 109b 50       		.byte	0x50
 2835 109c 05       		.uleb128 0x5
 2836 109d F3       		.byte	0xf3
 2837 109e 01       		.uleb128 0x1
 2838 109f 50       		.byte	0x50
 2839 10a0 23       		.byte	0x23
 2840 10a1 0C       		.uleb128 0xc
 2841 10a2 20       		.uleb128 0x20
 2842 10a3 01       		.uleb128 0x1
 2843 10a4 51       		.byte	0x51
 2844 10a5 03       		.uleb128 0x3
 2845 10a6 F3       		.byte	0xf3
 2846 10a7 01       		.uleb128 0x1
 2847 10a8 51       		.byte	0x51
 2848 10a9 20       		.uleb128 0x20
 2849 10aa 01       		.uleb128 0x1
 2850 10ab 52       		.byte	0x52
ARM GAS  /var/folders/l5/0x54b2c10074c8bt31ycjvl80000gp/T//ccp7rYYt.s 			page 51


 2851 10ac 03       		.uleb128 0x3
 2852 10ad F3       		.byte	0xf3
 2853 10ae 01       		.uleb128 0x1
 2854 10af 52       		.byte	0x52
 2855 10b0 20       		.uleb128 0x20
 2856 10b1 01       		.uleb128 0x1
 2857 10b2 53       		.byte	0x53
 2858 10b3 02       		.uleb128 0x2
 2859 10b4 09       		.byte	0x9
 2860 10b5 FF       		.byte	0xff
 2861 10b6 00       		.byte	0
 2862 10b7 00       		.byte	0
 2863 10b8 27       		.uleb128 0x27
 2864 10b9 4E040000 		.4byte	.LASF146
 2865 10bd 01       		.byte	0x1
 2866 10be 37       		.byte	0x37
 2867 10bf 0F       		.byte	0xf
 2868 10c0 2C000000 		.4byte	0x2c
 2869 10c4 00000000 		.4byte	.LFB7
 2870 10c8 0C000000 		.4byte	.LFE7-.LFB7
 2871 10cc 01       		.uleb128 0x1
 2872 10cd 9C       		.byte	0x9c
 2873 10ce 32110000 		.4byte	0x1132
 2874 10d2 1D       		.uleb128 0x1d
 2875 10d3 697000   		.ascii	"ip\000"
 2876 10d6 01       		.byte	0x1
 2877 10d7 37       		.byte	0x37
 2878 10d8 1B       		.byte	0x1b
 2879 10d9 7E020000 		.4byte	0x27e
 2880 10dd 0B050000 		.4byte	.LLST11
 2881 10e1 05050000 		.4byte	.LVUS11
 2882 10e5 1D       		.uleb128 0x1d
 2883 10e6 627000   		.ascii	"bp\000"
 2884 10e9 01       		.byte	0x1
 2885 10ea 37       		.byte	0x37
 2886 10eb 2E       		.byte	0x2e
 2887 10ec 3A060000 		.4byte	0x63a
 2888 10f0 3D050000 		.4byte	.LLST12
 2889 10f4 39050000 		.4byte	.LVUS12
 2890 10f8 1D       		.uleb128 0x1d
 2891 10f9 6E00     		.ascii	"n\000"
 2892 10fb 01       		.byte	0x1
 2893 10fc 37       		.byte	0x37
 2894 10fd 39       		.byte	0x39
 2895 10fe 2C000000 		.4byte	0x2c
 2896 1102 62050000 		.4byte	.LLST13
 2897 1106 5E050000 		.4byte	.LVUS13
 2898 110a 28       		.uleb128 0x28
 2899 110b 0C000000 		.4byte	.LVL11
 2900 110f C9110000 		.4byte	0x11c9
 2901 1113 20       		.uleb128 0x20
 2902 1114 01       		.uleb128 0x1
 2903 1115 50       		.byte	0x50
 2904 1116 05       		.uleb128 0x5
 2905 1117 F3       		.byte	0xf3
 2906 1118 01       		.uleb128 0x1
 2907 1119 50       		.byte	0x50
ARM GAS  /var/folders/l5/0x54b2c10074c8bt31ycjvl80000gp/T//ccp7rYYt.s 			page 52


 2908 111a 23       		.byte	0x23
 2909 111b 30       		.uleb128 0x30
 2910 111c 20       		.uleb128 0x20
 2911 111d 01       		.uleb128 0x1
 2912 111e 51       		.byte	0x51
 2913 111f 03       		.uleb128 0x3
 2914 1120 F3       		.byte	0xf3
 2915 1121 01       		.uleb128 0x1
 2916 1122 51       		.byte	0x51
 2917 1123 20       		.uleb128 0x20
 2918 1124 01       		.uleb128 0x1
 2919 1125 52       		.byte	0x52
 2920 1126 03       		.uleb128 0x3
 2921 1127 F3       		.byte	0xf3
 2922 1128 01       		.uleb128 0x1
 2923 1129 52       		.byte	0x52
 2924 112a 20       		.uleb128 0x20
 2925 112b 01       		.uleb128 0x1
 2926 112c 53       		.byte	0x53
 2927 112d 02       		.uleb128 0x2
 2928 112e 09       		.byte	0x9
 2929 112f FF       		.byte	0xff
 2930 1130 00       		.byte	0
 2931 1131 00       		.byte	0
 2932 1132 2A       		.uleb128 0x2a
 2933 1133 7A010000 		.4byte	.LASF161
 2934 1137 7A010000 		.4byte	.LASF161
 2935 113b 0D       		.byte	0xd
 2936 113c 6701     		.2byte	0x167
 2937 113e 09       		.byte	0x9
 2938 113f 2B       		.uleb128 0x2b
 2939 1140 A6010000 		.4byte	.LASF162
 2940 1144 A6010000 		.4byte	.LASF162
 2941 1148 0C       		.byte	0xc
 2942 1149 B3       		.byte	0xb3
 2943 114a 08       		.byte	0x8
 2944 114b 2A       		.uleb128 0x2a
 2945 114c E4010000 		.4byte	.LASF163
 2946 1150 E4010000 		.4byte	.LASF163
 2947 1154 0D       		.byte	0xd
 2948 1155 5E01     		.2byte	0x15e
 2949 1157 09       		.byte	0x9
 2950 1158 2B       		.uleb128 0x2b
 2951 1159 8D070000 		.4byte	.LASF164
 2952 115d 8D070000 		.4byte	.LASF164
 2953 1161 14       		.byte	0x14
 2954 1162 69       		.byte	0x69
 2955 1163 08       		.byte	0x8
 2956 1164 2A       		.uleb128 0x2a
 2957 1165 AE060000 		.4byte	.LASF165
 2958 1169 AE060000 		.4byte	.LASF165
 2959 116d 0D       		.byte	0xd
 2960 116e 6501     		.2byte	0x165
 2961 1170 08       		.byte	0x8
 2962 1171 2A       		.uleb128 0x2a
 2963 1172 64030000 		.4byte	.LASF166
 2964 1176 64030000 		.4byte	.LASF166
ARM GAS  /var/folders/l5/0x54b2c10074c8bt31ycjvl80000gp/T//ccp7rYYt.s 			page 53


 2965 117a 0D       		.byte	0xd
 2966 117b 5D01     		.2byte	0x15d
 2967 117d 08       		.byte	0x8
 2968 117e 2B       		.uleb128 0x2b
 2969 117f F8010000 		.4byte	.LASF167
 2970 1183 F8010000 		.4byte	.LASF167
 2971 1187 0A       		.byte	0xa
 2972 1188 95       		.byte	0x95
 2973 1189 08       		.byte	0x8
 2974 118a 2B       		.uleb128 0x2b
 2975 118b 50050000 		.4byte	.LASF168
 2976 118f 50050000 		.4byte	.LASF168
 2977 1193 14       		.byte	0x14
 2978 1194 68       		.byte	0x68
 2979 1195 08       		.byte	0x8
 2980 1196 2A       		.uleb128 0x2a
 2981 1197 21000000 		.4byte	.LASF169
 2982 119b 21000000 		.4byte	.LASF169
 2983 119f 0D       		.byte	0xd
 2984 11a0 5B01     		.2byte	0x15b
 2985 11a2 08       		.byte	0x8
 2986 11a3 2A       		.uleb128 0x2a
 2987 11a4 00000000 		.4byte	.LASF170
 2988 11a8 00000000 		.4byte	.LASF170
 2989 11ac 0D       		.byte	0xd
 2990 11ad 6301     		.2byte	0x163
 2991 11af 08       		.byte	0x8
 2992 11b0 2B       		.uleb128 0x2b
 2993 11b1 69000000 		.4byte	.LASF171
 2994 11b5 69000000 		.4byte	.LASF171
 2995 11b9 14       		.byte	0x14
 2996 11ba 67       		.byte	0x67
 2997 11bb 08       		.byte	0x8
 2998 11bc 2A       		.uleb128 0x2a
 2999 11bd 40000000 		.4byte	.LASF172
 3000 11c1 40000000 		.4byte	.LASF172
 3001 11c5 0D       		.byte	0xd
 3002 11c6 6001     		.2byte	0x160
 3003 11c8 0A       		.byte	0xa
 3004 11c9 2A       		.uleb128 0x2a
 3005 11ca 3D040000 		.4byte	.LASF173
 3006 11ce 3D040000 		.4byte	.LASF173
 3007 11d2 0D       		.byte	0xd
 3008 11d3 6801     		.2byte	0x168
 3009 11d5 0A       		.byte	0xa
 3010 11d6 2A       		.uleb128 0x2a
 3011 11d7 5E070000 		.4byte	.LASF174
 3012 11db 5E070000 		.4byte	.LASF174
 3013 11df 0D       		.byte	0xd
 3014 11e0 5F01     		.2byte	0x15f
 3015 11e2 09       		.byte	0x9
 3016 11e3 2A       		.uleb128 0x2a
 3017 11e4 2D020000 		.4byte	.LASF175
 3018 11e8 2D020000 		.4byte	.LASF175
 3019 11ec 0D       		.byte	0xd
 3020 11ed 6601     		.2byte	0x166
 3021 11ef 09       		.byte	0x9
ARM GAS  /var/folders/l5/0x54b2c10074c8bt31ycjvl80000gp/T//ccp7rYYt.s 			page 54


 3022 11f0 00       		.byte	0
 3023              		.section	.debug_abbrev,"",%progbits
 3024              	.Ldebug_abbrev0:
 3025 0000 01       		.uleb128 0x1
 3026 0001 11       		.uleb128 0x11
 3027 0002 01       		.byte	0x1
 3028 0003 25       		.uleb128 0x25
 3029 0004 0E       		.uleb128 0xe
 3030 0005 13       		.uleb128 0x13
 3031 0006 0B       		.uleb128 0xb
 3032 0007 03       		.uleb128 0x3
 3033 0008 0E       		.uleb128 0xe
 3034 0009 1B       		.uleb128 0x1b
 3035 000a 0E       		.uleb128 0xe
 3036 000b 55       		.uleb128 0x55
 3037 000c 17       		.uleb128 0x17
 3038 000d 11       		.uleb128 0x11
 3039 000e 01       		.uleb128 0x1
 3040 000f 10       		.uleb128 0x10
 3041 0010 17       		.uleb128 0x17
 3042 0011 00       		.byte	0
 3043 0012 00       		.byte	0
 3044 0013 02       		.uleb128 0x2
 3045 0014 24       		.uleb128 0x24
 3046 0015 00       		.byte	0
 3047 0016 0B       		.uleb128 0xb
 3048 0017 0B       		.uleb128 0xb
 3049 0018 3E       		.uleb128 0x3e
 3050 0019 0B       		.uleb128 0xb
 3051 001a 03       		.uleb128 0x3
 3052 001b 0E       		.uleb128 0xe
 3053 001c 00       		.byte	0
 3054 001d 00       		.byte	0
 3055 001e 03       		.uleb128 0x3
 3056 001f 16       		.uleb128 0x16
 3057 0020 00       		.byte	0
 3058 0021 03       		.uleb128 0x3
 3059 0022 0E       		.uleb128 0xe
 3060 0023 3A       		.uleb128 0x3a
 3061 0024 0B       		.uleb128 0xb
 3062 0025 3B       		.uleb128 0x3b
 3063 0026 0B       		.uleb128 0xb
 3064 0027 39       		.uleb128 0x39
 3065 0028 0B       		.uleb128 0xb
 3066 0029 49       		.uleb128 0x49
 3067 002a 13       		.uleb128 0x13
 3068 002b 00       		.byte	0
 3069 002c 00       		.byte	0
 3070 002d 04       		.uleb128 0x4
 3071 002e 26       		.uleb128 0x26
 3072 002f 00       		.byte	0
 3073 0030 49       		.uleb128 0x49
 3074 0031 13       		.uleb128 0x13
 3075 0032 00       		.byte	0
 3076 0033 00       		.byte	0
 3077 0034 05       		.uleb128 0x5
 3078 0035 35       		.uleb128 0x35
ARM GAS  /var/folders/l5/0x54b2c10074c8bt31ycjvl80000gp/T//ccp7rYYt.s 			page 55


 3079 0036 00       		.byte	0
 3080 0037 49       		.uleb128 0x49
 3081 0038 13       		.uleb128 0x13
 3082 0039 00       		.byte	0
 3083 003a 00       		.byte	0
 3084 003b 06       		.uleb128 0x6
 3085 003c 24       		.uleb128 0x24
 3086 003d 00       		.byte	0
 3087 003e 0B       		.uleb128 0xb
 3088 003f 0B       		.uleb128 0xb
 3089 0040 3E       		.uleb128 0x3e
 3090 0041 0B       		.uleb128 0xb
 3091 0042 03       		.uleb128 0x3
 3092 0043 08       		.uleb128 0x8
 3093 0044 00       		.byte	0
 3094 0045 00       		.byte	0
 3095 0046 07       		.uleb128 0x7
 3096 0047 13       		.uleb128 0x13
 3097 0048 01       		.byte	0x1
 3098 0049 03       		.uleb128 0x3
 3099 004a 0E       		.uleb128 0xe
 3100 004b 0B       		.uleb128 0xb
 3101 004c 0B       		.uleb128 0xb
 3102 004d 3A       		.uleb128 0x3a
 3103 004e 0B       		.uleb128 0xb
 3104 004f 3B       		.uleb128 0x3b
 3105 0050 0B       		.uleb128 0xb
 3106 0051 39       		.uleb128 0x39
 3107 0052 0B       		.uleb128 0xb
 3108 0053 01       		.uleb128 0x1
 3109 0054 13       		.uleb128 0x13
 3110 0055 00       		.byte	0
 3111 0056 00       		.byte	0
 3112 0057 08       		.uleb128 0x8
 3113 0058 0D       		.uleb128 0xd
 3114 0059 00       		.byte	0
 3115 005a 03       		.uleb128 0x3
 3116 005b 0E       		.uleb128 0xe
 3117 005c 3A       		.uleb128 0x3a
 3118 005d 0B       		.uleb128 0xb
 3119 005e 3B       		.uleb128 0x3b
 3120 005f 0B       		.uleb128 0xb
 3121 0060 39       		.uleb128 0x39
 3122 0061 0B       		.uleb128 0xb
 3123 0062 49       		.uleb128 0x49
 3124 0063 13       		.uleb128 0x13
 3125 0064 38       		.uleb128 0x38
 3126 0065 0B       		.uleb128 0xb
 3127 0066 00       		.byte	0
 3128 0067 00       		.byte	0
 3129 0068 09       		.uleb128 0x9
 3130 0069 0D       		.uleb128 0xd
 3131 006a 00       		.byte	0
 3132 006b 03       		.uleb128 0x3
 3133 006c 08       		.uleb128 0x8
 3134 006d 3A       		.uleb128 0x3a
 3135 006e 0B       		.uleb128 0xb
ARM GAS  /var/folders/l5/0x54b2c10074c8bt31ycjvl80000gp/T//ccp7rYYt.s 			page 56


 3136 006f 3B       		.uleb128 0x3b
 3137 0070 0B       		.uleb128 0xb
 3138 0071 39       		.uleb128 0x39
 3139 0072 0B       		.uleb128 0xb
 3140 0073 49       		.uleb128 0x49
 3141 0074 13       		.uleb128 0x13
 3142 0075 38       		.uleb128 0x38
 3143 0076 0B       		.uleb128 0xb
 3144 0077 00       		.byte	0
 3145 0078 00       		.byte	0
 3146 0079 0A       		.uleb128 0xa
 3147 007a 13       		.uleb128 0x13
 3148 007b 01       		.byte	0x1
 3149 007c 0B       		.uleb128 0xb
 3150 007d 0B       		.uleb128 0xb
 3151 007e 3A       		.uleb128 0x3a
 3152 007f 0B       		.uleb128 0xb
 3153 0080 3B       		.uleb128 0x3b
 3154 0081 0B       		.uleb128 0xb
 3155 0082 39       		.uleb128 0x39
 3156 0083 0B       		.uleb128 0xb
 3157 0084 01       		.uleb128 0x1
 3158 0085 13       		.uleb128 0x13
 3159 0086 00       		.byte	0
 3160 0087 00       		.byte	0
 3161 0088 0B       		.uleb128 0xb
 3162 0089 0F       		.uleb128 0xf
 3163 008a 00       		.byte	0
 3164 008b 0B       		.uleb128 0xb
 3165 008c 0B       		.uleb128 0xb
 3166 008d 49       		.uleb128 0x49
 3167 008e 13       		.uleb128 0x13
 3168 008f 00       		.byte	0
 3169 0090 00       		.byte	0
 3170 0091 0C       		.uleb128 0xc
 3171 0092 0F       		.uleb128 0xf
 3172 0093 00       		.byte	0
 3173 0094 0B       		.uleb128 0xb
 3174 0095 0B       		.uleb128 0xb
 3175 0096 00       		.byte	0
 3176 0097 00       		.byte	0
 3177 0098 0D       		.uleb128 0xd
 3178 0099 15       		.uleb128 0x15
 3179 009a 01       		.byte	0x1
 3180 009b 27       		.uleb128 0x27
 3181 009c 19       		.uleb128 0x19
 3182 009d 01       		.uleb128 0x1
 3183 009e 13       		.uleb128 0x13
 3184 009f 00       		.byte	0
 3185 00a0 00       		.byte	0
 3186 00a1 0E       		.uleb128 0xe
 3187 00a2 05       		.uleb128 0x5
 3188 00a3 00       		.byte	0
 3189 00a4 49       		.uleb128 0x49
 3190 00a5 13       		.uleb128 0x13
 3191 00a6 00       		.byte	0
 3192 00a7 00       		.byte	0
ARM GAS  /var/folders/l5/0x54b2c10074c8bt31ycjvl80000gp/T//ccp7rYYt.s 			page 57


 3193 00a8 0F       		.uleb128 0xf
 3194 00a9 34       		.uleb128 0x34
 3195 00aa 00       		.byte	0
 3196 00ab 03       		.uleb128 0x3
 3197 00ac 0E       		.uleb128 0xe
 3198 00ad 3A       		.uleb128 0x3a
 3199 00ae 0B       		.uleb128 0xb
 3200 00af 3B       		.uleb128 0x3b
 3201 00b0 0B       		.uleb128 0xb
 3202 00b1 39       		.uleb128 0x39
 3203 00b2 0B       		.uleb128 0xb
 3204 00b3 49       		.uleb128 0x49
 3205 00b4 13       		.uleb128 0x13
 3206 00b5 3F       		.uleb128 0x3f
 3207 00b6 19       		.uleb128 0x19
 3208 00b7 3C       		.uleb128 0x3c
 3209 00b8 19       		.uleb128 0x19
 3210 00b9 00       		.byte	0
 3211 00ba 00       		.byte	0
 3212 00bb 10       		.uleb128 0x10
 3213 00bc 17       		.uleb128 0x17
 3214 00bd 01       		.byte	0x1
 3215 00be 0B       		.uleb128 0xb
 3216 00bf 0B       		.uleb128 0xb
 3217 00c0 3A       		.uleb128 0x3a
 3218 00c1 0B       		.uleb128 0xb
 3219 00c2 3B       		.uleb128 0x3b
 3220 00c3 0B       		.uleb128 0xb
 3221 00c4 39       		.uleb128 0x39
 3222 00c5 0B       		.uleb128 0xb
 3223 00c6 01       		.uleb128 0x1
 3224 00c7 13       		.uleb128 0x13
 3225 00c8 00       		.byte	0
 3226 00c9 00       		.byte	0
 3227 00ca 11       		.uleb128 0x11
 3228 00cb 0D       		.uleb128 0xd
 3229 00cc 00       		.byte	0
 3230 00cd 03       		.uleb128 0x3
 3231 00ce 0E       		.uleb128 0xe
 3232 00cf 3A       		.uleb128 0x3a
 3233 00d0 0B       		.uleb128 0xb
 3234 00d1 3B       		.uleb128 0x3b
 3235 00d2 0B       		.uleb128 0xb
 3236 00d3 39       		.uleb128 0x39
 3237 00d4 0B       		.uleb128 0xb
 3238 00d5 49       		.uleb128 0x49
 3239 00d6 13       		.uleb128 0x13
 3240 00d7 00       		.byte	0
 3241 00d8 00       		.byte	0
 3242 00d9 12       		.uleb128 0x12
 3243 00da 15       		.uleb128 0x15
 3244 00db 01       		.byte	0x1
 3245 00dc 27       		.uleb128 0x27
 3246 00dd 19       		.uleb128 0x19
 3247 00de 49       		.uleb128 0x49
 3248 00df 13       		.uleb128 0x13
 3249 00e0 01       		.uleb128 0x1
ARM GAS  /var/folders/l5/0x54b2c10074c8bt31ycjvl80000gp/T//ccp7rYYt.s 			page 58


 3250 00e1 13       		.uleb128 0x13
 3251 00e2 00       		.byte	0
 3252 00e3 00       		.byte	0
 3253 00e4 13       		.uleb128 0x13
 3254 00e5 01       		.uleb128 0x1
 3255 00e6 01       		.byte	0x1
 3256 00e7 49       		.uleb128 0x49
 3257 00e8 13       		.uleb128 0x13
 3258 00e9 01       		.uleb128 0x1
 3259 00ea 13       		.uleb128 0x13
 3260 00eb 00       		.byte	0
 3261 00ec 00       		.byte	0
 3262 00ed 14       		.uleb128 0x14
 3263 00ee 21       		.uleb128 0x21
 3264 00ef 00       		.byte	0
 3265 00f0 49       		.uleb128 0x49
 3266 00f1 13       		.uleb128 0x13
 3267 00f2 2F       		.uleb128 0x2f
 3268 00f3 0B       		.uleb128 0xb
 3269 00f4 00       		.byte	0
 3270 00f5 00       		.byte	0
 3271 00f6 15       		.uleb128 0x15
 3272 00f7 0D       		.uleb128 0xd
 3273 00f8 00       		.byte	0
 3274 00f9 03       		.uleb128 0x3
 3275 00fa 0E       		.uleb128 0xe
 3276 00fb 3A       		.uleb128 0x3a
 3277 00fc 0B       		.uleb128 0xb
 3278 00fd 3B       		.uleb128 0x3b
 3279 00fe 05       		.uleb128 0x5
 3280 00ff 39       		.uleb128 0x39
 3281 0100 0B       		.uleb128 0xb
 3282 0101 49       		.uleb128 0x49
 3283 0102 13       		.uleb128 0x13
 3284 0103 38       		.uleb128 0x38
 3285 0104 0B       		.uleb128 0xb
 3286 0105 00       		.byte	0
 3287 0106 00       		.byte	0
 3288 0107 16       		.uleb128 0x16
 3289 0108 16       		.uleb128 0x16
 3290 0109 00       		.byte	0
 3291 010a 03       		.uleb128 0x3
 3292 010b 0E       		.uleb128 0xe
 3293 010c 3A       		.uleb128 0x3a
 3294 010d 0B       		.uleb128 0xb
 3295 010e 3B       		.uleb128 0x3b
 3296 010f 05       		.uleb128 0x5
 3297 0110 39       		.uleb128 0x39
 3298 0111 0B       		.uleb128 0xb
 3299 0112 49       		.uleb128 0x49
 3300 0113 13       		.uleb128 0x13
 3301 0114 00       		.byte	0
 3302 0115 00       		.byte	0
 3303 0116 17       		.uleb128 0x17
 3304 0117 13       		.uleb128 0x13
 3305 0118 00       		.byte	0
 3306 0119 0B       		.uleb128 0xb
ARM GAS  /var/folders/l5/0x54b2c10074c8bt31ycjvl80000gp/T//ccp7rYYt.s 			page 59


 3307 011a 0B       		.uleb128 0xb
 3308 011b 3A       		.uleb128 0x3a
 3309 011c 0B       		.uleb128 0xb
 3310 011d 3B       		.uleb128 0x3b
 3311 011e 0B       		.uleb128 0xb
 3312 011f 39       		.uleb128 0x39
 3313 0120 0B       		.uleb128 0xb
 3314 0121 00       		.byte	0
 3315 0122 00       		.byte	0
 3316 0123 18       		.uleb128 0x18
 3317 0124 04       		.uleb128 0x4
 3318 0125 01       		.byte	0x1
 3319 0126 3E       		.uleb128 0x3e
 3320 0127 0B       		.uleb128 0xb
 3321 0128 0B       		.uleb128 0xb
 3322 0129 0B       		.uleb128 0xb
 3323 012a 49       		.uleb128 0x49
 3324 012b 13       		.uleb128 0x13
 3325 012c 3A       		.uleb128 0x3a
 3326 012d 0B       		.uleb128 0xb
 3327 012e 3B       		.uleb128 0x3b
 3328 012f 0B       		.uleb128 0xb
 3329 0130 39       		.uleb128 0x39
 3330 0131 0B       		.uleb128 0xb
 3331 0132 01       		.uleb128 0x1
 3332 0133 13       		.uleb128 0x13
 3333 0134 00       		.byte	0
 3334 0135 00       		.byte	0
 3335 0136 19       		.uleb128 0x19
 3336 0137 28       		.uleb128 0x28
 3337 0138 00       		.byte	0
 3338 0139 03       		.uleb128 0x3
 3339 013a 0E       		.uleb128 0xe
 3340 013b 1C       		.uleb128 0x1c
 3341 013c 0B       		.uleb128 0xb
 3342 013d 00       		.byte	0
 3343 013e 00       		.byte	0
 3344 013f 1A       		.uleb128 0x1a
 3345 0140 34       		.uleb128 0x34
 3346 0141 00       		.byte	0
 3347 0142 03       		.uleb128 0x3
 3348 0143 08       		.uleb128 0x8
 3349 0144 3A       		.uleb128 0x3a
 3350 0145 0B       		.uleb128 0xb
 3351 0146 3B       		.uleb128 0x3b
 3352 0147 0B       		.uleb128 0xb
 3353 0148 39       		.uleb128 0x39
 3354 0149 0B       		.uleb128 0xb
 3355 014a 49       		.uleb128 0x49
 3356 014b 13       		.uleb128 0x13
 3357 014c 3F       		.uleb128 0x3f
 3358 014d 19       		.uleb128 0x19
 3359 014e 3C       		.uleb128 0x3c
 3360 014f 19       		.uleb128 0x19
 3361 0150 00       		.byte	0
 3362 0151 00       		.byte	0
 3363 0152 1B       		.uleb128 0x1b
ARM GAS  /var/folders/l5/0x54b2c10074c8bt31ycjvl80000gp/T//ccp7rYYt.s 			page 60


 3364 0153 34       		.uleb128 0x34
 3365 0154 00       		.byte	0
 3366 0155 03       		.uleb128 0x3
 3367 0156 08       		.uleb128 0x8
 3368 0157 3A       		.uleb128 0x3a
 3369 0158 0B       		.uleb128 0xb
 3370 0159 3B       		.uleb128 0x3b
 3371 015a 0B       		.uleb128 0xb
 3372 015b 39       		.uleb128 0x39
 3373 015c 0B       		.uleb128 0xb
 3374 015d 49       		.uleb128 0x49
 3375 015e 13       		.uleb128 0x13
 3376 015f 02       		.uleb128 0x2
 3377 0160 18       		.uleb128 0x18
 3378 0161 00       		.byte	0
 3379 0162 00       		.byte	0
 3380 0163 1C       		.uleb128 0x1c
 3381 0164 2E       		.uleb128 0x2e
 3382 0165 01       		.byte	0x1
 3383 0166 3F       		.uleb128 0x3f
 3384 0167 19       		.uleb128 0x19
 3385 0168 03       		.uleb128 0x3
 3386 0169 0E       		.uleb128 0xe
 3387 016a 3A       		.uleb128 0x3a
 3388 016b 0B       		.uleb128 0xb
 3389 016c 3B       		.uleb128 0x3b
 3390 016d 0B       		.uleb128 0xb
 3391 016e 39       		.uleb128 0x39
 3392 016f 0B       		.uleb128 0xb
 3393 0170 27       		.uleb128 0x27
 3394 0171 19       		.uleb128 0x19
 3395 0172 49       		.uleb128 0x49
 3396 0173 13       		.uleb128 0x13
 3397 0174 11       		.uleb128 0x11
 3398 0175 01       		.uleb128 0x1
 3399 0176 12       		.uleb128 0x12
 3400 0177 06       		.uleb128 0x6
 3401 0178 40       		.uleb128 0x40
 3402 0179 18       		.uleb128 0x18
 3403 017a 9742     		.uleb128 0x2117
 3404 017c 19       		.uleb128 0x19
 3405 017d 01       		.uleb128 0x1
 3406 017e 13       		.uleb128 0x13
 3407 017f 00       		.byte	0
 3408 0180 00       		.byte	0
 3409 0181 1D       		.uleb128 0x1d
 3410 0182 05       		.uleb128 0x5
 3411 0183 00       		.byte	0
 3412 0184 03       		.uleb128 0x3
 3413 0185 08       		.uleb128 0x8
 3414 0186 3A       		.uleb128 0x3a
 3415 0187 0B       		.uleb128 0xb
 3416 0188 3B       		.uleb128 0x3b
 3417 0189 0B       		.uleb128 0xb
 3418 018a 39       		.uleb128 0x39
 3419 018b 0B       		.uleb128 0xb
 3420 018c 49       		.uleb128 0x49
ARM GAS  /var/folders/l5/0x54b2c10074c8bt31ycjvl80000gp/T//ccp7rYYt.s 			page 61


 3421 018d 13       		.uleb128 0x13
 3422 018e 02       		.uleb128 0x2
 3423 018f 17       		.uleb128 0x17
 3424 0190 B742     		.uleb128 0x2137
 3425 0192 17       		.uleb128 0x17
 3426 0193 00       		.byte	0
 3427 0194 00       		.byte	0
 3428 0195 1E       		.uleb128 0x1e
 3429 0196 34       		.uleb128 0x34
 3430 0197 00       		.byte	0
 3431 0198 03       		.uleb128 0x3
 3432 0199 08       		.uleb128 0x8
 3433 019a 3A       		.uleb128 0x3a
 3434 019b 0B       		.uleb128 0xb
 3435 019c 3B       		.uleb128 0x3b
 3436 019d 0B       		.uleb128 0xb
 3437 019e 39       		.uleb128 0x39
 3438 019f 0B       		.uleb128 0xb
 3439 01a0 49       		.uleb128 0x49
 3440 01a1 13       		.uleb128 0x13
 3441 01a2 02       		.uleb128 0x2
 3442 01a3 17       		.uleb128 0x17
 3443 01a4 B742     		.uleb128 0x2137
 3444 01a6 17       		.uleb128 0x17
 3445 01a7 00       		.byte	0
 3446 01a8 00       		.byte	0
 3447 01a9 1F       		.uleb128 0x1f
 3448 01aa 898201   		.uleb128 0x4109
 3449 01ad 01       		.byte	0x1
 3450 01ae 11       		.uleb128 0x11
 3451 01af 01       		.uleb128 0x1
 3452 01b0 31       		.uleb128 0x31
 3453 01b1 13       		.uleb128 0x13
 3454 01b2 01       		.uleb128 0x1
 3455 01b3 13       		.uleb128 0x13
 3456 01b4 00       		.byte	0
 3457 01b5 00       		.byte	0
 3458 01b6 20       		.uleb128 0x20
 3459 01b7 8A8201   		.uleb128 0x410a
 3460 01ba 00       		.byte	0
 3461 01bb 02       		.uleb128 0x2
 3462 01bc 18       		.uleb128 0x18
 3463 01bd 9142     		.uleb128 0x2111
 3464 01bf 18       		.uleb128 0x18
 3465 01c0 00       		.byte	0
 3466 01c1 00       		.byte	0
 3467 01c2 21       		.uleb128 0x21
 3468 01c3 898201   		.uleb128 0x4109
 3469 01c6 01       		.byte	0x1
 3470 01c7 11       		.uleb128 0x11
 3471 01c8 01       		.uleb128 0x1
 3472 01c9 31       		.uleb128 0x31
 3473 01ca 13       		.uleb128 0x13
 3474 01cb 00       		.byte	0
 3475 01cc 00       		.byte	0
 3476 01cd 22       		.uleb128 0x22
 3477 01ce 2E       		.uleb128 0x2e
ARM GAS  /var/folders/l5/0x54b2c10074c8bt31ycjvl80000gp/T//ccp7rYYt.s 			page 62


 3478 01cf 01       		.byte	0x1
 3479 01d0 3F       		.uleb128 0x3f
 3480 01d1 19       		.uleb128 0x19
 3481 01d2 03       		.uleb128 0x3
 3482 01d3 0E       		.uleb128 0xe
 3483 01d4 3A       		.uleb128 0x3a
 3484 01d5 0B       		.uleb128 0xb
 3485 01d6 3B       		.uleb128 0x3b
 3486 01d7 0B       		.uleb128 0xb
 3487 01d8 39       		.uleb128 0x39
 3488 01d9 0B       		.uleb128 0xb
 3489 01da 27       		.uleb128 0x27
 3490 01db 19       		.uleb128 0x19
 3491 01dc 11       		.uleb128 0x11
 3492 01dd 01       		.uleb128 0x1
 3493 01de 12       		.uleb128 0x12
 3494 01df 06       		.uleb128 0x6
 3495 01e0 40       		.uleb128 0x40
 3496 01e1 18       		.uleb128 0x18
 3497 01e2 9742     		.uleb128 0x2117
 3498 01e4 19       		.uleb128 0x19
 3499 01e5 01       		.uleb128 0x1
 3500 01e6 13       		.uleb128 0x13
 3501 01e7 00       		.byte	0
 3502 01e8 00       		.byte	0
 3503 01e9 23       		.uleb128 0x23
 3504 01ea 898201   		.uleb128 0x4109
 3505 01ed 01       		.byte	0x1
 3506 01ee 11       		.uleb128 0x11
 3507 01ef 01       		.uleb128 0x1
 3508 01f0 9542     		.uleb128 0x2115
 3509 01f2 19       		.uleb128 0x19
 3510 01f3 31       		.uleb128 0x31
 3511 01f4 13       		.uleb128 0x13
 3512 01f5 01       		.uleb128 0x1
 3513 01f6 13       		.uleb128 0x13
 3514 01f7 00       		.byte	0
 3515 01f8 00       		.byte	0
 3516 01f9 24       		.uleb128 0x24
 3517 01fa 898201   		.uleb128 0x4109
 3518 01fd 00       		.byte	0
 3519 01fe 11       		.uleb128 0x11
 3520 01ff 01       		.uleb128 0x1
 3521 0200 31       		.uleb128 0x31
 3522 0201 13       		.uleb128 0x13
 3523 0202 00       		.byte	0
 3524 0203 00       		.byte	0
 3525 0204 25       		.uleb128 0x25
 3526 0205 05       		.uleb128 0x5
 3527 0206 00       		.byte	0
 3528 0207 03       		.uleb128 0x3
 3529 0208 0E       		.uleb128 0xe
 3530 0209 3A       		.uleb128 0x3a
 3531 020a 0B       		.uleb128 0xb
 3532 020b 3B       		.uleb128 0x3b
 3533 020c 0B       		.uleb128 0xb
 3534 020d 39       		.uleb128 0x39
ARM GAS  /var/folders/l5/0x54b2c10074c8bt31ycjvl80000gp/T//ccp7rYYt.s 			page 63


 3535 020e 0B       		.uleb128 0xb
 3536 020f 49       		.uleb128 0x49
 3537 0210 13       		.uleb128 0x13
 3538 0211 02       		.uleb128 0x2
 3539 0212 17       		.uleb128 0x17
 3540 0213 B742     		.uleb128 0x2137
 3541 0215 17       		.uleb128 0x17
 3542 0216 00       		.byte	0
 3543 0217 00       		.byte	0
 3544 0218 26       		.uleb128 0x26
 3545 0219 898201   		.uleb128 0x4109
 3546 021c 00       		.byte	0
 3547 021d 11       		.uleb128 0x11
 3548 021e 01       		.uleb128 0x1
 3549 021f 9542     		.uleb128 0x2115
 3550 0221 19       		.uleb128 0x19
 3551 0222 31       		.uleb128 0x31
 3552 0223 13       		.uleb128 0x13
 3553 0224 00       		.byte	0
 3554 0225 00       		.byte	0
 3555 0226 27       		.uleb128 0x27
 3556 0227 2E       		.uleb128 0x2e
 3557 0228 01       		.byte	0x1
 3558 0229 03       		.uleb128 0x3
 3559 022a 0E       		.uleb128 0xe
 3560 022b 3A       		.uleb128 0x3a
 3561 022c 0B       		.uleb128 0xb
 3562 022d 3B       		.uleb128 0x3b
 3563 022e 0B       		.uleb128 0xb
 3564 022f 39       		.uleb128 0x39
 3565 0230 0B       		.uleb128 0xb
 3566 0231 27       		.uleb128 0x27
 3567 0232 19       		.uleb128 0x19
 3568 0233 49       		.uleb128 0x49
 3569 0234 13       		.uleb128 0x13
 3570 0235 11       		.uleb128 0x11
 3571 0236 01       		.uleb128 0x1
 3572 0237 12       		.uleb128 0x12
 3573 0238 06       		.uleb128 0x6
 3574 0239 40       		.uleb128 0x40
 3575 023a 18       		.uleb128 0x18
 3576 023b 9742     		.uleb128 0x2117
 3577 023d 19       		.uleb128 0x19
 3578 023e 01       		.uleb128 0x1
 3579 023f 13       		.uleb128 0x13
 3580 0240 00       		.byte	0
 3581 0241 00       		.byte	0
 3582 0242 28       		.uleb128 0x28
 3583 0243 898201   		.uleb128 0x4109
 3584 0246 01       		.byte	0x1
 3585 0247 11       		.uleb128 0x11
 3586 0248 01       		.uleb128 0x1
 3587 0249 9542     		.uleb128 0x2115
 3588 024b 19       		.uleb128 0x19
 3589 024c 31       		.uleb128 0x31
 3590 024d 13       		.uleb128 0x13
 3591 024e 00       		.byte	0
ARM GAS  /var/folders/l5/0x54b2c10074c8bt31ycjvl80000gp/T//ccp7rYYt.s 			page 64


 3592 024f 00       		.byte	0
 3593 0250 29       		.uleb128 0x29
 3594 0251 2E       		.uleb128 0x2e
 3595 0252 01       		.byte	0x1
 3596 0253 03       		.uleb128 0x3
 3597 0254 08       		.uleb128 0x8
 3598 0255 3A       		.uleb128 0x3a
 3599 0256 0B       		.uleb128 0xb
 3600 0257 3B       		.uleb128 0x3b
 3601 0258 0B       		.uleb128 0xb
 3602 0259 39       		.uleb128 0x39
 3603 025a 0B       		.uleb128 0xb
 3604 025b 27       		.uleb128 0x27
 3605 025c 19       		.uleb128 0x19
 3606 025d 49       		.uleb128 0x49
 3607 025e 13       		.uleb128 0x13
 3608 025f 11       		.uleb128 0x11
 3609 0260 01       		.uleb128 0x1
 3610 0261 12       		.uleb128 0x12
 3611 0262 06       		.uleb128 0x6
 3612 0263 40       		.uleb128 0x40
 3613 0264 18       		.uleb128 0x18
 3614 0265 9742     		.uleb128 0x2117
 3615 0267 19       		.uleb128 0x19
 3616 0268 01       		.uleb128 0x1
 3617 0269 13       		.uleb128 0x13
 3618 026a 00       		.byte	0
 3619 026b 00       		.byte	0
 3620 026c 2A       		.uleb128 0x2a
 3621 026d 2E       		.uleb128 0x2e
 3622 026e 00       		.byte	0
 3623 026f 3F       		.uleb128 0x3f
 3624 0270 19       		.uleb128 0x19
 3625 0271 3C       		.uleb128 0x3c
 3626 0272 19       		.uleb128 0x19
 3627 0273 6E       		.uleb128 0x6e
 3628 0274 0E       		.uleb128 0xe
 3629 0275 03       		.uleb128 0x3
 3630 0276 0E       		.uleb128 0xe
 3631 0277 3A       		.uleb128 0x3a
 3632 0278 0B       		.uleb128 0xb
 3633 0279 3B       		.uleb128 0x3b
 3634 027a 05       		.uleb128 0x5
 3635 027b 39       		.uleb128 0x39
 3636 027c 0B       		.uleb128 0xb
 3637 027d 00       		.byte	0
 3638 027e 00       		.byte	0
 3639 027f 2B       		.uleb128 0x2b
 3640 0280 2E       		.uleb128 0x2e
 3641 0281 00       		.byte	0
 3642 0282 3F       		.uleb128 0x3f
 3643 0283 19       		.uleb128 0x19
 3644 0284 3C       		.uleb128 0x3c
 3645 0285 19       		.uleb128 0x19
 3646 0286 6E       		.uleb128 0x6e
 3647 0287 0E       		.uleb128 0xe
 3648 0288 03       		.uleb128 0x3
ARM GAS  /var/folders/l5/0x54b2c10074c8bt31ycjvl80000gp/T//ccp7rYYt.s 			page 65


 3649 0289 0E       		.uleb128 0xe
 3650 028a 3A       		.uleb128 0x3a
 3651 028b 0B       		.uleb128 0xb
 3652 028c 3B       		.uleb128 0x3b
 3653 028d 0B       		.uleb128 0xb
 3654 028e 39       		.uleb128 0x39
 3655 028f 0B       		.uleb128 0xb
 3656 0290 00       		.byte	0
 3657 0291 00       		.byte	0
 3658 0292 00       		.byte	0
 3659              		.section	.debug_loc,"",%progbits
 3660              	.Ldebug_loc0:
 3661              	.LVUS30:
 3662 0000 00       		.uleb128 0
 3663 0001 00       		.uleb128 .LVU133
 3664 0002 00       		.uleb128 .LVU133
 3665 0003 00       		.uleb128 0
 3666              	.LLST30:
 3667 0004 00000000 		.4byte	.LVL47
 3668 0008 0C000000 		.4byte	.LVL48
 3669 000c 0100     		.2byte	0x1
 3670 000e 50       		.byte	0x50
 3671 000f 0C000000 		.4byte	.LVL48
 3672 0013 34000000 		.4byte	.LFE20
 3673 0017 0100     		.2byte	0x1
 3674 0019 54       		.byte	0x54
 3675 001a 00000000 		.4byte	0
 3676 001e 00000000 		.4byte	0
 3677              	.LVUS31:
 3678 0022 00       		.uleb128 .LVU134
 3679 0023 00       		.uleb128 0
 3680              	.LLST31:
 3681 0024 10000000 		.4byte	.LVL49
 3682 0028 34000000 		.4byte	.LFE20
 3683 002c 0100     		.2byte	0x1
 3684 002e 50       		.byte	0x50
 3685 002f 00000000 		.4byte	0
 3686 0033 00000000 		.4byte	0
 3687              	.LVUS28:
 3688 0037 00       		.uleb128 0
 3689 0038 00       		.uleb128 .LVU113
 3690 0039 00       		.uleb128 .LVU113
 3691 003a 00       		.uleb128 .LVU119
 3692 003b 00       		.uleb128 .LVU119
 3693 003c 00       		.uleb128 .LVU120
 3694 003d 00       		.uleb128 .LVU120
 3695 003e 00       		.uleb128 .LVU120
 3696 003f 00       		.uleb128 .LVU120
 3697 0040 00       		.uleb128 .LVU122
 3698 0041 00       		.uleb128 .LVU122
 3699 0042 00       		.uleb128 0
 3700              	.LLST28:
 3701 0043 00000000 		.4byte	.LVL39
 3702 0047 18000000 		.4byte	.LVL40
 3703 004b 0100     		.2byte	0x1
 3704 004d 50       		.byte	0x50
 3705 004e 18000000 		.4byte	.LVL40
ARM GAS  /var/folders/l5/0x54b2c10074c8bt31ycjvl80000gp/T//ccp7rYYt.s 			page 66


 3706 0052 38000000 		.4byte	.LVL42
 3707 0056 0100     		.2byte	0x1
 3708 0058 54       		.byte	0x54
 3709 0059 38000000 		.4byte	.LVL42
 3710 005d 3B000000 		.4byte	.LVL43-1
 3711 0061 0300     		.2byte	0x3
 3712 0063 70       		.byte	0x70
 3713 0064 7C       		.sleb128 -4
 3714 0065 9F       		.byte	0x9f
 3715 0066 3B000000 		.4byte	.LVL43-1
 3716 006a 3C000000 		.4byte	.LVL43
 3717 006e 0400     		.2byte	0x4
 3718 0070 F3       		.byte	0xf3
 3719 0071 01       		.uleb128 0x1
 3720 0072 50       		.byte	0x50
 3721 0073 9F       		.byte	0x9f
 3722 0074 3C000000 		.4byte	.LVL43
 3723 0078 44000000 		.4byte	.LVL45
 3724 007c 0100     		.2byte	0x1
 3725 007e 50       		.byte	0x50
 3726 007f 44000000 		.4byte	.LVL45
 3727 0083 4C000000 		.4byte	.LFE19
 3728 0087 0100     		.2byte	0x1
 3729 0089 54       		.byte	0x54
 3730 008a 00000000 		.4byte	0
 3731 008e 00000000 		.4byte	0
 3732              	.LVUS29:
 3733 0092 00       		.uleb128 0
 3734 0093 00       		.uleb128 .LVU113
 3735 0094 00       		.uleb128 .LVU113
 3736 0095 00       		.uleb128 .LVU119
 3737 0096 00       		.uleb128 .LVU119
 3738 0097 00       		.uleb128 .LVU120
 3739 0098 00       		.uleb128 .LVU120
 3740 0099 00       		.uleb128 .LVU121
 3741 009a 00       		.uleb128 .LVU121
 3742 009b 00       		.uleb128 0
 3743              	.LLST29:
 3744 009c 00000000 		.4byte	.LVL39
 3745 00a0 18000000 		.4byte	.LVL40
 3746 00a4 0100     		.2byte	0x1
 3747 00a6 51       		.byte	0x51
 3748 00a7 18000000 		.4byte	.LVL40
 3749 00ab 38000000 		.4byte	.LVL42
 3750 00af 0100     		.2byte	0x1
 3751 00b1 55       		.byte	0x55
 3752 00b2 38000000 		.4byte	.LVL42
 3753 00b6 3C000000 		.4byte	.LVL43
 3754 00ba 0400     		.2byte	0x4
 3755 00bc F3       		.byte	0xf3
 3756 00bd 01       		.uleb128 0x1
 3757 00be 51       		.byte	0x51
 3758 00bf 9F       		.byte	0x9f
 3759 00c0 3C000000 		.4byte	.LVL43
 3760 00c4 40000000 		.4byte	.LVL44
 3761 00c8 0100     		.2byte	0x1
 3762 00ca 51       		.byte	0x51
ARM GAS  /var/folders/l5/0x54b2c10074c8bt31ycjvl80000gp/T//ccp7rYYt.s 			page 67


 3763 00cb 40000000 		.4byte	.LVL44
 3764 00cf 4C000000 		.4byte	.LFE19
 3765 00d3 0100     		.2byte	0x1
 3766 00d5 55       		.byte	0x55
 3767 00d6 00000000 		.4byte	0
 3768 00da 00000000 		.4byte	0
 3769              	.LVUS27:
 3770 00de 00       		.uleb128 0
 3771 00df 00       		.uleb128 .LVU91
 3772 00e0 00       		.uleb128 .LVU91
 3773 00e1 00       		.uleb128 0
 3774              	.LLST27:
 3775 00e2 00000000 		.4byte	.LVL34
 3776 00e6 0F000000 		.4byte	.LVL35-1
 3777 00ea 0100     		.2byte	0x1
 3778 00ec 50       		.byte	0x50
 3779 00ed 0F000000 		.4byte	.LVL35-1
 3780 00f1 34000000 		.4byte	.LFE18
 3781 00f5 0100     		.2byte	0x1
 3782 00f7 54       		.byte	0x54
 3783 00f8 00000000 		.4byte	0
 3784 00fc 00000000 		.4byte	0
 3785              	.LVUS25:
 3786 0100 00       		.uleb128 0
 3787 0101 00       		.uleb128 .LVU73
 3788 0102 00       		.uleb128 .LVU73
 3789 0103 00       		.uleb128 0
 3790              	.LLST25:
 3791 0104 00000000 		.4byte	.LVL32
 3792 0108 0F000000 		.4byte	.LVL33-1
 3793 010c 0100     		.2byte	0x1
 3794 010e 50       		.byte	0x50
 3795 010f 0F000000 		.4byte	.LVL33-1
 3796 0113 20000000 		.4byte	.LFE17
 3797 0117 0100     		.2byte	0x1
 3798 0119 54       		.byte	0x54
 3799 011a 00000000 		.4byte	0
 3800 011e 00000000 		.4byte	0
 3801              	.LVUS26:
 3802 0122 00       		.uleb128 0
 3803 0123 00       		.uleb128 .LVU73
 3804 0124 00       		.uleb128 .LVU73
 3805 0125 00       		.uleb128 0
 3806              	.LLST26:
 3807 0126 00000000 		.4byte	.LVL32
 3808 012a 0F000000 		.4byte	.LVL33-1
 3809 012e 0100     		.2byte	0x1
 3810 0130 51       		.byte	0x51
 3811 0131 0F000000 		.4byte	.LVL33-1
 3812 0135 20000000 		.4byte	.LFE17
 3813 0139 0400     		.2byte	0x4
 3814 013b F3       		.byte	0xf3
 3815 013c 01       		.uleb128 0x1
 3816 013d 51       		.byte	0x51
 3817 013e 9F       		.byte	0x9f
 3818 013f 00000000 		.4byte	0
 3819 0143 00000000 		.4byte	0
ARM GAS  /var/folders/l5/0x54b2c10074c8bt31ycjvl80000gp/T//ccp7rYYt.s 			page 68


 3820              	.LVUS22:
 3821 0147 00       		.uleb128 0
 3822 0148 00       		.uleb128 .LVU53
 3823 0149 00       		.uleb128 .LVU53
 3824 014a 00       		.uleb128 .LVU60
 3825 014b 00       		.uleb128 .LVU60
 3826 014c 00       		.uleb128 0
 3827              	.LLST22:
 3828 014d 00000000 		.4byte	.LVL25
 3829 0151 20000000 		.4byte	.LVL26
 3830 0155 0100     		.2byte	0x1
 3831 0157 50       		.byte	0x50
 3832 0158 20000000 		.4byte	.LVL26
 3833 015c 58000000 		.4byte	.LVL31
 3834 0160 0100     		.2byte	0x1
 3835 0162 54       		.byte	0x54
 3836 0163 58000000 		.4byte	.LVL31
 3837 0167 5C000000 		.4byte	.LFE16
 3838 016b 0400     		.2byte	0x4
 3839 016d F3       		.byte	0xf3
 3840 016e 01       		.uleb128 0x1
 3841 016f 50       		.byte	0x50
 3842 0170 9F       		.byte	0x9f
 3843 0171 00000000 		.4byte	0
 3844 0175 00000000 		.4byte	0
 3845              	.LVUS23:
 3846 0179 00       		.uleb128 0
 3847 017a 00       		.uleb128 .LVU56
 3848 017b 00       		.uleb128 .LVU56
 3849 017c 00       		.uleb128 .LVU58
 3850 017d 00       		.uleb128 .LVU58
 3851 017e 00       		.uleb128 0
 3852              	.LLST23:
 3853 017f 00000000 		.4byte	.LVL25
 3854 0183 30000000 		.4byte	.LVL27
 3855 0187 0100     		.2byte	0x1
 3856 0189 51       		.byte	0x51
 3857 018a 30000000 		.4byte	.LVL27
 3858 018e 37000000 		.4byte	.LVL29-1
 3859 0192 0100     		.2byte	0x1
 3860 0194 53       		.byte	0x53
 3861 0195 37000000 		.4byte	.LVL29-1
 3862 0199 5C000000 		.4byte	.LFE16
 3863 019d 0400     		.2byte	0x4
 3864 019f F3       		.byte	0xf3
 3865 01a0 01       		.uleb128 0x1
 3866 01a1 51       		.byte	0x51
 3867 01a2 9F       		.byte	0x9f
 3868 01a3 00000000 		.4byte	0
 3869 01a7 00000000 		.4byte	0
 3870              	.LVUS24:
 3871 01ab 00       		.uleb128 0
 3872 01ac 00       		.uleb128 .LVU57
 3873 01ad 00       		.uleb128 .LVU57
 3874 01ae 00       		.uleb128 .LVU60
 3875 01af 00       		.uleb128 .LVU60
 3876 01b0 00       		.uleb128 0
ARM GAS  /var/folders/l5/0x54b2c10074c8bt31ycjvl80000gp/T//ccp7rYYt.s 			page 69


 3877              	.LLST24:
 3878 01b1 00000000 		.4byte	.LVL25
 3879 01b5 34000000 		.4byte	.LVL28
 3880 01b9 0100     		.2byte	0x1
 3881 01bb 52       		.byte	0x52
 3882 01bc 34000000 		.4byte	.LVL28
 3883 01c0 58000000 		.4byte	.LVL31
 3884 01c4 0100     		.2byte	0x1
 3885 01c6 55       		.byte	0x55
 3886 01c7 58000000 		.4byte	.LVL31
 3887 01cb 5C000000 		.4byte	.LFE16
 3888 01cf 0400     		.2byte	0x4
 3889 01d1 F3       		.byte	0xf3
 3890 01d2 01       		.uleb128 0x1
 3891 01d3 52       		.byte	0x52
 3892 01d4 9F       		.byte	0x9f
 3893 01d5 00000000 		.4byte	0
 3894 01d9 00000000 		.4byte	0
 3895              	.LVUS0:
 3896 01dd 00       		.uleb128 0
 3897 01de 00       		.uleb128 .LVU3
 3898 01df 00       		.uleb128 .LVU3
 3899 01e0 00       		.uleb128 .LVU4
 3900 01e1 00       		.uleb128 .LVU4
 3901 01e2 00       		.uleb128 0
 3902              	.LLST0:
 3903 01e3 00000000 		.4byte	.LVL0
 3904 01e7 04000000 		.4byte	.LVL1
 3905 01eb 0100     		.2byte	0x1
 3906 01ed 50       		.byte	0x50
 3907 01ee 04000000 		.4byte	.LVL1
 3908 01f2 07000000 		.4byte	.LVL2-1
 3909 01f6 0300     		.2byte	0x3
 3910 01f8 70       		.byte	0x70
 3911 01f9 74       		.sleb128 -12
 3912 01fa 9F       		.byte	0x9f
 3913 01fb 07000000 		.4byte	.LVL2-1
 3914 01ff 08000000 		.4byte	.LFE14
 3915 0203 0400     		.2byte	0x4
 3916 0205 F3       		.byte	0xf3
 3917 0206 01       		.uleb128 0x1
 3918 0207 50       		.byte	0x50
 3919 0208 9F       		.byte	0x9f
 3920 0209 00000000 		.4byte	0
 3921 020d 00000000 		.4byte	0
 3922              	.LVUS1:
 3923 0211 00       		.uleb128 0
 3924 0212 00       		.uleb128 .LVU4
 3925 0213 00       		.uleb128 .LVU4
 3926 0214 00       		.uleb128 0
 3927              	.LLST1:
 3928 0215 00000000 		.4byte	.LVL0
 3929 0219 07000000 		.4byte	.LVL2-1
 3930 021d 0100     		.2byte	0x1
 3931 021f 51       		.byte	0x51
 3932 0220 07000000 		.4byte	.LVL2-1
 3933 0224 08000000 		.4byte	.LFE14
ARM GAS  /var/folders/l5/0x54b2c10074c8bt31ycjvl80000gp/T//ccp7rYYt.s 			page 70


 3934 0228 0400     		.2byte	0x4
 3935 022a F3       		.byte	0xf3
 3936 022b 01       		.uleb128 0x1
 3937 022c 51       		.byte	0x51
 3938 022d 9F       		.byte	0x9f
 3939 022e 00000000 		.4byte	0
 3940 0232 00000000 		.4byte	0
 3941              	.LVUS2:
 3942 0236 00       		.uleb128 0
 3943 0237 00       		.uleb128 .LVU4
 3944 0238 00       		.uleb128 .LVU4
 3945 0239 00       		.uleb128 0
 3946              	.LLST2:
 3947 023a 00000000 		.4byte	.LVL0
 3948 023e 07000000 		.4byte	.LVL2-1
 3949 0242 0100     		.2byte	0x1
 3950 0244 52       		.byte	0x52
 3951 0245 07000000 		.4byte	.LVL2-1
 3952 0249 08000000 		.4byte	.LFE14
 3953 024d 0400     		.2byte	0x4
 3954 024f F3       		.byte	0xf3
 3955 0250 01       		.uleb128 0x1
 3956 0251 52       		.byte	0x52
 3957 0252 9F       		.byte	0x9f
 3958 0253 00000000 		.4byte	0
 3959 0257 00000000 		.4byte	0
 3960              	.LVUS3:
 3961 025b 00       		.uleb128 0
 3962 025c 00       		.uleb128 .LVU4
 3963 025d 00       		.uleb128 .LVU4
 3964 025e 00       		.uleb128 0
 3965              	.LLST3:
 3966 025f 00000000 		.4byte	.LVL0
 3967 0263 07000000 		.4byte	.LVL2-1
 3968 0267 0100     		.2byte	0x1
 3969 0269 53       		.byte	0x53
 3970 026a 07000000 		.4byte	.LVL2-1
 3971 026e 08000000 		.4byte	.LFE14
 3972 0272 0400     		.2byte	0x4
 3973 0274 F3       		.byte	0xf3
 3974 0275 01       		.uleb128 0x1
 3975 0276 53       		.byte	0x53
 3976 0277 9F       		.byte	0x9f
 3977 0278 00000000 		.4byte	0
 3978 027c 00000000 		.4byte	0
 3979              	.LVUS7:
 3980 0280 00       		.uleb128 0
 3981 0281 00       		.uleb128 .LVU13
 3982 0282 00       		.uleb128 .LVU13
 3983 0283 00       		.uleb128 .LVU14
 3984 0284 00       		.uleb128 .LVU14
 3985 0285 00       		.uleb128 0
 3986              	.LLST7:
 3987 0286 00000000 		.4byte	.LVL6
 3988 028a 04000000 		.4byte	.LVL7
 3989 028e 0100     		.2byte	0x1
 3990 0290 50       		.byte	0x50
ARM GAS  /var/folders/l5/0x54b2c10074c8bt31ycjvl80000gp/T//ccp7rYYt.s 			page 71


 3991 0291 04000000 		.4byte	.LVL7
 3992 0295 07000000 		.4byte	.LVL8-1
 3993 0299 0300     		.2byte	0x3
 3994 029b 70       		.byte	0x70
 3995 029c 50       		.sleb128 -48
 3996 029d 9F       		.byte	0x9f
 3997 029e 07000000 		.4byte	.LVL8-1
 3998 02a2 08000000 		.4byte	.LFE13
 3999 02a6 0400     		.2byte	0x4
 4000 02a8 F3       		.byte	0xf3
 4001 02a9 01       		.uleb128 0x1
 4002 02aa 50       		.byte	0x50
 4003 02ab 9F       		.byte	0x9f
 4004 02ac 00000000 		.4byte	0
 4005 02b0 00000000 		.4byte	0
 4006              	.LVUS8:
 4007 02b4 00       		.uleb128 0
 4008 02b5 00       		.uleb128 .LVU14
 4009 02b6 00       		.uleb128 .LVU14
 4010 02b7 00       		.uleb128 0
 4011              	.LLST8:
 4012 02b8 00000000 		.4byte	.LVL6
 4013 02bc 07000000 		.4byte	.LVL8-1
 4014 02c0 0100     		.2byte	0x1
 4015 02c2 51       		.byte	0x51
 4016 02c3 07000000 		.4byte	.LVL8-1
 4017 02c7 08000000 		.4byte	.LFE13
 4018 02cb 0400     		.2byte	0x4
 4019 02cd F3       		.byte	0xf3
 4020 02ce 01       		.uleb128 0x1
 4021 02cf 51       		.byte	0x51
 4022 02d0 9F       		.byte	0x9f
 4023 02d1 00000000 		.4byte	0
 4024 02d5 00000000 		.4byte	0
 4025              	.LVUS9:
 4026 02d9 00       		.uleb128 0
 4027 02da 00       		.uleb128 .LVU14
 4028 02db 00       		.uleb128 .LVU14
 4029 02dc 00       		.uleb128 0
 4030              	.LLST9:
 4031 02dd 00000000 		.4byte	.LVL6
 4032 02e1 07000000 		.4byte	.LVL8-1
 4033 02e5 0100     		.2byte	0x1
 4034 02e7 52       		.byte	0x52
 4035 02e8 07000000 		.4byte	.LVL8-1
 4036 02ec 08000000 		.4byte	.LFE13
 4037 02f0 0400     		.2byte	0x4
 4038 02f2 F3       		.byte	0xf3
 4039 02f3 01       		.uleb128 0x1
 4040 02f4 52       		.byte	0x52
 4041 02f5 9F       		.byte	0x9f
 4042 02f6 00000000 		.4byte	0
 4043 02fa 00000000 		.4byte	0
 4044              	.LVUS10:
 4045 02fe 00       		.uleb128 0
 4046 02ff 00       		.uleb128 .LVU14
 4047 0300 00       		.uleb128 .LVU14
ARM GAS  /var/folders/l5/0x54b2c10074c8bt31ycjvl80000gp/T//ccp7rYYt.s 			page 72


 4048 0301 00       		.uleb128 0
 4049              	.LLST10:
 4050 0302 00000000 		.4byte	.LVL6
 4051 0306 07000000 		.4byte	.LVL8-1
 4052 030a 0100     		.2byte	0x1
 4053 030c 53       		.byte	0x53
 4054 030d 07000000 		.4byte	.LVL8-1
 4055 0311 08000000 		.4byte	.LFE13
 4056 0315 0400     		.2byte	0x4
 4057 0317 F3       		.byte	0xf3
 4058 0318 01       		.uleb128 0x1
 4059 0319 53       		.byte	0x53
 4060 031a 9F       		.byte	0x9f
 4061 031b 00000000 		.4byte	0
 4062 031f 00000000 		.4byte	0
 4063              	.LVUS14:
 4064 0323 00       		.uleb128 0
 4065 0324 00       		.uleb128 .LVU23
 4066 0325 00       		.uleb128 .LVU23
 4067 0326 00       		.uleb128 .LVU24
 4068 0327 00       		.uleb128 .LVU24
 4069 0328 00       		.uleb128 0
 4070              	.LLST14:
 4071 0329 00000000 		.4byte	.LVL12
 4072 032d 04000000 		.4byte	.LVL13
 4073 0331 0100     		.2byte	0x1
 4074 0333 50       		.byte	0x50
 4075 0334 04000000 		.4byte	.LVL13
 4076 0338 07000000 		.4byte	.LVL14-1
 4077 033c 0300     		.2byte	0x3
 4078 033e 70       		.byte	0x70
 4079 033f 74       		.sleb128 -12
 4080 0340 9F       		.byte	0x9f
 4081 0341 07000000 		.4byte	.LVL14-1
 4082 0345 08000000 		.4byte	.LFE12
 4083 0349 0400     		.2byte	0x4
 4084 034b F3       		.byte	0xf3
 4085 034c 01       		.uleb128 0x1
 4086 034d 50       		.byte	0x50
 4087 034e 9F       		.byte	0x9f
 4088 034f 00000000 		.4byte	0
 4089 0353 00000000 		.4byte	0
 4090              	.LVUS15:
 4091 0357 00       		.uleb128 0
 4092 0358 00       		.uleb128 .LVU24
 4093 0359 00       		.uleb128 .LVU24
 4094 035a 00       		.uleb128 0
 4095              	.LLST15:
 4096 035b 00000000 		.4byte	.LVL12
 4097 035f 07000000 		.4byte	.LVL14-1
 4098 0363 0100     		.2byte	0x1
 4099 0365 51       		.byte	0x51
 4100 0366 07000000 		.4byte	.LVL14-1
 4101 036a 08000000 		.4byte	.LFE12
 4102 036e 0400     		.2byte	0x4
 4103 0370 F3       		.byte	0xf3
 4104 0371 01       		.uleb128 0x1
ARM GAS  /var/folders/l5/0x54b2c10074c8bt31ycjvl80000gp/T//ccp7rYYt.s 			page 73


 4105 0372 51       		.byte	0x51
 4106 0373 9F       		.byte	0x9f
 4107 0374 00000000 		.4byte	0
 4108 0378 00000000 		.4byte	0
 4109              	.LVUS17:
 4110 037c 00       		.uleb128 0
 4111 037d 00       		.uleb128 .LVU34
 4112 037e 00       		.uleb128 .LVU34
 4113 037f 00       		.uleb128 .LVU35
 4114 0380 00       		.uleb128 .LVU35
 4115 0381 00       		.uleb128 0
 4116              	.LLST17:
 4117 0382 00000000 		.4byte	.LVL18
 4118 0386 08000000 		.4byte	.LVL19
 4119 038a 0100     		.2byte	0x1
 4120 038c 50       		.byte	0x50
 4121 038d 08000000 		.4byte	.LVL19
 4122 0391 0B000000 		.4byte	.LVL20-1
 4123 0395 0300     		.2byte	0x3
 4124 0397 70       		.byte	0x70
 4125 0398 50       		.sleb128 -48
 4126 0399 9F       		.byte	0x9f
 4127 039a 0B000000 		.4byte	.LVL20-1
 4128 039e 0C000000 		.4byte	.LFE11
 4129 03a2 0400     		.2byte	0x4
 4130 03a4 F3       		.byte	0xf3
 4131 03a5 01       		.uleb128 0x1
 4132 03a6 50       		.byte	0x50
 4133 03a7 9F       		.byte	0x9f
 4134 03a8 00000000 		.4byte	0
 4135 03ac 00000000 		.4byte	0
 4136              	.LVUS18:
 4137 03b0 00       		.uleb128 0
 4138 03b1 00       		.uleb128 .LVU35
 4139 03b2 00       		.uleb128 .LVU35
 4140 03b3 00       		.uleb128 0
 4141              	.LLST18:
 4142 03b4 00000000 		.4byte	.LVL18
 4143 03b8 0B000000 		.4byte	.LVL20-1
 4144 03bc 0100     		.2byte	0x1
 4145 03be 51       		.byte	0x51
 4146 03bf 0B000000 		.4byte	.LVL20-1
 4147 03c3 0C000000 		.4byte	.LFE11
 4148 03c7 0400     		.2byte	0x4
 4149 03c9 F3       		.byte	0xf3
 4150 03ca 01       		.uleb128 0x1
 4151 03cb 51       		.byte	0x51
 4152 03cc 9F       		.byte	0x9f
 4153 03cd 00000000 		.4byte	0
 4154 03d1 00000000 		.4byte	0
 4155              	.LVUS19:
 4156 03d5 00       		.uleb128 0
 4157 03d6 00       		.uleb128 .LVU35
 4158 03d7 00       		.uleb128 .LVU35
 4159 03d8 00       		.uleb128 0
 4160              	.LLST19:
 4161 03d9 00000000 		.4byte	.LVL18
ARM GAS  /var/folders/l5/0x54b2c10074c8bt31ycjvl80000gp/T//ccp7rYYt.s 			page 74


 4162 03dd 0B000000 		.4byte	.LVL20-1
 4163 03e1 0100     		.2byte	0x1
 4164 03e3 52       		.byte	0x52
 4165 03e4 0B000000 		.4byte	.LVL20-1
 4166 03e8 0C000000 		.4byte	.LFE11
 4167 03ec 0400     		.2byte	0x4
 4168 03ee F3       		.byte	0xf3
 4169 03ef 01       		.uleb128 0x1
 4170 03f0 52       		.byte	0x52
 4171 03f1 9F       		.byte	0x9f
 4172 03f2 00000000 		.4byte	0
 4173 03f6 00000000 		.4byte	0
 4174              	.LVUS16:
 4175 03fa 00       		.uleb128 0
 4176 03fb 00       		.uleb128 .LVU28
 4177 03fc 00       		.uleb128 .LVU28
 4178 03fd 00       		.uleb128 .LVU29
 4179 03fe 00       		.uleb128 .LVU29
 4180 03ff 00       		.uleb128 0
 4181              	.LLST16:
 4182 0400 00000000 		.4byte	.LVL15
 4183 0404 04000000 		.4byte	.LVL16
 4184 0408 0100     		.2byte	0x1
 4185 040a 50       		.byte	0x50
 4186 040b 04000000 		.4byte	.LVL16
 4187 040f 0B000000 		.4byte	.LVL17-1
 4188 0413 0300     		.2byte	0x3
 4189 0415 70       		.byte	0x70
 4190 0416 74       		.sleb128 -12
 4191 0417 9F       		.byte	0x9f
 4192 0418 0B000000 		.4byte	.LVL17-1
 4193 041c 0C000000 		.4byte	.LFE10
 4194 0420 0400     		.2byte	0x4
 4195 0422 F3       		.byte	0xf3
 4196 0423 01       		.uleb128 0x1
 4197 0424 50       		.byte	0x50
 4198 0425 9F       		.byte	0x9f
 4199 0426 00000000 		.4byte	0
 4200 042a 00000000 		.4byte	0
 4201              	.LVUS20:
 4202 042e 00       		.uleb128 0
 4203 042f 00       		.uleb128 .LVU40
 4204 0430 00       		.uleb128 .LVU40
 4205 0431 00       		.uleb128 .LVU41
 4206 0432 00       		.uleb128 .LVU41
 4207 0433 00       		.uleb128 0
 4208              	.LLST20:
 4209 0434 00000000 		.4byte	.LVL21
 4210 0438 08000000 		.4byte	.LVL22
 4211 043c 0100     		.2byte	0x1
 4212 043e 50       		.byte	0x50
 4213 043f 08000000 		.4byte	.LVL22
 4214 0443 0F000000 		.4byte	.LVL23-1
 4215 0447 0300     		.2byte	0x3
 4216 0449 70       		.byte	0x70
 4217 044a 50       		.sleb128 -48
 4218 044b 9F       		.byte	0x9f
ARM GAS  /var/folders/l5/0x54b2c10074c8bt31ycjvl80000gp/T//ccp7rYYt.s 			page 75


 4219 044c 0F000000 		.4byte	.LVL23-1
 4220 0450 10000000 		.4byte	.LFE9
 4221 0454 0400     		.2byte	0x4
 4222 0456 F3       		.byte	0xf3
 4223 0457 01       		.uleb128 0x1
 4224 0458 50       		.byte	0x50
 4225 0459 9F       		.byte	0x9f
 4226 045a 00000000 		.4byte	0
 4227 045e 00000000 		.4byte	0
 4228              	.LVUS21:
 4229 0462 00       		.uleb128 0
 4230 0463 00       		.uleb128 .LVU41
 4231 0464 00       		.uleb128 .LVU41
 4232 0465 00       		.uleb128 0
 4233              	.LLST21:
 4234 0466 00000000 		.4byte	.LVL21
 4235 046a 0F000000 		.4byte	.LVL23-1
 4236 046e 0100     		.2byte	0x1
 4237 0470 51       		.byte	0x51
 4238 0471 0F000000 		.4byte	.LVL23-1
 4239 0475 10000000 		.4byte	.LFE9
 4240 0479 0400     		.2byte	0x4
 4241 047b F3       		.byte	0xf3
 4242 047c 01       		.uleb128 0x1
 4243 047d 51       		.byte	0x51
 4244 047e 9F       		.byte	0x9f
 4245 047f 00000000 		.4byte	0
 4246 0483 00000000 		.4byte	0
 4247              	.LVUS4:
 4248 0487 00       		.uleb128 0
 4249 0488 00       		.uleb128 .LVU8
 4250 0489 00       		.uleb128 .LVU8
 4251 048a 00       		.uleb128 .LVU9
 4252 048b 00       		.uleb128 .LVU9
 4253 048c 00       		.uleb128 0
 4254              	.LLST4:
 4255 048d 00000000 		.4byte	.LVL3
 4256 0491 04000000 		.4byte	.LVL4
 4257 0495 0100     		.2byte	0x1
 4258 0497 50       		.byte	0x50
 4259 0498 04000000 		.4byte	.LVL4
 4260 049c 0B000000 		.4byte	.LVL5-1
 4261 04a0 0300     		.2byte	0x3
 4262 04a2 70       		.byte	0x70
 4263 04a3 74       		.sleb128 -12
 4264 04a4 9F       		.byte	0x9f
 4265 04a5 0B000000 		.4byte	.LVL5-1
 4266 04a9 0C000000 		.4byte	.LFE8
 4267 04ad 0400     		.2byte	0x4
 4268 04af F3       		.byte	0xf3
 4269 04b0 01       		.uleb128 0x1
 4270 04b1 50       		.byte	0x50
 4271 04b2 9F       		.byte	0x9f
 4272 04b3 00000000 		.4byte	0
 4273 04b7 00000000 		.4byte	0
 4274              	.LVUS5:
 4275 04bb 00       		.uleb128 0
ARM GAS  /var/folders/l5/0x54b2c10074c8bt31ycjvl80000gp/T//ccp7rYYt.s 			page 76


 4276 04bc 00       		.uleb128 .LVU9
 4277 04bd 00       		.uleb128 .LVU9
 4278 04be 00       		.uleb128 0
 4279              	.LLST5:
 4280 04bf 00000000 		.4byte	.LVL3
 4281 04c3 0B000000 		.4byte	.LVL5-1
 4282 04c7 0100     		.2byte	0x1
 4283 04c9 51       		.byte	0x51
 4284 04ca 0B000000 		.4byte	.LVL5-1
 4285 04ce 0C000000 		.4byte	.LFE8
 4286 04d2 0400     		.2byte	0x4
 4287 04d4 F3       		.byte	0xf3
 4288 04d5 01       		.uleb128 0x1
 4289 04d6 51       		.byte	0x51
 4290 04d7 9F       		.byte	0x9f
 4291 04d8 00000000 		.4byte	0
 4292 04dc 00000000 		.4byte	0
 4293              	.LVUS6:
 4294 04e0 00       		.uleb128 0
 4295 04e1 00       		.uleb128 .LVU9
 4296 04e2 00       		.uleb128 .LVU9
 4297 04e3 00       		.uleb128 0
 4298              	.LLST6:
 4299 04e4 00000000 		.4byte	.LVL3
 4300 04e8 0B000000 		.4byte	.LVL5-1
 4301 04ec 0100     		.2byte	0x1
 4302 04ee 52       		.byte	0x52
 4303 04ef 0B000000 		.4byte	.LVL5-1
 4304 04f3 0C000000 		.4byte	.LFE8
 4305 04f7 0400     		.2byte	0x4
 4306 04f9 F3       		.byte	0xf3
 4307 04fa 01       		.uleb128 0x1
 4308 04fb 52       		.byte	0x52
 4309 04fc 9F       		.byte	0x9f
 4310 04fd 00000000 		.4byte	0
 4311 0501 00000000 		.4byte	0
 4312              	.LVUS11:
 4313 0505 00       		.uleb128 0
 4314 0506 00       		.uleb128 .LVU18
 4315 0507 00       		.uleb128 .LVU18
 4316 0508 00       		.uleb128 .LVU19
 4317 0509 00       		.uleb128 .LVU19
 4318 050a 00       		.uleb128 0
 4319              	.LLST11:
 4320 050b 00000000 		.4byte	.LVL9
 4321 050f 04000000 		.4byte	.LVL10
 4322 0513 0100     		.2byte	0x1
 4323 0515 50       		.byte	0x50
 4324 0516 04000000 		.4byte	.LVL10
 4325 051a 0B000000 		.4byte	.LVL11-1
 4326 051e 0300     		.2byte	0x3
 4327 0520 70       		.byte	0x70
 4328 0521 50       		.sleb128 -48
 4329 0522 9F       		.byte	0x9f
 4330 0523 0B000000 		.4byte	.LVL11-1
 4331 0527 0C000000 		.4byte	.LFE7
 4332 052b 0400     		.2byte	0x4
ARM GAS  /var/folders/l5/0x54b2c10074c8bt31ycjvl80000gp/T//ccp7rYYt.s 			page 77


 4333 052d F3       		.byte	0xf3
 4334 052e 01       		.uleb128 0x1
 4335 052f 50       		.byte	0x50
 4336 0530 9F       		.byte	0x9f
 4337 0531 00000000 		.4byte	0
 4338 0535 00000000 		.4byte	0
 4339              	.LVUS12:
 4340 0539 00       		.uleb128 0
 4341 053a 00       		.uleb128 .LVU19
 4342 053b 00       		.uleb128 .LVU19
 4343 053c 00       		.uleb128 0
 4344              	.LLST12:
 4345 053d 00000000 		.4byte	.LVL9
 4346 0541 0B000000 		.4byte	.LVL11-1
 4347 0545 0100     		.2byte	0x1
 4348 0547 51       		.byte	0x51
 4349 0548 0B000000 		.4byte	.LVL11-1
 4350 054c 0C000000 		.4byte	.LFE7
 4351 0550 0400     		.2byte	0x4
 4352 0552 F3       		.byte	0xf3
 4353 0553 01       		.uleb128 0x1
 4354 0554 51       		.byte	0x51
 4355 0555 9F       		.byte	0x9f
 4356 0556 00000000 		.4byte	0
 4357 055a 00000000 		.4byte	0
 4358              	.LVUS13:
 4359 055e 00       		.uleb128 0
 4360 055f 00       		.uleb128 .LVU19
 4361 0560 00       		.uleb128 .LVU19
 4362 0561 00       		.uleb128 0
 4363              	.LLST13:
 4364 0562 00000000 		.4byte	.LVL9
 4365 0566 0B000000 		.4byte	.LVL11-1
 4366 056a 0100     		.2byte	0x1
 4367 056c 52       		.byte	0x52
 4368 056d 0B000000 		.4byte	.LVL11-1
 4369 0571 0C000000 		.4byte	.LFE7
 4370 0575 0400     		.2byte	0x4
 4371 0577 F3       		.byte	0xf3
 4372 0578 01       		.uleb128 0x1
 4373 0579 52       		.byte	0x52
 4374 057a 9F       		.byte	0x9f
 4375 057b 00000000 		.4byte	0
 4376 057f 00000000 		.4byte	0
 4377              		.section	.debug_aranges,"",%progbits
 4378 0000 84000000 		.4byte	0x84
 4379 0004 0200     		.2byte	0x2
 4380 0006 00000000 		.4byte	.Ldebug_info0
 4381 000a 04       		.byte	0x4
 4382 000b 00       		.byte	0
 4383 000c 0000     		.2byte	0
 4384 000e 0000     		.2byte	0
 4385 0010 00000000 		.4byte	.LFB14
 4386 0014 08000000 		.4byte	.LFE14-.LFB14
 4387 0018 00000000 		.4byte	.LFB8
 4388 001c 0C000000 		.4byte	.LFE8-.LFB8
 4389 0020 00000000 		.4byte	.LFB13
ARM GAS  /var/folders/l5/0x54b2c10074c8bt31ycjvl80000gp/T//ccp7rYYt.s 			page 78


 4390 0024 08000000 		.4byte	.LFE13-.LFB13
 4391 0028 00000000 		.4byte	.LFB7
 4392 002c 0C000000 		.4byte	.LFE7-.LFB7
 4393 0030 00000000 		.4byte	.LFB12
 4394 0034 08000000 		.4byte	.LFE12-.LFB12
 4395 0038 00000000 		.4byte	.LFB10
 4396 003c 0C000000 		.4byte	.LFE10-.LFB10
 4397 0040 00000000 		.4byte	.LFB11
 4398 0044 0C000000 		.4byte	.LFE11-.LFB11
 4399 0048 00000000 		.4byte	.LFB9
 4400 004c 10000000 		.4byte	.LFE9-.LFB9
 4401 0050 00000000 		.4byte	.LFB15
 4402 0054 04000000 		.4byte	.LFE15-.LFB15
 4403 0058 00000000 		.4byte	.LFB16
 4404 005c 5C000000 		.4byte	.LFE16-.LFB16
 4405 0060 00000000 		.4byte	.LFB17
 4406 0064 20000000 		.4byte	.LFE17-.LFB17
 4407 0068 00000000 		.4byte	.LFB18
 4408 006c 34000000 		.4byte	.LFE18-.LFB18
 4409 0070 00000000 		.4byte	.LFB19
 4410 0074 4C000000 		.4byte	.LFE19-.LFB19
 4411 0078 00000000 		.4byte	.LFB20
 4412 007c 34000000 		.4byte	.LFE20-.LFB20
 4413 0080 00000000 		.4byte	0
 4414 0084 00000000 		.4byte	0
 4415              		.section	.debug_ranges,"",%progbits
 4416              	.Ldebug_ranges0:
 4417 0000 00000000 		.4byte	.LFB14
 4418 0004 08000000 		.4byte	.LFE14
 4419 0008 00000000 		.4byte	.LFB8
 4420 000c 0C000000 		.4byte	.LFE8
 4421 0010 00000000 		.4byte	.LFB13
 4422 0014 08000000 		.4byte	.LFE13
 4423 0018 00000000 		.4byte	.LFB7
 4424 001c 0C000000 		.4byte	.LFE7
 4425 0020 00000000 		.4byte	.LFB12
 4426 0024 08000000 		.4byte	.LFE12
 4427 0028 00000000 		.4byte	.LFB10
 4428 002c 0C000000 		.4byte	.LFE10
 4429 0030 00000000 		.4byte	.LFB11
 4430 0034 0C000000 		.4byte	.LFE11
 4431 0038 00000000 		.4byte	.LFB9
 4432 003c 10000000 		.4byte	.LFE9
 4433 0040 00000000 		.4byte	.LFB15
 4434 0044 04000000 		.4byte	.LFE15
 4435 0048 00000000 		.4byte	.LFB16
 4436 004c 5C000000 		.4byte	.LFE16
 4437 0050 00000000 		.4byte	.LFB17
 4438 0054 20000000 		.4byte	.LFE17
 4439 0058 00000000 		.4byte	.LFB18
 4440 005c 34000000 		.4byte	.LFE18
 4441 0060 00000000 		.4byte	.LFB19
 4442 0064 4C000000 		.4byte	.LFE19
 4443 0068 00000000 		.4byte	.LFB20
 4444 006c 34000000 		.4byte	.LFE20
 4445 0070 00000000 		.4byte	0
 4446 0074 00000000 		.4byte	0
ARM GAS  /var/folders/l5/0x54b2c10074c8bt31ycjvl80000gp/T//ccp7rYYt.s 			page 79


 4447              		.section	.debug_line,"",%progbits
 4448              	.Ldebug_line0:
 4449 0000 E5040000 		.section	.debug_str,"MS",%progbits,1
 4449      03007E02 
 4449      00000201 
 4449      FB0E0D00 
 4449      01010101 
 4450              	.LASF170:
 4451 0000 63684F51 		.ascii	"chOQInit\000"
 4451      496E6974 
 4451      00
 4452              	.LASF143:
 4453 0009 62617564 		.ascii	"baud_rate\000"
 4453      5F726174 
 4453      6500
 4454              	.LASF3:
 4455 0013 73697A65 		.ascii	"size_t\000"
 4455      5F7400
 4456              	.LASF72:
 4457 001a 7264796D 		.ascii	"rdymsg\000"
 4457      736700
 4458              	.LASF169:
 4459 0021 63684951 		.ascii	"chIQInit\000"
 4459      496E6974 
 4459      00
 4460              	.LASF87:
 4461 002a 4F757470 		.ascii	"OutputQueue\000"
 4461      75745175 
 4461      65756500 
 4462              	.LASF4:
 4463 0036 5F5F7569 		.ascii	"__uint8_t\000"
 4463      6E74385F 
 4463      7400
 4464              	.LASF172:
 4465 0040 63684951 		.ascii	"chIQReadTimeout\000"
 4465      52656164 
 4465      54696D65 
 4465      6F757400 
 4466              	.LASF59:
 4467 0050 76746C69 		.ascii	"vtlist\000"
 4467      737400
 4468              	.LASF89:
 4469 0057 62736364 		.ascii	"bscdevice_t\000"
 4469      65766963 
 4469      655F7400 
 4470              	.LASF127:
 4471 0063 72786275 		.ascii	"rxbuf\000"
 4471      6600
 4472              	.LASF171:
 4473 0069 73645F6C 		.ascii	"sd_lld_init\000"
 4473      6C645F69 
 4473      6E697400 
 4474              	.LASF12:
 4475 0075 6C6F6E67 		.ascii	"long long unsigned int\000"
 4475      206C6F6E 
 4475      6720756E 
 4475      7369676E 
ARM GAS  /var/folders/l5/0x54b2c10074c8bt31ycjvl80000gp/T//ccp7rYYt.s 			page 80


 4475      65642069 
 4476              	.LASF123:
 4477 008c 61646472 		.ascii	"addr\000"
 4477      00
 4478              	.LASF73:
 4479 0091 65786974 		.ascii	"exitcode\000"
 4479      636F6465 
 4479      00
 4480              	.LASF94:
 4481 009a 64617461 		.ascii	"dataFifo\000"
 4481      4669666F 
 4481      00
 4482              	.LASF30:
 4483 00a3 705F7072 		.ascii	"p_prio\000"
 4483      696F00
 4484              	.LASF151:
 4485 00aa 72656164 		.ascii	"readt\000"
 4485      7400
 4486              	.LASF120:
 4487 00b0 64657669 		.ascii	"device\000"
 4487      636500
 4488              	.LASF77:
 4489 00b7 715F7761 		.ascii	"q_waiting\000"
 4489      6974696E 
 4489      6700
 4490              	.LASF11:
 4491 00c1 6C6F6E67 		.ascii	"long long int\000"
 4491      206C6F6E 
 4491      6720696E 
 4491      7400
 4492              	.LASF2:
 4493 00cf 7369676E 		.ascii	"signed char\000"
 4493      65642063 
 4493      68617200 
 4494              	.LASF136:
 4495 00db 53445F53 		.ascii	"SD_STOP\000"
 4495      544F5000 
 4496              	.LASF18:
 4497 00e3 626F6F6C 		.ascii	"bool_t\000"
 4497      5F7400
 4498              	.LASF62:
 4499 00ea 6D5F7175 		.ascii	"m_queue\000"
 4499      65756500 
 4500              	.LASF21:
 4501 00f2 74736C69 		.ascii	"tslices_t\000"
 4501      6365735F 
 4501      7400
 4502              	.LASF109:
 4503 00fc 4932435F 		.ascii	"I2C_UNINIT\000"
 4503      554E494E 
 4503      495400
 4504              	.LASF131:
 4505 0107 69326361 		.ascii	"i2caddr_t\000"
 4505      6464725F 
 4505      7400
 4506              	.LASF117:
 4507 0111 73746174 		.ascii	"state\000"
ARM GAS  /var/folders/l5/0x54b2c10074c8bt31ycjvl80000gp/T//ccp7rYYt.s 			page 81


 4507      6500
 4508              	.LASF0:
 4509 0117 6C6F6E67 		.ascii	"long int\000"
 4509      20696E74 
 4509      00
 4510              	.LASF20:
 4511 0120 74737461 		.ascii	"tstate_t\000"
 4511      74655F74 
 4511      00
 4512              	.LASF178:
 4513 0129 2F557365 		.ascii	"/Users/fernandoguirado/eclipse-workspace/ChibiOS-RP"
 4513      72732F66 
 4513      65726E61 
 4513      6E646F67 
 4513      75697261 
 4514 015c 692D6D61 		.ascii	"i-master/testhal/BCM2835/GPIO\000"
 4514      73746572 
 4514      2F746573 
 4514      7468616C 
 4514      2F42434D 
 4515              	.LASF161:
 4516 017a 63684F51 		.ascii	"chOQGetI\000"
 4516      47657449 
 4516      00
 4517              	.LASF122:
 4518 0183 74687265 		.ascii	"thread\000"
 4518      616400
 4519              	.LASF96:
 4520 018a 64617461 		.ascii	"dataDelay\000"
 4520      44656C61 
 4520      7900
 4521              	.LASF79:
 4522 0194 715F6275 		.ascii	"q_buffer\000"
 4522      66666572 
 4522      00
 4523              	.LASF14:
 4524 019d 75696E74 		.ascii	"uint16_t\000"
 4524      31365F74 
 4524      00
 4525              	.LASF162:
 4526 01a6 63684576 		.ascii	"chEvtBroadcastFlagsI\000"
 4526      7442726F 
 4526      61646361 
 4526      7374466C 
 4526      61677349 
 4527              	.LASF112:
 4528 01bb 4932435F 		.ascii	"I2C_ACTIVE_TX\000"
 4528      41435449 
 4528      56455F54 
 4528      5800
 4529              	.LASF92:
 4530 01c9 64617461 		.ascii	"dataLength\000"
 4530      4C656E67 
 4530      746800
 4531              	.LASF88:
 4532 01d4 5F69646C 		.ascii	"_idle_thread_wa\000"
 4532      655F7468 
ARM GAS  /var/folders/l5/0x54b2c10074c8bt31ycjvl80000gp/T//ccp7rYYt.s 			page 82


 4532      72656164 
 4532      5F776100 
 4533              	.LASF163:
 4534 01e4 63684951 		.ascii	"chIQPutI\000"
 4534      50757449 
 4534      00
 4535              	.LASF7:
 4536 01ed 5F5F7569 		.ascii	"__uint16_t\000"
 4536      6E743136 
 4536      5F7400
 4537              	.LASF167:
 4538 01f8 63685363 		.ascii	"chSchRescheduleS\000"
 4538      68526573 
 4538      63686564 
 4538      756C6553 
 4538      00
 4539              	.LASF90:
 4540 0209 636F6E74 		.ascii	"control\000"
 4540      726F6C00 
 4541              	.LASF10:
 4542 0211 5F5F7569 		.ascii	"__uint32_t\000"
 4542      6E743332 
 4542      5F7400
 4543              	.LASF42:
 4544 021c 72656761 		.ascii	"regarm_t\000"
 4544      726D5F74 
 4544      00
 4545              	.LASF48:
 4546 0225 76745F70 		.ascii	"vt_prev\000"
 4546      72657600 
 4547              	.LASF175:
 4548 022d 63684F51 		.ascii	"chOQPutTimeout\000"
 4548      50757454 
 4548      696D656F 
 4548      757400
 4549              	.LASF93:
 4550 023c 736C6176 		.ascii	"slaveAddress\000"
 4550      65416464 
 4550      72657373 
 4550      00
 4551              	.LASF176:
 4552 0249 474E5520 		.ascii	"GNU C17 8.3.1 20190703 (release) [gcc-8-branch revi"
 4552      43313720 
 4552      382E332E 
 4552      31203230 
 4552      31393037 
 4553 027c 73696F6E 		.ascii	"sion 273027] -mcpu=arm1176jz-s -mabi=apcs-gnu -mno-"
 4553      20323733 
 4553      3032375D 
 4553      202D6D63 
 4553      70753D61 
 4554 02af 7468756D 		.ascii	"thumb-interwork -mfloat-abi=soft -marm -march=armv6"
 4554      622D696E 
 4554      74657277 
 4554      6F726B20 
 4554      2D6D666C 
 4555 02e2 6B7A202D 		.ascii	"kz -ggdb -O2 -fomit-frame-pointer -ffunction-sectio"
ARM GAS  /var/folders/l5/0x54b2c10074c8bt31ycjvl80000gp/T//ccp7rYYt.s 			page 83


 4555      67676462 
 4555      202D4F32 
 4555      202D666F 
 4555      6D69742D 
 4556 0315 6E73202D 		.ascii	"ns -fdata-sections\000"
 4556      66646174 
 4556      612D7365 
 4556      6374696F 
 4556      6E7300
 4557              	.LASF134:
 4558 0328 49324330 		.ascii	"I2C0\000"
 4558      00
 4559              	.LASF70:
 4560 032d 4576656E 		.ascii	"EventSource\000"
 4560      74536F75 
 4560      72636500 
 4561              	.LASF17:
 4562 0339 756E7369 		.ascii	"unsigned int\000"
 4562      676E6564 
 4562      20696E74 
 4562      00
 4563              	.LASF47:
 4564 0346 76745F6E 		.ascii	"vt_next\000"
 4564      65787400 
 4565              	.LASF124:
 4566 034e 74786275 		.ascii	"txbuf\000"
 4566      6600
 4567              	.LASF145:
 4568 0354 53657269 		.ascii	"SerialDriverVMT\000"
 4568      616C4472 
 4568      69766572 
 4568      564D5400 
 4569              	.LASF166:
 4570 0364 63684951 		.ascii	"chIQResetI\000"
 4570      52657365 
 4570      744900
 4571              	.LASF156:
 4572 036f 696E6F74 		.ascii	"inotify\000"
 4572      69667900 
 4573              	.LASF119:
 4574 0377 6572726F 		.ascii	"errors\000"
 4574      727300
 4575              	.LASF141:
 4576 037e 69717565 		.ascii	"iqueue\000"
 4576      756500
 4577              	.LASF1:
 4578 0385 6C6F6E67 		.ascii	"long unsigned int\000"
 4578      20756E73 
 4578      69676E65 
 4578      6420696E 
 4578      7400
 4579              	.LASF160:
 4580 0397 74696D65 		.ascii	"timeout\000"
 4580      6F757400 
 4581              	.LASF149:
 4582 039f 67657474 		.ascii	"gett\000"
 4582      00
ARM GAS  /var/folders/l5/0x54b2c10074c8bt31ycjvl80000gp/T//ccp7rYYt.s 			page 84


 4583              	.LASF45:
 4584 03a4 76746675 		.ascii	"vtfunc_t\000"
 4584      6E635F74 
 4584      00
 4585              	.LASF140:
 4586 03ad 6576656E 		.ascii	"event\000"
 4586      7400
 4587              	.LASF8:
 4588 03b3 73686F72 		.ascii	"short unsigned int\000"
 4588      7420756E 
 4588      7369676E 
 4588      65642069 
 4588      6E7400
 4589              	.LASF104:
 4590 03c6 6770696F 		.ascii	"gpio_port_t\000"
 4590      5F706F72 
 4590      745F7400 
 4591              	.LASF100:
 4592 03d2 6770636C 		.ascii	"gpclr\000"
 4592      7200
 4593              	.LASF23:
 4594 03d8 6D73675F 		.ascii	"msg_t\000"
 4594      7400
 4595              	.LASF142:
 4596 03de 6F717565 		.ascii	"oqueue\000"
 4596      756500
 4597              	.LASF66:
 4598 03e5 656C5F6E 		.ascii	"el_next\000"
 4598      65787400 
 4599              	.LASF150:
 4600 03ed 77726974 		.ascii	"writet\000"
 4600      657400
 4601              	.LASF19:
 4602 03f4 746D6F64 		.ascii	"tmode_t\000"
 4602      655F7400 
 4603              	.LASF40:
 4604 03fc 54687265 		.ascii	"ThreadsList\000"
 4604      6164734C 
 4604      69737400 
 4605              	.LASF24:
 4606 0408 6576656E 		.ascii	"eventmask_t\000"
 4606      746D6173 
 4606      6B5F7400 
 4607              	.LASF86:
 4608 0414 496E7075 		.ascii	"InputQueue\000"
 4608      74517565 
 4608      756500
 4609              	.LASF61:
 4610 041f 4D757465 		.ascii	"Mutex\000"
 4610      7800
 4611              	.LASF76:
 4612 0425 47656E65 		.ascii	"GenericQueue\000"
 4612      72696351 
 4612      75657565 
 4612      00
 4613              	.LASF41:
 4614 0432 73746B61 		.ascii	"stkalign_t\000"
ARM GAS  /var/folders/l5/0x54b2c10074c8bt31ycjvl80000gp/T//ccp7rYYt.s 			page 85


 4614      6C69676E 
 4614      5F7400
 4615              	.LASF173:
 4616 043d 63684F51 		.ascii	"chOQWriteTimeout\000"
 4616      57726974 
 4616      6554696D 
 4616      656F7574 
 4616      00
 4617              	.LASF146:
 4618 044e 77726974 		.ascii	"write\000"
 4618      6500
 4619              	.LASF101:
 4620 0454 67706C65 		.ascii	"gplev\000"
 4620      7600
 4621              	.LASF148:
 4622 045a 70757474 		.ascii	"putt\000"
 4622      00
 4623              	.LASF49:
 4624 045f 76745F74 		.ascii	"vt_time\000"
 4624      696D6500 
 4625              	.LASF110:
 4626 0467 4932435F 		.ascii	"I2C_STOP\000"
 4626      53544F50 
 4626      00
 4627              	.LASF95:
 4628 0470 636C6F63 		.ascii	"clockDivider\000"
 4628      6B446976 
 4628      69646572 
 4628      00
 4629              	.LASF78:
 4630 047d 715F636F 		.ascii	"q_counter\000"
 4630      756E7465 
 4630      7200
 4631              	.LASF50:
 4632 0487 76745F66 		.ascii	"vt_func\000"
 4632      756E6300 
 4633              	.LASF132:
 4634 048f 69635F73 		.ascii	"ic_speed\000"
 4634      70656564 
 4634      00
 4635              	.LASF53:
 4636 0498 56544C69 		.ascii	"VTList\000"
 4636      737400
 4637              	.LASF128:
 4638 049f 72786279 		.ascii	"rxbytes\000"
 4638      74657300 
 4639              	.LASF81:
 4640 04a7 715F7772 		.ascii	"q_wrptr\000"
 4640      70747200 
 4641              	.LASF56:
 4642 04af 725F6374 		.ascii	"r_ctx\000"
 4642      7800
 4643              	.LASF39:
 4644 04b5 54687265 		.ascii	"ThreadsQueue\000"
 4644      61647351 
 4644      75657565 
 4644      00
ARM GAS  /var/folders/l5/0x54b2c10074c8bt31ycjvl80000gp/T//ccp7rYYt.s 			page 86


 4645              	.LASF106:
 4646 04c2 494F504F 		.ascii	"IOPORT0\000"
 4646      52543000 
 4647              	.LASF153:
 4648 04ca 73645374 		.ascii	"sdStop\000"
 4648      6F7000
 4649              	.LASF159:
 4650 04d1 74696D65 		.ascii	"time\000"
 4650      00
 4651              	.LASF57:
 4652 04d6 725F6375 		.ascii	"r_current\000"
 4652      7272656E 
 4652      7400
 4653              	.LASF68:
 4654 04e0 656C5F6D 		.ascii	"el_mask\000"
 4654      61736B00 
 4655              	.LASF99:
 4656 04e8 67707365 		.ascii	"gpset\000"
 4656      7400
 4657              	.LASF102:
 4658 04ee 67707075 		.ascii	"gppudclk\000"
 4658      64636C6B 
 4658      00
 4659              	.LASF129:
 4660 04f7 72786964 		.ascii	"rxidx\000"
 4660      7800
 4661              	.LASF115:
 4662 04fd 69326373 		.ascii	"i2cstate_t\000"
 4662      74617465 
 4662      5F7400
 4663              	.LASF85:
 4664 0508 716E6F74 		.ascii	"qnotify_t\000"
 4664      6966795F 
 4664      7400
 4665              	.LASF29:
 4666 0512 705F7072 		.ascii	"p_prev\000"
 4666      657600
 4667              	.LASF22:
 4668 0519 74707269 		.ascii	"tprio_t\000"
 4668      6F5F7400 
 4669              	.LASF82:
 4670 0521 715F7264 		.ascii	"q_rdptr\000"
 4670      70747200 
 4671              	.LASF130:
 4672 0529 69326366 		.ascii	"i2cflags_t\000"
 4672      6C616773 
 4672      5F7400
 4673              	.LASF121:
 4674 0534 6D757465 		.ascii	"mutex\000"
 4674      7800
 4675              	.LASF15:
 4676 053a 696E7433 		.ascii	"int32_t\000"
 4676      325F7400 
 4677              	.LASF5:
 4678 0542 756E7369 		.ascii	"unsigned char\000"
 4678      676E6564 
 4678      20636861 
ARM GAS  /var/folders/l5/0x54b2c10074c8bt31ycjvl80000gp/T//ccp7rYYt.s 			page 87


 4678      7200
 4679              	.LASF168:
 4680 0550 73645F6C 		.ascii	"sd_lld_start\000"
 4680      6C645F73 
 4680      74617274 
 4680      00
 4681              	.LASF67:
 4682 055d 656C5F6C 		.ascii	"el_listener\000"
 4682      69737465 
 4682      6E657200 
 4683              	.LASF69:
 4684 0569 656C5F66 		.ascii	"el_flags\000"
 4684      6C616773 
 4684      00
 4685              	.LASF37:
 4686 0572 705F6D74 		.ascii	"p_mtxlist\000"
 4686      786C6973 
 4686      7400
 4687              	.LASF6:
 4688 057c 73686F72 		.ascii	"short int\000"
 4688      7420696E 
 4688      7400
 4689              	.LASF32:
 4690 0586 705F7374 		.ascii	"p_state\000"
 4690      61746500 
 4691              	.LASF34:
 4692 058e 705F7072 		.ascii	"p_preempt\000"
 4692      65656D70 
 4692      7400
 4693              	.LASF155:
 4694 0598 73644F62 		.ascii	"sdObjectInit\000"
 4694      6A656374 
 4694      496E6974 
 4694      00
 4695              	.LASF55:
 4696 05a5 725F7072 		.ascii	"r_prio\000"
 4696      696F00
 4697              	.LASF103:
 4698 05ac 70696E5F 		.ascii	"pin_base\000"
 4698      62617365 
 4698      00
 4699              	.LASF75:
 4700 05b5 65776D61 		.ascii	"ewmask\000"
 4700      736B00
 4701              	.LASF28:
 4702 05bc 705F6E65 		.ascii	"p_next\000"
 4702      787400
 4703              	.LASF107:
 4704 05c3 494F504F 		.ascii	"IOPORT1\000"
 4704      52543100 
 4705              	.LASF33:
 4706 05cb 705F666C 		.ascii	"p_flags\000"
 4706      61677300 
 4707              	.LASF27:
 4708 05d3 54687265 		.ascii	"Thread\000"
 4708      616400
 4709              	.LASF114:
ARM GAS  /var/folders/l5/0x54b2c10074c8bt31ycjvl80000gp/T//ccp7rYYt.s 			page 88


 4710 05da 4932435F 		.ascii	"I2C_LOCKED\000"
 4710      4C4F434B 
 4710      454400
 4711              	.LASF36:
 4712 05e5 705F6570 		.ascii	"p_epending\000"
 4712      656E6469 
 4712      6E6700
 4713              	.LASF135:
 4714 05f0 53445F55 		.ascii	"SD_UNINIT\000"
 4714      4E494E49 
 4714      5400
 4715              	.LASF16:
 4716 05fa 75696E74 		.ascii	"uint32_t\000"
 4716      33325F74 
 4716      00
 4717              	.LASF54:
 4718 0603 725F7175 		.ascii	"r_queue\000"
 4718      65756500 
 4719              	.LASF46:
 4720 060b 56697274 		.ascii	"VirtualTimer\000"
 4720      75616C54 
 4720      696D6572 
 4720      00
 4721              	.LASF139:
 4722 0618 53657269 		.ascii	"SerialDriver\000"
 4722      616C4472 
 4722      69766572 
 4722      00
 4723              	.LASF113:
 4724 0625 4932435F 		.ascii	"I2C_ACTIVE_RX\000"
 4724      41435449 
 4724      56455F52 
 4724      5800
 4725              	.LASF147:
 4726 0633 72656164 		.ascii	"read\000"
 4726      00
 4727              	.LASF152:
 4728 0638 7364496E 		.ascii	"sdIncomingDataI\000"
 4728      636F6D69 
 4728      6E674461 
 4728      74614900 
 4729              	.LASF118:
 4730 0648 636F6E66 		.ascii	"config\000"
 4730      696700
 4731              	.LASF154:
 4732 064f 73645374 		.ascii	"sdStart\000"
 4732      61727400 
 4733              	.LASF177:
 4734 0657 2E2E2F2E 		.ascii	"../../../os/hal/src/serial.c\000"
 4734      2E2F2E2E 
 4734      2F6F732F 
 4734      68616C2F 
 4734      7372632F 
 4735              	.LASF64:
 4736 0674 6D5F6E65 		.ascii	"m_next\000"
 4736      787400
 4737              	.LASF26:
ARM GAS  /var/folders/l5/0x54b2c10074c8bt31ycjvl80000gp/T//ccp7rYYt.s 			page 89


 4738 067b 73797374 		.ascii	"systime_t\000"
 4738      696D655F 
 4738      7400
 4739              	.LASF38:
 4740 0685 705F7265 		.ascii	"p_realprio\000"
 4740      616C7072 
 4740      696F00
 4741              	.LASF9:
 4742 0690 5F5F696E 		.ascii	"__int32_t\000"
 4742      7433325F 
 4742      7400
 4743              	.LASF111:
 4744 069a 4932435F 		.ascii	"I2C_READY\000"
 4744      52454144 
 4744      5900
 4745              	.LASF116:
 4746 06a4 49324344 		.ascii	"I2CDriver\000"
 4746      72697665 
 4746      7200
 4747              	.LASF165:
 4748 06ae 63684F51 		.ascii	"chOQResetI\000"
 4748      52657365 
 4748      744900
 4749              	.LASF44:
 4750 06b9 636F6E74 		.ascii	"context\000"
 4750      65787400 
 4751              	.LASF43:
 4752 06c1 696E7463 		.ascii	"intctx\000"
 4752      747800
 4753              	.LASF137:
 4754 06c8 53445F52 		.ascii	"SD_READY\000"
 4754      45414459 
 4754      00
 4755              	.LASF51:
 4756 06d1 76745F70 		.ascii	"vt_par\000"
 4756      617200
 4757              	.LASF25:
 4758 06d8 666C6167 		.ascii	"flagsmask_t\000"
 4758      736D6173 
 4758      6B5F7400 
 4759              	.LASF133:
 4760 06e4 49324343 		.ascii	"I2CConfig\000"
 4760      6F6E6669 
 4760      6700
 4761              	.LASF138:
 4762 06ee 73647374 		.ascii	"sdstate_t\000"
 4762      6174655F 
 4762      7400
 4763              	.LASF126:
 4764 06f8 74786964 		.ascii	"txidx\000"
 4764      7800
 4765              	.LASF144:
 4766 06fe 53657269 		.ascii	"SerialConfig\000"
 4766      616C436F 
 4766      6E666967 
 4766      00
 4767              	.LASF80:
ARM GAS  /var/folders/l5/0x54b2c10074c8bt31ycjvl80000gp/T//ccp7rYYt.s 			page 90


 4768 070b 715F746F 		.ascii	"q_top\000"
 4768      7000
 4769              	.LASF71:
 4770 0711 65735F6E 		.ascii	"es_next\000"
 4770      65787400 
 4771              	.LASF91:
 4772 0719 73746174 		.ascii	"status\000"
 4772      757300
 4773              	.LASF58:
 4774 0720 52656164 		.ascii	"ReadyList\000"
 4774      794C6973 
 4774      7400
 4775              	.LASF83:
 4776 072a 715F6E6F 		.ascii	"q_notify\000"
 4776      74696679 
 4776      00
 4777              	.LASF60:
 4778 0733 726C6973 		.ascii	"rlist\000"
 4778      7400
 4779              	.LASF179:
 4780 0739 73645265 		.ascii	"sdRequestDataI\000"
 4780      71756573 
 4780      74446174 
 4780      614900
 4781              	.LASF13:
 4782 0748 75696E74 		.ascii	"uint8_t\000"
 4782      385F7400 
 4783              	.LASF98:
 4784 0750 6C617463 		.ascii	"latch\000"
 4784      6800
 4785              	.LASF157:
 4786 0756 6F6E6F74 		.ascii	"onotify\000"
 4786      69667900 
 4787              	.LASF174:
 4788 075e 63684951 		.ascii	"chIQGetTimeout\000"
 4788      47657454 
 4788      696D656F 
 4788      757400
 4789              	.LASF65:
 4790 076d 4576656E 		.ascii	"EventListener\000"
 4790      744C6973 
 4790      74656E65 
 4790      7200
 4791              	.LASF74:
 4792 077b 77746F62 		.ascii	"wtobjp\000"
 4792      6A7000
 4793              	.LASF52:
 4794 0782 76745F73 		.ascii	"vt_systime\000"
 4794      79737469 
 4794      6D6500
 4795              	.LASF164:
 4796 078d 73645F6C 		.ascii	"sd_lld_stop\000"
 4796      6C645F73 
 4796      746F7000 
 4797              	.LASF158:
 4798 0799 7364496E 		.ascii	"sdInit\000"
 4798      697400
ARM GAS  /var/folders/l5/0x54b2c10074c8bt31ycjvl80000gp/T//ccp7rYYt.s 			page 91


 4799              	.LASF84:
 4800 07a0 715F6C69 		.ascii	"q_link\000"
 4800      6E6B00
 4801              	.LASF105:
 4802 07a7 50414C43 		.ascii	"PALConfig\000"
 4802      6F6E6669 
 4802      6700
 4803              	.LASF63:
 4804 07b1 6D5F6F77 		.ascii	"m_owner\000"
 4804      6E657200 
 4805              	.LASF108:
 4806 07b9 70616C5F 		.ascii	"pal_default_config\000"
 4806      64656661 
 4806      756C745F 
 4806      636F6E66 
 4806      696700
 4807              	.LASF31:
 4808 07cc 705F6374 		.ascii	"p_ctx\000"
 4808      7800
 4809              	.LASF35:
 4810 07d2 705F7761 		.ascii	"p_waiting\000"
 4810      6974696E 
 4810      6700
 4811              	.LASF125:
 4812 07dc 74786279 		.ascii	"txbytes\000"
 4812      74657300 
 4813              	.LASF97:
 4814 07e4 636C6F63 		.ascii	"clockStretchTimeout\000"
 4814      6B537472 
 4814      65746368 
 4814      54696D65 
 4814      6F757400 
 4815              		.ident	"GCC: (GNU Tools for Arm Embedded Processors 8-2019-q3-update) 8.3.1 20190703 (release) [gc
ARM GAS  /var/folders/l5/0x54b2c10074c8bt31ycjvl80000gp/T//ccp7rYYt.s 			page 92


DEFINED SYMBOLS
                            *ABS*:0000000000000000 serial.c
/var/folders/l5/0x54b2c10074c8bt31ycjvl80000gp/T//ccp7rYYt.s:6      .text.readt:0000000000000000 $a
/var/folders/l5/0x54b2c10074c8bt31ycjvl80000gp/T//ccp7rYYt.s:12     .text.readt:0000000000000000 readt
/var/folders/l5/0x54b2c10074c8bt31ycjvl80000gp/T//ccp7rYYt.s:33     .text.read:0000000000000000 $a
/var/folders/l5/0x54b2c10074c8bt31ycjvl80000gp/T//ccp7rYYt.s:38     .text.read:0000000000000000 read
/var/folders/l5/0x54b2c10074c8bt31ycjvl80000gp/T//ccp7rYYt.s:59     .text.writet:0000000000000000 $a
/var/folders/l5/0x54b2c10074c8bt31ycjvl80000gp/T//ccp7rYYt.s:64     .text.writet:0000000000000000 writet
/var/folders/l5/0x54b2c10074c8bt31ycjvl80000gp/T//ccp7rYYt.s:84     .text.write:0000000000000000 $a
/var/folders/l5/0x54b2c10074c8bt31ycjvl80000gp/T//ccp7rYYt.s:89     .text.write:0000000000000000 write
/var/folders/l5/0x54b2c10074c8bt31ycjvl80000gp/T//ccp7rYYt.s:110    .text.gett:0000000000000000 $a
/var/folders/l5/0x54b2c10074c8bt31ycjvl80000gp/T//ccp7rYYt.s:115    .text.gett:0000000000000000 gett
/var/folders/l5/0x54b2c10074c8bt31ycjvl80000gp/T//ccp7rYYt.s:135    .text.get:0000000000000000 $a
/var/folders/l5/0x54b2c10074c8bt31ycjvl80000gp/T//ccp7rYYt.s:140    .text.get:0000000000000000 get
/var/folders/l5/0x54b2c10074c8bt31ycjvl80000gp/T//ccp7rYYt.s:161    .text.putt:0000000000000000 $a
/var/folders/l5/0x54b2c10074c8bt31ycjvl80000gp/T//ccp7rYYt.s:166    .text.putt:0000000000000000 putt
/var/folders/l5/0x54b2c10074c8bt31ycjvl80000gp/T//ccp7rYYt.s:188    .text.put:0000000000000000 $a
/var/folders/l5/0x54b2c10074c8bt31ycjvl80000gp/T//ccp7rYYt.s:193    .text.put:0000000000000000 put
/var/folders/l5/0x54b2c10074c8bt31ycjvl80000gp/T//ccp7rYYt.s:216    .text.sdInit:0000000000000000 $a
/var/folders/l5/0x54b2c10074c8bt31ycjvl80000gp/T//ccp7rYYt.s:222    .text.sdInit:0000000000000000 sdInit
/var/folders/l5/0x54b2c10074c8bt31ycjvl80000gp/T//ccp7rYYt.s:236    .text.sdObjectInit:0000000000000000 $a
/var/folders/l5/0x54b2c10074c8bt31ycjvl80000gp/T//ccp7rYYt.s:242    .text.sdObjectInit:0000000000000000 sdObjectInit
/var/folders/l5/0x54b2c10074c8bt31ycjvl80000gp/T//ccp7rYYt.s:303    .text.sdObjectInit:0000000000000058 $d
/var/folders/l5/0x54b2c10074c8bt31ycjvl80000gp/T//ccp7rYYt.s:308    .text.sdStart:0000000000000000 $a
/var/folders/l5/0x54b2c10074c8bt31ycjvl80000gp/T//ccp7rYYt.s:314    .text.sdStart:0000000000000000 sdStart
/var/folders/l5/0x54b2c10074c8bt31ycjvl80000gp/T//ccp7rYYt.s:364    .text.sdStop:0000000000000000 $a
/var/folders/l5/0x54b2c10074c8bt31ycjvl80000gp/T//ccp7rYYt.s:370    .text.sdStop:0000000000000000 sdStop
/var/folders/l5/0x54b2c10074c8bt31ycjvl80000gp/T//ccp7rYYt.s:433    .text.sdIncomingDataI:0000000000000000 $a
/var/folders/l5/0x54b2c10074c8bt31ycjvl80000gp/T//ccp7rYYt.s:439    .text.sdIncomingDataI:0000000000000000 sdIncomingDataI
/var/folders/l5/0x54b2c10074c8bt31ycjvl80000gp/T//ccp7rYYt.s:508    .text.sdRequestDataI:0000000000000000 $a
/var/folders/l5/0x54b2c10074c8bt31ycjvl80000gp/T//ccp7rYYt.s:514    .text.sdRequestDataI:0000000000000000 sdRequestDataI
/var/folders/l5/0x54b2c10074c8bt31ycjvl80000gp/T//ccp7rYYt.s:564    .rodata.vmt:0000000000000000 $d
/var/folders/l5/0x54b2c10074c8bt31ycjvl80000gp/T//ccp7rYYt.s:568    .rodata.vmt:0000000000000000 vmt

UNDEFINED SYMBOLS
chIQReadTimeout
chOQWriteTimeout
chIQGetTimeout
chOQPutTimeout
sd_lld_init
chIQInit
chOQInit
sd_lld_start
sd_lld_stop
chOQResetI
chIQResetI
chSchRescheduleS
chIQPutI
chEvtBroadcastFlagsI
chOQGetI
