ARM GAS  /var/folders/l5/0x54b2c10074c8bt31ycjvl80000gp/T//ccp7rYYt.s 			page 1


   1              		.file	"serial.c"
   2              		.text
   3              	.Ltext0:
   4              		.cfi_sections	.debug_frame
   5              		.section	.text.readt,"ax",%progbits
   6              		.align	2
   7              		.arch armv6kz
   8              		.syntax unified
   9              		.arm
  10              		.fpu softvfp
  11              		.type	readt, %function
  12              	readt:
  13              	.LVL0:
  14              	.LFB14:
  15              		.file 1 "../../../os/hal/src/serial.c"
  16              		.loc 1 92 70 view -0
  17              		.cfi_startproc
  18              		@ args = 0, pretend = 0, frame = 0
  19              		@ frame_needed = 0, uses_anonymous_args = 0
  20              		@ link register save eliminated.
  21              		.loc 1 94 3 view .LVU1
  22              		.loc 1 94 10 is_stmt 0 view .LVU2
  23 0000 0C0080E2 		add	r0, r0, #12
  24              	.LVL1:
  25              		.loc 1 94 10 view .LVU3
  26 0004 FEFFFFEA 		b	chIQReadTimeout
  27              	.LVL2:
  28              		.loc 1 94 10 view .LVU4
  29              		.cfi_endproc
  30              	.LFE14:
  31              		.size	readt, .-readt
  32              		.section	.text.read,"ax",%progbits
  33              		.align	2
  34              		.syntax unified
  35              		.arm
  36              		.fpu softvfp
  37              		.type	read, %function
  38              	read:
  39              	.LVL3:
  40              	.LFB8:
  41              		.loc 1 61 53 is_stmt 1 view -0
  42              		.cfi_startproc
  43              		@ args = 0, pretend = 0, frame = 0
  44              		@ frame_needed = 0, uses_anonymous_args = 0
  45              		@ link register save eliminated.
  46              		.loc 1 63 3 view .LVU6
  47              		.loc 1 63 10 is_stmt 0 view .LVU7
  48 0000 0C0080E2 		add	r0, r0, #12
  49              	.LVL4:
  50              		.loc 1 63 10 view .LVU8
  51 0004 0030E0E3 		mvn	r3, #0
  52 0008 FEFFFFEA 		b	chIQReadTimeout
  53              	.LVL5:
  54              		.loc 1 63 10 view .LVU9
  55              		.cfi_endproc
  56              	.LFE8:
  57              		.size	read, .-read
ARM GAS  /var/folders/l5/0x54b2c10074c8bt31ycjvl80000gp/T//ccp7rYYt.s 			page 2


  58              		.section	.text.writet,"ax",%progbits
  59              		.align	2
  60              		.syntax unified
  61              		.arm
  62              		.fpu softvfp
  63              		.type	writet, %function
  64              	writet:
  65              	.LVL6:
  66              	.LFB13:
  67              		.loc 1 87 77 is_stmt 1 view -0
  68              		.cfi_startproc
  69              		@ args = 0, pretend = 0, frame = 0
  70              		@ frame_needed = 0, uses_anonymous_args = 0
  71              		@ link register save eliminated.
  72              		.loc 1 89 3 view .LVU11
  73              		.loc 1 89 10 is_stmt 0 view .LVU12
  74 0000 300080E2 		add	r0, r0, #48
  75              	.LVL7:
  76              		.loc 1 89 10 view .LVU13
  77 0004 FEFFFFEA 		b	chOQWriteTimeout
  78              	.LVL8:
  79              		.loc 1 89 10 view .LVU14
  80              		.cfi_endproc
  81              	.LFE13:
  82              		.size	writet, .-writet
  83              		.section	.text.write,"ax",%progbits
  84              		.align	2
  85              		.syntax unified
  86              		.arm
  87              		.fpu softvfp
  88              		.type	write, %function
  89              	write:
  90              	.LVL9:
  91              	.LFB7:
  92              		.loc 1 55 60 is_stmt 1 view -0
  93              		.cfi_startproc
  94              		@ args = 0, pretend = 0, frame = 0
  95              		@ frame_needed = 0, uses_anonymous_args = 0
  96              		@ link register save eliminated.
  97              		.loc 1 57 3 view .LVU16
  98              		.loc 1 57 10 is_stmt 0 view .LVU17
  99 0000 300080E2 		add	r0, r0, #48
 100              	.LVL10:
 101              		.loc 1 57 10 view .LVU18
 102 0004 0030E0E3 		mvn	r3, #0
 103 0008 FEFFFFEA 		b	chOQWriteTimeout
 104              	.LVL11:
 105              		.loc 1 57 10 view .LVU19
 106              		.cfi_endproc
 107              	.LFE7:
 108              		.size	write, .-write
 109              		.section	.text.gett,"ax",%progbits
 110              		.align	2
 111              		.syntax unified
 112              		.arm
 113              		.fpu softvfp
 114              		.type	gett, %function
ARM GAS  /var/folders/l5/0x54b2c10074c8bt31ycjvl80000gp/T//ccp7rYYt.s 			page 3


 115              	gett:
 116              	.LVL12:
 117              	.LFB12:
 118              		.loc 1 82 48 is_stmt 1 view -0
 119              		.cfi_startproc
 120              		@ args = 0, pretend = 0, frame = 0
 121              		@ frame_needed = 0, uses_anonymous_args = 0
 122              		@ link register save eliminated.
 123              		.loc 1 84 3 view .LVU21
 124              		.loc 1 84 10 is_stmt 0 view .LVU22
 125 0000 0C0080E2 		add	r0, r0, #12
 126              	.LVL13:
 127              		.loc 1 84 10 view .LVU23
 128 0004 FEFFFFEA 		b	chIQGetTimeout
 129              	.LVL14:
 130              		.loc 1 84 10 view .LVU24
 131              		.cfi_endproc
 132              	.LFE12:
 133              		.size	gett, .-gett
 134              		.section	.text.get,"ax",%progbits
 135              		.align	2
 136              		.syntax unified
 137              		.arm
 138              		.fpu softvfp
 139              		.type	get, %function
 140              	get:
 141              	.LVL15:
 142              	.LFB10:
 143              		.loc 1 72 28 is_stmt 1 view -0
 144              		.cfi_startproc
 145              		@ args = 0, pretend = 0, frame = 0
 146              		@ frame_needed = 0, uses_anonymous_args = 0
 147              		@ link register save eliminated.
 148              		.loc 1 74 3 view .LVU26
 149              		.loc 1 74 10 is_stmt 0 view .LVU27
 150 0000 0C0080E2 		add	r0, r0, #12
 151              	.LVL16:
 152              		.loc 1 74 10 view .LVU28
 153 0004 0010E0E3 		mvn	r1, #0
 154 0008 FEFFFFEA 		b	chIQGetTimeout
 155              	.LVL17:
 156              		.loc 1 74 10 view .LVU29
 157              		.cfi_endproc
 158              	.LFE10:
 159              		.size	get, .-get
 160              		.section	.text.putt,"ax",%progbits
 161              		.align	2
 162              		.syntax unified
 163              		.arm
 164              		.fpu softvfp
 165              		.type	putt, %function
 166              	putt:
 167              	.LVL18:
 168              	.LFB11:
 169              		.loc 1 77 59 is_stmt 1 view -0
 170              		.cfi_startproc
 171              		@ args = 0, pretend = 0, frame = 0
ARM GAS  /var/folders/l5/0x54b2c10074c8bt31ycjvl80000gp/T//ccp7rYYt.s 			page 4


 172              		@ frame_needed = 0, uses_anonymous_args = 0
 173              		@ link register save eliminated.
 174              		.loc 1 79 3 view .LVU31
 175              		.loc 1 79 10 is_stmt 0 view .LVU32
 176 0000 7110EFE6 		uxtb	r1, r1
 177              		.loc 1 79 10 view .LVU33
 178 0004 300080E2 		add	r0, r0, #48
 179              	.LVL19:
 180              		.loc 1 79 10 view .LVU34
 181 0008 FEFFFFEA 		b	chOQPutTimeout
 182              	.LVL20:
 183              		.loc 1 79 10 view .LVU35
 184              		.cfi_endproc
 185              	.LFE11:
 186              		.size	putt, .-putt
 187              		.section	.text.put,"ax",%progbits
 188              		.align	2
 189              		.syntax unified
 190              		.arm
 191              		.fpu softvfp
 192              		.type	put, %function
 193              	put:
 194              	.LVL21:
 195              	.LFB9:
 196              		.loc 1 67 39 is_stmt 1 view -0
 197              		.cfi_startproc
 198              		@ args = 0, pretend = 0, frame = 0
 199              		@ frame_needed = 0, uses_anonymous_args = 0
 200              		@ link register save eliminated.
 201              		.loc 1 69 3 view .LVU37
 202              		.loc 1 69 10 is_stmt 0 view .LVU38
 203 0000 7110EFE6 		uxtb	r1, r1
 204              		.loc 1 69 10 view .LVU39
 205 0004 300080E2 		add	r0, r0, #48
 206              	.LVL22:
 207              		.loc 1 69 10 view .LVU40
 208 0008 0020E0E3 		mvn	r2, #0
 209 000c FEFFFFEA 		b	chOQPutTimeout
 210              	.LVL23:
 211              		.loc 1 69 10 view .LVU41
 212              		.cfi_endproc
 213              	.LFE9:
 214              		.size	put, .-put
 215              		.section	.text.sdInit,"ax",%progbits
 216              		.align	2
 217              		.global	sdInit
 218              		.syntax unified
 219              		.arm
 220              		.fpu softvfp
 221              		.type	sdInit, %function
 222              	sdInit:
 223              	.LFB15:
 224              		.loc 1 113 19 is_stmt 1 view -0
 225              		.cfi_startproc
 226              		@ args = 0, pretend = 0, frame = 0
 227              		@ frame_needed = 0, uses_anonymous_args = 0
 228              		@ link register save eliminated.
ARM GAS  /var/folders/l5/0x54b2c10074c8bt31ycjvl80000gp/T//ccp7rYYt.s 			page 5


 229              		.loc 1 115 3 view .LVU43
 230 0000 FEFFFFEA 		b	sd_lld_init
 231              	.LVL24:
 232              		.cfi_endproc
 233              	.LFE15:
 234              		.size	sdInit, .-sdInit
 235              		.section	.text.sdObjectInit,"ax",%progbits
 236              		.align	2
 237              		.global	sdObjectInit
 238              		.syntax unified
 239              		.arm
 240              		.fpu softvfp
 241              		.type	sdObjectInit, %function
 242              	sdObjectInit:
 243              	.LVL25:
 244              	.LFB16:
 245              		.loc 1 133 76 view -0
 246              		.cfi_startproc
 247              		@ args = 0, pretend = 0, frame = 0
 248              		@ frame_needed = 0, uses_anonymous_args = 0
 249              		.loc 1 135 3 view .LVU45
 250              		.loc 1 133 76 is_stmt 0 view .LVU46
 251 0000 30402DE9 		push	{r4, r5, lr}
 252              		.cfi_def_cfa_offset 12
 253              		.cfi_offset 4, -12
 254              		.cfi_offset 5, -8
 255              		.cfi_offset 14, -4
 256              		.loc 1 137 14 view .LVU47
 257 0004 01C0A0E3 		mov	ip, #1
 258              		.loc 1 133 76 view .LVU48
 259 0008 0040A0E1 		mov	r4, r0
 260 000c 0250A0E1 		mov	r5, r2
 261              		.loc 1 135 12 view .LVU49
 262 0010 40309FE5 		ldr	r3, .L13
 263              		.loc 1 133 76 view .LVU50
 264 0014 04D04DE2 		sub	sp, sp, #4
 265              		.cfi_def_cfa_offset 16
 266              		.loc 1 138 3 view .LVU51
 267 0018 00008DE5 		str	r0, [sp]
 268              		.loc 1 135 12 view .LVU52
 269 001c 043080E4 		str	r3, [r0], #4
 270              	.LVL26:
 271              		.loc 1 136 3 is_stmt 1 view .LVU53
 272              		.loc 1 137 14 is_stmt 0 view .LVU54
 273 0020 011084E9 		stmib	r4, {r0, ip}
 274              		.loc 1 138 3 is_stmt 1 view .LVU55
 275 0024 0130A0E1 		mov	r3, r1
 276 0028 0C0084E2 		add	r0, r4, #12
 277 002c 541084E2 		add	r1, r4, #84
 278              	.LVL27:
 279              		.loc 1 138 3 is_stmt 0 view .LVU56
 280 0030 1020A0E3 		mov	r2, #16
 281              	.LVL28:
 282              		.loc 1 138 3 view .LVU57
 283 0034 FEFFFFEB 		bl	chIQInit
 284              	.LVL29:
 285              		.loc 1 139 3 is_stmt 1 view .LVU58
ARM GAS  /var/folders/l5/0x54b2c10074c8bt31ycjvl80000gp/T//ccp7rYYt.s 			page 6


 286 0038 00408DE5 		str	r4, [sp]
 287 003c 0530A0E1 		mov	r3, r5
 288 0040 641084E2 		add	r1, r4, #100
 289 0044 300084E2 		add	r0, r4, #48
 290 0048 1020A0E3 		mov	r2, #16
 291 004c FEFFFFEB 		bl	chOQInit
 292              	.LVL30:
 293              		.loc 1 140 1 is_stmt 0 view .LVU59
 294 0050 04D08DE2 		add	sp, sp, #4
 295              		.cfi_def_cfa_offset 12
 296              		@ sp needed
 297 0054 3080BDE8 		pop	{r4, r5, pc}
 298              	.LVL31:
 299              	.L14:
 300              		.loc 1 140 1 view .LVU60
 301              		.align	2
 302              	.L13:
 303 0058 00000000 		.word	.LANCHOR0
 304              		.cfi_endproc
 305              	.LFE16:
 306              		.size	sdObjectInit, .-sdObjectInit
 307              		.section	.text.sdStart,"ax",%progbits
 308              		.align	2
 309              		.global	sdStart
 310              		.syntax unified
 311              		.arm
 312              		.fpu softvfp
 313              		.type	sdStart, %function
 314              	sdStart:
 315              	.LVL32:
 316              	.LFB17:
 317              		.loc 1 152 61 is_stmt 1 view -0
 318              		.cfi_startproc
 319              		@ args = 0, pretend = 0, frame = 0
 320              		@ frame_needed = 0, uses_anonymous_args = 0
 321              		.loc 1 154 3 view .LVU62
 322              		.loc 1 154 37 view .LVU63
 323              		.loc 1 156 3 view .LVU64
 324              		.loc 1 152 61 is_stmt 0 view .LVU65
 325 0000 10402DE9 		push	{r4, lr}
 326              		.cfi_def_cfa_offset 8
 327              		.cfi_offset 4, -8
 328              		.cfi_offset 14, -4
 329              		.loc 1 152 61 view .LVU66
 330 0004 0040A0E1 		mov	r4, r0
 331              		.loc 1 156 3 view .LVU67
 332              		.syntax divided
 333              	@ 156 "../../../os/hal/src/serial.c" 1
 334 0008 9FF021E3 		msr     CPSR_c, #0x9F
 335              	@ 0 "" 2
 336              		.loc 1 156 3 is_stmt 1 view .LVU68
 337              		.loc 1 156 14 view .LVU69
 338              		.loc 1 157 3 view .LVU70
 339              		.loc 1 159 31 view .LVU71
 340              		.loc 1 160 3 view .LVU72
 341              		.arm
 342              		.syntax unified
ARM GAS  /var/folders/l5/0x54b2c10074c8bt31ycjvl80000gp/T//ccp7rYYt.s 			page 7


 343 000c FEFFFFEB 		bl	sd_lld_start
 344              	.LVL33:
 345              		.loc 1 161 3 view .LVU73
 346              		.loc 1 161 14 is_stmt 0 view .LVU74
 347 0010 0230A0E3 		mov	r3, #2
 348 0014 083084E5 		str	r3, [r4, #8]
 349              		.loc 1 162 3 is_stmt 1 view .LVU75
 350              		.loc 1 162 3 view .LVU76
 351              		.syntax divided
 352              	@ 162 "../../../os/hal/src/serial.c" 1
 353 0018 1FF021E3 		msr     CPSR_c, #0x1F
 354              	@ 0 "" 2
 355              		.loc 1 162 16 view .LVU77
 356              		.loc 1 163 1 is_stmt 0 view .LVU78
 357              		.arm
 358              		.syntax unified
 359 001c 1080BDE8 		pop	{r4, pc}
 360              		.cfi_endproc
 361              	.LFE17:
 362              		.size	sdStart, .-sdStart
 363              		.section	.text.sdStop,"ax",%progbits
 364              		.align	2
 365              		.global	sdStop
 366              		.syntax unified
 367              		.arm
 368              		.fpu softvfp
 369              		.type	sdStop, %function
 370              	sdStop:
 371              	.LVL34:
 372              	.LFB18:
 373              		.loc 1 174 32 is_stmt 1 view -0
 374              		.cfi_startproc
 375              		@ args = 0, pretend = 0, frame = 0
 376              		@ frame_needed = 0, uses_anonymous_args = 0
 377              		.loc 1 176 3 view .LVU80
 378              		.loc 1 176 36 view .LVU81
 379              		.loc 1 178 3 view .LVU82
 380              		.loc 1 174 32 is_stmt 0 view .LVU83
 381 0000 10402DE9 		push	{r4, lr}
 382              		.cfi_def_cfa_offset 8
 383              		.cfi_offset 4, -8
 384              		.cfi_offset 14, -4
 385              		.loc 1 174 32 view .LVU84
 386 0004 0040A0E1 		mov	r4, r0
 387              		.loc 1 178 3 view .LVU85
 388              		.syntax divided
 389              	@ 178 "../../../os/hal/src/serial.c" 1
 390 0008 9FF021E3 		msr     CPSR_c, #0x9F
 391              	@ 0 "" 2
 392              		.loc 1 178 3 is_stmt 1 view .LVU86
 393              		.loc 1 178 14 view .LVU87
 394              		.loc 1 179 3 view .LVU88
 395              		.loc 1 181 31 view .LVU89
 396              		.loc 1 182 3 view .LVU90
 397              		.arm
 398              		.syntax unified
 399 000c FEFFFFEB 		bl	sd_lld_stop
ARM GAS  /var/folders/l5/0x54b2c10074c8bt31ycjvl80000gp/T//ccp7rYYt.s 			page 8


 400              	.LVL35:
 401              		.loc 1 183 3 view .LVU91
 402              		.loc 1 183 14 is_stmt 0 view .LVU92
 403 0010 0130A0E3 		mov	r3, #1
 404              		.loc 1 184 3 view .LVU93
 405 0014 300084E2 		add	r0, r4, #48
 406              		.loc 1 183 14 view .LVU94
 407 0018 083084E5 		str	r3, [r4, #8]
 408              		.loc 1 184 3 is_stmt 1 view .LVU95
 409 001c FEFFFFEB 		bl	chOQResetI
 410              	.LVL36:
 411              		.loc 1 185 3 view .LVU96
 412 0020 0C0084E2 		add	r0, r4, #12
 413 0024 FEFFFFEB 		bl	chIQResetI
 414              	.LVL37:
 415              		.loc 1 186 3 view .LVU97
 416 0028 FEFFFFEB 		bl	chSchRescheduleS
 417              	.LVL38:
 418              		.loc 1 187 3 view .LVU98
 419              		.loc 1 187 3 view .LVU99
 420              		.syntax divided
 421              	@ 187 "../../../os/hal/src/serial.c" 1
 422 002c 1FF021E3 		msr     CPSR_c, #0x1F
 423              	@ 0 "" 2
 424              		.loc 1 187 16 view .LVU100
 425              		.loc 1 188 1 is_stmt 0 view .LVU101
 426              		.arm
 427              		.syntax unified
 428 0030 1080BDE8 		pop	{r4, pc}
 429              		.cfi_endproc
 430              	.LFE18:
 431              		.size	sdStop, .-sdStop
 432              		.section	.text.sdIncomingDataI,"ax",%progbits
 433              		.align	2
 434              		.global	sdIncomingDataI
 435              		.syntax unified
 436              		.arm
 437              		.fpu softvfp
 438              		.type	sdIncomingDataI, %function
 439              	sdIncomingDataI:
 440              	.LVL39:
 441              	.LFB19:
 442              		.loc 1 206 52 is_stmt 1 view -0
 443              		.cfi_startproc
 444              		@ args = 0, pretend = 0, frame = 0
 445              		@ frame_needed = 0, uses_anonymous_args = 0
 446              		.loc 1 208 3 view .LVU103
 447              		.loc 1 208 21 view .LVU104
 448              		.loc 1 209 3 view .LVU105
 449              		.loc 1 209 45 view .LVU106
 450              		.loc 1 211 3 view .LVU107
 451              		.loc 1 211 6 is_stmt 0 view .LVU108
 452 0000 143090E5 		ldr	r3, [r0, #20]
 453              		.loc 1 206 52 view .LVU109
 454 0004 30402DE9 		push	{r4, r5, lr}
 455              		.cfi_def_cfa_offset 12
 456              		.cfi_offset 4, -12
ARM GAS  /var/folders/l5/0x54b2c10074c8bt31ycjvl80000gp/T//ccp7rYYt.s 			page 9


 457              		.cfi_offset 5, -8
 458              		.cfi_offset 14, -4
 459              		.loc 1 211 6 view .LVU110
 460 0008 000053E3 		cmp	r3, #0
 461              		.loc 1 206 52 view .LVU111
 462 000c 0040A0E1 		mov	r4, r0
 463 0010 7150EFE6 		uxtb	r5, r1
 464              		.loc 1 211 6 view .LVU112
 465 0014 0800000A 		beq	.L23
 466              	.LVL40:
 467              	.L20:
 468              		.loc 1 212 43 is_stmt 1 discriminator 1 view .LVU113
 469              		.loc 1 213 3 discriminator 1 view .LVU114
 470              		.loc 1 213 7 is_stmt 0 discriminator 1 view .LVU115
 471 0018 0510A0E1 		mov	r1, r5
 472 001c 0C0084E2 		add	r0, r4, #12
 473 0020 FEFFFFEB 		bl	chIQPutI
 474              	.LVL41:
 475              		.loc 1 213 6 discriminator 1 view .LVU116
 476 0024 000050E3 		cmp	r0, #0
 477 0028 3080BDA8 		popge	{r4, r5, pc}
 478              		.loc 1 214 5 is_stmt 1 view .LVU117
 479 002c 040084E2 		add	r0, r4, #4
 480 0030 8010A0E3 		mov	r1, #128
 481              		.loc 1 215 1 is_stmt 0 view .LVU118
 482 0034 3040BDE8 		pop	{r4, r5, lr}
 483              		.cfi_remember_state
 484              		.cfi_restore 14
 485              		.cfi_restore 5
 486              		.cfi_restore 4
 487              		.cfi_def_cfa_offset 0
 488              	.LVL42:
 489              		.loc 1 214 5 view .LVU119
 490 0038 FEFFFFEA 		b	chEvtBroadcastFlagsI
 491              	.LVL43:
 492              	.L23:
 493              		.cfi_restore_state
 494              		.loc 1 212 5 is_stmt 1 view .LVU120
 495 003c 0410A0E3 		mov	r1, #4
 496              	.LVL44:
 497              		.loc 1 212 5 is_stmt 0 view .LVU121
 498 0040 010080E0 		add	r0, r0, r1
 499              	.LVL45:
 500              		.loc 1 212 5 view .LVU122
 501 0044 FEFFFFEB 		bl	chEvtBroadcastFlagsI
 502              	.LVL46:
 503 0048 F2FFFFEA 		b	.L20
 504              		.cfi_endproc
 505              	.LFE19:
 506              		.size	sdIncomingDataI, .-sdIncomingDataI
 507              		.section	.text.sdRequestDataI,"ax",%progbits
 508              		.align	2
 509              		.global	sdRequestDataI
 510              		.syntax unified
 511              		.arm
 512              		.fpu softvfp
 513              		.type	sdRequestDataI, %function
ARM GAS  /var/folders/l5/0x54b2c10074c8bt31ycjvl80000gp/T//ccp7rYYt.s 			page 10


 514              	sdRequestDataI:
 515              	.LVL47:
 516              	.LFB20:
 517              		.loc 1 232 41 is_stmt 1 view -0
 518              		.cfi_startproc
 519              		@ args = 0, pretend = 0, frame = 0
 520              		@ frame_needed = 0, uses_anonymous_args = 0
 521              		.loc 1 233 3 view .LVU124
 522              		.loc 1 235 3 view .LVU125
 523              		.loc 1 235 21 view .LVU126
 524              		.loc 1 236 3 view .LVU127
 525              		.loc 1 236 44 view .LVU128
 526              		.loc 1 238 3 view .LVU129
 527              		.loc 1 232 41 is_stmt 0 view .LVU130
 528 0000 30402DE9 		push	{r4, r5, lr}
 529              		.cfi_def_cfa_offset 12
 530              		.cfi_offset 4, -12
 531              		.cfi_offset 5, -8
 532              		.cfi_offset 14, -4
 533              		.loc 1 232 41 view .LVU131
 534 0004 0040A0E1 		mov	r4, r0
 535              		.loc 1 238 7 view .LVU132
 536 0008 300080E2 		add	r0, r0, #48
 537              	.LVL48:
 538              		.loc 1 238 7 view .LVU133
 539 000c FEFFFFEB 		bl	chOQGetI
 540              	.LVL49:
 541              		.loc 1 239 3 is_stmt 1 view .LVU134
 542              		.loc 1 239 6 is_stmt 0 view .LVU135
 543 0010 005050E2 		subs	r5, r0, #0
 544 0014 010000BA 		blt	.L27
 545              		.loc 1 242 1 view .LVU136
 546 0018 0500A0E1 		mov	r0, r5
 547              		.loc 1 242 1 view .LVU137
 548 001c 3080BDE8 		pop	{r4, r5, pc}
 549              	.L27:
 550              		.loc 1 240 5 is_stmt 1 view .LVU138
 551 0020 040084E2 		add	r0, r4, #4
 552 0024 0810A0E3 		mov	r1, #8
 553 0028 FEFFFFEB 		bl	chEvtBroadcastFlagsI
 554              	.LVL50:
 555              		.loc 1 240 40 view .LVU139
 556              		.loc 1 241 3 view .LVU140
 557              		.loc 1 242 1 is_stmt 0 view .LVU141
 558 002c 0500A0E1 		mov	r0, r5
 559 0030 3080BDE8 		pop	{r4, r5, pc}
 560              		.cfi_endproc
 561              	.LFE20:
 562              		.size	sdRequestDataI, .-sdRequestDataI
 563              		.section	.rodata.vmt,"a"
 564              		.align	2
 565              		.set	.LANCHOR0,. + 0
 566              		.type	vmt, %object
 567              		.size	vmt, 32
 568              	vmt:
 569 0000 00000000 		.word	write
 570 0004 00000000 		.word	read
ARM GAS  /var/folders/l5/0x54b2c10074c8bt31ycjvl80000gp/T//ccp7rYYt.s 			page 11


 571 0008 00000000 		.word	put
 572 000c 00000000 		.word	get
 573 0010 00000000 		.word	putt
 574 0014 00000000 		.word	gett
 575 0018 00000000 		.word	writet
 576 001c 00000000 		.word	readt
 577              		.text
 578              	.Letext0:
 579              		.file 2 "/usr/local/Cellar/arm-gcc-bin/8-2019-q3-update/lib/gcc/arm-none-eabi/8.3.1/include/stddef
 580              		.file 3 "/usr/local/Cellar/arm-gcc-bin/8-2019-q3-update/arm-none-eabi/include/machine/_default_typ
 581              		.file 4 "/usr/local/Cellar/arm-gcc-bin/8-2019-q3-update/arm-none-eabi/include/sys/_stdint.h"
 582              		.file 5 "../../../os/ports/GCC/ARM/chtypes.h"
 583              		.file 6 "../../../os/kernel/include/chlists.h"
 584              		.file 7 "../../../os/kernel/include/chthreads.h"
 585              		.file 8 "../../../os/ports/GCC/ARM/chcore.h"
 586              		.file 9 "../../../os/kernel/include/chvt.h"
 587              		.file 10 "../../../os/kernel/include/chschd.h"
 588              		.file 11 "../../../os/kernel/include/chmtx.h"
 589              		.file 12 "../../../os/kernel/include/chevents.h"
 590              		.file 13 "../../../os/kernel/include/chqueues.h"
 591              		.file 14 "../../../os/kernel/include/ch.h"
 592              		.file 15 "../../../os/hal/platforms/BCM2835/bcm2835.h"
 593              		.file 16 "../../../os/hal/platforms/BCM2835/pal_lld.h"
 594              		.file 17 "../../../os/hal/include/i2c.h"
 595              		.file 18 "../../../os/hal/platforms/BCM2835/i2c_lld.h"
 596              		.file 19 "../../../os/hal/include/serial.h"
 597              		.file 20 "../../../os/hal/platforms/BCM2835/serial_lld.h"