ARM GAS  /var/folders/l5/0x54b2c10074c8bt31ycjvl80000gp/T//ccFzyCUA.s 			page 1


   1              		.file	"tm.c"
   2              		.text
   3              	.Ltext0:
   4              		.cfi_sections	.debug_frame
   5              		.section	.text.tm_start,"ax",%progbits
   6              		.align	2
   7              		.arch armv6kz
   8              		.syntax unified
   9              		.arm
  10              		.fpu softvfp
  11              		.type	tm_start, %function
  12              	tm_start:
  13              	.LVL0:
  14              	.LFB7:
  15              		.file 1 "../../../os/hal/src/tm.c"
  16              		.loc 1 62 44 view -0
  17              		.cfi_startproc
  18              		@ args = 0, pretend = 0, frame = 0
  19              		@ frame_needed = 0, uses_anonymous_args = 0
  20              		@ link register save eliminated.
  21              		.loc 1 64 3 view .LVU1
  22              		.loc 1 64 15 is_stmt 0 view .LVU2
  23 0000 08309FE5 		ldr	r3, .L3
  24 0004 043093E5 		ldr	r3, [r3, #4]
  25              		.loc 1 64 13 view .LVU3
  26 0008 083080E5 		str	r3, [r0, #8]
  27              		.loc 1 65 1 view .LVU4
  28 000c 1EFF2FE1 		bx	lr
  29              	.L4:
  30              		.align	2
  31              	.L3:
  32 0010 00300020 		.word	536883200
  33              		.cfi_endproc
  34              	.LFE7:
  35              		.size	tm_start, .-tm_start
  36              		.section	.text.tm_stop,"ax",%progbits
  37              		.align	2
  38              		.syntax unified
  39              		.arm
  40              		.fpu softvfp
  41              		.type	tm_stop, %function
  42              	tm_stop:
  43              	.LVL1:
  44              	.LFB8:
  45              		.loc 1 74 43 is_stmt 1 view -0
  46              		.cfi_startproc
  47              		@ args = 0, pretend = 0, frame = 0
  48              		@ frame_needed = 0, uses_anonymous_args = 0
  49              		@ link register save eliminated.
  50              		.loc 1 76 3 view .LVU6
  51              		.loc 1 76 14 is_stmt 0 view .LVU7
  52 0000 3C309FE5 		ldr	r3, .L8
  53              		.loc 1 77 31 view .LVU8
  54 0004 3C209FE5 		ldr	r2, .L8+4
  55              		.loc 1 76 14 view .LVU9
  56 0008 043093E5 		ldr	r3, [r3, #4]
  57              	.LVL2:
ARM GAS  /var/folders/l5/0x54b2c10074c8bt31ycjvl80000gp/T//ccFzyCUA.s 			page 2


  58              		.loc 1 77 3 is_stmt 1 view .LVU10
  59              		.loc 1 77 31 is_stmt 0 view .LVU11
  60 000c 002092E5 		ldr	r2, [r2]
  61 0010 081090E5 		ldr	r1, [r0, #8]
  62 0014 023043E0 		sub	r3, r3, r2
  63              	.LVL3:
  64              		.loc 1 78 6 view .LVU12
  65 0018 0C2090E5 		ldr	r2, [r0, #12]
  66              		.loc 1 77 31 view .LVU13
  67 001c 013043E0 		sub	r3, r3, r1
  68              		.loc 1 78 6 view .LVU14
  69 0020 020053E1 		cmp	r3, r2
  70              		.loc 1 77 13 view .LVU15
  71 0024 083080E5 		str	r3, [r0, #8]
  72              		.loc 1 78 3 is_stmt 1 view .LVU16
  73              		.loc 1 78 6 is_stmt 0 view .LVU17
  74 0028 0100009A 		bls	.L6
  75              		.loc 1 79 7 is_stmt 1 view .LVU18
  76              		.loc 1 79 18 is_stmt 0 view .LVU19
  77 002c 0C3080E5 		str	r3, [r0, #12]
  78 0030 1EFF2FE1 		bx	lr
  79              	.L6:
  80              		.loc 1 80 8 is_stmt 1 view .LVU20
  81              		.loc 1 80 11 is_stmt 0 view .LVU21
  82 0034 102090E5 		ldr	r2, [r0, #16]
  83 0038 020053E1 		cmp	r3, r2
  84              		.loc 1 81 7 is_stmt 1 view .LVU22
  85              		.loc 1 81 17 is_stmt 0 view .LVU23
  86 003c 10308035 		strcc	r3, [r0, #16]
  87              		.loc 1 82 1 view .LVU24
  88 0040 1EFF2FE1 		bx	lr
  89              	.L9:
  90              		.align	2
  91              	.L8:
  92 0044 00300020 		.word	536883200
  93 0048 00000000 		.word	.LANCHOR0
  94              		.cfi_endproc
  95              	.LFE8:
  96              		.size	tm_stop, .-tm_stop
  97              		.section	.text.tmInit,"ax",%progbits
  98              		.align	2
  99              		.global	tmInit
 100              		.syntax unified
 101              		.arm
 102              		.fpu softvfp
 103              		.type	tmInit, %function
 104              	tmInit:
 105              	.LFB9:
 106              		.loc 1 97 19 is_stmt 1 view -0
 107              		.cfi_startproc
 108              		@ args = 0, pretend = 0, frame = 20
 109              		@ frame_needed = 0, uses_anonymous_args = 0
 110              		.loc 1 98 3 view .LVU26
 111              		.loc 1 103 3 view .LVU27
 112              		.loc 1 103 22 is_stmt 0 view .LVU28
 113 0000 0030A0E3 		mov	r3, #0
 114              	.LBB8:
ARM GAS  /var/folders/l5/0x54b2c10074c8bt31ycjvl80000gp/T//ccFzyCUA.s 			page 3


 115              	.LBB9:
 116              		.loc 1 123 14 view .LVU29
 117 0004 0010E0E3 		mvn	r1, #0
 118              	.LBE9:
 119              	.LBE8:
 120              		.loc 1 97 19 view .LVU30
 121 0008 04E02DE5 		str	lr, [sp, #-4]!
 122              		.cfi_def_cfa_offset 4
 123              		.cfi_offset 14, -4
 124              		.loc 1 103 22 view .LVU31
 125 000c 40C09FE5 		ldr	ip, .L12
 126              		.loc 1 97 19 view .LVU32
 127 0010 14D04DE2 		sub	sp, sp, #20
 128              		.cfi_def_cfa_offset 24
 129              	.LBB14:
 130              	.LBB15:
 131              		.loc 1 64 15 view .LVU33
 132 0014 3C209FE5 		ldr	r2, .L12+4
 133              	.LBE15:
 134              	.LBE14:
 135              	.LBB19:
 136              	.LBB10:
 137              		.loc 1 121 14 view .LVU34
 138 0018 08308DE5 		str	r3, [sp, #8]
 139              		.loc 1 122 14 view .LVU35
 140 001c 0C308DE5 		str	r3, [sp, #12]
 141              	.LBE10:
 142              	.LBE19:
 143              		.loc 1 103 22 view .LVU36
 144 0020 00308CE5 		str	r3, [ip]
 145              		.loc 1 104 3 is_stmt 1 view .LVU37
 146              	.LVL4:
 147              	.LBB20:
 148              	.LBI8:
 149              		.loc 1 117 6 view .LVU38
 150              	.LBB11:
 151              		.loc 1 119 3 view .LVU39
 152              		.loc 1 123 14 is_stmt 0 view .LVU40
 153 0024 10108DE5 		str	r1, [sp, #16]
 154              	.LBE11:
 155              	.LBE20:
 156              	.LBB21:
 157              	.LBB16:
 158              		.loc 1 64 15 view .LVU41
 159 0028 041092E5 		ldr	r1, [r2, #4]
 160              	.LBE16:
 161              	.LBE21:
 162              	.LBB22:
 163              	.LBB12:
 164              		.loc 1 120 14 view .LVU42
 165 002c 28309FE5 		ldr	r3, .L12+8
 166              		.loc 1 119 14 view .LVU43
 167 0030 28209FE5 		ldr	r2, .L12+12
 168              	.LBE12:
 169              	.LBE22:
 170              		.loc 1 106 3 view .LVU44
 171 0034 0D00A0E1 		mov	r0, sp
ARM GAS  /var/folders/l5/0x54b2c10074c8bt31ycjvl80000gp/T//ccFzyCUA.s 			page 4


 172              	.LBB23:
 173              	.LBB13:
 174              		.loc 1 120 14 view .LVU45
 175 0038 0C008DE8 		stm	sp, {r2, r3}
 176              		.loc 1 121 3 is_stmt 1 view .LVU46
 177              		.loc 1 122 3 view .LVU47
 178              		.loc 1 123 3 view .LVU48
 179              	.LVL5:
 180              		.loc 1 123 3 is_stmt 0 view .LVU49
 181              	.LBE13:
 182              	.LBE23:
 183              		.loc 1 105 3 is_stmt 1 view .LVU50
 184              	.LBB24:
 185              	.LBI14:
 186              		.loc 1 62 13 view .LVU51
 187              	.LBB17:
 188              		.loc 1 64 3 view .LVU52
 189              		.loc 1 64 3 is_stmt 0 view .LVU53
 190              	.LBE17:
 191              	.LBE24:
 192              		.loc 1 106 3 is_stmt 1 view .LVU54
 193              	.LBB25:
 194              	.LBB18:
 195              		.loc 1 64 13 is_stmt 0 view .LVU55
 196 003c 08108DE5 		str	r1, [sp, #8]
 197              	.LBE18:
 198              	.LBE25:
 199              		.loc 1 106 3 view .LVU56
 200 0040 FEFFFFEB 		bl	tm_stop
 201              	.LVL6:
 202              		.loc 1 107 3 is_stmt 1 view .LVU57
 203              		.loc 1 107 22 is_stmt 0 view .LVU58
 204 0044 08309DE5 		ldr	r3, [sp, #8]
 205 0048 00308CE5 		str	r3, [ip]
 206              		.loc 1 108 1 view .LVU59
 207 004c 14D08DE2 		add	sp, sp, #20
 208              		.cfi_def_cfa_offset 4
 209              		@ sp needed
 210 0050 04F09DE4 		ldr	pc, [sp], #4
 211              	.L13:
 212              		.align	2
 213              	.L12:
 214 0054 00000000 		.word	.LANCHOR0
 215 0058 00300020 		.word	536883200
 216 005c 00000000 		.word	tm_stop
 217 0060 00000000 		.word	tm_start
 218              		.cfi_endproc
 219              	.LFE9:
 220              		.size	tmInit, .-tmInit
 221              		.section	.text.tmObjectInit,"ax",%progbits
 222              		.align	2
 223              		.global	tmObjectInit
 224              		.syntax unified
 225              		.arm
 226              		.fpu softvfp
 227              		.type	tmObjectInit, %function
 228              	tmObjectInit:
ARM GAS  /var/folders/l5/0x54b2c10074c8bt31ycjvl80000gp/T//ccFzyCUA.s 			page 5


 229              	.LVL7:
 230              	.LFB10:
 231              		.loc 1 117 41 is_stmt 1 view -0
 232              		.cfi_startproc
 233              		@ args = 0, pretend = 0, frame = 0
 234              		@ frame_needed = 0, uses_anonymous_args = 0
 235              		@ link register save eliminated.
 236              		.loc 1 119 3 view .LVU61
 237              		.loc 1 121 14 is_stmt 0 view .LVU62
 238 0000 0030A0E3 		mov	r3, #0
 239              		.loc 1 123 14 view .LVU63
 240 0004 0020E0E3 		mvn	r2, #0
 241              		.loc 1 119 14 view .LVU64
 242 0008 18C09FE5 		ldr	ip, .L15
 243              		.loc 1 120 14 view .LVU65
 244 000c 18109FE5 		ldr	r1, .L15+4
 245              		.loc 1 119 14 view .LVU66
 246 0010 00C080E5 		str	ip, [r0]
 247              		.loc 1 120 3 is_stmt 1 view .LVU67
 248              		.loc 1 120 14 is_stmt 0 view .LVU68
 249 0014 041080E5 		str	r1, [r0, #4]
 250              		.loc 1 121 3 is_stmt 1 view .LVU69
 251              		.loc 1 123 14 is_stmt 0 view .LVU70
 252 0018 102080E5 		str	r2, [r0, #16]
 253              		.loc 1 121 14 view .LVU71
 254 001c 083080E5 		str	r3, [r0, #8]
 255              		.loc 1 122 3 is_stmt 1 view .LVU72
 256              		.loc 1 122 14 is_stmt 0 view .LVU73
 257 0020 0C3080E5 		str	r3, [r0, #12]
 258              		.loc 1 123 3 is_stmt 1 view .LVU74
 259              		.loc 1 124 1 is_stmt 0 view .LVU75
 260 0024 1EFF2FE1 		bx	lr
 261              	.L16:
 262              		.align	2
 263              	.L15:
 264 0028 00000000 		.word	tm_start
 265 002c 00000000 		.word	tm_stop
 266              		.cfi_endproc
 267              	.LFE10:
 268              		.size	tmObjectInit, .-tmObjectInit
 269              		.section	.bss.measurement_offset,"aw",%nobits
 270              		.align	2
 271              		.set	.LANCHOR0,. + 0
 272              		.type	measurement_offset, %object
 273              		.size	measurement_offset, 4
 274              	measurement_offset:
 275 0000 00000000 		.space	4
 276              		.text
 277              	.Letext0:
 278              		.file 2 "/usr/local/Cellar/arm-gcc-bin/8-2019-q3-update/lib/gcc/arm-none-eabi/8.3.1/include/stddef
 279              		.file 3 "/usr/local/Cellar/arm-gcc-bin/8-2019-q3-update/arm-none-eabi/include/machine/_default_typ
 280              		.file 4 "/usr/local/Cellar/arm-gcc-bin/8-2019-q3-update/arm-none-eabi/include/sys/_stdint.h"
 281              		.file 5 "../../../os/ports/GCC/ARM/chtypes.h"
 282              		.file 6 "../../../os/kernel/include/chlists.h"
 283              		.file 7 "../../../os/kernel/include/chthreads.h"
 284              		.file 8 "../../../os/ports/GCC/ARM/chcore.h"
 285              		.file 9 "../../../os/kernel/include/chvt.h"
ARM GAS  /var/folders/l5/0x54b2c10074c8bt31ycjvl80000gp/T//ccFzyCUA.s 			page 6


 286              		.file 10 "../../../os/kernel/include/chschd.h"
 287              		.file 11 "../../../os/kernel/include/chmtx.h"
 288              		.file 12 "../../../os/kernel/include/chevents.h"
 289              		.file 13 "../../../os/kernel/include/chqueues.h"
 290              		.file 14 "../../../os/kernel/include/ch.h"
 291              		.file 15 "../../../os/hal/platforms/BCM2835/bcm2835.h"
 292              		.file 16 "../../../os/hal/platforms/BCM2835/hal_lld.h"
 293              		.file 17 "../../../os/hal/include/tm.h"
 294              		.file 18 "../../../os/hal/platforms/BCM2835/pal_lld.h"
 295              		.file 19 "../../../os/hal/include/i2c.h"
 296              		.file 20 "../../../os/hal/platforms/BCM2835/i2c_lld.h"
 297              		.file 21 "../../../os/hal/include/serial.h"
 298              		.file 22 "../../../os/hal/platforms/BCM2835/serial_lld.h"