ARM GAS  /var/folders/l5/0x54b2c10074c8bt31ycjvl80000gp/T//ccFzyCUA.s 			page 1


   1              		.file	"tm.c"
   2              		.text
   3              	.Ltext0:
   4              		.cfi_sections	.debug_frame
   5              		.section	.text.tm_start,"ax",%progbits
   6              		.align	2
   7              		.arch armv6kz
   8              		.syntax unified
   9              		.arm
  10              		.fpu softvfp
  11              		.type	tm_start, %function
  12              	tm_start:
  13              	.LVL0:
  14              	.LFB7:
  15              		.file 1 "../../../os/hal/src/tm.c"
  16              		.loc 1 62 44 view -0
  17              		.cfi_startproc
  18              		@ args = 0, pretend = 0, frame = 0
  19              		@ frame_needed = 0, uses_anonymous_args = 0
  20              		@ link register save eliminated.
  21              		.loc 1 64 3 view .LVU1
  22              		.loc 1 64 15 is_stmt 0 view .LVU2
  23 0000 08309FE5 		ldr	r3, .L3
  24 0004 043093E5 		ldr	r3, [r3, #4]
  25              		.loc 1 64 13 view .LVU3
  26 0008 083080E5 		str	r3, [r0, #8]
  27              		.loc 1 65 1 view .LVU4
  28 000c 1EFF2FE1 		bx	lr
  29              	.L4:
  30              		.align	2
  31              	.L3:
  32 0010 00300020 		.word	536883200
  33              		.cfi_endproc
  34              	.LFE7:
  35              		.size	tm_start, .-tm_start
  36              		.section	.text.tm_stop,"ax",%progbits
  37              		.align	2
  38              		.syntax unified
  39              		.arm
  40              		.fpu softvfp
  41              		.type	tm_stop, %function
  42              	tm_stop:
  43              	.LVL1:
  44              	.LFB8:
  45              		.loc 1 74 43 is_stmt 1 view -0
  46              		.cfi_startproc
  47              		@ args = 0, pretend = 0, frame = 0
  48              		@ frame_needed = 0, uses_anonymous_args = 0
  49              		@ link register save eliminated.
  50              		.loc 1 76 3 view .LVU6
  51              		.loc 1 76 14 is_stmt 0 view .LVU7
  52 0000 3C309FE5 		ldr	r3, .L8
  53              		.loc 1 77 31 view .LVU8
  54 0004 3C209FE5 		ldr	r2, .L8+4
  55              		.loc 1 76 14 view .LVU9
  56 0008 043093E5 		ldr	r3, [r3, #4]
  57              	.LVL2:
ARM GAS  /var/folders/l5/0x54b2c10074c8bt31ycjvl80000gp/T//ccFzyCUA.s 			page 2


  58              		.loc 1 77 3 is_stmt 1 view .LVU10
  59              		.loc 1 77 31 is_stmt 0 view .LVU11
  60 000c 002092E5 		ldr	r2, [r2]
  61 0010 081090E5 		ldr	r1, [r0, #8]
  62 0014 023043E0 		sub	r3, r3, r2
  63              	.LVL3:
  64              		.loc 1 78 6 view .LVU12
  65 0018 0C2090E5 		ldr	r2, [r0, #12]
  66              		.loc 1 77 31 view .LVU13
  67 001c 013043E0 		sub	r3, r3, r1
  68              		.loc 1 78 6 view .LVU14
  69 0020 020053E1 		cmp	r3, r2
  70              		.loc 1 77 13 view .LVU15
  71 0024 083080E5 		str	r3, [r0, #8]
  72              		.loc 1 78 3 is_stmt 1 view .LVU16
  73              		.loc 1 78 6 is_stmt 0 view .LVU17
  74 0028 0100009A 		bls	.L6
  75              		.loc 1 79 7 is_stmt 1 view .LVU18
  76              		.loc 1 79 18 is_stmt 0 view .LVU19
  77 002c 0C3080E5 		str	r3, [r0, #12]
  78 0030 1EFF2FE1 		bx	lr
  79              	.L6:
  80              		.loc 1 80 8 is_stmt 1 view .LVU20
  81              		.loc 1 80 11 is_stmt 0 view .LVU21
  82 0034 102090E5 		ldr	r2, [r0, #16]
  83 0038 020053E1 		cmp	r3, r2
  84              		.loc 1 81 7 is_stmt 1 view .LVU22
  85              		.loc 1 81 17 is_stmt 0 view .LVU23
  86 003c 10308035 		strcc	r3, [r0, #16]
  87              		.loc 1 82 1 view .LVU24
  88 0040 1EFF2FE1 		bx	lr
  89              	.L9:
  90              		.align	2
  91              	.L8:
  92 0044 00300020 		.word	536883200
  93 0048 00000000 		.word	.LANCHOR0
  94              		.cfi_endproc
  95              	.LFE8:
  96              		.size	tm_stop, .-tm_stop
  97              		.section	.text.tmInit,"ax",%progbits
  98              		.align	2
  99              		.global	tmInit
 100              		.syntax unified
 101              		.arm
 102              		.fpu softvfp
 103              		.type	tmInit, %function
 104              	tmInit:
 105              	.LFB9:
 106              		.loc 1 97 19 is_stmt 1 view -0
 107              		.cfi_startproc
 108              		@ args = 0, pretend = 0, frame = 20
 109              		@ frame_needed = 0, uses_anonymous_args = 0
 110              		.loc 1 98 3 view .LVU26
 111              		.loc 1 103 3 view .LVU27
 112              		.loc 1 103 22 is_stmt 0 view .LVU28
 113 0000 0030A0E3 		mov	r3, #0
 114              	.LBB8:
ARM GAS  /var/folders/l5/0x54b2c10074c8bt31ycjvl80000gp/T//ccFzyCUA.s 			page 3


 115              	.LBB9:
 116              		.loc 1 123 14 view .LVU29
 117 0004 0010E0E3 		mvn	r1, #0
 118              	.LBE9:
 119              	.LBE8:
 120              		.loc 1 97 19 view .LVU30
 121 0008 04E02DE5 		str	lr, [sp, #-4]!
 122              		.cfi_def_cfa_offset 4
 123              		.cfi_offset 14, -4
 124              		.loc 1 103 22 view .LVU31
 125 000c 40C09FE5 		ldr	ip, .L12
 126              		.loc 1 97 19 view .LVU32
 127 0010 14D04DE2 		sub	sp, sp, #20
 128              		.cfi_def_cfa_offset 24
 129              	.LBB14:
 130              	.LBB15:
 131              		.loc 1 64 15 view .LVU33
 132 0014 3C209FE5 		ldr	r2, .L12+4
 133              	.LBE15:
 134              	.LBE14:
 135              	.LBB19:
 136              	.LBB10:
 137              		.loc 1 121 14 view .LVU34
 138 0018 08308DE5 		str	r3, [sp, #8]
 139              		.loc 1 122 14 view .LVU35
 140 001c 0C308DE5 		str	r3, [sp, #12]
 141              	.LBE10:
 142              	.LBE19:
 143              		.loc 1 103 22 view .LVU36
 144 0020 00308CE5 		str	r3, [ip]
 145              		.loc 1 104 3 is_stmt 1 view .LVU37
 146              	.LVL4:
 147              	.LBB20:
 148              	.LBI8:
 149              		.loc 1 117 6 view .LVU38
 150              	.LBB11:
 151              		.loc 1 119 3 view .LVU39
 152              		.loc 1 123 14 is_stmt 0 view .LVU40
 153 0024 10108DE5 		str	r1, [sp, #16]
 154              	.LBE11:
 155              	.LBE20:
 156              	.LBB21:
 157              	.LBB16:
 158              		.loc 1 64 15 view .LVU41
 159 0028 041092E5 		ldr	r1, [r2, #4]
 160              	.LBE16:
 161              	.LBE21:
 162              	.LBB22:
 163              	.LBB12:
 164              		.loc 1 120 14 view .LVU42
 165 002c 28309FE5 		ldr	r3, .L12+8
 166              		.loc 1 119 14 view .LVU43
 167 0030 28209FE5 		ldr	r2, .L12+12
 168              	.LBE12:
 169              	.LBE22:
 170              		.loc 1 106 3 view .LVU44
 171 0034 0D00A0E1 		mov	r0, sp
ARM GAS  /var/folders/l5/0x54b2c10074c8bt31ycjvl80000gp/T//ccFzyCUA.s 			page 4


 172              	.LBB23:
 173              	.LBB13:
 174              		.loc 1 120 14 view .LVU45
 175 0038 0C008DE8 		stm	sp, {r2, r3}
 176              		.loc 1 121 3 is_stmt 1 view .LVU46
 177              		.loc 1 122 3 view .LVU47
 178              		.loc 1 123 3 view .LVU48
 179              	.LVL5:
 180              		.loc 1 123 3 is_stmt 0 view .LVU49
 181              	.LBE13:
 182              	.LBE23:
 183              		.loc 1 105 3 is_stmt 1 view .LVU50
 184              	.LBB24:
 185              	.LBI14:
 186              		.loc 1 62 13 view .LVU51
 187              	.LBB17:
 188              		.loc 1 64 3 view .LVU52
 189              		.loc 1 64 3 is_stmt 0 view .LVU53
 190              	.LBE17:
 191              	.LBE24:
 192              		.loc 1 106 3 is_stmt 1 view .LVU54
 193              	.LBB25:
 194              	.LBB18:
 195              		.loc 1 64 13 is_stmt 0 view .LVU55
 196 003c 08108DE5 		str	r1, [sp, #8]
 197              	.LBE18:
 198              	.LBE25:
 199              		.loc 1 106 3 view .LVU56
 200 0040 FEFFFFEB 		bl	tm_stop
 201              	.LVL6:
 202              		.loc 1 107 3 is_stmt 1 view .LVU57
 203              		.loc 1 107 22 is_stmt 0 view .LVU58
 204 0044 08309DE5 		ldr	r3, [sp, #8]
 205 0048 00308CE5 		str	r3, [ip]
 206              		.loc 1 108 1 view .LVU59
 207 004c 14D08DE2 		add	sp, sp, #20
 208              		.cfi_def_cfa_offset 4
 209              		@ sp needed
 210 0050 04F09DE4 		ldr	pc, [sp], #4
 211              	.L13:
 212              		.align	2
 213              	.L12:
 214 0054 00000000 		.word	.LANCHOR0
 215 0058 00300020 		.word	536883200
 216 005c 00000000 		.word	tm_stop
 217 0060 00000000 		.word	tm_start
 218              		.cfi_endproc
 219              	.LFE9:
 220              		.size	tmInit, .-tmInit
 221              		.section	.text.tmObjectInit,"ax",%progbits
 222              		.align	2
 223              		.global	tmObjectInit
 224              		.syntax unified
 225              		.arm
 226              		.fpu softvfp
 227              		.type	tmObjectInit, %function
 228              	tmObjectInit:
ARM GAS  /var/folders/l5/0x54b2c10074c8bt31ycjvl80000gp/T//ccFzyCUA.s 			page 5


 229              	.LVL7:
 230              	.LFB10:
 231              		.loc 1 117 41 is_stmt 1 view -0
 232              		.cfi_startproc
 233              		@ args = 0, pretend = 0, frame = 0
 234              		@ frame_needed = 0, uses_anonymous_args = 0
 235              		@ link register save eliminated.
 236              		.loc 1 119 3 view .LVU61
 237              		.loc 1 121 14 is_stmt 0 view .LVU62
 238 0000 0030A0E3 		mov	r3, #0
 239              		.loc 1 123 14 view .LVU63
 240 0004 0020E0E3 		mvn	r2, #0
 241              		.loc 1 119 14 view .LVU64
 242 0008 18C09FE5 		ldr	ip, .L15
 243              		.loc 1 120 14 view .LVU65
 244 000c 18109FE5 		ldr	r1, .L15+4
 245              		.loc 1 119 14 view .LVU66
 246 0010 00C080E5 		str	ip, [r0]
 247              		.loc 1 120 3 is_stmt 1 view .LVU67
 248              		.loc 1 120 14 is_stmt 0 view .LVU68
 249 0014 041080E5 		str	r1, [r0, #4]
 250              		.loc 1 121 3 is_stmt 1 view .LVU69
 251              		.loc 1 123 14 is_stmt 0 view .LVU70
 252 0018 102080E5 		str	r2, [r0, #16]
 253              		.loc 1 121 14 view .LVU71
 254 001c 083080E5 		str	r3, [r0, #8]
 255              		.loc 1 122 3 is_stmt 1 view .LVU72
 256              		.loc 1 122 14 is_stmt 0 view .LVU73
 257 0020 0C3080E5 		str	r3, [r0, #12]
 258              		.loc 1 123 3 is_stmt 1 view .LVU74
 259              		.loc 1 124 1 is_stmt 0 view .LVU75
 260 0024 1EFF2FE1 		bx	lr
 261              	.L16:
 262              		.align	2
 263              	.L15:
 264 0028 00000000 		.word	tm_start
 265 002c 00000000 		.word	tm_stop
 266              		.cfi_endproc
 267              	.LFE10:
 268              		.size	tmObjectInit, .-tmObjectInit
 269              		.section	.bss.measurement_offset,"aw",%nobits
 270              		.align	2
 271              		.set	.LANCHOR0,. + 0
 272              		.type	measurement_offset, %object
 273              		.size	measurement_offset, 4
 274              	measurement_offset:
 275 0000 00000000 		.space	4
 276              		.text
 277              	.Letext0:
 278              		.file 2 "/usr/local/Cellar/arm-gcc-bin/8-2019-q3-update/lib/gcc/arm-none-eabi/8.3.1/include/stddef
 279              		.file 3 "/usr/local/Cellar/arm-gcc-bin/8-2019-q3-update/arm-none-eabi/include/machine/_default_typ
 280              		.file 4 "/usr/local/Cellar/arm-gcc-bin/8-2019-q3-update/arm-none-eabi/include/sys/_stdint.h"
 281              		.file 5 "../../../os/ports/GCC/ARM/chtypes.h"
 282              		.file 6 "../../../os/kernel/include/chlists.h"
 283              		.file 7 "../../../os/kernel/include/chthreads.h"
 284              		.file 8 "../../../os/ports/GCC/ARM/chcore.h"
 285              		.file 9 "../../../os/kernel/include/chvt.h"
ARM GAS  /var/folders/l5/0x54b2c10074c8bt31ycjvl80000gp/T//ccFzyCUA.s 			page 6


 286              		.file 10 "../../../os/kernel/include/chschd.h"
 287              		.file 11 "../../../os/kernel/include/chmtx.h"
 288              		.file 12 "../../../os/kernel/include/chevents.h"
 289              		.file 13 "../../../os/kernel/include/chqueues.h"
 290              		.file 14 "../../../os/kernel/include/ch.h"
 291              		.file 15 "../../../os/hal/platforms/BCM2835/bcm2835.h"
 292              		.file 16 "../../../os/hal/platforms/BCM2835/hal_lld.h"
 293              		.file 17 "../../../os/hal/include/tm.h"
 294              		.file 18 "../../../os/hal/platforms/BCM2835/pal_lld.h"
 295              		.file 19 "../../../os/hal/include/i2c.h"
 296              		.file 20 "../../../os/hal/platforms/BCM2835/i2c_lld.h"
 297              		.file 21 "../../../os/hal/include/serial.h"
 298              		.file 22 "../../../os/hal/platforms/BCM2835/serial_lld.h"
 299              		.section	.debug_info,"",%progbits
 300              	.Ldebug_info0:
 301 0000 7B0C0000 		.4byte	0xc7b
 302 0004 0400     		.2byte	0x4
 303 0006 00000000 		.4byte	.Ldebug_abbrev0
 304 000a 04       		.byte	0x4
 305 000b 01       		.uleb128 0x1
 306 000c D1010000 		.4byte	.LASF157
 307 0010 0C       		.byte	0xc
 308 0011 EE030000 		.4byte	.LASF158
 309 0015 03010000 		.4byte	.LASF159
 310 0019 58000000 		.4byte	.Ldebug_ranges0+0x58
 311 001d 00000000 		.4byte	0
 312 0021 00000000 		.4byte	.Ldebug_line0
 313 0025 02       		.uleb128 0x2
 314 0026 04       		.byte	0x4
 315 0027 05       		.byte	0x5
 316 0028 F1000000 		.4byte	.LASF0
 317 002c 03       		.uleb128 0x3
 318 002d 00000000 		.4byte	.LASF3
 319 0031 02       		.byte	0x2
 320 0032 D8       		.byte	0xd8
 321 0033 17       		.byte	0x17
 322 0034 38000000 		.4byte	0x38
 323 0038 02       		.uleb128 0x2
 324 0039 04       		.byte	0x4
 325 003a 07       		.byte	0x7
 326 003b FA020000 		.4byte	.LASF1
 327 003f 02       		.uleb128 0x2
 328 0040 01       		.byte	0x1
 329 0041 06       		.byte	0x6
 330 0042 B0000000 		.4byte	.LASF2
 331 0046 03       		.uleb128 0x3
 332 0047 1A000000 		.4byte	.LASF4
 333 004b 03       		.byte	0x3
 334 004c 2B       		.byte	0x2b
 335 004d 18       		.byte	0x18
 336 004e 52000000 		.4byte	0x52
 337 0052 02       		.uleb128 0x2
 338 0053 01       		.byte	0x1
 339 0054 08       		.byte	0x8
 340 0055 E7040000 		.4byte	.LASF5
 341 0059 02       		.uleb128 0x2
 342 005a 02       		.byte	0x2
ARM GAS  /var/folders/l5/0x54b2c10074c8bt31ycjvl80000gp/T//ccFzyCUA.s 			page 7


 343 005b 05       		.byte	0x5
 344 005c 14050000 		.4byte	.LASF6
 345 0060 03       		.uleb128 0x3
 346 0061 CA050000 		.4byte	.LASF7
 347 0065 03       		.byte	0x3
 348 0066 39       		.byte	0x39
 349 0067 19       		.byte	0x19
 350 0068 6C000000 		.4byte	0x6c
 351 006c 02       		.uleb128 0x2
 352 006d 02       		.byte	0x2
 353 006e 07       		.byte	0x7
 354 006f 37030000 		.4byte	.LASF8
 355 0073 03       		.uleb128 0x3
 356 0074 F6050000 		.4byte	.LASF9
 357 0078 03       		.byte	0x3
 358 0079 4D       		.byte	0x4d
 359 007a 18       		.byte	0x18
 360 007b 25000000 		.4byte	0x25
 361 007f 03       		.uleb128 0x3
 362 0080 A8010000 		.4byte	.LASF10
 363 0084 03       		.byte	0x3
 364 0085 4F       		.byte	0x4f
 365 0086 19       		.byte	0x19
 366 0087 38000000 		.4byte	0x38
 367 008b 02       		.uleb128 0x2
 368 008c 08       		.byte	0x8
 369 008d 05       		.byte	0x5
 370 008e A2000000 		.4byte	.LASF11
 371 0092 02       		.uleb128 0x2
 372 0093 08       		.byte	0x8
 373 0094 07       		.byte	0x7
 374 0095 4E000000 		.4byte	.LASF12
 375 0099 03       		.uleb128 0x3
 376 009a 87060000 		.4byte	.LASF13
 377 009e 04       		.byte	0x4
 378 009f 18       		.byte	0x18
 379 00a0 13       		.byte	0x13
 380 00a1 46000000 		.4byte	0x46
 381 00a5 04       		.uleb128 0x4
 382 00a6 99000000 		.4byte	0x99
 383 00aa 03       		.uleb128 0x3
 384 00ab 6E010000 		.4byte	.LASF14
 385 00af 04       		.byte	0x4
 386 00b0 24       		.byte	0x24
 387 00b1 14       		.byte	0x14
 388 00b2 60000000 		.4byte	0x60
 389 00b6 03       		.uleb128 0x3
 390 00b7 DF040000 		.4byte	.LASF15
 391 00bb 04       		.byte	0x4
 392 00bc 2C       		.byte	0x2c
 393 00bd 13       		.byte	0x13
 394 00be 73000000 		.4byte	0x73
 395 00c2 03       		.uleb128 0x3
 396 00c3 85050000 		.4byte	.LASF16
 397 00c7 04       		.byte	0x4
 398 00c8 30       		.byte	0x30
 399 00c9 14       		.byte	0x14
ARM GAS  /var/folders/l5/0x54b2c10074c8bt31ycjvl80000gp/T//ccFzyCUA.s 			page 8


 400 00ca 7F000000 		.4byte	0x7f
 401 00ce 05       		.uleb128 0x5
 402 00cf C2000000 		.4byte	0xc2
 403 00d3 06       		.uleb128 0x6
 404 00d4 04       		.byte	0x4
 405 00d5 05       		.byte	0x5
 406 00d6 696E7400 		.ascii	"int\000"
 407 00da 02       		.uleb128 0x2
 408 00db 04       		.byte	0x4
 409 00dc 07       		.byte	0x7
 410 00dd C1020000 		.4byte	.LASF17
 411 00e1 05       		.uleb128 0x5
 412 00e2 DA000000 		.4byte	0xda
 413 00e6 03       		.uleb128 0x3
 414 00e7 76030000 		.4byte	.LASF18
 415 00eb 05       		.byte	0x5
 416 00ec 2A       		.byte	0x2a
 417 00ed 19       		.byte	0x19
 418 00ee 99000000 		.4byte	0x99
 419 00f2 03       		.uleb128 0x3
 420 00f3 FA000000 		.4byte	.LASF19
 421 00f7 05       		.byte	0x5
 422 00f8 2B       		.byte	0x2b
 423 00f9 19       		.byte	0x19
 424 00fa 99000000 		.4byte	0x99
 425 00fe 03       		.uleb128 0x3
 426 00ff CC000000 		.4byte	.LASF20
 427 0103 05       		.byte	0x5
 428 0104 2D       		.byte	0x2d
 429 0105 19       		.byte	0x19
 430 0106 99000000 		.4byte	0x99
 431 010a 03       		.uleb128 0x3
 432 010b BE040000 		.4byte	.LASF21
 433 010f 05       		.byte	0x5
 434 0110 2E       		.byte	0x2e
 435 0111 19       		.byte	0x19
 436 0112 C2000000 		.4byte	0xc2
 437 0116 03       		.uleb128 0x3
 438 0117 5C030000 		.4byte	.LASF22
 439 011b 05       		.byte	0x5
 440 011c 2F       		.byte	0x2f
 441 011d 19       		.byte	0x19
 442 011e B6000000 		.4byte	0xb6
 443 0122 03       		.uleb128 0x3
 444 0123 97030000 		.4byte	.LASF23
 445 0127 05       		.byte	0x5
 446 0128 31       		.byte	0x31
 447 0129 19       		.byte	0x19
 448 012a C2000000 		.4byte	0xc2
 449 012e 03       		.uleb128 0x3
 450 012f 33060000 		.4byte	.LASF24
 451 0133 05       		.byte	0x5
 452 0134 32       		.byte	0x32
 453 0135 19       		.byte	0x19
 454 0136 C2000000 		.4byte	0xc2
 455 013a 03       		.uleb128 0x3
 456 013b E1050000 		.4byte	.LASF25
ARM GAS  /var/folders/l5/0x54b2c10074c8bt31ycjvl80000gp/T//ccFzyCUA.s 			page 9


 457 013f 05       		.byte	0x5
 458 0140 33       		.byte	0x33
 459 0141 19       		.byte	0x19
 460 0142 C2000000 		.4byte	0xc2
 461 0146 05       		.uleb128 0x5
 462 0147 3A010000 		.4byte	0x13a
 463 014b 03       		.uleb128 0x3
 464 014c 5E050000 		.4byte	.LASF26
 465 0150 06       		.byte	0x6
 466 0151 23       		.byte	0x23
 467 0152 17       		.byte	0x17
 468 0153 57010000 		.4byte	0x157
 469 0157 07       		.uleb128 0x7
 470 0158 5E050000 		.4byte	.LASF26
 471 015c 28       		.byte	0x28
 472 015d 07       		.byte	0x7
 473 015e 57       		.byte	0x57
 474 015f 08       		.byte	0x8
 475 0160 01020000 		.4byte	0x201
 476 0164 08       		.uleb128 0x8
 477 0165 47050000 		.4byte	.LASF27
 478 0169 07       		.byte	0x7
 479 016a 58       		.byte	0x58
 480 016b 1A       		.byte	0x1a
 481 016c 25020000 		.4byte	0x225
 482 0170 00       		.byte	0
 483 0171 08       		.uleb128 0x8
 484 0172 B7040000 		.4byte	.LASF28
 485 0176 07       		.byte	0x7
 486 0177 5A       		.byte	0x5a
 487 0178 1A       		.byte	0x1a
 488 0179 25020000 		.4byte	0x225
 489 017d 04       		.byte	0x4
 490 017e 08       		.uleb128 0x8
 491 017f 84000000 		.4byte	.LASF29
 492 0183 07       		.byte	0x7
 493 0184 5C       		.byte	0x5c
 494 0185 19       		.byte	0x19
 495 0186 0A010000 		.4byte	0x10a
 496 018a 08       		.byte	0x8
 497 018b 08       		.uleb128 0x8
 498 018c F5060000 		.4byte	.LASF30
 499 0190 07       		.byte	0x7
 500 0191 5D       		.byte	0x5d
 501 0192 19       		.byte	0x19
 502 0193 F0020000 		.4byte	0x2f0
 503 0197 0C       		.byte	0xc
 504 0198 08       		.uleb128 0x8
 505 0199 1E050000 		.4byte	.LASF31
 506 019d 07       		.byte	0x7
 507 019e 72       		.byte	0x72
 508 019f 19       		.byte	0x19
 509 01a0 F2000000 		.4byte	0xf2
 510 01a4 10       		.byte	0x10
 511 01a5 08       		.uleb128 0x8
 512 01a6 56050000 		.4byte	.LASF32
 513 01aa 07       		.byte	0x7
ARM GAS  /var/folders/l5/0x54b2c10074c8bt31ycjvl80000gp/T//ccFzyCUA.s 			page 10


 514 01ab 76       		.byte	0x76
 515 01ac 19       		.byte	0x19
 516 01ad E6000000 		.4byte	0xe6
 517 01b1 11       		.byte	0x11
 518 01b2 08       		.uleb128 0x8
 519 01b3 26050000 		.4byte	.LASF33
 520 01b7 07       		.byte	0x7
 521 01b8 81       		.byte	0x81
 522 01b9 19       		.byte	0x19
 523 01ba FE000000 		.4byte	0xfe
 524 01be 12       		.byte	0x12
 525 01bf 09       		.uleb128 0x9
 526 01c0 705F7500 		.ascii	"p_u\000"
 527 01c4 07       		.byte	0x7
 528 01c5 AD       		.byte	0xad
 529 01c6 19       		.byte	0x19
 530 01c7 FD040000 		.4byte	0x4fd
 531 01cb 14       		.byte	0x14
 532 01cc 08       		.uleb128 0x8
 533 01cd FB060000 		.4byte	.LASF34
 534 01d1 07       		.byte	0x7
 535 01d2 B2       		.byte	0xb2
 536 01d3 19       		.byte	0x19
 537 01d4 4E020000 		.4byte	0x24e
 538 01d8 18       		.byte	0x18
 539 01d9 08       		.uleb128 0x8
 540 01da 70050000 		.4byte	.LASF35
 541 01de 07       		.byte	0x7
 542 01df C2       		.byte	0xc2
 543 01e0 19       		.byte	0x19
 544 01e1 22010000 		.4byte	0x122
 545 01e5 1C       		.byte	0x1c
 546 01e6 08       		.uleb128 0x8
 547 01e7 0A050000 		.4byte	.LASF36
 548 01eb 07       		.byte	0x7
 549 01ec C9       		.byte	0xc9
 550 01ed 1A       		.byte	0x1a
 551 01ee 37050000 		.4byte	0x537
 552 01f2 20       		.byte	0x20
 553 01f3 08       		.uleb128 0x8
 554 01f4 EB050000 		.4byte	.LASF37
 555 01f8 07       		.byte	0x7
 556 01f9 CD       		.byte	0xcd
 557 01fa 19       		.byte	0x19
 558 01fb 0A010000 		.4byte	0x10a
 559 01ff 24       		.byte	0x24
 560 0200 00       		.byte	0
 561 0201 0A       		.uleb128 0xa
 562 0202 08       		.byte	0x8
 563 0203 06       		.byte	0x6
 564 0204 5A       		.byte	0x5a
 565 0205 09       		.byte	0x9
 566 0206 25020000 		.4byte	0x225
 567 020a 08       		.uleb128 0x8
 568 020b 47050000 		.4byte	.LASF27
 569 020f 06       		.byte	0x6
 570 0210 5B       		.byte	0x5b
ARM GAS  /var/folders/l5/0x54b2c10074c8bt31ycjvl80000gp/T//ccFzyCUA.s 			page 11


 571 0211 1A       		.byte	0x1a
 572 0212 25020000 		.4byte	0x225
 573 0216 00       		.byte	0
 574 0217 08       		.uleb128 0x8
 575 0218 B7040000 		.4byte	.LASF28
 576 021c 06       		.byte	0x6
 577 021d 5D       		.byte	0x5d
 578 021e 1A       		.byte	0x1a
 579 021f 25020000 		.4byte	0x225
 580 0223 04       		.byte	0x4
 581 0224 00       		.byte	0
 582 0225 0B       		.uleb128 0xb
 583 0226 04       		.byte	0x4
 584 0227 4B010000 		.4byte	0x14b
 585 022b 03       		.uleb128 0x3
 586 022c 5F040000 		.4byte	.LASF38
 587 0230 06       		.byte	0x6
 588 0231 5F       		.byte	0x5f
 589 0232 03       		.byte	0x3
 590 0233 01020000 		.4byte	0x201
 591 0237 0A       		.uleb128 0xa
 592 0238 04       		.byte	0x4
 593 0239 06       		.byte	0x6
 594 023a 64       		.byte	0x64
 595 023b 09       		.byte	0x9
 596 023c 4E020000 		.4byte	0x24e
 597 0240 08       		.uleb128 0x8
 598 0241 47050000 		.4byte	.LASF27
 599 0245 06       		.byte	0x6
 600 0246 66       		.byte	0x66
 601 0247 16       		.byte	0x16
 602 0248 25020000 		.4byte	0x225
 603 024c 00       		.byte	0
 604 024d 00       		.byte	0
 605 024e 03       		.uleb128 0x3
 606 024f 8B030000 		.4byte	.LASF39
 607 0253 06       		.byte	0x6
 608 0254 69       		.byte	0x69
 609 0255 03       		.byte	0x3
 610 0256 37020000 		.4byte	0x237
 611 025a 03       		.uleb128 0x3
 612 025b C1030000 		.4byte	.LASF40
 613 025f 08       		.byte	0x8
 614 0260 9D       		.byte	0x9d
 615 0261 12       		.byte	0x12
 616 0262 C2000000 		.4byte	0xc2
 617 0266 03       		.uleb128 0x3
 618 0267 B3010000 		.4byte	.LASF41
 619 026b 08       		.byte	0x8
 620 026c A2       		.byte	0xa2
 621 026d 0F       		.byte	0xf
 622 026e 72020000 		.4byte	0x272
 623 0272 0C       		.uleb128 0xc
 624 0273 04       		.byte	0x4
 625 0274 07       		.uleb128 0x7
 626 0275 1C060000 		.4byte	.LASF42
 627 0279 24       		.byte	0x24
ARM GAS  /var/folders/l5/0x54b2c10074c8bt31ycjvl80000gp/T//ccFzyCUA.s 			page 12


 628 027a 08       		.byte	0x8
 629 027b B9       		.byte	0xb9
 630 027c 08       		.byte	0x8
 631 027d F0020000 		.4byte	0x2f0
 632 0281 09       		.uleb128 0x9
 633 0282 723400   		.ascii	"r4\000"
 634 0285 08       		.byte	0x8
 635 0286 BA       		.byte	0xba
 636 0287 11       		.byte	0x11
 637 0288 66020000 		.4byte	0x266
 638 028c 00       		.byte	0
 639 028d 09       		.uleb128 0x9
 640 028e 723500   		.ascii	"r5\000"
 641 0291 08       		.byte	0x8
 642 0292 BB       		.byte	0xbb
 643 0293 11       		.byte	0x11
 644 0294 66020000 		.4byte	0x266
 645 0298 04       		.byte	0x4
 646 0299 09       		.uleb128 0x9
 647 029a 723600   		.ascii	"r6\000"
 648 029d 08       		.byte	0x8
 649 029e BC       		.byte	0xbc
 650 029f 11       		.byte	0x11
 651 02a0 66020000 		.4byte	0x266
 652 02a4 08       		.byte	0x8
 653 02a5 09       		.uleb128 0x9
 654 02a6 723700   		.ascii	"r7\000"
 655 02a9 08       		.byte	0x8
 656 02aa BD       		.byte	0xbd
 657 02ab 11       		.byte	0x11
 658 02ac 66020000 		.4byte	0x266
 659 02b0 0C       		.byte	0xc
 660 02b1 09       		.uleb128 0x9
 661 02b2 723800   		.ascii	"r8\000"
 662 02b5 08       		.byte	0x8
 663 02b6 BE       		.byte	0xbe
 664 02b7 11       		.byte	0x11
 665 02b8 66020000 		.4byte	0x266
 666 02bc 10       		.byte	0x10
 667 02bd 09       		.uleb128 0x9
 668 02be 723900   		.ascii	"r9\000"
 669 02c1 08       		.byte	0x8
 670 02c2 BF       		.byte	0xbf
 671 02c3 11       		.byte	0x11
 672 02c4 66020000 		.4byte	0x266
 673 02c8 14       		.byte	0x14
 674 02c9 09       		.uleb128 0x9
 675 02ca 72313000 		.ascii	"r10\000"
 676 02ce 08       		.byte	0x8
 677 02cf C0       		.byte	0xc0
 678 02d0 11       		.byte	0x11
 679 02d1 66020000 		.4byte	0x266
 680 02d5 18       		.byte	0x18
 681 02d6 09       		.uleb128 0x9
 682 02d7 72313100 		.ascii	"r11\000"
 683 02db 08       		.byte	0x8
 684 02dc C1       		.byte	0xc1
ARM GAS  /var/folders/l5/0x54b2c10074c8bt31ycjvl80000gp/T//ccFzyCUA.s 			page 13


 685 02dd 11       		.byte	0x11
 686 02de 66020000 		.4byte	0x266
 687 02e2 1C       		.byte	0x1c
 688 02e3 09       		.uleb128 0x9
 689 02e4 6C7200   		.ascii	"lr\000"
 690 02e7 08       		.byte	0x8
 691 02e8 C2       		.byte	0xc2
 692 02e9 11       		.byte	0x11
 693 02ea 66020000 		.4byte	0x266
 694 02ee 20       		.byte	0x20
 695 02ef 00       		.byte	0
 696 02f0 07       		.uleb128 0x7
 697 02f1 14060000 		.4byte	.LASF43
 698 02f5 04       		.byte	0x4
 699 02f6 08       		.byte	0x8
 700 02f7 CA       		.byte	0xca
 701 02f8 08       		.byte	0x8
 702 02f9 0B030000 		.4byte	0x30b
 703 02fd 09       		.uleb128 0x9
 704 02fe 72313300 		.ascii	"r13\000"
 705 0302 08       		.byte	0x8
 706 0303 CB       		.byte	0xcb
 707 0304 12       		.byte	0x12
 708 0305 0B030000 		.4byte	0x30b
 709 0309 00       		.byte	0
 710 030a 00       		.byte	0
 711 030b 0B       		.uleb128 0xb
 712 030c 04       		.byte	0x4
 713 030d 74020000 		.4byte	0x274
 714 0311 03       		.uleb128 0x3
 715 0312 18030000 		.4byte	.LASF44
 716 0316 09       		.byte	0x9
 717 0317 4E       		.byte	0x4e
 718 0318 10       		.byte	0x10
 719 0319 1D030000 		.4byte	0x31d
 720 031d 0B       		.uleb128 0xb
 721 031e 04       		.byte	0x4
 722 031f 23030000 		.4byte	0x323
 723 0323 0D       		.uleb128 0xd
 724 0324 2E030000 		.4byte	0x32e
 725 0328 0E       		.uleb128 0xe
 726 0329 72020000 		.4byte	0x272
 727 032d 00       		.byte	0
 728 032e 03       		.uleb128 0x3
 729 032f 96050000 		.4byte	.LASF45
 730 0333 09       		.byte	0x9
 731 0334 53       		.byte	0x53
 732 0335 1D       		.byte	0x1d
 733 0336 3A030000 		.4byte	0x33a
 734 033a 07       		.uleb128 0x7
 735 033b 96050000 		.4byte	.LASF45
 736 033f 14       		.byte	0x14
 737 0340 09       		.byte	0x9
 738 0341 5A       		.byte	0x5a
 739 0342 08       		.byte	0x8
 740 0343 89030000 		.4byte	0x389
 741 0347 08       		.uleb128 0x8
ARM GAS  /var/folders/l5/0x54b2c10074c8bt31ycjvl80000gp/T//ccFzyCUA.s 			page 14


 742 0348 CE020000 		.4byte	.LASF46
 743 034c 09       		.byte	0x9
 744 034d 5B       		.byte	0x5b
 745 034e 1A       		.byte	0x1a
 746 034f 89030000 		.4byte	0x389
 747 0353 00       		.byte	0
 748 0354 08       		.uleb128 0x8
 749 0355 BC010000 		.4byte	.LASF47
 750 0359 09       		.byte	0x9
 751 035a 5D       		.byte	0x5d
 752 035b 1A       		.byte	0x1a
 753 035c 89030000 		.4byte	0x389
 754 0360 04       		.byte	0x4
 755 0361 08       		.uleb128 0x8
 756 0362 DD030000 		.4byte	.LASF48
 757 0366 09       		.byte	0x9
 758 0367 5F       		.byte	0x5f
 759 0368 19       		.byte	0x19
 760 0369 3A010000 		.4byte	0x13a
 761 036d 08       		.byte	0x8
 762 036e 08       		.uleb128 0x8
 763 036f 31040000 		.4byte	.LASF49
 764 0373 09       		.byte	0x9
 765 0374 60       		.byte	0x60
 766 0375 19       		.byte	0x19
 767 0376 11030000 		.4byte	0x311
 768 037a 0C       		.byte	0xc
 769 037b 08       		.uleb128 0x8
 770 037c 2C060000 		.4byte	.LASF50
 771 0380 09       		.byte	0x9
 772 0381 62       		.byte	0x62
 773 0382 1A       		.byte	0x1a
 774 0383 72020000 		.4byte	0x272
 775 0387 10       		.byte	0x10
 776 0388 00       		.byte	0
 777 0389 0B       		.uleb128 0xb
 778 038a 04       		.byte	0x4
 779 038b 2E030000 		.4byte	0x32e
 780 038f 0A       		.uleb128 0xa
 781 0390 10       		.byte	0x10
 782 0391 09       		.byte	0x9
 783 0392 6C       		.byte	0x6c
 784 0393 09       		.byte	0x9
 785 0394 CD030000 		.4byte	0x3cd
 786 0398 08       		.uleb128 0x8
 787 0399 CE020000 		.4byte	.LASF46
 788 039d 09       		.byte	0x9
 789 039e 6D       		.byte	0x6d
 790 039f 1A       		.byte	0x1a
 791 03a0 89030000 		.4byte	0x389
 792 03a4 00       		.byte	0
 793 03a5 08       		.uleb128 0x8
 794 03a6 BC010000 		.4byte	.LASF47
 795 03aa 09       		.byte	0x9
 796 03ab 6F       		.byte	0x6f
 797 03ac 1A       		.byte	0x1a
 798 03ad 89030000 		.4byte	0x389
ARM GAS  /var/folders/l5/0x54b2c10074c8bt31ycjvl80000gp/T//ccFzyCUA.s 			page 15


 799 03b1 04       		.byte	0x4
 800 03b2 08       		.uleb128 0x8
 801 03b3 DD030000 		.4byte	.LASF48
 802 03b7 09       		.byte	0x9
 803 03b8 71       		.byte	0x71
 804 03b9 19       		.byte	0x19
 805 03ba 3A010000 		.4byte	0x13a
 806 03be 08       		.byte	0x8
 807 03bf 08       		.uleb128 0x8
 808 03c0 AA060000 		.4byte	.LASF51
 809 03c4 09       		.byte	0x9
 810 03c5 72       		.byte	0x72
 811 03c6 19       		.byte	0x19
 812 03c7 46010000 		.4byte	0x146
 813 03cb 0C       		.byte	0xc
 814 03cc 00       		.byte	0
 815 03cd 03       		.uleb128 0x3
 816 03ce 42040000 		.4byte	.LASF52
 817 03d2 09       		.byte	0x9
 818 03d3 73       		.byte	0x73
 819 03d4 03       		.byte	0x3
 820 03d5 8F030000 		.4byte	0x38f
 821 03d9 0F       		.uleb128 0xf
 822 03da 24000000 		.4byte	.LASF58
 823 03de 09       		.byte	0x9
 824 03df D1       		.byte	0xd1
 825 03e0 0F       		.byte	0xf
 826 03e1 CD030000 		.4byte	0x3cd
 827 03e5 0A       		.uleb128 0xa
 828 03e6 14       		.byte	0x14
 829 03e7 0A       		.byte	0xa
 830 03e8 57       		.byte	0x57
 831 03e9 09       		.byte	0x9
 832 03ea 23040000 		.4byte	0x423
 833 03ee 08       		.uleb128 0x8
 834 03ef 8E050000 		.4byte	.LASF53
 835 03f3 0A       		.byte	0xa
 836 03f4 58       		.byte	0x58
 837 03f5 19       		.byte	0x19
 838 03f6 2B020000 		.4byte	0x22b
 839 03fa 00       		.byte	0
 840 03fb 08       		.uleb128 0x8
 841 03fc 30050000 		.4byte	.LASF54
 842 0400 0A       		.byte	0xa
 843 0401 59       		.byte	0x59
 844 0402 19       		.byte	0x19
 845 0403 0A010000 		.4byte	0x10a
 846 0407 08       		.byte	0x8
 847 0408 08       		.uleb128 0x8
 848 0409 59040000 		.4byte	.LASF55
 849 040d 0A       		.byte	0xa
 850 040e 5B       		.byte	0x5b
 851 040f 19       		.byte	0x19
 852 0410 F0020000 		.4byte	0x2f0
 853 0414 0C       		.byte	0xc
 854 0415 08       		.uleb128 0x8
 855 0416 74040000 		.4byte	.LASF56
ARM GAS  /var/folders/l5/0x54b2c10074c8bt31ycjvl80000gp/T//ccFzyCUA.s 			page 16


 856 041a 0A       		.byte	0xa
 857 041b 62       		.byte	0x62
 858 041c 1A       		.byte	0x1a
 859 041d 25020000 		.4byte	0x225
 860 0421 10       		.byte	0x10
 861 0422 00       		.byte	0
 862 0423 03       		.uleb128 0x3
 863 0424 6E060000 		.4byte	.LASF57
 864 0428 0A       		.byte	0xa
 865 0429 64       		.byte	0x64
 866 042a 03       		.byte	0x3
 867 042b E5030000 		.4byte	0x3e5
 868 042f 0F       		.uleb128 0xf
 869 0430 81060000 		.4byte	.LASF59
 870 0434 0A       		.byte	0xa
 871 0435 68       		.byte	0x68
 872 0436 12       		.byte	0x12
 873 0437 23040000 		.4byte	0x423
 874 043b 07       		.uleb128 0x7
 875 043c AE030000 		.4byte	.LASF60
 876 0440 10       		.byte	0x10
 877 0441 0B       		.byte	0xb
 878 0442 25       		.byte	0x25
 879 0443 10       		.byte	0x10
 880 0444 70040000 		.4byte	0x470
 881 0448 08       		.uleb128 0x8
 882 0449 C4000000 		.4byte	.LASF61
 883 044d 0B       		.byte	0xb
 884 044e 26       		.byte	0x26
 885 044f 19       		.byte	0x19
 886 0450 2B020000 		.4byte	0x22b
 887 0454 00       		.byte	0
 888 0455 08       		.uleb128 0x8
 889 0456 D1060000 		.4byte	.LASF62
 890 045a 0B       		.byte	0xb
 891 045b 28       		.byte	0x28
 892 045c 1A       		.byte	0x1a
 893 045d 25020000 		.4byte	0x225
 894 0461 08       		.byte	0x8
 895 0462 08       		.uleb128 0x8
 896 0463 DA050000 		.4byte	.LASF63
 897 0467 0B       		.byte	0xb
 898 0468 2A       		.byte	0x2a
 899 0469 1A       		.byte	0x1a
 900 046a 70040000 		.4byte	0x470
 901 046e 0C       		.byte	0xc
 902 046f 00       		.byte	0
 903 0470 0B       		.uleb128 0xb
 904 0471 04       		.byte	0x4
 905 0472 3B040000 		.4byte	0x43b
 906 0476 03       		.uleb128 0x3
 907 0477 AE030000 		.4byte	.LASF60
 908 047b 0B       		.byte	0xb
 909 047c 2C       		.byte	0x2c
 910 047d 03       		.byte	0x3
 911 047e 3B040000 		.4byte	0x43b
 912 0482 03       		.uleb128 0x3
ARM GAS  /var/folders/l5/0x54b2c10074c8bt31ycjvl80000gp/T//ccFzyCUA.s 			page 17


 913 0483 95060000 		.4byte	.LASF64
 914 0487 0C       		.byte	0xc
 915 0488 25       		.byte	0x25
 916 0489 1E       		.byte	0x1e
 917 048a 8E040000 		.4byte	0x48e
 918 048e 07       		.uleb128 0x7
 919 048f 95060000 		.4byte	.LASF64
 920 0493 10       		.byte	0x10
 921 0494 0C       		.byte	0xc
 922 0495 2A       		.byte	0x2a
 923 0496 08       		.byte	0x8
 924 0497 D0040000 		.4byte	0x4d0
 925 049b 08       		.uleb128 0x8
 926 049c 67030000 		.4byte	.LASF65
 927 04a0 0C       		.byte	0xc
 928 04a1 2B       		.byte	0x2b
 929 04a2 1A       		.byte	0x1a
 930 04a3 D0040000 		.4byte	0x4d0
 931 04a7 00       		.byte	0
 932 04a8 08       		.uleb128 0x8
 933 04a9 F5040000 		.4byte	.LASF66
 934 04ad 0C       		.byte	0xc
 935 04ae 2E       		.byte	0x2e
 936 04af 1A       		.byte	0x1a
 937 04b0 25020000 		.4byte	0x225
 938 04b4 04       		.byte	0x4
 939 04b5 08       		.uleb128 0x8
 940 04b6 7E040000 		.4byte	.LASF67
 941 04ba 0C       		.byte	0xc
 942 04bb 30       		.byte	0x30
 943 04bc 19       		.byte	0x19
 944 04bd 22010000 		.4byte	0x122
 945 04c1 08       		.byte	0x8
 946 04c2 08       		.uleb128 0x8
 947 04c3 01050000 		.4byte	.LASF68
 948 04c7 0C       		.byte	0xc
 949 04c8 33       		.byte	0x33
 950 04c9 19       		.byte	0x19
 951 04ca 2E010000 		.4byte	0x12e
 952 04ce 0C       		.byte	0xc
 953 04cf 00       		.byte	0
 954 04d0 0B       		.uleb128 0xb
 955 04d1 04       		.byte	0x4
 956 04d2 82040000 		.4byte	0x482
 957 04d6 07       		.uleb128 0x7
 958 04d7 B5020000 		.4byte	.LASF69
 959 04db 04       		.byte	0x4
 960 04dc 0C       		.byte	0xc
 961 04dd 3A       		.byte	0x3a
 962 04de 10       		.byte	0x10
 963 04df F1040000 		.4byte	0x4f1
 964 04e3 08       		.uleb128 0x8
 965 04e4 5F060000 		.4byte	.LASF70
 966 04e8 0C       		.byte	0xc
 967 04e9 3B       		.byte	0x3b
 968 04ea 1A       		.byte	0x1a
 969 04eb D0040000 		.4byte	0x4d0
ARM GAS  /var/folders/l5/0x54b2c10074c8bt31ycjvl80000gp/T//ccFzyCUA.s 			page 18


 970 04ef 00       		.byte	0
 971 04f0 00       		.byte	0
 972 04f1 03       		.uleb128 0x3
 973 04f2 B5020000 		.4byte	.LASF69
 974 04f6 0C       		.byte	0xc
 975 04f7 3E       		.byte	0x3e
 976 04f8 03       		.byte	0x3
 977 04f9 D6040000 		.4byte	0x4d6
 978 04fd 10       		.uleb128 0x10
 979 04fe 04       		.byte	0x4
 980 04ff 07       		.byte	0x7
 981 0500 8F       		.byte	0x8f
 982 0501 03       		.byte	0x3
 983 0502 37050000 		.4byte	0x537
 984 0506 11       		.uleb128 0x11
 985 0507 07000000 		.4byte	.LASF71
 986 050b 07       		.byte	0x7
 987 050c 96       		.byte	0x96
 988 050d 19       		.byte	0x19
 989 050e 16010000 		.4byte	0x116
 990 0512 11       		.uleb128 0x11
 991 0513 6A000000 		.4byte	.LASF72
 992 0517 07       		.byte	0x7
 993 0518 9D       		.byte	0x9d
 994 0519 19       		.byte	0x19
 995 051a 16010000 		.4byte	0x116
 996 051e 11       		.uleb128 0x11
 997 051f A3060000 		.4byte	.LASF73
 998 0523 07       		.byte	0x7
 999 0524 A4       		.byte	0xa4
 1000 0525 1A       		.byte	0x1a
 1001 0526 72020000 		.4byte	0x272
 1002 052a 11       		.uleb128 0x11
 1003 052b 40050000 		.4byte	.LASF74
 1004 052f 07       		.byte	0x7
 1005 0530 AB       		.byte	0xab
 1006 0531 19       		.byte	0x19
 1007 0532 22010000 		.4byte	0x122
 1008 0536 00       		.byte	0
 1009 0537 0B       		.uleb128 0xb
 1010 0538 04       		.byte	0x4
 1011 0539 76040000 		.4byte	0x476
 1012 053d 0B       		.uleb128 0xb
 1013 053e 04       		.byte	0x4
 1014 053f 43050000 		.4byte	0x543
 1015 0543 12       		.uleb128 0x12
 1016 0544 16010000 		.4byte	0x116
 1017 0548 52050000 		.4byte	0x552
 1018 054c 0E       		.uleb128 0xe
 1019 054d 72020000 		.4byte	0x272
 1020 0551 00       		.byte	0
 1021 0552 03       		.uleb128 0x3
 1022 0553 B4030000 		.4byte	.LASF75
 1023 0557 0D       		.byte	0xd
 1024 0558 30       		.byte	0x30
 1025 0559 1D       		.byte	0x1d
 1026 055a 5E050000 		.4byte	0x55e
ARM GAS  /var/folders/l5/0x54b2c10074c8bt31ycjvl80000gp/T//ccFzyCUA.s 			page 19


 1027 055e 07       		.uleb128 0x7
 1028 055f B4030000 		.4byte	.LASF75
 1029 0563 24       		.byte	0x24
 1030 0564 0D       		.byte	0xd
 1031 0565 3E       		.byte	0x3e
 1032 0566 08       		.byte	0x8
 1033 0567 D4050000 		.4byte	0x5d4
 1034 056b 08       		.uleb128 0x8
 1035 056c 98000000 		.4byte	.LASF76
 1036 0570 0D       		.byte	0xd
 1037 0571 3F       		.byte	0x3f
 1038 0572 19       		.byte	0x19
 1039 0573 2B020000 		.4byte	0x22b
 1040 0577 00       		.byte	0
 1041 0578 08       		.uleb128 0x8
 1042 0579 27040000 		.4byte	.LASF77
 1043 057d 0D       		.byte	0xd
 1044 057e 40       		.byte	0x40
 1045 057f 19       		.byte	0x19
 1046 0580 2C000000 		.4byte	0x2c
 1047 0584 08       		.byte	0x8
 1048 0585 08       		.uleb128 0x8
 1049 0586 65010000 		.4byte	.LASF78
 1050 058a 0D       		.byte	0xd
 1051 058b 41       		.byte	0x41
 1052 058c 1A       		.byte	0x1a
 1053 058d F7050000 		.4byte	0x5f7
 1054 0591 0C       		.byte	0xc
 1055 0592 08       		.uleb128 0x8
 1056 0593 59060000 		.4byte	.LASF79
 1057 0597 0D       		.byte	0xd
 1058 0598 42       		.byte	0x42
 1059 0599 1A       		.byte	0x1a
 1060 059a F7050000 		.4byte	0x5f7
 1061 059e 10       		.byte	0x10
 1062 059f 08       		.uleb128 0x8
 1063 05a0 51040000 		.4byte	.LASF80
 1064 05a4 0D       		.byte	0xd
 1065 05a5 44       		.byte	0x44
 1066 05a6 1A       		.byte	0x1a
 1067 05a7 F7050000 		.4byte	0x5f7
 1068 05ab 14       		.byte	0x14
 1069 05ac 08       		.uleb128 0x8
 1070 05ad C6040000 		.4byte	.LASF81
 1071 05b1 0D       		.byte	0xd
 1072 05b2 45       		.byte	0x45
 1073 05b3 1A       		.byte	0x1a
 1074 05b4 F7050000 		.4byte	0x5f7
 1075 05b8 18       		.byte	0x18
 1076 05b9 08       		.uleb128 0x8
 1077 05ba 78060000 		.4byte	.LASF82
 1078 05be 0D       		.byte	0xd
 1079 05bf 46       		.byte	0x46
 1080 05c0 19       		.byte	0x19
 1081 05c1 D4050000 		.4byte	0x5d4
 1082 05c5 1C       		.byte	0x1c
 1083 05c6 08       		.uleb128 0x8
ARM GAS  /var/folders/l5/0x54b2c10074c8bt31ycjvl80000gp/T//ccFzyCUA.s 			page 20


 1084 05c7 BB060000 		.4byte	.LASF83
 1085 05cb 0D       		.byte	0xd
 1086 05cc 47       		.byte	0x47
 1087 05cd 1A       		.byte	0x1a
 1088 05ce 72020000 		.4byte	0x272
 1089 05d2 20       		.byte	0x20
 1090 05d3 00       		.byte	0
 1091 05d4 03       		.uleb128 0x3
 1092 05d5 AD040000 		.4byte	.LASF84
 1093 05d9 0D       		.byte	0xd
 1094 05da 33       		.byte	0x33
 1095 05db 10       		.byte	0x10
 1096 05dc E0050000 		.4byte	0x5e0
 1097 05e0 0B       		.uleb128 0xb
 1098 05e1 04       		.byte	0x4
 1099 05e2 E6050000 		.4byte	0x5e6
 1100 05e6 0D       		.uleb128 0xd
 1101 05e7 F1050000 		.4byte	0x5f1
 1102 05eb 0E       		.uleb128 0xe
 1103 05ec F1050000 		.4byte	0x5f1
 1104 05f0 00       		.byte	0
 1105 05f1 0B       		.uleb128 0xb
 1106 05f2 04       		.byte	0x4
 1107 05f3 52050000 		.4byte	0x552
 1108 05f7 0B       		.uleb128 0xb
 1109 05f8 04       		.byte	0x4
 1110 05f9 99000000 		.4byte	0x99
 1111 05fd 03       		.uleb128 0x3
 1112 05fe A3030000 		.4byte	.LASF85
 1113 0602 0D       		.byte	0xd
 1114 0603 7B       		.byte	0x7b
 1115 0604 16       		.byte	0x16
 1116 0605 52050000 		.4byte	0x552
 1117 0609 03       		.uleb128 0x3
 1118 060a 0E000000 		.4byte	.LASF86
 1119 060e 0D       		.byte	0xd
 1120 060f EE       		.byte	0xee
 1121 0610 16       		.byte	0x16
 1122 0611 52050000 		.4byte	0x552
 1123 0615 12       		.uleb128 0x12
 1124 0616 2C000000 		.4byte	0x2c
 1125 061a 2E060000 		.4byte	0x62e
 1126 061e 0E       		.uleb128 0xe
 1127 061f 72020000 		.4byte	0x272
 1128 0623 0E       		.uleb128 0xe
 1129 0624 2E060000 		.4byte	0x62e
 1130 0628 0E       		.uleb128 0xe
 1131 0629 2C000000 		.4byte	0x2c
 1132 062d 00       		.byte	0
 1133 062e 0B       		.uleb128 0xb
 1134 062f 04       		.byte	0x4
 1135 0630 A5000000 		.4byte	0xa5
 1136 0634 0B       		.uleb128 0xb
 1137 0635 04       		.byte	0x4
 1138 0636 15060000 		.4byte	0x615
 1139 063a 12       		.uleb128 0x12
 1140 063b 2C000000 		.4byte	0x2c
ARM GAS  /var/folders/l5/0x54b2c10074c8bt31ycjvl80000gp/T//ccFzyCUA.s 			page 21


 1141 063f 53060000 		.4byte	0x653
 1142 0643 0E       		.uleb128 0xe
 1143 0644 72020000 		.4byte	0x272
 1144 0648 0E       		.uleb128 0xe
 1145 0649 F7050000 		.4byte	0x5f7
 1146 064d 0E       		.uleb128 0xe
 1147 064e 2C000000 		.4byte	0x2c
 1148 0652 00       		.byte	0
 1149 0653 0B       		.uleb128 0xb
 1150 0654 04       		.byte	0x4
 1151 0655 3A060000 		.4byte	0x63a
 1152 0659 12       		.uleb128 0x12
 1153 065a 16010000 		.4byte	0x116
 1154 065e 6D060000 		.4byte	0x66d
 1155 0662 0E       		.uleb128 0xe
 1156 0663 72020000 		.4byte	0x272
 1157 0667 0E       		.uleb128 0xe
 1158 0668 99000000 		.4byte	0x99
 1159 066c 00       		.byte	0
 1160 066d 0B       		.uleb128 0xb
 1161 066e 04       		.byte	0x4
 1162 066f 59060000 		.4byte	0x659
 1163 0673 13       		.uleb128 0x13
 1164 0674 5A020000 		.4byte	0x25a
 1165 0678 83060000 		.4byte	0x683
 1166 067c 14       		.uleb128 0x14
 1167 067d 38000000 		.4byte	0x38
 1168 0681 1F       		.byte	0x1f
 1169 0682 00       		.byte	0
 1170 0683 0F       		.uleb128 0xf
 1171 0684 90010000 		.4byte	.LASF87
 1172 0688 0E       		.byte	0xe
 1173 0689 82       		.byte	0x82
 1174 068a 08       		.byte	0x8
 1175 068b 73060000 		.4byte	0x673
 1176 068f 07       		.uleb128 0x7
 1177 0690 2B000000 		.4byte	.LASF88
 1178 0694 20       		.byte	0x20
 1179 0695 0F       		.byte	0xf
 1180 0696 FD       		.byte	0xfd
 1181 0697 08       		.byte	0x8
 1182 0698 0B070000 		.4byte	0x70b
 1183 069c 08       		.uleb128 0x8
 1184 069d A0010000 		.4byte	.LASF89
 1185 06a1 0F       		.byte	0xf
 1186 06a2 FE       		.byte	0xfe
 1187 06a3 19       		.byte	0x19
 1188 06a4 E1000000 		.4byte	0xe1
 1189 06a8 00       		.byte	0
 1190 06a9 08       		.uleb128 0x8
 1191 06aa 67060000 		.4byte	.LASF90
 1192 06ae 0F       		.byte	0xf
 1193 06af FF       		.byte	0xff
 1194 06b0 19       		.byte	0x19
 1195 06b1 E1000000 		.4byte	0xe1
 1196 06b5 04       		.byte	0x4
 1197 06b6 15       		.uleb128 0x15
ARM GAS  /var/folders/l5/0x54b2c10074c8bt31ycjvl80000gp/T//ccFzyCUA.s 			page 22


 1198 06b7 85010000 		.4byte	.LASF91
 1199 06bb 0F       		.byte	0xf
 1200 06bc 0001     		.2byte	0x100
 1201 06be 19       		.byte	0x19
 1202 06bf E1000000 		.4byte	0xe1
 1203 06c3 08       		.byte	0x8
 1204 06c4 15       		.uleb128 0x15
 1205 06c5 C4010000 		.4byte	.LASF92
 1206 06c9 0F       		.byte	0xf
 1207 06ca 0101     		.2byte	0x101
 1208 06cc 19       		.byte	0x19
 1209 06cd E1000000 		.4byte	0xe1
 1210 06d1 0C       		.byte	0xc
 1211 06d2 15       		.uleb128 0x15
 1212 06d3 7B000000 		.4byte	.LASF93
 1213 06d7 0F       		.byte	0xf
 1214 06d8 0201     		.2byte	0x102
 1215 06da 19       		.byte	0x19
 1216 06db E1000000 		.4byte	0xe1
 1217 06df 10       		.byte	0x10
 1218 06e0 15       		.uleb128 0x15
 1219 06e1 07040000 		.4byte	.LASF94
 1220 06e5 0F       		.byte	0xf
 1221 06e6 0301     		.2byte	0x103
 1222 06e8 19       		.byte	0x19
 1223 06e9 E1000000 		.4byte	0xe1
 1224 06ed 14       		.byte	0x14
 1225 06ee 15       		.uleb128 0x15
 1226 06ef 5B010000 		.4byte	.LASF95
 1227 06f3 0F       		.byte	0xf
 1228 06f4 0401     		.2byte	0x104
 1229 06f6 19       		.byte	0x19
 1230 06f7 E1000000 		.4byte	0xe1
 1231 06fb 18       		.byte	0x18
 1232 06fc 15       		.uleb128 0x15
 1233 06fd 0D070000 		.4byte	.LASF96
 1234 0701 0F       		.byte	0xf
 1235 0702 0501     		.2byte	0x105
 1236 0704 19       		.byte	0x19
 1237 0705 E1000000 		.4byte	0xe1
 1238 0709 1C       		.byte	0x1c
 1239 070a 00       		.byte	0
 1240 070b 16       		.uleb128 0x16
 1241 070c 2B000000 		.4byte	.LASF88
 1242 0710 0F       		.byte	0xf
 1243 0711 0801     		.2byte	0x108
 1244 0713 1C       		.byte	0x1c
 1245 0714 8F060000 		.4byte	0x68f
 1246 0718 03       		.uleb128 0x3
 1247 0719 37000000 		.4byte	.LASF97
 1248 071d 10       		.byte	0x10
 1249 071e 45       		.byte	0x45
 1250 071f 12       		.byte	0x12
 1251 0720 C2000000 		.4byte	0xc2
 1252 0724 12       		.uleb128 0x12
 1253 0725 16010000 		.4byte	0x116
 1254 0729 3D070000 		.4byte	0x73d
ARM GAS  /var/folders/l5/0x54b2c10074c8bt31ycjvl80000gp/T//ccFzyCUA.s 			page 23


 1255 072d 0E       		.uleb128 0xe
 1256 072e 72020000 		.4byte	0x272
 1257 0732 0E       		.uleb128 0xe
 1258 0733 99000000 		.4byte	0x99
 1259 0737 0E       		.uleb128 0xe
 1260 0738 3A010000 		.4byte	0x13a
 1261 073c 00       		.byte	0
 1262 073d 0B       		.uleb128 0xb
 1263 073e 04       		.byte	0x4
 1264 073f 24070000 		.4byte	0x724
 1265 0743 12       		.uleb128 0x12
 1266 0744 16010000 		.4byte	0x116
 1267 0748 57070000 		.4byte	0x757
 1268 074c 0E       		.uleb128 0xe
 1269 074d 72020000 		.4byte	0x272
 1270 0751 0E       		.uleb128 0xe
 1271 0752 3A010000 		.4byte	0x13a
 1272 0756 00       		.byte	0
 1273 0757 0B       		.uleb128 0xb
 1274 0758 04       		.byte	0x4
 1275 0759 43070000 		.4byte	0x743
 1276 075d 12       		.uleb128 0x12
 1277 075e 2C000000 		.4byte	0x2c
 1278 0762 7B070000 		.4byte	0x77b
 1279 0766 0E       		.uleb128 0xe
 1280 0767 72020000 		.4byte	0x272
 1281 076b 0E       		.uleb128 0xe
 1282 076c 2E060000 		.4byte	0x62e
 1283 0770 0E       		.uleb128 0xe
 1284 0771 2C000000 		.4byte	0x2c
 1285 0775 0E       		.uleb128 0xe
 1286 0776 3A010000 		.4byte	0x13a
 1287 077a 00       		.byte	0
 1288 077b 0B       		.uleb128 0xb
 1289 077c 04       		.byte	0x4
 1290 077d 5D070000 		.4byte	0x75d
 1291 0781 12       		.uleb128 0x12
 1292 0782 2C000000 		.4byte	0x2c
 1293 0786 9F070000 		.4byte	0x79f
 1294 078a 0E       		.uleb128 0xe
 1295 078b 72020000 		.4byte	0x272
 1296 078f 0E       		.uleb128 0xe
 1297 0790 F7050000 		.4byte	0x5f7
 1298 0794 0E       		.uleb128 0xe
 1299 0795 2C000000 		.4byte	0x2c
 1300 0799 0E       		.uleb128 0xe
 1301 079a 3A010000 		.4byte	0x13a
 1302 079e 00       		.byte	0
 1303 079f 0B       		.uleb128 0xb
 1304 07a0 04       		.byte	0x4
 1305 07a1 81070000 		.4byte	0x781
 1306 07a5 03       		.uleb128 0x3
 1307 07a6 21030000 		.4byte	.LASF98
 1308 07aa 11       		.byte	0x11
 1309 07ab 3E       		.byte	0x3e
 1310 07ac 20       		.byte	0x20
 1311 07ad B1070000 		.4byte	0x7b1
ARM GAS  /var/folders/l5/0x54b2c10074c8bt31ycjvl80000gp/T//ccFzyCUA.s 			page 24


 1312 07b1 07       		.uleb128 0x7
 1313 07b2 21030000 		.4byte	.LASF98
 1314 07b6 14       		.byte	0x14
 1315 07b7 11       		.byte	0x11
 1316 07b8 43       		.byte	0x43
 1317 07b9 08       		.byte	0x8
 1318 07ba 00080000 		.4byte	0x800
 1319 07be 08       		.uleb128 0x8
 1320 07bf B5060000 		.4byte	.LASF99
 1321 07c3 11       		.byte	0x11
 1322 07c4 44       		.byte	0x44
 1323 07c5 0A       		.byte	0xa
 1324 07c6 11080000 		.4byte	0x811
 1325 07ca 00       		.byte	0
 1326 07cb 08       		.uleb128 0x8
 1327 07cc C2060000 		.4byte	.LASF100
 1328 07d0 11       		.byte	0x11
 1329 07d1 45       		.byte	0x45
 1330 07d2 0A       		.byte	0xa
 1331 07d3 11080000 		.4byte	0x811
 1332 07d7 04       		.byte	0x4
 1333 07d8 08       		.uleb128 0x8
 1334 07d9 62030000 		.4byte	.LASF101
 1335 07dd 11       		.byte	0x11
 1336 07de 46       		.byte	0x46
 1337 07df 18       		.byte	0x18
 1338 07e0 18070000 		.4byte	0x718
 1339 07e4 08       		.byte	0x8
 1340 07e5 08       		.uleb128 0x8
 1341 07e6 48000000 		.4byte	.LASF102
 1342 07ea 11       		.byte	0x11
 1343 07eb 47       		.byte	0x47
 1344 07ec 18       		.byte	0x18
 1345 07ed 18070000 		.4byte	0x718
 1346 07f1 0C       		.byte	0xc
 1347 07f2 08       		.uleb128 0x8
 1348 07f3 D5050000 		.4byte	.LASF103
 1349 07f7 11       		.byte	0x11
 1350 07f8 48       		.byte	0x48
 1351 07f9 18       		.byte	0x18
 1352 07fa 18070000 		.4byte	0x718
 1353 07fe 10       		.byte	0x10
 1354 07ff 00       		.byte	0
 1355 0800 0D       		.uleb128 0xd
 1356 0801 0B080000 		.4byte	0x80b
 1357 0805 0E       		.uleb128 0xe
 1358 0806 0B080000 		.4byte	0x80b
 1359 080a 00       		.byte	0
 1360 080b 0B       		.uleb128 0xb
 1361 080c 04       		.byte	0x4
 1362 080d A5070000 		.4byte	0x7a5
 1363 0811 0B       		.uleb128 0xb
 1364 0812 04       		.byte	0x4
 1365 0813 00080000 		.4byte	0x800
 1366 0817 0A       		.uleb128 0xa
 1367 0818 18       		.byte	0x18
 1368 0819 12       		.byte	0x12
ARM GAS  /var/folders/l5/0x54b2c10074c8bt31ycjvl80000gp/T//ccFzyCUA.s 			page 25


 1369 081a 2A       		.byte	0x2a
 1370 081b 09       		.byte	0x9
 1371 081c 6F080000 		.4byte	0x86f
 1372 0820 08       		.uleb128 0x8
 1373 0821 8F060000 		.4byte	.LASF104
 1374 0825 12       		.byte	0x12
 1375 0826 2F       		.byte	0x2f
 1376 0827 15       		.byte	0x15
 1377 0828 C2000000 		.4byte	0xc2
 1378 082c 00       		.byte	0
 1379 082d 08       		.uleb128 0x8
 1380 082e 8D040000 		.4byte	.LASF105
 1381 0832 12       		.byte	0x12
 1382 0833 31       		.byte	0x31
 1383 0834 16       		.byte	0x16
 1384 0835 6F080000 		.4byte	0x86f
 1385 0839 04       		.byte	0x4
 1386 083a 08       		.uleb128 0x8
 1387 083b 56030000 		.4byte	.LASF106
 1388 083f 12       		.byte	0x12
 1389 0840 32       		.byte	0x32
 1390 0841 16       		.byte	0x16
 1391 0842 6F080000 		.4byte	0x86f
 1392 0846 08       		.byte	0x8
 1393 0847 08       		.uleb128 0x8
 1394 0848 D2030000 		.4byte	.LASF107
 1395 084c 12       		.byte	0x12
 1396 084d 33       		.byte	0x33
 1397 084e 16       		.byte	0x16
 1398 084f 6F080000 		.4byte	0x86f
 1399 0853 0C       		.byte	0xc
 1400 0854 08       		.uleb128 0x8
 1401 0855 93040000 		.4byte	.LASF108
 1402 0859 12       		.byte	0x12
 1403 085a 34       		.byte	0x34
 1404 085b 16       		.byte	0x16
 1405 085c 6F080000 		.4byte	0x86f
 1406 0860 10       		.byte	0x10
 1407 0861 08       		.uleb128 0x8
 1408 0862 37050000 		.4byte	.LASF109
 1409 0866 12       		.byte	0x12
 1410 0867 35       		.byte	0x35
 1411 0868 10       		.byte	0x10
 1412 0869 DA000000 		.4byte	0xda
 1413 086d 14       		.byte	0x14
 1414 086e 00       		.byte	0
 1415 086f 0B       		.uleb128 0xb
 1416 0870 04       		.byte	0x4
 1417 0871 CE000000 		.4byte	0xce
 1418 0875 03       		.uleb128 0x3
 1419 0876 4A030000 		.4byte	.LASF110
 1420 087a 12       		.byte	0x12
 1421 087b 37       		.byte	0x37
 1422 087c 03       		.byte	0x3
 1423 087d 17080000 		.4byte	0x817
 1424 0881 17       		.uleb128 0x17
 1425 0882 00       		.byte	0
ARM GAS  /var/folders/l5/0x54b2c10074c8bt31ycjvl80000gp/T//ccFzyCUA.s 			page 26


 1426 0883 12       		.byte	0x12
 1427 0884 43       		.byte	0x43
 1428 0885 09       		.byte	0x9
 1429 0886 03       		.uleb128 0x3
 1430 0887 C7060000 		.4byte	.LASF111
 1431 088b 12       		.byte	0x12
 1432 088c 45       		.byte	0x45
 1433 088d 03       		.byte	0x3
 1434 088e 81080000 		.4byte	0x881
 1435 0892 04       		.uleb128 0x4
 1436 0893 86080000 		.4byte	0x886
 1437 0897 0F       		.uleb128 0xf
 1438 0898 6C040000 		.4byte	.LASF112
 1439 089c 12       		.byte	0x12
 1440 089d 6D       		.byte	0x6d
 1441 089e 14       		.byte	0x14
 1442 089f 75080000 		.4byte	0x875
 1443 08a3 0F       		.uleb128 0xf
 1444 08a4 4E050000 		.4byte	.LASF113
 1445 08a8 12       		.byte	0x12
 1446 08a9 6E       		.byte	0x6e
 1447 08aa 14       		.byte	0x14
 1448 08ab 75080000 		.4byte	0x875
 1449 08af 0F       		.uleb128 0xf
 1450 08b0 E2060000 		.4byte	.LASF114
 1451 08b4 12       		.byte	0x12
 1452 08b5 75       		.byte	0x75
 1453 08b6 18       		.byte	0x18
 1454 08b7 92080000 		.4byte	0x892
 1455 08bb 18       		.uleb128 0x18
 1456 08bc 07       		.byte	0x7
 1457 08bd 04       		.byte	0x4
 1458 08be DA000000 		.4byte	0xda
 1459 08c2 13       		.byte	0x13
 1460 08c3 54       		.byte	0x54
 1461 08c4 0E       		.byte	0xe
 1462 08c5 EE080000 		.4byte	0x8ee
 1463 08c9 19       		.uleb128 0x19
 1464 08ca D6000000 		.4byte	.LASF115
 1465 08ce 00       		.byte	0
 1466 08cf 19       		.uleb128 0x19
 1467 08d0 E5030000 		.4byte	.LASF116
 1468 08d4 01       		.byte	0x1
 1469 08d5 19       		.uleb128 0x19
 1470 08d6 00060000 		.4byte	.LASF117
 1471 08da 02       		.byte	0x2
 1472 08db 19       		.uleb128 0x19
 1473 08dc 77010000 		.4byte	.LASF118
 1474 08e0 03       		.byte	0x3
 1475 08e1 19       		.uleb128 0x19
 1476 08e2 B0050000 		.4byte	.LASF119
 1477 08e6 04       		.byte	0x4
 1478 08e7 19       		.uleb128 0x19
 1479 08e8 65050000 		.4byte	.LASF120
 1480 08ec 05       		.byte	0x5
 1481 08ed 00       		.byte	0
 1482 08ee 03       		.uleb128 0x3
ARM GAS  /var/folders/l5/0x54b2c10074c8bt31ycjvl80000gp/T//ccFzyCUA.s 			page 27


 1483 08ef A2040000 		.4byte	.LASF121
 1484 08f3 13       		.byte	0x13
 1485 08f4 5B       		.byte	0x5b
 1486 08f5 03       		.byte	0x3
 1487 08f6 BB080000 		.4byte	0x8bb
 1488 08fa 03       		.uleb128 0x3
 1489 08fb 0A060000 		.4byte	.LASF122
 1490 08ff 14       		.byte	0x14
 1491 0900 38       		.byte	0x38
 1492 0901 1A       		.byte	0x1a
 1493 0902 06090000 		.4byte	0x906
 1494 0906 07       		.uleb128 0x7
 1495 0907 0A060000 		.4byte	.LASF122
 1496 090b 40       		.byte	0x40
 1497 090c 14       		.byte	0x14
 1498 090d 62       		.byte	0x62
 1499 090e 08       		.byte	0x8
 1500 090f BD090000 		.4byte	0x9bd
 1501 0913 08       		.uleb128 0x8
 1502 0914 EB000000 		.4byte	.LASF123
 1503 0918 14       		.byte	0x14
 1504 0919 64       		.byte	0x64
 1505 091a 1D       		.byte	0x1d
 1506 091b EE080000 		.4byte	0x8ee
 1507 091f 00       		.byte	0
 1508 0920 08       		.uleb128 0x8
 1509 0921 C3050000 		.4byte	.LASF124
 1510 0925 14       		.byte	0x14
 1511 0926 66       		.byte	0x66
 1512 0927 1E       		.byte	0x1e
 1513 0928 FD090000 		.4byte	0x9fd
 1514 092c 04       		.byte	0x4
 1515 092d 08       		.uleb128 0x8
 1516 092e EC020000 		.4byte	.LASF125
 1517 0932 14       		.byte	0x14
 1518 0933 68       		.byte	0x68
 1519 0934 1D       		.byte	0x1d
 1520 0935 BD090000 		.4byte	0x9bd
 1521 0939 08       		.byte	0x8
 1522 093a 08       		.uleb128 0x8
 1523 093b 91000000 		.4byte	.LASF126
 1524 093f 14       		.byte	0x14
 1525 0940 6A       		.byte	0x6a
 1526 0941 1E       		.byte	0x1e
 1527 0942 030A0000 		.4byte	0xa03
 1528 0946 0C       		.byte	0xc
 1529 0947 08       		.uleb128 0x8
 1530 0948 D9040000 		.4byte	.LASF127
 1531 094c 14       		.byte	0x14
 1532 094d 6D       		.byte	0x6d
 1533 094e 1D       		.byte	0x1d
 1534 094f 76040000 		.4byte	0x476
 1535 0953 10       		.byte	0x10
 1536 0954 08       		.uleb128 0x8
 1537 0955 54010000 		.4byte	.LASF128
 1538 0959 14       		.byte	0x14
 1539 095a 77       		.byte	0x77
ARM GAS  /var/folders/l5/0x54b2c10074c8bt31ycjvl80000gp/T//ccFzyCUA.s 			page 28


 1540 095b 1E       		.byte	0x1e
 1541 095c 25020000 		.4byte	0x225
 1542 0960 20       		.byte	0x20
 1543 0961 08       		.uleb128 0x8
 1544 0962 65000000 		.4byte	.LASF129
 1545 0966 14       		.byte	0x14
 1546 0967 7B       		.byte	0x7b
 1547 0968 1D       		.byte	0x1d
 1548 0969 C9090000 		.4byte	0x9c9
 1549 096d 24       		.byte	0x24
 1550 096e 08       		.uleb128 0x8
 1551 096f D6020000 		.4byte	.LASF130
 1552 0973 14       		.byte	0x14
 1553 0974 7F       		.byte	0x7f
 1554 0975 1E       		.byte	0x1e
 1555 0976 2E060000 		.4byte	0x62e
 1556 097a 28       		.byte	0x28
 1557 097b 08       		.uleb128 0x8
 1558 097c 05070000 		.4byte	.LASF131
 1559 0980 14       		.byte	0x14
 1560 0981 83       		.byte	0x83
 1561 0982 1D       		.byte	0x1d
 1562 0983 2C000000 		.4byte	0x2c
 1563 0987 2C       		.byte	0x2c
 1564 0988 08       		.uleb128 0x8
 1565 0989 53060000 		.4byte	.LASF132
 1566 098d 14       		.byte	0x14
 1567 098e 87       		.byte	0x87
 1568 098f 1D       		.byte	0x1d
 1569 0990 2C000000 		.4byte	0x2c
 1570 0994 30       		.byte	0x30
 1571 0995 08       		.uleb128 0x8
 1572 0996 42000000 		.4byte	.LASF133
 1573 099a 14       		.byte	0x14
 1574 099b 8B       		.byte	0x8b
 1575 099c 1E       		.byte	0x1e
 1576 099d F7050000 		.4byte	0x5f7
 1577 09a1 34       		.byte	0x34
 1578 09a2 08       		.uleb128 0x8
 1579 09a3 49040000 		.4byte	.LASF134
 1580 09a7 14       		.byte	0x14
 1581 09a8 8F       		.byte	0x8f
 1582 09a9 1D       		.byte	0x1d
 1583 09aa 2C000000 		.4byte	0x2c
 1584 09ae 38       		.byte	0x38
 1585 09af 08       		.uleb128 0x8
 1586 09b0 9C040000 		.4byte	.LASF135
 1587 09b4 14       		.byte	0x14
 1588 09b5 93       		.byte	0x93
 1589 09b6 1D       		.byte	0x1d
 1590 09b7 2C000000 		.4byte	0x2c
 1591 09bb 3C       		.byte	0x3c
 1592 09bc 00       		.byte	0
 1593 09bd 03       		.uleb128 0x3
 1594 09be CE040000 		.4byte	.LASF136
 1595 09c2 14       		.byte	0x14
 1596 09c3 42       		.byte	0x42
ARM GAS  /var/folders/l5/0x54b2c10074c8bt31ycjvl80000gp/T//ccFzyCUA.s 			page 29


 1597 09c4 12       		.byte	0x12
 1598 09c5 C2000000 		.4byte	0xc2
 1599 09c9 03       		.uleb128 0x3
 1600 09ca E1000000 		.4byte	.LASF137
 1601 09ce 14       		.byte	0x14
 1602 09cf 48       		.byte	0x48
 1603 09d0 12       		.byte	0x12
 1604 09d1 AA000000 		.4byte	0xaa
 1605 09d5 0A       		.uleb128 0xa
 1606 09d6 04       		.byte	0x4
 1607 09d7 14       		.byte	0x14
 1608 09d8 57       		.byte	0x57
 1609 09d9 09       		.byte	0x9
 1610 09da EC090000 		.4byte	0x9ec
 1611 09de 08       		.uleb128 0x8
 1612 09df 39040000 		.4byte	.LASF138
 1613 09e3 14       		.byte	0x14
 1614 09e4 59       		.byte	0x59
 1615 09e5 1D       		.byte	0x1d
 1616 09e6 C2000000 		.4byte	0xc2
 1617 09ea 00       		.byte	0
 1618 09eb 00       		.byte	0
 1619 09ec 03       		.uleb128 0x3
 1620 09ed 3F060000 		.4byte	.LASF139
 1621 09f1 14       		.byte	0x14
 1622 09f2 5B       		.byte	0x5b
 1623 09f3 03       		.byte	0x3
 1624 09f4 D5090000 		.4byte	0x9d5
 1625 09f8 04       		.uleb128 0x4
 1626 09f9 EC090000 		.4byte	0x9ec
 1627 09fd 0B       		.uleb128 0xb
 1628 09fe 04       		.byte	0x4
 1629 09ff F8090000 		.4byte	0x9f8
 1630 0a03 0B       		.uleb128 0xb
 1631 0a04 04       		.byte	0x4
 1632 0a05 0B070000 		.4byte	0x70b
 1633 0a09 0F       		.uleb128 0xf
 1634 0a0a B0020000 		.4byte	.LASF140
 1635 0a0e 14       		.byte	0x14
 1636 0a0f A6       		.byte	0xa6
 1637 0a10 12       		.byte	0x12
 1638 0a11 FA080000 		.4byte	0x8fa
 1639 0a15 18       		.uleb128 0x18
 1640 0a16 07       		.byte	0x7
 1641 0a17 04       		.byte	0x4
 1642 0a18 DA000000 		.4byte	0xda
 1643 0a1c 15       		.byte	0x15
 1644 0a1d 5D       		.byte	0x5d
 1645 0a1e 0E       		.byte	0xe
 1646 0a1f 360A0000 		.4byte	0xa36
 1647 0a23 19       		.uleb128 0x19
 1648 0a24 7B050000 		.4byte	.LASF141
 1649 0a28 00       		.byte	0
 1650 0a29 19       		.uleb128 0x19
 1651 0a2a BC000000 		.4byte	.LASF142
 1652 0a2e 01       		.byte	0x1
 1653 0a2f 19       		.uleb128 0x19
ARM GAS  /var/folders/l5/0x54b2c10074c8bt31ycjvl80000gp/T//ccFzyCUA.s 			page 30


 1654 0a30 23060000 		.4byte	.LASF143
 1655 0a34 02       		.byte	0x2
 1656 0a35 00       		.byte	0
 1657 0a36 03       		.uleb128 0x3
 1658 0a37 49060000 		.4byte	.LASF144
 1659 0a3b 15       		.byte	0x15
 1660 0a3c 61       		.byte	0x61
 1661 0a3d 03       		.byte	0x3
 1662 0a3e 150A0000 		.4byte	0xa15
 1663 0a42 03       		.uleb128 0x3
 1664 0a43 A3050000 		.4byte	.LASF145
 1665 0a47 15       		.byte	0x15
 1666 0a48 66       		.byte	0x66
 1667 0a49 1D       		.byte	0x1d
 1668 0a4a 4E0A0000 		.4byte	0xa4e
 1669 0a4e 07       		.uleb128 0x7
 1670 0a4f A3050000 		.4byte	.LASF145
 1671 0a53 74       		.byte	0x74
 1672 0a54 15       		.byte	0x15
 1673 0a55 80       		.byte	0x80
 1674 0a56 08       		.byte	0x8
 1675 0a57 B50A0000 		.4byte	0xab5
 1676 0a5b 09       		.uleb128 0x9
 1677 0a5c 766D7400 		.ascii	"vmt\000"
 1678 0a60 15       		.byte	0x15
 1679 0a61 82       		.byte	0x82
 1680 0a62 21       		.byte	0x21
 1681 0a63 3C0B0000 		.4byte	0xb3c
 1682 0a67 00       		.byte	0
 1683 0a68 08       		.uleb128 0x8
 1684 0a69 31030000 		.4byte	.LASF146
 1685 0a6d 15       		.byte	0x15
 1686 0a6e 83       		.byte	0x83
 1687 0a6f 03       		.byte	0x3
 1688 0a70 F1040000 		.4byte	0x4f1
 1689 0a74 04       		.byte	0x4
 1690 0a75 08       		.uleb128 0x8
 1691 0a76 EB000000 		.4byte	.LASF123
 1692 0a7a 15       		.byte	0x15
 1693 0a7b 83       		.byte	0x83
 1694 0a7c 03       		.byte	0x3
 1695 0a7d 360A0000 		.4byte	0xa36
 1696 0a81 08       		.byte	0x8
 1697 0a82 08       		.uleb128 0x8
 1698 0a83 F3020000 		.4byte	.LASF147
 1699 0a87 15       		.byte	0x15
 1700 0a88 83       		.byte	0x83
 1701 0a89 03       		.byte	0x3
 1702 0a8a FD050000 		.4byte	0x5fd
 1703 0a8e 0C       		.byte	0xc
 1704 0a8f 08       		.uleb128 0x8
 1705 0a90 86040000 		.4byte	.LASF148
 1706 0a94 15       		.byte	0x15
 1707 0a95 83       		.byte	0x83
 1708 0a96 03       		.byte	0x3
 1709 0a97 09060000 		.4byte	0x609
 1710 0a9b 30       		.byte	0x30
ARM GAS  /var/folders/l5/0x54b2c10074c8bt31ycjvl80000gp/T//ccFzyCUA.s 			page 31


 1711 0a9c 09       		.uleb128 0x9
 1712 0a9d 696200   		.ascii	"ib\000"
 1713 0aa0 15       		.byte	0x15
 1714 0aa1 83       		.byte	0x83
 1715 0aa2 03       		.byte	0x3
 1716 0aa3 420B0000 		.4byte	0xb42
 1717 0aa7 54       		.byte	0x54
 1718 0aa8 09       		.uleb128 0x9
 1719 0aa9 6F6200   		.ascii	"ob\000"
 1720 0aac 15       		.byte	0x15
 1721 0aad 83       		.byte	0x83
 1722 0aae 03       		.byte	0x3
 1723 0aaf 420B0000 		.4byte	0xb42
 1724 0ab3 64       		.byte	0x64
 1725 0ab4 00       		.byte	0
 1726 0ab5 1A       		.uleb128 0x1a
 1727 0ab6 53443100 		.ascii	"SD1\000"
 1728 0aba 16       		.byte	0x16
 1729 0abb 62       		.byte	0x62
 1730 0abc 15       		.byte	0x15
 1731 0abd 420A0000 		.4byte	0xa42
 1732 0ac1 07       		.uleb128 0x7
 1733 0ac2 DC020000 		.4byte	.LASF149
 1734 0ac6 20       		.byte	0x20
 1735 0ac7 15       		.byte	0x15
 1736 0ac8 75       		.byte	0x75
 1737 0ac9 08       		.byte	0x8
 1738 0aca 370B0000 		.4byte	0xb37
 1739 0ace 08       		.uleb128 0x8
 1740 0acf CC030000 		.4byte	.LASF150
 1741 0ad3 15       		.byte	0x15
 1742 0ad4 76       		.byte	0x76
 1743 0ad5 03       		.byte	0x3
 1744 0ad6 34060000 		.4byte	0x634
 1745 0ada 00       		.byte	0
 1746 0adb 08       		.uleb128 0x8
 1747 0adc BE050000 		.4byte	.LASF151
 1748 0ae0 15       		.byte	0x15
 1749 0ae1 76       		.byte	0x76
 1750 0ae2 03       		.byte	0x3
 1751 0ae3 53060000 		.4byte	0x653
 1752 0ae7 04       		.byte	0x4
 1753 0ae8 09       		.uleb128 0x9
 1754 0ae9 70757400 		.ascii	"put\000"
 1755 0aed 15       		.byte	0x15
 1756 0aee 76       		.byte	0x76
 1757 0aef 03       		.byte	0x3
 1758 0af0 6D060000 		.4byte	0x66d
 1759 0af4 08       		.byte	0x8
 1760 0af5 09       		.uleb128 0x9
 1761 0af6 67657400 		.ascii	"get\000"
 1762 0afa 15       		.byte	0x15
 1763 0afb 76       		.byte	0x76
 1764 0afc 03       		.byte	0x3
 1765 0afd 3D050000 		.4byte	0x53d
 1766 0b01 0C       		.byte	0xc
 1767 0b02 08       		.uleb128 0x8
ARM GAS  /var/folders/l5/0x54b2c10074c8bt31ycjvl80000gp/T//ccFzyCUA.s 			page 32


 1768 0b03 D8030000 		.4byte	.LASF152
 1769 0b07 15       		.byte	0x15
 1770 0b08 76       		.byte	0x76
 1771 0b09 03       		.byte	0x3
 1772 0b0a 3D070000 		.4byte	0x73d
 1773 0b0e 10       		.byte	0x10
 1774 0b0f 08       		.uleb128 0x8
 1775 0b10 13030000 		.4byte	.LASF153
 1776 0b14 15       		.byte	0x15
 1777 0b15 76       		.byte	0x76
 1778 0b16 03       		.byte	0x3
 1779 0b17 57070000 		.4byte	0x757
 1780 0b1b 14       		.byte	0x14
 1781 0b1c 08       		.uleb128 0x8
 1782 0b1d 6F030000 		.4byte	.LASF154
 1783 0b21 15       		.byte	0x15
 1784 0b22 76       		.byte	0x76
 1785 0b23 03       		.byte	0x3
 1786 0b24 7B070000 		.4byte	0x77b
 1787 0b28 18       		.byte	0x18
 1788 0b29 08       		.uleb128 0x8
 1789 0b2a 8B000000 		.4byte	.LASF155
 1790 0b2e 15       		.byte	0x15
 1791 0b2f 76       		.byte	0x76
 1792 0b30 03       		.byte	0x3
 1793 0b31 9F070000 		.4byte	0x79f
 1794 0b35 1C       		.byte	0x1c
 1795 0b36 00       		.byte	0
 1796 0b37 04       		.uleb128 0x4
 1797 0b38 C10A0000 		.4byte	0xac1
 1798 0b3c 0B       		.uleb128 0xb
 1799 0b3d 04       		.byte	0x4
 1800 0b3e 370B0000 		.4byte	0xb37
 1801 0b42 13       		.uleb128 0x13
 1802 0b43 99000000 		.4byte	0x99
 1803 0b47 520B0000 		.4byte	0xb52
 1804 0b4b 14       		.uleb128 0x14
 1805 0b4c 38000000 		.4byte	0x38
 1806 0b50 0F       		.byte	0xf
 1807 0b51 00       		.byte	0
 1808 0b52 1B       		.uleb128 0x1b
 1809 0b53 14040000 		.4byte	.LASF156
 1810 0b57 01       		.byte	0x1
 1811 0b58 31       		.byte	0x31
 1812 0b59 13       		.byte	0x13
 1813 0b5a 18070000 		.4byte	0x718
 1814 0b5e 05       		.uleb128 0x5
 1815 0b5f 03       		.byte	0x3
 1816 0b60 00000000 		.4byte	measurement_offset
 1817 0b64 1C       		.uleb128 0x1c
 1818 0b65 7E030000 		.4byte	.LASF160
 1819 0b69 01       		.byte	0x1
 1820 0b6a 75       		.byte	0x75
 1821 0b6b 06       		.byte	0x6
 1822 0b6c 01       		.byte	0x1
 1823 0b6d 7E0B0000 		.4byte	0xb7e
 1824 0b71 1D       		.uleb128 0x1d
ARM GAS  /var/folders/l5/0x54b2c10074c8bt31ycjvl80000gp/T//ccFzyCUA.s 			page 33


 1825 0b72 746D7000 		.ascii	"tmp\000"
 1826 0b76 01       		.byte	0x1
 1827 0b77 75       		.byte	0x75
 1828 0b78 24       		.byte	0x24
 1829 0b79 0B080000 		.4byte	0x80b
 1830 0b7d 00       		.byte	0
 1831 0b7e 1E       		.uleb128 0x1e
 1832 0b7f 0C030000 		.4byte	.LASF161
 1833 0b83 01       		.byte	0x1
 1834 0b84 61       		.byte	0x61
 1835 0b85 06       		.byte	0x6
 1836 0b86 00000000 		.4byte	.LFB9
 1837 0b8a 64000000 		.4byte	.LFE9-.LFB9
 1838 0b8e 01       		.uleb128 0x1
 1839 0b8f 9C       		.byte	0x9c
 1840 0b90 F90B0000 		.4byte	0xbf9
 1841 0b94 1F       		.uleb128 0x1f
 1842 0b95 746D00   		.ascii	"tm\000"
 1843 0b98 01       		.byte	0x1
 1844 0b99 62       		.byte	0x62
 1845 0b9a 13       		.byte	0x13
 1846 0b9b A5070000 		.4byte	0x7a5
 1847 0b9f 02       		.uleb128 0x2
 1848 0ba0 91       		.byte	0x91
 1849 0ba1 68       		.sleb128 -24
 1850 0ba2 20       		.uleb128 0x20
 1851 0ba3 640B0000 		.4byte	0xb64
 1852 0ba7 24000000 		.4byte	.LBI8
 1853 0bab 01       		.byte	.LVU38
 1854 0bac 00000000 		.4byte	.Ldebug_ranges0+0
 1855 0bb0 01       		.byte	0x1
 1856 0bb1 68       		.byte	0x68
 1857 0bb2 03       		.byte	0x3
 1858 0bb3 C50B0000 		.4byte	0xbc5
 1859 0bb7 21       		.uleb128 0x21
 1860 0bb8 710B0000 		.4byte	0xb71
 1861 0bbc 02000000 		.4byte	.LLST1
 1862 0bc0 00000000 		.4byte	.LVUS1
 1863 0bc4 00       		.byte	0
 1864 0bc5 20       		.uleb128 0x20
 1865 0bc6 320C0000 		.4byte	0xc32
 1866 0bca 3C000000 		.4byte	.LBI14
 1867 0bce 05       		.byte	.LVU51
 1868 0bcf 30000000 		.4byte	.Ldebug_ranges0+0x30
 1869 0bd3 01       		.byte	0x1
 1870 0bd4 69       		.byte	0x69
 1871 0bd5 03       		.byte	0x3
 1872 0bd6 E80B0000 		.4byte	0xbe8
 1873 0bda 21       		.uleb128 0x21
 1874 0bdb 3F0C0000 		.4byte	0xc3f
 1875 0bdf 17000000 		.4byte	.LLST2
 1876 0be3 15000000 		.4byte	.LVUS2
 1877 0be7 00       		.byte	0
 1878 0be8 22       		.uleb128 0x22
 1879 0be9 44000000 		.4byte	.LVL6
 1880 0bed F90B0000 		.4byte	0xbf9
 1881 0bf1 23       		.uleb128 0x23
ARM GAS  /var/folders/l5/0x54b2c10074c8bt31ycjvl80000gp/T//ccFzyCUA.s 			page 34


 1882 0bf2 01       		.uleb128 0x1
 1883 0bf3 50       		.byte	0x50
 1884 0bf4 02       		.uleb128 0x2
 1885 0bf5 7D       		.byte	0x7d
 1886 0bf6 00       		.sleb128 0
 1887 0bf7 00       		.byte	0
 1888 0bf8 00       		.byte	0
 1889 0bf9 24       		.uleb128 0x24
 1890 0bfa 73000000 		.4byte	.LASF162
 1891 0bfe 01       		.byte	0x1
 1892 0bff 4A       		.byte	0x4a
 1893 0c00 0D       		.byte	0xd
 1894 0c01 00000000 		.4byte	.LFB8
 1895 0c05 4C000000 		.4byte	.LFE8-.LFB8
 1896 0c09 01       		.uleb128 0x1
 1897 0c0a 9C       		.byte	0x9c
 1898 0c0b 320C0000 		.4byte	0xc32
 1899 0c0f 25       		.uleb128 0x25
 1900 0c10 746D7000 		.ascii	"tmp\000"
 1901 0c14 01       		.byte	0x1
 1902 0c15 4A       		.byte	0x4a
 1903 0c16 26       		.byte	0x26
 1904 0c17 0B080000 		.4byte	0x80b
 1905 0c1b 01       		.uleb128 0x1
 1906 0c1c 50       		.byte	0x50
 1907 0c1d 26       		.uleb128 0x26
 1908 0c1e 6E6F7700 		.ascii	"now\000"
 1909 0c22 01       		.byte	0x1
 1910 0c23 4C       		.byte	0x4c
 1911 0c24 0E       		.byte	0xe
 1912 0c25 18070000 		.4byte	0x718
 1913 0c29 2C000000 		.4byte	.LLST0
 1914 0c2d 2A000000 		.4byte	.LVUS0
 1915 0c31 00       		.byte	0
 1916 0c32 27       		.uleb128 0x27
 1917 0c33 D9060000 		.4byte	.LASF163
 1918 0c37 01       		.byte	0x1
 1919 0c38 3E       		.byte	0x3e
 1920 0c39 0D       		.byte	0xd
 1921 0c3a 01       		.byte	0x1
 1922 0c3b 4C0C0000 		.4byte	0xc4c
 1923 0c3f 1D       		.uleb128 0x1d
 1924 0c40 746D7000 		.ascii	"tmp\000"
 1925 0c44 01       		.byte	0x1
 1926 0c45 3E       		.byte	0x3e
 1927 0c46 27       		.byte	0x27
 1928 0c47 0B080000 		.4byte	0x80b
 1929 0c4b 00       		.byte	0
 1930 0c4c 28       		.uleb128 0x28
 1931 0c4d 320C0000 		.4byte	0xc32
 1932 0c51 00000000 		.4byte	.LFB7
 1933 0c55 14000000 		.4byte	.LFE7-.LFB7
 1934 0c59 01       		.uleb128 0x1
 1935 0c5a 9C       		.byte	0x9c
 1936 0c5b 670C0000 		.4byte	0xc67
 1937 0c5f 29       		.uleb128 0x29
 1938 0c60 3F0C0000 		.4byte	0xc3f
ARM GAS  /var/folders/l5/0x54b2c10074c8bt31ycjvl80000gp/T//ccFzyCUA.s 			page 35


 1939 0c64 01       		.uleb128 0x1
 1940 0c65 50       		.byte	0x50
 1941 0c66 00       		.byte	0
 1942 0c67 2A       		.uleb128 0x2a
 1943 0c68 640B0000 		.4byte	0xb64
 1944 0c6c 00000000 		.4byte	.LFB10
 1945 0c70 30000000 		.4byte	.LFE10-.LFB10
 1946 0c74 01       		.uleb128 0x1
 1947 0c75 9C       		.byte	0x9c
 1948 0c76 29       		.uleb128 0x29
 1949 0c77 710B0000 		.4byte	0xb71
 1950 0c7b 01       		.uleb128 0x1
 1951 0c7c 50       		.byte	0x50
 1952 0c7d 00       		.byte	0
 1953 0c7e 00       		.byte	0
 1954              		.section	.debug_abbrev,"",%progbits
 1955              	.Ldebug_abbrev0:
 1956 0000 01       		.uleb128 0x1
 1957 0001 11       		.uleb128 0x11
 1958 0002 01       		.byte	0x1
 1959 0003 25       		.uleb128 0x25
 1960 0004 0E       		.uleb128 0xe
 1961 0005 13       		.uleb128 0x13
 1962 0006 0B       		.uleb128 0xb
 1963 0007 03       		.uleb128 0x3
 1964 0008 0E       		.uleb128 0xe
 1965 0009 1B       		.uleb128 0x1b
 1966 000a 0E       		.uleb128 0xe
 1967 000b 55       		.uleb128 0x55
 1968 000c 17       		.uleb128 0x17
 1969 000d 11       		.uleb128 0x11
 1970 000e 01       		.uleb128 0x1
 1971 000f 10       		.uleb128 0x10
 1972 0010 17       		.uleb128 0x17
 1973 0011 00       		.byte	0
 1974 0012 00       		.byte	0
 1975 0013 02       		.uleb128 0x2
 1976 0014 24       		.uleb128 0x24
 1977 0015 00       		.byte	0
 1978 0016 0B       		.uleb128 0xb
 1979 0017 0B       		.uleb128 0xb
 1980 0018 3E       		.uleb128 0x3e
 1981 0019 0B       		.uleb128 0xb
 1982 001a 03       		.uleb128 0x3
 1983 001b 0E       		.uleb128 0xe
 1984 001c 00       		.byte	0
 1985 001d 00       		.byte	0
 1986 001e 03       		.uleb128 0x3
 1987 001f 16       		.uleb128 0x16
 1988 0020 00       		.byte	0
 1989 0021 03       		.uleb128 0x3
 1990 0022 0E       		.uleb128 0xe
 1991 0023 3A       		.uleb128 0x3a
 1992 0024 0B       		.uleb128 0xb
 1993 0025 3B       		.uleb128 0x3b
 1994 0026 0B       		.uleb128 0xb
 1995 0027 39       		.uleb128 0x39
ARM GAS  /var/folders/l5/0x54b2c10074c8bt31ycjvl80000gp/T//ccFzyCUA.s 			page 36


 1996 0028 0B       		.uleb128 0xb
 1997 0029 49       		.uleb128 0x49
 1998 002a 13       		.uleb128 0x13
 1999 002b 00       		.byte	0
 2000 002c 00       		.byte	0
 2001 002d 04       		.uleb128 0x4
 2002 002e 26       		.uleb128 0x26
 2003 002f 00       		.byte	0
 2004 0030 49       		.uleb128 0x49
 2005 0031 13       		.uleb128 0x13
 2006 0032 00       		.byte	0
 2007 0033 00       		.byte	0
 2008 0034 05       		.uleb128 0x5
 2009 0035 35       		.uleb128 0x35
 2010 0036 00       		.byte	0
 2011 0037 49       		.uleb128 0x49
 2012 0038 13       		.uleb128 0x13
 2013 0039 00       		.byte	0
 2014 003a 00       		.byte	0
 2015 003b 06       		.uleb128 0x6
 2016 003c 24       		.uleb128 0x24
 2017 003d 00       		.byte	0
 2018 003e 0B       		.uleb128 0xb
 2019 003f 0B       		.uleb128 0xb
 2020 0040 3E       		.uleb128 0x3e
 2021 0041 0B       		.uleb128 0xb
 2022 0042 03       		.uleb128 0x3
 2023 0043 08       		.uleb128 0x8
 2024 0044 00       		.byte	0
 2025 0045 00       		.byte	0
 2026 0046 07       		.uleb128 0x7
 2027 0047 13       		.uleb128 0x13
 2028 0048 01       		.byte	0x1
 2029 0049 03       		.uleb128 0x3
 2030 004a 0E       		.uleb128 0xe
 2031 004b 0B       		.uleb128 0xb
 2032 004c 0B       		.uleb128 0xb
 2033 004d 3A       		.uleb128 0x3a
 2034 004e 0B       		.uleb128 0xb
 2035 004f 3B       		.uleb128 0x3b
 2036 0050 0B       		.uleb128 0xb
 2037 0051 39       		.uleb128 0x39
 2038 0052 0B       		.uleb128 0xb
 2039 0053 01       		.uleb128 0x1
 2040 0054 13       		.uleb128 0x13
 2041 0055 00       		.byte	0
 2042 0056 00       		.byte	0
 2043 0057 08       		.uleb128 0x8
 2044 0058 0D       		.uleb128 0xd
 2045 0059 00       		.byte	0
 2046 005a 03       		.uleb128 0x3
 2047 005b 0E       		.uleb128 0xe
 2048 005c 3A       		.uleb128 0x3a
 2049 005d 0B       		.uleb128 0xb
 2050 005e 3B       		.uleb128 0x3b
 2051 005f 0B       		.uleb128 0xb
 2052 0060 39       		.uleb128 0x39
ARM GAS  /var/folders/l5/0x54b2c10074c8bt31ycjvl80000gp/T//ccFzyCUA.s 			page 37


 2053 0061 0B       		.uleb128 0xb
 2054 0062 49       		.uleb128 0x49
 2055 0063 13       		.uleb128 0x13
 2056 0064 38       		.uleb128 0x38
 2057 0065 0B       		.uleb128 0xb
 2058 0066 00       		.byte	0
 2059 0067 00       		.byte	0
 2060 0068 09       		.uleb128 0x9
 2061 0069 0D       		.uleb128 0xd
 2062 006a 00       		.byte	0
 2063 006b 03       		.uleb128 0x3
 2064 006c 08       		.uleb128 0x8
 2065 006d 3A       		.uleb128 0x3a
 2066 006e 0B       		.uleb128 0xb
 2067 006f 3B       		.uleb128 0x3b
 2068 0070 0B       		.uleb128 0xb
 2069 0071 39       		.uleb128 0x39
 2070 0072 0B       		.uleb128 0xb
 2071 0073 49       		.uleb128 0x49
 2072 0074 13       		.uleb128 0x13
 2073 0075 38       		.uleb128 0x38
 2074 0076 0B       		.uleb128 0xb
 2075 0077 00       		.byte	0
 2076 0078 00       		.byte	0
 2077 0079 0A       		.uleb128 0xa
 2078 007a 13       		.uleb128 0x13
 2079 007b 01       		.byte	0x1
 2080 007c 0B       		.uleb128 0xb
 2081 007d 0B       		.uleb128 0xb
 2082 007e 3A       		.uleb128 0x3a
 2083 007f 0B       		.uleb128 0xb
 2084 0080 3B       		.uleb128 0x3b
 2085 0081 0B       		.uleb128 0xb
 2086 0082 39       		.uleb128 0x39
 2087 0083 0B       		.uleb128 0xb
 2088 0084 01       		.uleb128 0x1
 2089 0085 13       		.uleb128 0x13
 2090 0086 00       		.byte	0
 2091 0087 00       		.byte	0
 2092 0088 0B       		.uleb128 0xb
 2093 0089 0F       		.uleb128 0xf
 2094 008a 00       		.byte	0
 2095 008b 0B       		.uleb128 0xb
 2096 008c 0B       		.uleb128 0xb
 2097 008d 49       		.uleb128 0x49
 2098 008e 13       		.uleb128 0x13
 2099 008f 00       		.byte	0
 2100 0090 00       		.byte	0
 2101 0091 0C       		.uleb128 0xc
 2102 0092 0F       		.uleb128 0xf
 2103 0093 00       		.byte	0
 2104 0094 0B       		.uleb128 0xb
 2105 0095 0B       		.uleb128 0xb
 2106 0096 00       		.byte	0
 2107 0097 00       		.byte	0
 2108 0098 0D       		.uleb128 0xd
 2109 0099 15       		.uleb128 0x15
ARM GAS  /var/folders/l5/0x54b2c10074c8bt31ycjvl80000gp/T//ccFzyCUA.s 			page 38


 2110 009a 01       		.byte	0x1
 2111 009b 27       		.uleb128 0x27
 2112 009c 19       		.uleb128 0x19
 2113 009d 01       		.uleb128 0x1
 2114 009e 13       		.uleb128 0x13
 2115 009f 00       		.byte	0
 2116 00a0 00       		.byte	0
 2117 00a1 0E       		.uleb128 0xe
 2118 00a2 05       		.uleb128 0x5
 2119 00a3 00       		.byte	0
 2120 00a4 49       		.uleb128 0x49
 2121 00a5 13       		.uleb128 0x13
 2122 00a6 00       		.byte	0
 2123 00a7 00       		.byte	0
 2124 00a8 0F       		.uleb128 0xf
 2125 00a9 34       		.uleb128 0x34
 2126 00aa 00       		.byte	0
 2127 00ab 03       		.uleb128 0x3
 2128 00ac 0E       		.uleb128 0xe
 2129 00ad 3A       		.uleb128 0x3a
 2130 00ae 0B       		.uleb128 0xb
 2131 00af 3B       		.uleb128 0x3b
 2132 00b0 0B       		.uleb128 0xb
 2133 00b1 39       		.uleb128 0x39
 2134 00b2 0B       		.uleb128 0xb
 2135 00b3 49       		.uleb128 0x49
 2136 00b4 13       		.uleb128 0x13
 2137 00b5 3F       		.uleb128 0x3f
 2138 00b6 19       		.uleb128 0x19
 2139 00b7 3C       		.uleb128 0x3c
 2140 00b8 19       		.uleb128 0x19
 2141 00b9 00       		.byte	0
 2142 00ba 00       		.byte	0
 2143 00bb 10       		.uleb128 0x10
 2144 00bc 17       		.uleb128 0x17
 2145 00bd 01       		.byte	0x1
 2146 00be 0B       		.uleb128 0xb
 2147 00bf 0B       		.uleb128 0xb
 2148 00c0 3A       		.uleb128 0x3a
 2149 00c1 0B       		.uleb128 0xb
 2150 00c2 3B       		.uleb128 0x3b
 2151 00c3 0B       		.uleb128 0xb
 2152 00c4 39       		.uleb128 0x39
 2153 00c5 0B       		.uleb128 0xb
 2154 00c6 01       		.uleb128 0x1
 2155 00c7 13       		.uleb128 0x13
 2156 00c8 00       		.byte	0
 2157 00c9 00       		.byte	0
 2158 00ca 11       		.uleb128 0x11
 2159 00cb 0D       		.uleb128 0xd
 2160 00cc 00       		.byte	0
 2161 00cd 03       		.uleb128 0x3
 2162 00ce 0E       		.uleb128 0xe
 2163 00cf 3A       		.uleb128 0x3a
 2164 00d0 0B       		.uleb128 0xb
 2165 00d1 3B       		.uleb128 0x3b
 2166 00d2 0B       		.uleb128 0xb
ARM GAS  /var/folders/l5/0x54b2c10074c8bt31ycjvl80000gp/T//ccFzyCUA.s 			page 39


 2167 00d3 39       		.uleb128 0x39
 2168 00d4 0B       		.uleb128 0xb
 2169 00d5 49       		.uleb128 0x49
 2170 00d6 13       		.uleb128 0x13
 2171 00d7 00       		.byte	0
 2172 00d8 00       		.byte	0
 2173 00d9 12       		.uleb128 0x12
 2174 00da 15       		.uleb128 0x15
 2175 00db 01       		.byte	0x1
 2176 00dc 27       		.uleb128 0x27
 2177 00dd 19       		.uleb128 0x19
 2178 00de 49       		.uleb128 0x49
 2179 00df 13       		.uleb128 0x13
 2180 00e0 01       		.uleb128 0x1
 2181 00e1 13       		.uleb128 0x13
 2182 00e2 00       		.byte	0
 2183 00e3 00       		.byte	0
 2184 00e4 13       		.uleb128 0x13
 2185 00e5 01       		.uleb128 0x1
 2186 00e6 01       		.byte	0x1
 2187 00e7 49       		.uleb128 0x49
 2188 00e8 13       		.uleb128 0x13
 2189 00e9 01       		.uleb128 0x1
 2190 00ea 13       		.uleb128 0x13
 2191 00eb 00       		.byte	0
 2192 00ec 00       		.byte	0
 2193 00ed 14       		.uleb128 0x14
 2194 00ee 21       		.uleb128 0x21
 2195 00ef 00       		.byte	0
 2196 00f0 49       		.uleb128 0x49
 2197 00f1 13       		.uleb128 0x13
 2198 00f2 2F       		.uleb128 0x2f
 2199 00f3 0B       		.uleb128 0xb
 2200 00f4 00       		.byte	0
 2201 00f5 00       		.byte	0
 2202 00f6 15       		.uleb128 0x15
 2203 00f7 0D       		.uleb128 0xd
 2204 00f8 00       		.byte	0
 2205 00f9 03       		.uleb128 0x3
 2206 00fa 0E       		.uleb128 0xe
 2207 00fb 3A       		.uleb128 0x3a
 2208 00fc 0B       		.uleb128 0xb
 2209 00fd 3B       		.uleb128 0x3b
 2210 00fe 05       		.uleb128 0x5
 2211 00ff 39       		.uleb128 0x39
 2212 0100 0B       		.uleb128 0xb
 2213 0101 49       		.uleb128 0x49
 2214 0102 13       		.uleb128 0x13
 2215 0103 38       		.uleb128 0x38
 2216 0104 0B       		.uleb128 0xb
 2217 0105 00       		.byte	0
 2218 0106 00       		.byte	0
 2219 0107 16       		.uleb128 0x16
 2220 0108 16       		.uleb128 0x16
 2221 0109 00       		.byte	0
 2222 010a 03       		.uleb128 0x3
 2223 010b 0E       		.uleb128 0xe
ARM GAS  /var/folders/l5/0x54b2c10074c8bt31ycjvl80000gp/T//ccFzyCUA.s 			page 40


 2224 010c 3A       		.uleb128 0x3a
 2225 010d 0B       		.uleb128 0xb
 2226 010e 3B       		.uleb128 0x3b
 2227 010f 05       		.uleb128 0x5
 2228 0110 39       		.uleb128 0x39
 2229 0111 0B       		.uleb128 0xb
 2230 0112 49       		.uleb128 0x49
 2231 0113 13       		.uleb128 0x13
 2232 0114 00       		.byte	0
 2233 0115 00       		.byte	0
 2234 0116 17       		.uleb128 0x17
 2235 0117 13       		.uleb128 0x13
 2236 0118 00       		.byte	0
 2237 0119 0B       		.uleb128 0xb
 2238 011a 0B       		.uleb128 0xb
 2239 011b 3A       		.uleb128 0x3a
 2240 011c 0B       		.uleb128 0xb
 2241 011d 3B       		.uleb128 0x3b
 2242 011e 0B       		.uleb128 0xb
 2243 011f 39       		.uleb128 0x39
 2244 0120 0B       		.uleb128 0xb
 2245 0121 00       		.byte	0
 2246 0122 00       		.byte	0
 2247 0123 18       		.uleb128 0x18
 2248 0124 04       		.uleb128 0x4
 2249 0125 01       		.byte	0x1
 2250 0126 3E       		.uleb128 0x3e
 2251 0127 0B       		.uleb128 0xb
 2252 0128 0B       		.uleb128 0xb
 2253 0129 0B       		.uleb128 0xb
 2254 012a 49       		.uleb128 0x49
 2255 012b 13       		.uleb128 0x13
 2256 012c 3A       		.uleb128 0x3a
 2257 012d 0B       		.uleb128 0xb
 2258 012e 3B       		.uleb128 0x3b
 2259 012f 0B       		.uleb128 0xb
 2260 0130 39       		.uleb128 0x39
 2261 0131 0B       		.uleb128 0xb
 2262 0132 01       		.uleb128 0x1
 2263 0133 13       		.uleb128 0x13
 2264 0134 00       		.byte	0
 2265 0135 00       		.byte	0
 2266 0136 19       		.uleb128 0x19
 2267 0137 28       		.uleb128 0x28
 2268 0138 00       		.byte	0
 2269 0139 03       		.uleb128 0x3
 2270 013a 0E       		.uleb128 0xe
 2271 013b 1C       		.uleb128 0x1c
 2272 013c 0B       		.uleb128 0xb
 2273 013d 00       		.byte	0
 2274 013e 00       		.byte	0
 2275 013f 1A       		.uleb128 0x1a
 2276 0140 34       		.uleb128 0x34
 2277 0141 00       		.byte	0
 2278 0142 03       		.uleb128 0x3
 2279 0143 08       		.uleb128 0x8
 2280 0144 3A       		.uleb128 0x3a
ARM GAS  /var/folders/l5/0x54b2c10074c8bt31ycjvl80000gp/T//ccFzyCUA.s 			page 41


 2281 0145 0B       		.uleb128 0xb
 2282 0146 3B       		.uleb128 0x3b
 2283 0147 0B       		.uleb128 0xb
 2284 0148 39       		.uleb128 0x39
 2285 0149 0B       		.uleb128 0xb
 2286 014a 49       		.uleb128 0x49
 2287 014b 13       		.uleb128 0x13
 2288 014c 3F       		.uleb128 0x3f
 2289 014d 19       		.uleb128 0x19
 2290 014e 3C       		.uleb128 0x3c
 2291 014f 19       		.uleb128 0x19
 2292 0150 00       		.byte	0
 2293 0151 00       		.byte	0
 2294 0152 1B       		.uleb128 0x1b
 2295 0153 34       		.uleb128 0x34
 2296 0154 00       		.byte	0
 2297 0155 03       		.uleb128 0x3
 2298 0156 0E       		.uleb128 0xe
 2299 0157 3A       		.uleb128 0x3a
 2300 0158 0B       		.uleb128 0xb
 2301 0159 3B       		.uleb128 0x3b
 2302 015a 0B       		.uleb128 0xb
 2303 015b 39       		.uleb128 0x39
 2304 015c 0B       		.uleb128 0xb
 2305 015d 49       		.uleb128 0x49
 2306 015e 13       		.uleb128 0x13
 2307 015f 02       		.uleb128 0x2
 2308 0160 18       		.uleb128 0x18
 2309 0161 00       		.byte	0
 2310 0162 00       		.byte	0
 2311 0163 1C       		.uleb128 0x1c
 2312 0164 2E       		.uleb128 0x2e
 2313 0165 01       		.byte	0x1
 2314 0166 3F       		.uleb128 0x3f
 2315 0167 19       		.uleb128 0x19
 2316 0168 03       		.uleb128 0x3
 2317 0169 0E       		.uleb128 0xe
 2318 016a 3A       		.uleb128 0x3a
 2319 016b 0B       		.uleb128 0xb
 2320 016c 3B       		.uleb128 0x3b
 2321 016d 0B       		.uleb128 0xb
 2322 016e 39       		.uleb128 0x39
 2323 016f 0B       		.uleb128 0xb
 2324 0170 27       		.uleb128 0x27
 2325 0171 19       		.uleb128 0x19
 2326 0172 20       		.uleb128 0x20
 2327 0173 0B       		.uleb128 0xb
 2328 0174 01       		.uleb128 0x1
 2329 0175 13       		.uleb128 0x13
 2330 0176 00       		.byte	0
 2331 0177 00       		.byte	0
 2332 0178 1D       		.uleb128 0x1d
 2333 0179 05       		.uleb128 0x5
 2334 017a 00       		.byte	0
 2335 017b 03       		.uleb128 0x3
 2336 017c 08       		.uleb128 0x8
 2337 017d 3A       		.uleb128 0x3a
ARM GAS  /var/folders/l5/0x54b2c10074c8bt31ycjvl80000gp/T//ccFzyCUA.s 			page 42


 2338 017e 0B       		.uleb128 0xb
 2339 017f 3B       		.uleb128 0x3b
 2340 0180 0B       		.uleb128 0xb
 2341 0181 39       		.uleb128 0x39
 2342 0182 0B       		.uleb128 0xb
 2343 0183 49       		.uleb128 0x49
 2344 0184 13       		.uleb128 0x13
 2345 0185 00       		.byte	0
 2346 0186 00       		.byte	0
 2347 0187 1E       		.uleb128 0x1e
 2348 0188 2E       		.uleb128 0x2e
 2349 0189 01       		.byte	0x1
 2350 018a 3F       		.uleb128 0x3f
 2351 018b 19       		.uleb128 0x19
 2352 018c 03       		.uleb128 0x3
 2353 018d 0E       		.uleb128 0xe
 2354 018e 3A       		.uleb128 0x3a
 2355 018f 0B       		.uleb128 0xb
 2356 0190 3B       		.uleb128 0x3b
 2357 0191 0B       		.uleb128 0xb
 2358 0192 39       		.uleb128 0x39
 2359 0193 0B       		.uleb128 0xb
 2360 0194 27       		.uleb128 0x27
 2361 0195 19       		.uleb128 0x19
 2362 0196 11       		.uleb128 0x11
 2363 0197 01       		.uleb128 0x1
 2364 0198 12       		.uleb128 0x12
 2365 0199 06       		.uleb128 0x6
 2366 019a 40       		.uleb128 0x40
 2367 019b 18       		.uleb128 0x18
 2368 019c 9742     		.uleb128 0x2117
 2369 019e 19       		.uleb128 0x19
 2370 019f 01       		.uleb128 0x1
 2371 01a0 13       		.uleb128 0x13
 2372 01a1 00       		.byte	0
 2373 01a2 00       		.byte	0
 2374 01a3 1F       		.uleb128 0x1f
 2375 01a4 34       		.uleb128 0x34
 2376 01a5 00       		.byte	0
 2377 01a6 03       		.uleb128 0x3
 2378 01a7 08       		.uleb128 0x8
 2379 01a8 3A       		.uleb128 0x3a
 2380 01a9 0B       		.uleb128 0xb
 2381 01aa 3B       		.uleb128 0x3b
 2382 01ab 0B       		.uleb128 0xb
 2383 01ac 39       		.uleb128 0x39
 2384 01ad 0B       		.uleb128 0xb
 2385 01ae 49       		.uleb128 0x49
 2386 01af 13       		.uleb128 0x13
 2387 01b0 02       		.uleb128 0x2
 2388 01b1 18       		.uleb128 0x18
 2389 01b2 00       		.byte	0
 2390 01b3 00       		.byte	0
 2391 01b4 20       		.uleb128 0x20
 2392 01b5 1D       		.uleb128 0x1d
 2393 01b6 01       		.byte	0x1
 2394 01b7 31       		.uleb128 0x31
ARM GAS  /var/folders/l5/0x54b2c10074c8bt31ycjvl80000gp/T//ccFzyCUA.s 			page 43


 2395 01b8 13       		.uleb128 0x13
 2396 01b9 52       		.uleb128 0x52
 2397 01ba 01       		.uleb128 0x1
 2398 01bb B842     		.uleb128 0x2138
 2399 01bd 0B       		.uleb128 0xb
 2400 01be 55       		.uleb128 0x55
 2401 01bf 17       		.uleb128 0x17
 2402 01c0 58       		.uleb128 0x58
 2403 01c1 0B       		.uleb128 0xb
 2404 01c2 59       		.uleb128 0x59
 2405 01c3 0B       		.uleb128 0xb
 2406 01c4 57       		.uleb128 0x57
 2407 01c5 0B       		.uleb128 0xb
 2408 01c6 01       		.uleb128 0x1
 2409 01c7 13       		.uleb128 0x13
 2410 01c8 00       		.byte	0
 2411 01c9 00       		.byte	0
 2412 01ca 21       		.uleb128 0x21
 2413 01cb 05       		.uleb128 0x5
 2414 01cc 00       		.byte	0
 2415 01cd 31       		.uleb128 0x31
 2416 01ce 13       		.uleb128 0x13
 2417 01cf 02       		.uleb128 0x2
 2418 01d0 17       		.uleb128 0x17
 2419 01d1 B742     		.uleb128 0x2137
 2420 01d3 17       		.uleb128 0x17
 2421 01d4 00       		.byte	0
 2422 01d5 00       		.byte	0
 2423 01d6 22       		.uleb128 0x22
 2424 01d7 898201   		.uleb128 0x4109
 2425 01da 01       		.byte	0x1
 2426 01db 11       		.uleb128 0x11
 2427 01dc 01       		.uleb128 0x1
 2428 01dd 31       		.uleb128 0x31
 2429 01de 13       		.uleb128 0x13
 2430 01df 00       		.byte	0
 2431 01e0 00       		.byte	0
 2432 01e1 23       		.uleb128 0x23
 2433 01e2 8A8201   		.uleb128 0x410a
 2434 01e5 00       		.byte	0
 2435 01e6 02       		.uleb128 0x2
 2436 01e7 18       		.uleb128 0x18
 2437 01e8 9142     		.uleb128 0x2111
 2438 01ea 18       		.uleb128 0x18
 2439 01eb 00       		.byte	0
 2440 01ec 00       		.byte	0
 2441 01ed 24       		.uleb128 0x24
 2442 01ee 2E       		.uleb128 0x2e
 2443 01ef 01       		.byte	0x1
 2444 01f0 03       		.uleb128 0x3
 2445 01f1 0E       		.uleb128 0xe
 2446 01f2 3A       		.uleb128 0x3a
 2447 01f3 0B       		.uleb128 0xb
 2448 01f4 3B       		.uleb128 0x3b
 2449 01f5 0B       		.uleb128 0xb
 2450 01f6 39       		.uleb128 0x39
 2451 01f7 0B       		.uleb128 0xb
ARM GAS  /var/folders/l5/0x54b2c10074c8bt31ycjvl80000gp/T//ccFzyCUA.s 			page 44


 2452 01f8 27       		.uleb128 0x27
 2453 01f9 19       		.uleb128 0x19
 2454 01fa 11       		.uleb128 0x11
 2455 01fb 01       		.uleb128 0x1
 2456 01fc 12       		.uleb128 0x12
 2457 01fd 06       		.uleb128 0x6
 2458 01fe 40       		.uleb128 0x40
 2459 01ff 18       		.uleb128 0x18
 2460 0200 9742     		.uleb128 0x2117
 2461 0202 19       		.uleb128 0x19
 2462 0203 01       		.uleb128 0x1
 2463 0204 13       		.uleb128 0x13
 2464 0205 00       		.byte	0
 2465 0206 00       		.byte	0
 2466 0207 25       		.uleb128 0x25
 2467 0208 05       		.uleb128 0x5
 2468 0209 00       		.byte	0
 2469 020a 03       		.uleb128 0x3
 2470 020b 08       		.uleb128 0x8
 2471 020c 3A       		.uleb128 0x3a
 2472 020d 0B       		.uleb128 0xb
 2473 020e 3B       		.uleb128 0x3b
 2474 020f 0B       		.uleb128 0xb
 2475 0210 39       		.uleb128 0x39
 2476 0211 0B       		.uleb128 0xb
 2477 0212 49       		.uleb128 0x49
 2478 0213 13       		.uleb128 0x13
 2479 0214 02       		.uleb128 0x2
 2480 0215 18       		.uleb128 0x18
 2481 0216 00       		.byte	0
 2482 0217 00       		.byte	0
 2483 0218 26       		.uleb128 0x26
 2484 0219 34       		.uleb128 0x34
 2485 021a 00       		.byte	0
 2486 021b 03       		.uleb128 0x3
 2487 021c 08       		.uleb128 0x8
 2488 021d 3A       		.uleb128 0x3a
 2489 021e 0B       		.uleb128 0xb
 2490 021f 3B       		.uleb128 0x3b
 2491 0220 0B       		.uleb128 0xb
 2492 0221 39       		.uleb128 0x39
 2493 0222 0B       		.uleb128 0xb
 2494 0223 49       		.uleb128 0x49
 2495 0224 13       		.uleb128 0x13
 2496 0225 02       		.uleb128 0x2
 2497 0226 17       		.uleb128 0x17
 2498 0227 B742     		.uleb128 0x2137
 2499 0229 17       		.uleb128 0x17
 2500 022a 00       		.byte	0
 2501 022b 00       		.byte	0
 2502 022c 27       		.uleb128 0x27
 2503 022d 2E       		.uleb128 0x2e
 2504 022e 01       		.byte	0x1
 2505 022f 03       		.uleb128 0x3
 2506 0230 0E       		.uleb128 0xe
 2507 0231 3A       		.uleb128 0x3a
 2508 0232 0B       		.uleb128 0xb
ARM GAS  /var/folders/l5/0x54b2c10074c8bt31ycjvl80000gp/T//ccFzyCUA.s 			page 45


 2509 0233 3B       		.uleb128 0x3b
 2510 0234 0B       		.uleb128 0xb
 2511 0235 39       		.uleb128 0x39
 2512 0236 0B       		.uleb128 0xb
 2513 0237 27       		.uleb128 0x27
 2514 0238 19       		.uleb128 0x19
 2515 0239 20       		.uleb128 0x20
 2516 023a 0B       		.uleb128 0xb
 2517 023b 01       		.uleb128 0x1
 2518 023c 13       		.uleb128 0x13
 2519 023d 00       		.byte	0
 2520 023e 00       		.byte	0
 2521 023f 28       		.uleb128 0x28
 2522 0240 2E       		.uleb128 0x2e
 2523 0241 01       		.byte	0x1
 2524 0242 31       		.uleb128 0x31
 2525 0243 13       		.uleb128 0x13
 2526 0244 11       		.uleb128 0x11
 2527 0245 01       		.uleb128 0x1
 2528 0246 12       		.uleb128 0x12
 2529 0247 06       		.uleb128 0x6
 2530 0248 40       		.uleb128 0x40
 2531 0249 18       		.uleb128 0x18
 2532 024a 9742     		.uleb128 0x2117
 2533 024c 19       		.uleb128 0x19
 2534 024d 01       		.uleb128 0x1
 2535 024e 13       		.uleb128 0x13
 2536 024f 00       		.byte	0
 2537 0250 00       		.byte	0
 2538 0251 29       		.uleb128 0x29
 2539 0252 05       		.uleb128 0x5
 2540 0253 00       		.byte	0
 2541 0254 31       		.uleb128 0x31
 2542 0255 13       		.uleb128 0x13
 2543 0256 02       		.uleb128 0x2
 2544 0257 18       		.uleb128 0x18
 2545 0258 00       		.byte	0
 2546 0259 00       		.byte	0
 2547 025a 2A       		.uleb128 0x2a
 2548 025b 2E       		.uleb128 0x2e
 2549 025c 01       		.byte	0x1
 2550 025d 31       		.uleb128 0x31
 2551 025e 13       		.uleb128 0x13
 2552 025f 11       		.uleb128 0x11
 2553 0260 01       		.uleb128 0x1
 2554 0261 12       		.uleb128 0x12
 2555 0262 06       		.uleb128 0x6
 2556 0263 40       		.uleb128 0x40
 2557 0264 18       		.uleb128 0x18
 2558 0265 9742     		.uleb128 0x2117
 2559 0267 19       		.uleb128 0x19
 2560 0268 00       		.byte	0
 2561 0269 00       		.byte	0
 2562 026a 00       		.byte	0
 2563              		.section	.debug_loc,"",%progbits
 2564              	.Ldebug_loc0:
 2565              	.LVUS1:
ARM GAS  /var/folders/l5/0x54b2c10074c8bt31ycjvl80000gp/T//ccFzyCUA.s 			page 46


 2566 0000 01       		.uleb128 .LVU38
 2567 0001 03       		.uleb128 .LVU49
 2568              	.LLST1:
 2569 0002 24000000 		.4byte	.LVL4
 2570 0006 3C000000 		.4byte	.LVL5
 2571 000a 0100     		.2byte	0x1
 2572 000c 5D       		.byte	0x5d
 2573 000d 00000000 		.4byte	0
 2574 0011 00000000 		.4byte	0
 2575              	.LVUS2:
 2576 0015 05       		.uleb128 .LVU51
 2577 0016 07       		.uleb128 .LVU53
 2578              	.LLST2:
 2579 0017 3C000000 		.4byte	.LVL5
 2580 001b 3C000000 		.4byte	.LVL5
 2581 001f 0100     		.2byte	0x1
 2582 0021 5D       		.byte	0x5d
 2583 0022 00000000 		.4byte	0
 2584 0026 00000000 		.4byte	0
 2585              	.LVUS0:
 2586 002a 00       		.uleb128 .LVU10
 2587 002b 00       		.uleb128 .LVU12
 2588              	.LLST0:
 2589 002c 0C000000 		.4byte	.LVL2
 2590 0030 18000000 		.4byte	.LVL3
 2591 0034 0100     		.2byte	0x1
 2592 0036 53       		.byte	0x53
 2593 0037 00000000 		.4byte	0
 2594 003b 00000000 		.4byte	0
 2595              		.section	.debug_aranges,"",%progbits
 2596 0000 34000000 		.4byte	0x34
 2597 0004 0200     		.2byte	0x2
 2598 0006 00000000 		.4byte	.Ldebug_info0
 2599 000a 04       		.byte	0x4
 2600 000b 00       		.byte	0
 2601 000c 0000     		.2byte	0
 2602 000e 0000     		.2byte	0
 2603 0010 00000000 		.4byte	.LFB7
 2604 0014 14000000 		.4byte	.LFE7-.LFB7
 2605 0018 00000000 		.4byte	.LFB8
 2606 001c 4C000000 		.4byte	.LFE8-.LFB8
 2607 0020 00000000 		.4byte	.LFB9
 2608 0024 64000000 		.4byte	.LFE9-.LFB9
 2609 0028 00000000 		.4byte	.LFB10
 2610 002c 30000000 		.4byte	.LFE10-.LFB10
 2611 0030 00000000 		.4byte	0
 2612 0034 00000000 		.4byte	0
 2613              		.section	.debug_ranges,"",%progbits
 2614              	.Ldebug_ranges0:
 2615 0000 04000000 		.4byte	.LBB8
 2616 0004 08000000 		.4byte	.LBE8
 2617 0008 18000000 		.4byte	.LBB19
 2618 000c 20000000 		.4byte	.LBE19
 2619 0010 24000000 		.4byte	.LBB20
 2620 0014 28000000 		.4byte	.LBE20
 2621 0018 2C000000 		.4byte	.LBB22
 2622 001c 34000000 		.4byte	.LBE22
ARM GAS  /var/folders/l5/0x54b2c10074c8bt31ycjvl80000gp/T//ccFzyCUA.s 			page 47


 2623 0020 38000000 		.4byte	.LBB23
 2624 0024 3C000000 		.4byte	.LBE23
 2625 0028 00000000 		.4byte	0
 2626 002c 00000000 		.4byte	0
 2627 0030 14000000 		.4byte	.LBB14
 2628 0034 18000000 		.4byte	.LBE14
 2629 0038 28000000 		.4byte	.LBB21
 2630 003c 2C000000 		.4byte	.LBE21
 2631 0040 3C000000 		.4byte	.LBB24
 2632 0044 3C000000 		.4byte	.LBE24
 2633 0048 3C000000 		.4byte	.LBB25
 2634 004c 40000000 		.4byte	.LBE25
 2635 0050 00000000 		.4byte	0
 2636 0054 00000000 		.4byte	0
 2637 0058 00000000 		.4byte	.LFB7
 2638 005c 14000000 		.4byte	.LFE7
 2639 0060 00000000 		.4byte	.LFB8
 2640 0064 4C000000 		.4byte	.LFE8
 2641 0068 00000000 		.4byte	.LFB9
 2642 006c 64000000 		.4byte	.LFE9
 2643 0070 00000000 		.4byte	.LFB10
 2644 0074 30000000 		.4byte	.LFE10
 2645 0078 00000000 		.4byte	0
 2646 007c 00000000 		.4byte	0
 2647              		.section	.debug_line,"",%progbits
 2648              	.Ldebug_line0:
 2649 0000 D6030000 		.section	.debug_str,"MS",%progbits,1
 2649      03008F02 
 2649      00000201 
 2649      FB0E0D00 
 2649      01010101 
 2650              	.LASF3:
 2651 0000 73697A65 		.ascii	"size_t\000"
 2651      5F7400
 2652              	.LASF71:
 2653 0007 7264796D 		.ascii	"rdymsg\000"
 2653      736700
 2654              	.LASF86:
 2655 000e 4F757470 		.ascii	"OutputQueue\000"
 2655      75745175 
 2655      65756500 
 2656              	.LASF4:
 2657 001a 5F5F7569 		.ascii	"__uint8_t\000"
 2657      6E74385F 
 2657      7400
 2658              	.LASF58:
 2659 0024 76746C69 		.ascii	"vtlist\000"
 2659      737400
 2660              	.LASF88:
 2661 002b 62736364 		.ascii	"bscdevice_t\000"
 2661      65766963 
 2661      655F7400 
 2662              	.LASF97:
 2663 0037 68616C72 		.ascii	"halrtcnt_t\000"
 2663      74636E74 
 2663      5F7400
 2664              	.LASF133:
ARM GAS  /var/folders/l5/0x54b2c10074c8bt31ycjvl80000gp/T//ccFzyCUA.s 			page 48


 2665 0042 72786275 		.ascii	"rxbuf\000"
 2665      6600
 2666              	.LASF102:
 2667 0048 776F7273 		.ascii	"worst\000"
 2667      7400
 2668              	.LASF12:
 2669 004e 6C6F6E67 		.ascii	"long long unsigned int\000"
 2669      206C6F6E 
 2669      6720756E 
 2669      7369676E 
 2669      65642069 
 2670              	.LASF129:
 2671 0065 61646472 		.ascii	"addr\000"
 2671      00
 2672              	.LASF72:
 2673 006a 65786974 		.ascii	"exitcode\000"
 2673      636F6465 
 2673      00
 2674              	.LASF162:
 2675 0073 746D5F73 		.ascii	"tm_stop\000"
 2675      746F7000 
 2676              	.LASF93:
 2677 007b 64617461 		.ascii	"dataFifo\000"
 2677      4669666F 
 2677      00
 2678              	.LASF29:
 2679 0084 705F7072 		.ascii	"p_prio\000"
 2679      696F00
 2680              	.LASF155:
 2681 008b 72656164 		.ascii	"readt\000"
 2681      7400
 2682              	.LASF126:
 2683 0091 64657669 		.ascii	"device\000"
 2683      636500
 2684              	.LASF76:
 2685 0098 715F7761 		.ascii	"q_waiting\000"
 2685      6974696E 
 2685      6700
 2686              	.LASF11:
 2687 00a2 6C6F6E67 		.ascii	"long long int\000"
 2687      206C6F6E 
 2687      6720696E 
 2687      7400
 2688              	.LASF2:
 2689 00b0 7369676E 		.ascii	"signed char\000"
 2689      65642063 
 2689      68617200 
 2690              	.LASF142:
 2691 00bc 53445F53 		.ascii	"SD_STOP\000"
 2691      544F5000 
 2692              	.LASF61:
 2693 00c4 6D5F7175 		.ascii	"m_queue\000"
 2693      65756500 
 2694              	.LASF20:
 2695 00cc 74736C69 		.ascii	"tslices_t\000"
 2695      6365735F 
 2695      7400
ARM GAS  /var/folders/l5/0x54b2c10074c8bt31ycjvl80000gp/T//ccFzyCUA.s 			page 49


 2696              	.LASF115:
 2697 00d6 4932435F 		.ascii	"I2C_UNINIT\000"
 2697      554E494E 
 2697      495400
 2698              	.LASF137:
 2699 00e1 69326361 		.ascii	"i2caddr_t\000"
 2699      6464725F 
 2699      7400
 2700              	.LASF123:
 2701 00eb 73746174 		.ascii	"state\000"
 2701      6500
 2702              	.LASF0:
 2703 00f1 6C6F6E67 		.ascii	"long int\000"
 2703      20696E74 
 2703      00
 2704              	.LASF19:
 2705 00fa 74737461 		.ascii	"tstate_t\000"
 2705      74655F74 
 2705      00
 2706              	.LASF159:
 2707 0103 2F557365 		.ascii	"/Users/fernandoguirado/eclipse-workspace/ChibiOS-RP"
 2707      72732F66 
 2707      65726E61 
 2707      6E646F67 
 2707      75697261 
 2708 0136 692D6D61 		.ascii	"i-master/testhal/BCM2835/GPIO\000"
 2708      73746572 
 2708      2F746573 
 2708      7468616C 
 2708      2F42434D 
 2709              	.LASF128:
 2710 0154 74687265 		.ascii	"thread\000"
 2710      616400
 2711              	.LASF95:
 2712 015b 64617461 		.ascii	"dataDelay\000"
 2712      44656C61 
 2712      7900
 2713              	.LASF78:
 2714 0165 715F6275 		.ascii	"q_buffer\000"
 2714      66666572 
 2714      00
 2715              	.LASF14:
 2716 016e 75696E74 		.ascii	"uint16_t\000"
 2716      31365F74 
 2716      00
 2717              	.LASF118:
 2718 0177 4932435F 		.ascii	"I2C_ACTIVE_TX\000"
 2718      41435449 
 2718      56455F54 
 2718      5800
 2719              	.LASF91:
 2720 0185 64617461 		.ascii	"dataLength\000"
 2720      4C656E67 
 2720      746800
 2721              	.LASF87:
 2722 0190 5F69646C 		.ascii	"_idle_thread_wa\000"
 2722      655F7468 
ARM GAS  /var/folders/l5/0x54b2c10074c8bt31ycjvl80000gp/T//ccFzyCUA.s 			page 50


 2722      72656164 
 2722      5F776100 
 2723              	.LASF89:
 2724 01a0 636F6E74 		.ascii	"control\000"
 2724      726F6C00 
 2725              	.LASF10:
 2726 01a8 5F5F7569 		.ascii	"__uint32_t\000"
 2726      6E743332 
 2726      5F7400
 2727              	.LASF41:
 2728 01b3 72656761 		.ascii	"regarm_t\000"
 2728      726D5F74 
 2728      00
 2729              	.LASF47:
 2730 01bc 76745F70 		.ascii	"vt_prev\000"
 2730      72657600 
 2731              	.LASF92:
 2732 01c4 736C6176 		.ascii	"slaveAddress\000"
 2732      65416464 
 2732      72657373 
 2732      00
 2733              	.LASF157:
 2734 01d1 474E5520 		.ascii	"GNU C17 8.3.1 20190703 (release) [gcc-8-branch revi"
 2734      43313720 
 2734      382E332E 
 2734      31203230 
 2734      31393037 
 2735 0204 73696F6E 		.ascii	"sion 273027] -mcpu=arm1176jz-s -mabi=apcs-gnu -mno-"
 2735      20323733 
 2735      3032375D 
 2735      202D6D63 
 2735      70753D61 
 2736 0237 7468756D 		.ascii	"thumb-interwork -mfloat-abi=soft -marm -march=armv6"
 2736      622D696E 
 2736      74657277 
 2736      6F726B20 
 2736      2D6D666C 
 2737 026a 6B7A202D 		.ascii	"kz -ggdb -O2 -fomit-frame-pointer -ffunction-sectio"
 2737      67676462 
 2737      202D4F32 
 2737      202D666F 
 2737      6D69742D 
 2738 029d 6E73202D 		.ascii	"ns -fdata-sections\000"
 2738      66646174 
 2738      612D7365 
 2738      6374696F 
 2738      6E7300
 2739              	.LASF140:
 2740 02b0 49324330 		.ascii	"I2C0\000"
 2740      00
 2741              	.LASF69:
 2742 02b5 4576656E 		.ascii	"EventSource\000"
 2742      74536F75 
 2742      72636500 
 2743              	.LASF17:
 2744 02c1 756E7369 		.ascii	"unsigned int\000"
 2744      676E6564 
ARM GAS  /var/folders/l5/0x54b2c10074c8bt31ycjvl80000gp/T//ccFzyCUA.s 			page 51


 2744      20696E74 
 2744      00
 2745              	.LASF46:
 2746 02ce 76745F6E 		.ascii	"vt_next\000"
 2746      65787400 
 2747              	.LASF130:
 2748 02d6 74786275 		.ascii	"txbuf\000"
 2748      6600
 2749              	.LASF149:
 2750 02dc 53657269 		.ascii	"SerialDriverVMT\000"
 2750      616C4472 
 2750      69766572 
 2750      564D5400 
 2751              	.LASF125:
 2752 02ec 6572726F 		.ascii	"errors\000"
 2752      727300
 2753              	.LASF147:
 2754 02f3 69717565 		.ascii	"iqueue\000"
 2754      756500
 2755              	.LASF1:
 2756 02fa 6C6F6E67 		.ascii	"long unsigned int\000"
 2756      20756E73 
 2756      69676E65 
 2756      6420696E 
 2756      7400
 2757              	.LASF161:
 2758 030c 746D496E 		.ascii	"tmInit\000"
 2758      697400
 2759              	.LASF153:
 2760 0313 67657474 		.ascii	"gett\000"
 2760      00
 2761              	.LASF44:
 2762 0318 76746675 		.ascii	"vtfunc_t\000"
 2762      6E635F74 
 2762      00
 2763              	.LASF98:
 2764 0321 54696D65 		.ascii	"TimeMeasurement\000"
 2764      4D656173 
 2764      7572656D 
 2764      656E7400 
 2765              	.LASF146:
 2766 0331 6576656E 		.ascii	"event\000"
 2766      7400
 2767              	.LASF8:
 2768 0337 73686F72 		.ascii	"short unsigned int\000"
 2768      7420756E 
 2768      7369676E 
 2768      65642069 
 2768      6E7400
 2769              	.LASF110:
 2770 034a 6770696F 		.ascii	"gpio_port_t\000"
 2770      5F706F72 
 2770      745F7400 
 2771              	.LASF106:
 2772 0356 6770636C 		.ascii	"gpclr\000"
 2772      7200
 2773              	.LASF22:
ARM GAS  /var/folders/l5/0x54b2c10074c8bt31ycjvl80000gp/T//ccFzyCUA.s 			page 52


 2774 035c 6D73675F 		.ascii	"msg_t\000"
 2774      7400
 2775              	.LASF101:
 2776 0362 6C617374 		.ascii	"last\000"
 2776      00
 2777              	.LASF65:
 2778 0367 656C5F6E 		.ascii	"el_next\000"
 2778      65787400 
 2779              	.LASF154:
 2780 036f 77726974 		.ascii	"writet\000"
 2780      657400
 2781              	.LASF18:
 2782 0376 746D6F64 		.ascii	"tmode_t\000"
 2782      655F7400 
 2783              	.LASF160:
 2784 037e 746D4F62 		.ascii	"tmObjectInit\000"
 2784      6A656374 
 2784      496E6974 
 2784      00
 2785              	.LASF39:
 2786 038b 54687265 		.ascii	"ThreadsList\000"
 2786      6164734C 
 2786      69737400 
 2787              	.LASF23:
 2788 0397 6576656E 		.ascii	"eventmask_t\000"
 2788      746D6173 
 2788      6B5F7400 
 2789              	.LASF85:
 2790 03a3 496E7075 		.ascii	"InputQueue\000"
 2790      74517565 
 2790      756500
 2791              	.LASF60:
 2792 03ae 4D757465 		.ascii	"Mutex\000"
 2792      7800
 2793              	.LASF75:
 2794 03b4 47656E65 		.ascii	"GenericQueue\000"
 2794      72696351 
 2794      75657565 
 2794      00
 2795              	.LASF40:
 2796 03c1 73746B61 		.ascii	"stkalign_t\000"
 2796      6C69676E 
 2796      5F7400
 2797              	.LASF150:
 2798 03cc 77726974 		.ascii	"write\000"
 2798      6500
 2799              	.LASF107:
 2800 03d2 67706C65 		.ascii	"gplev\000"
 2800      7600
 2801              	.LASF152:
 2802 03d8 70757474 		.ascii	"putt\000"
 2802      00
 2803              	.LASF48:
 2804 03dd 76745F74 		.ascii	"vt_time\000"
 2804      696D6500 
 2805              	.LASF116:
 2806 03e5 4932435F 		.ascii	"I2C_STOP\000"
ARM GAS  /var/folders/l5/0x54b2c10074c8bt31ycjvl80000gp/T//ccFzyCUA.s 			page 53


 2806      53544F50 
 2806      00
 2807              	.LASF158:
 2808 03ee 2E2E2F2E 		.ascii	"../../../os/hal/src/tm.c\000"
 2808      2E2F2E2E 
 2808      2F6F732F 
 2808      68616C2F 
 2808      7372632F 
 2809              	.LASF94:
 2810 0407 636C6F63 		.ascii	"clockDivider\000"
 2810      6B446976 
 2810      69646572 
 2810      00
 2811              	.LASF156:
 2812 0414 6D656173 		.ascii	"measurement_offset\000"
 2812      7572656D 
 2812      656E745F 
 2812      6F666673 
 2812      657400
 2813              	.LASF77:
 2814 0427 715F636F 		.ascii	"q_counter\000"
 2814      756E7465 
 2814      7200
 2815              	.LASF49:
 2816 0431 76745F66 		.ascii	"vt_func\000"
 2816      756E6300 
 2817              	.LASF138:
 2818 0439 69635F73 		.ascii	"ic_speed\000"
 2818      70656564 
 2818      00
 2819              	.LASF52:
 2820 0442 56544C69 		.ascii	"VTList\000"
 2820      737400
 2821              	.LASF134:
 2822 0449 72786279 		.ascii	"rxbytes\000"
 2822      74657300 
 2823              	.LASF80:
 2824 0451 715F7772 		.ascii	"q_wrptr\000"
 2824      70747200 
 2825              	.LASF55:
 2826 0459 725F6374 		.ascii	"r_ctx\000"
 2826      7800
 2827              	.LASF38:
 2828 045f 54687265 		.ascii	"ThreadsQueue\000"
 2828      61647351 
 2828      75657565 
 2828      00
 2829              	.LASF112:
 2830 046c 494F504F 		.ascii	"IOPORT0\000"
 2830      52543000 
 2831              	.LASF56:
 2832 0474 725F6375 		.ascii	"r_current\000"
 2832      7272656E 
 2832      7400
 2833              	.LASF67:
 2834 047e 656C5F6D 		.ascii	"el_mask\000"
 2834      61736B00 
ARM GAS  /var/folders/l5/0x54b2c10074c8bt31ycjvl80000gp/T//ccFzyCUA.s 			page 54


 2835              	.LASF148:
 2836 0486 6F717565 		.ascii	"oqueue\000"
 2836      756500
 2837              	.LASF105:
 2838 048d 67707365 		.ascii	"gpset\000"
 2838      7400
 2839              	.LASF108:
 2840 0493 67707075 		.ascii	"gppudclk\000"
 2840      64636C6B 
 2840      00
 2841              	.LASF135:
 2842 049c 72786964 		.ascii	"rxidx\000"
 2842      7800
 2843              	.LASF121:
 2844 04a2 69326373 		.ascii	"i2cstate_t\000"
 2844      74617465 
 2844      5F7400
 2845              	.LASF84:
 2846 04ad 716E6F74 		.ascii	"qnotify_t\000"
 2846      6966795F 
 2846      7400
 2847              	.LASF28:
 2848 04b7 705F7072 		.ascii	"p_prev\000"
 2848      657600
 2849              	.LASF21:
 2850 04be 74707269 		.ascii	"tprio_t\000"
 2850      6F5F7400 
 2851              	.LASF81:
 2852 04c6 715F7264 		.ascii	"q_rdptr\000"
 2852      70747200 
 2853              	.LASF136:
 2854 04ce 69326366 		.ascii	"i2cflags_t\000"
 2854      6C616773 
 2854      5F7400
 2855              	.LASF127:
 2856 04d9 6D757465 		.ascii	"mutex\000"
 2856      7800
 2857              	.LASF15:
 2858 04df 696E7433 		.ascii	"int32_t\000"
 2858      325F7400 
 2859              	.LASF5:
 2860 04e7 756E7369 		.ascii	"unsigned char\000"
 2860      676E6564 
 2860      20636861 
 2860      7200
 2861              	.LASF66:
 2862 04f5 656C5F6C 		.ascii	"el_listener\000"
 2862      69737465 
 2862      6E657200 
 2863              	.LASF68:
 2864 0501 656C5F66 		.ascii	"el_flags\000"
 2864      6C616773 
 2864      00
 2865              	.LASF36:
 2866 050a 705F6D74 		.ascii	"p_mtxlist\000"
 2866      786C6973 
 2866      7400
ARM GAS  /var/folders/l5/0x54b2c10074c8bt31ycjvl80000gp/T//ccFzyCUA.s 			page 55


 2867              	.LASF6:
 2868 0514 73686F72 		.ascii	"short int\000"
 2868      7420696E 
 2868      7400
 2869              	.LASF31:
 2870 051e 705F7374 		.ascii	"p_state\000"
 2870      61746500 
 2871              	.LASF33:
 2872 0526 705F7072 		.ascii	"p_preempt\000"
 2872      65656D70 
 2872      7400
 2873              	.LASF54:
 2874 0530 725F7072 		.ascii	"r_prio\000"
 2874      696F00
 2875              	.LASF109:
 2876 0537 70696E5F 		.ascii	"pin_base\000"
 2876      62617365 
 2876      00
 2877              	.LASF74:
 2878 0540 65776D61 		.ascii	"ewmask\000"
 2878      736B00
 2879              	.LASF27:
 2880 0547 705F6E65 		.ascii	"p_next\000"
 2880      787400
 2881              	.LASF113:
 2882 054e 494F504F 		.ascii	"IOPORT1\000"
 2882      52543100 
 2883              	.LASF32:
 2884 0556 705F666C 		.ascii	"p_flags\000"
 2884      61677300 
 2885              	.LASF26:
 2886 055e 54687265 		.ascii	"Thread\000"
 2886      616400
 2887              	.LASF120:
 2888 0565 4932435F 		.ascii	"I2C_LOCKED\000"
 2888      4C4F434B 
 2888      454400
 2889              	.LASF35:
 2890 0570 705F6570 		.ascii	"p_epending\000"
 2890      656E6469 
 2890      6E6700
 2891              	.LASF141:
 2892 057b 53445F55 		.ascii	"SD_UNINIT\000"
 2892      4E494E49 
 2892      5400
 2893              	.LASF16:
 2894 0585 75696E74 		.ascii	"uint32_t\000"
 2894      33325F74 
 2894      00
 2895              	.LASF53:
 2896 058e 725F7175 		.ascii	"r_queue\000"
 2896      65756500 
 2897              	.LASF45:
 2898 0596 56697274 		.ascii	"VirtualTimer\000"
 2898      75616C54 
 2898      696D6572 
 2898      00
ARM GAS  /var/folders/l5/0x54b2c10074c8bt31ycjvl80000gp/T//ccFzyCUA.s 			page 56


 2899              	.LASF145:
 2900 05a3 53657269 		.ascii	"SerialDriver\000"
 2900      616C4472 
 2900      69766572 
 2900      00
 2901              	.LASF119:
 2902 05b0 4932435F 		.ascii	"I2C_ACTIVE_RX\000"
 2902      41435449 
 2902      56455F52 
 2902      5800
 2903              	.LASF151:
 2904 05be 72656164 		.ascii	"read\000"
 2904      00
 2905              	.LASF124:
 2906 05c3 636F6E66 		.ascii	"config\000"
 2906      696700
 2907              	.LASF7:
 2908 05ca 5F5F7569 		.ascii	"__uint16_t\000"
 2908      6E743136 
 2908      5F7400
 2909              	.LASF103:
 2910 05d5 62657374 		.ascii	"best\000"
 2910      00
 2911              	.LASF63:
 2912 05da 6D5F6E65 		.ascii	"m_next\000"
 2912      787400
 2913              	.LASF25:
 2914 05e1 73797374 		.ascii	"systime_t\000"
 2914      696D655F 
 2914      7400
 2915              	.LASF37:
 2916 05eb 705F7265 		.ascii	"p_realprio\000"
 2916      616C7072 
 2916      696F00
 2917              	.LASF9:
 2918 05f6 5F5F696E 		.ascii	"__int32_t\000"
 2918      7433325F 
 2918      7400
 2919              	.LASF117:
 2920 0600 4932435F 		.ascii	"I2C_READY\000"
 2920      52454144 
 2920      5900
 2921              	.LASF122:
 2922 060a 49324344 		.ascii	"I2CDriver\000"
 2922      72697665 
 2922      7200
 2923              	.LASF43:
 2924 0614 636F6E74 		.ascii	"context\000"
 2924      65787400 
 2925              	.LASF42:
 2926 061c 696E7463 		.ascii	"intctx\000"
 2926      747800
 2927              	.LASF143:
 2928 0623 53445F52 		.ascii	"SD_READY\000"
 2928      45414459 
 2928      00
 2929              	.LASF50:
ARM GAS  /var/folders/l5/0x54b2c10074c8bt31ycjvl80000gp/T//ccFzyCUA.s 			page 57


 2930 062c 76745F70 		.ascii	"vt_par\000"
 2930      617200
 2931              	.LASF24:
 2932 0633 666C6167 		.ascii	"flagsmask_t\000"
 2932      736D6173 
 2932      6B5F7400 
 2933              	.LASF139:
 2934 063f 49324343 		.ascii	"I2CConfig\000"
 2934      6F6E6669 
 2934      6700
 2935              	.LASF144:
 2936 0649 73647374 		.ascii	"sdstate_t\000"
 2936      6174655F 
 2936      7400
 2937              	.LASF132:
 2938 0653 74786964 		.ascii	"txidx\000"
 2938      7800
 2939              	.LASF79:
 2940 0659 715F746F 		.ascii	"q_top\000"
 2940      7000
 2941              	.LASF70:
 2942 065f 65735F6E 		.ascii	"es_next\000"
 2942      65787400 
 2943              	.LASF90:
 2944 0667 73746174 		.ascii	"status\000"
 2944      757300
 2945              	.LASF57:
 2946 066e 52656164 		.ascii	"ReadyList\000"
 2946      794C6973 
 2946      7400
 2947              	.LASF82:
 2948 0678 715F6E6F 		.ascii	"q_notify\000"
 2948      74696679 
 2948      00
 2949              	.LASF59:
 2950 0681 726C6973 		.ascii	"rlist\000"
 2950      7400
 2951              	.LASF13:
 2952 0687 75696E74 		.ascii	"uint8_t\000"
 2952      385F7400 
 2953              	.LASF104:
 2954 068f 6C617463 		.ascii	"latch\000"
 2954      6800
 2955              	.LASF64:
 2956 0695 4576656E 		.ascii	"EventListener\000"
 2956      744C6973 
 2956      74656E65 
 2956      7200
 2957              	.LASF73:
 2958 06a3 77746F62 		.ascii	"wtobjp\000"
 2958      6A7000
 2959              	.LASF51:
 2960 06aa 76745F73 		.ascii	"vt_systime\000"
 2960      79737469 
 2960      6D6500
 2961              	.LASF99:
 2962 06b5 73746172 		.ascii	"start\000"
ARM GAS  /var/folders/l5/0x54b2c10074c8bt31ycjvl80000gp/T//ccFzyCUA.s 			page 58


 2962      7400
 2963              	.LASF83:
 2964 06bb 715F6C69 		.ascii	"q_link\000"
 2964      6E6B00
 2965              	.LASF100:
 2966 06c2 73746F70 		.ascii	"stop\000"
 2966      00
 2967              	.LASF111:
 2968 06c7 50414C43 		.ascii	"PALConfig\000"
 2968      6F6E6669 
 2968      6700
 2969              	.LASF62:
 2970 06d1 6D5F6F77 		.ascii	"m_owner\000"
 2970      6E657200 
 2971              	.LASF163:
 2972 06d9 746D5F73 		.ascii	"tm_start\000"
 2972      74617274 
 2972      00
 2973              	.LASF114:
 2974 06e2 70616C5F 		.ascii	"pal_default_config\000"
 2974      64656661 
 2974      756C745F 
 2974      636F6E66 
 2974      696700
 2975              	.LASF30:
 2976 06f5 705F6374 		.ascii	"p_ctx\000"
 2976      7800
 2977              	.LASF34:
 2978 06fb 705F7761 		.ascii	"p_waiting\000"
 2978      6974696E 
 2978      6700
 2979              	.LASF131:
 2980 0705 74786279 		.ascii	"txbytes\000"
 2980      74657300 
 2981              	.LASF96:
 2982 070d 636C6F63 		.ascii	"clockStretchTimeout\000"
 2982      6B537472 
 2982      65746368 
 2982      54696D65 
 2982      6F757400 
 2983              		.ident	"GCC: (GNU Tools for Arm Embedded Processors 8-2019-q3-update) 8.3.1 20190703 (release) [gc
ARM GAS  /var/folders/l5/0x54b2c10074c8bt31ycjvl80000gp/T//ccFzyCUA.s 			page 59


DEFINED SYMBOLS
                            *ABS*:0000000000000000 tm.c
/var/folders/l5/0x54b2c10074c8bt31ycjvl80000gp/T//ccFzyCUA.s:6      .text.tm_start:0000000000000000 $a
/var/folders/l5/0x54b2c10074c8bt31ycjvl80000gp/T//ccFzyCUA.s:12     .text.tm_start:0000000000000000 tm_start
/var/folders/l5/0x54b2c10074c8bt31ycjvl80000gp/T//ccFzyCUA.s:32     .text.tm_start:0000000000000010 $d
/var/folders/l5/0x54b2c10074c8bt31ycjvl80000gp/T//ccFzyCUA.s:37     .text.tm_stop:0000000000000000 $a
/var/folders/l5/0x54b2c10074c8bt31ycjvl80000gp/T//ccFzyCUA.s:42     .text.tm_stop:0000000000000000 tm_stop
/var/folders/l5/0x54b2c10074c8bt31ycjvl80000gp/T//ccFzyCUA.s:92     .text.tm_stop:0000000000000044 $d
/var/folders/l5/0x54b2c10074c8bt31ycjvl80000gp/T//ccFzyCUA.s:98     .text.tmInit:0000000000000000 $a
/var/folders/l5/0x54b2c10074c8bt31ycjvl80000gp/T//ccFzyCUA.s:104    .text.tmInit:0000000000000000 tmInit
/var/folders/l5/0x54b2c10074c8bt31ycjvl80000gp/T//ccFzyCUA.s:214    .text.tmInit:0000000000000054 $d
/var/folders/l5/0x54b2c10074c8bt31ycjvl80000gp/T//ccFzyCUA.s:222    .text.tmObjectInit:0000000000000000 $a
/var/folders/l5/0x54b2c10074c8bt31ycjvl80000gp/T//ccFzyCUA.s:228    .text.tmObjectInit:0000000000000000 tmObjectInit
/var/folders/l5/0x54b2c10074c8bt31ycjvl80000gp/T//ccFzyCUA.s:264    .text.tmObjectInit:0000000000000028 $d
/var/folders/l5/0x54b2c10074c8bt31ycjvl80000gp/T//ccFzyCUA.s:270    .bss.measurement_offset:0000000000000000 $d
/var/folders/l5/0x54b2c10074c8bt31ycjvl80000gp/T//ccFzyCUA.s:274    .bss.measurement_offset:0000000000000000 measurement_offset

NO UNDEFINED SYMBOLS
