ARM GAS  /var/folders/2d/mv7wzxg53m36fj1flyq1gqvm0000gn/T//cciRocmp.s 			page 1


   1              		.cpu arm1176jz-s
   2              		.fpu softvfp
   3              		.eabi_attribute 20, 1
   4              		.eabi_attribute 21, 1
   5              		.eabi_attribute 23, 3
   6              		.eabi_attribute 24, 1
   7              		.eabi_attribute 25, 1
   8              		.eabi_attribute 26, 1
   9              		.eabi_attribute 30, 2
  10              		.eabi_attribute 34, 1
  11              		.eabi_attribute 18, 4
  12              		.file	"main.c"
  13              		.text
  14              	.Ltext0:
  15              		.cfi_sections	.debug_frame
  16              		.section	.text.Thread_LCD,"ax",%progbits
  17              		.align	2
  18              		.type	Thread_LCD, %function
  19              	Thread_LCD:
  20              	.LFB7:
  21              		.file 1 "main.c"
  22              		.loc 1 26 0
  23              		.cfi_startproc
  24              		@ args = 0, pretend = 0, frame = 0
  25              		@ frame_needed = 0, uses_anonymous_args = 0
  26              	.LVL0:
  27 0000 10402DE9 		stmfd	sp!, {r4, lr}
  28              		.cfi_def_cfa_offset 8
  29              		.cfi_offset 4, -8
  30              		.cfi_offset 14, -4
  31              		.loc 1 29 0
  32 0004 0040A0E3 		mov	r4, #0
  33              		.loc 1 28 0
  34 0008 9C309FE5 		ldr	r3, .L5
  35 000c 9C209FE5 		ldr	r2, .L5+4
  36 0010 183093E5 		ldr	r3, [r3, #24]
  37 0014 182083E5 		str	r2, [r3, #24]
  38              	.LVL1:
  39              	.L2:
  40              		.loc 1 31 0 discriminator 1
  41 0018 7C10A0E3 		mov	r1, #124
  42 001c 0020E0E3 		mvn	r2, #0
  43 0020 8C009FE5 		ldr	r0, .L5+8
  44 0024 FEFFFFEB 		bl	chOQPutTimeout
  45              	.LVL2:
  46              		.loc 1 32 0 discriminator 1
  47 0028 1810A0E3 		mov	r1, #24
  48 002c 0020E0E3 		mvn	r2, #0
  49 0030 7C009FE5 		ldr	r0, .L5+8
  50 0034 FEFFFFEB 		bl	chOQPutTimeout
  51              	.LVL3:
  52              		.loc 1 33 0 discriminator 1
  53 0038 2010A0E3 		mov	r1, #32
  54 003c 0020E0E3 		mvn	r2, #0
  55 0040 6C009FE5 		ldr	r0, .L5+8
  56 0044 FEFFFFEB 		bl	chOQPutTimeout
  57              	.LVL4:
ARM GAS  /var/folders/2d/mv7wzxg53m36fj1flyq1gqvm0000gn/T//cciRocmp.s 			page 2


  58              		.loc 1 34 0 discriminator 1
  59 0048 0A00A0E3 		mov	r0, #10
  60 004c FEFFFFEB 		bl	chThdSleep
  61              	.LVL5:
  62              		.loc 1 36 0 discriminator 1
  63 0050 7C10A0E3 		mov	r1, #124
  64 0054 0020E0E3 		mvn	r2, #0
  65 0058 54009FE5 		ldr	r0, .L5+8
  66 005c FEFFFFEB 		bl	chOQPutTimeout
  67              	.LVL6:
  68              		.loc 1 37 0 discriminator 1
  69 0060 1910A0E3 		mov	r1, #25
  70 0064 0020E0E3 		mvn	r2, #0
  71 0068 44009FE5 		ldr	r0, .L5+8
  72 006c FEFFFFEB 		bl	chOQPutTimeout
  73              	.LVL7:
  74              		.loc 1 38 0 discriminator 1
  75 0070 2010A0E3 		mov	r1, #32
  76 0074 0020E0E3 		mvn	r2, #0
  77 0078 34009FE5 		ldr	r0, .L5+8
  78 007c FEFFFFEB 		bl	chOQPutTimeout
  79              	.LVL8:
  80              		.loc 1 39 0 discriminator 1
  81 0080 0A00A0E3 		mov	r0, #10
  82 0084 FEFFFFEB 		bl	chThdSleep
  83              	.LVL9:
  84              		.loc 1 41 0 discriminator 1
  85 0088 0420A0E1 		mov	r2, r4
  86 008c 24009FE5 		ldr	r0, .L5+12
  87 0090 24109FE5 		ldr	r1, .L5+16
  88 0094 FEFFFFEB 		bl	chprintf
  89              	.LVL10:
  90              		.loc 1 42 0 discriminator 1
  91 0098 014084E2 		add	r4, r4, #1
  92              	.LVL11:
  93              		.loc 1 43 0 discriminator 1
  94 009c 7D0EA0E3 		mov	r0, #2000
  95              		.loc 1 42 0 discriminator 1
  96 00a0 7440FFE6 		uxth	r4, r4
  97              	.LVL12:
  98              		.loc 1 43 0 discriminator 1
  99 00a4 FEFFFFEB 		bl	chThdSleep
 100              	.LVL13:
 101              		.loc 1 44 0 discriminator 1
 102 00a8 DAFFFFEA 		b	.L2
 103              	.L6:
 104              		.align	2
 105              	.L5:
 106 00ac 00000000 		.word	rlist
 107 00b0 00000000 		.word	.LC0
 108 00b4 30000000 		.word	SD1+48
 109 00b8 00000000 		.word	SD1
 110 00bc 0C000000 		.word	.LC1
 111              		.cfi_endproc
 112              	.LFE7:
 113              		.size	Thread_LCD, .-Thread_LCD
 114              		.section	.text.startup.main,"ax",%progbits
ARM GAS  /var/folders/2d/mv7wzxg53m36fj1flyq1gqvm0000gn/T//cciRocmp.s 			page 3


 115              		.align	2
 116              		.global	main
 117              		.type	main, %function
 118              	main:
 119              	.LFB8:
 120              		.loc 1 52 0
 121              		.cfi_startproc
 122              		@ args = 0, pretend = 0, frame = 24
 123              		@ frame_needed = 0, uses_anonymous_args = 0
 124 0000 70402DE9 		stmfd	sp!, {r4, r5, r6, lr}
 125              		.cfi_def_cfa_offset 16
 126              		.cfi_offset 4, -16
 127              		.cfi_offset 5, -12
 128              		.cfi_offset 6, -8
 129              		.cfi_offset 14, -4
 130              		.loc 1 79 0
 131 0004 0060A0E3 		mov	r6, #0
 132              		.loc 1 52 0
 133 0008 20D04DE2 		sub	sp, sp, #32
 134              		.cfi_def_cfa_offset 48
 135              		.loc 1 53 0
 136 000c FEFFFFEB 		bl	halInit
 137              	.LVL14:
 138              		.loc 1 54 0
 139 0010 FEFFFFEB 		bl	chSysInit
 140              	.LVL15:
 141              		.loc 1 56 0
 142 0014 DCE09FE5 		ldr	lr, .L9
 143 0018 0CC08DE2 		add	ip, sp, #12
 144 001c 0F00BEE8 		ldmia	lr!, {r0, r1, r2, r3}
 145 0020 0F00ACE8 		stmia	ip!, {r0, r1, r2, r3}
 146              		.loc 1 59 0
 147 0024 D0509FE5 		ldr	r5, .L9+4
 148              		.loc 1 56 0
 149 0028 00309EE5 		ldr	r3, [lr]
 150              		.loc 1 59 0
 151 002c 0500A0E1 		mov	r0, r5
 152 0030 0610A0E1 		mov	r1, r6
 153              		.loc 1 56 0
 154 0034 B030CCE1 		strh	r3, [ip]	@ movhi
 155              		.loc 1 65 0
 156 0038 304085E2 		add	r4, r5, #48
 157              		.loc 1 59 0
 158 003c FEFFFFEB 		bl	sdStart
 159              	.LVL16:
 160              		.loc 1 62 0
 161 0040 0500A0E1 		mov	r0, r5
 162 0044 B4109FE5 		ldr	r1, .L9+8
 163 0048 FEFFFFEB 		bl	chprintf
 164              	.LVL17:
 165              		.loc 1 65 0
 166 004c 0400A0E1 		mov	r0, r4
 167 0050 7C10A0E3 		mov	r1, #124
 168 0054 0020E0E3 		mvn	r2, #0
 169 0058 FEFFFFEB 		bl	chOQPutTimeout
 170              	.LVL18:
 171              		.loc 1 66 0
ARM GAS  /var/folders/2d/mv7wzxg53m36fj1flyq1gqvm0000gn/T//cciRocmp.s 			page 4


 172 005c 0400A0E1 		mov	r0, r4
 173 0060 1810A0E3 		mov	r1, #24
 174 0064 0020E0E3 		mvn	r2, #0
 175 0068 FEFFFFEB 		bl	chOQPutTimeout
 176              	.LVL19:
 177              		.loc 1 67 0
 178 006c 0610A0E1 		mov	r1, r6
 179 0070 0020E0E3 		mvn	r2, #0
 180 0074 0400A0E1 		mov	r0, r4
 181 0078 FEFFFFEB 		bl	chOQPutTimeout
 182              	.LVL20:
 183              		.loc 1 68 0
 184 007c 0A00A0E3 		mov	r0, #10
 185 0080 FEFFFFEB 		bl	chThdSleep
 186              	.LVL21:
 187              		.loc 1 70 0
 188 0084 0400A0E1 		mov	r0, r4
 189 0088 7C10A0E3 		mov	r1, #124
 190 008c 0020E0E3 		mvn	r2, #0
 191 0090 FEFFFFEB 		bl	chOQPutTimeout
 192              	.LVL22:
 193              		.loc 1 71 0
 194 0094 0400A0E1 		mov	r0, r4
 195 0098 1910A0E3 		mov	r1, #25
 196 009c 0020E0E3 		mvn	r2, #0
 197 00a0 FEFFFFEB 		bl	chOQPutTimeout
 198              	.LVL23:
 199              		.loc 1 72 0
 200 00a4 0020E0E3 		mvn	r2, #0
 201 00a8 0A10A0E3 		mov	r1, #10
 202 00ac 0400A0E1 		mov	r0, r4
 203 00b0 FEFFFFEB 		bl	chOQPutTimeout
 204              	.LVL24:
 205              		.loc 1 73 0
 206 00b4 0A00A0E3 		mov	r0, #10
 207 00b8 FEFFFFEB 		bl	chThdSleep
 208              	.LVL25:
 209              		.loc 1 76 0
 210 00bc 0500A0E1 		mov	r0, r5
 211 00c0 0C108DE2 		add	r1, sp, #12
 212 00c4 FEFFFFEB 		bl	chprintf
 213              	.LVL26:
 214              		.loc 1 79 0
 215 00c8 461FA0E3 		mov	r1, #280
 216 00cc 7F20A0E3 		mov	r2, #127
 217 00d0 00608DE5 		str	r6, [sp]
 218 00d4 28309FE5 		ldr	r3, .L9+12
 219 00d8 28009FE5 		ldr	r0, .L9+16
 220 00dc FEFFFFEB 		bl	chThdCreateStatic
 221              	.LVL27:
 222              		.loc 1 84 0
 223 00e0 24309FE5 		ldr	r3, .L9+20
 224 00e4 180093E5 		ldr	r0, [r3, #24]
 225 00e8 FEFFFFEB 		bl	chThdWait
 226              	.LVL28:
 227              		.loc 1 87 0
 228 00ec 0600A0E1 		mov	r0, r6
ARM GAS  /var/folders/2d/mv7wzxg53m36fj1flyq1gqvm0000gn/T//cciRocmp.s 			page 5


 229 00f0 20D08DE2 		add	sp, sp, #32
 230              		.cfi_def_cfa_offset 16
 231              		@ sp needed
 232 00f4 7080BDE8 		ldmfd	sp!, {r4, r5, r6, pc}
 233              	.L10:
 234              		.align	2
 235              	.L9:
 236 00f8 2C000000 		.word	.LC2
 237 00fc 00000000 		.word	SD1
 238 0100 18000000 		.word	.LC3
 239 0104 00000000 		.word	Thread_LCD
 240 0108 00000000 		.word	.LANCHOR0
 241 010c 00000000 		.word	rlist
 242              		.cfi_endproc
 243              	.LFE8:
 244              		.size	main, .-main
 245              		.section	.bss.waThread_LCD,"aw",%nobits
 246              		.align	2
 247              		.set	.LANCHOR0,. + 0
 248              		.type	waThread_LCD, %object
 249              		.size	waThread_LCD, 280
 250              	waThread_LCD:
 251 0000 00000000 		.space	280
 251      00000000 
 251      00000000 
 251      00000000 
 251      00000000 
 252              		.section	.rodata.str1.4,"aMS",%progbits,1
 253              		.align	2
 254              	.LC0:
 255 0000 53657269 		.ascii	"SerialPrint\000"
 255      616C5072 
 255      696E7400 
 256              	.LC1:
 257 000c 49746572 		.ascii	"Iter.: %u\000"
 257      2E3A2025 
 257      7500
 258 0016 0000     		.space	2
 259              	.LC3:
 260 0018 4D61696E 		.ascii	"Main (SD1 started)\000"
 260      20285344 
 260      31207374 
 260      61727465 
 260      642900
 261 002b 00       		.space	1
 262              	.LC2:
 263 002c 48656C6C 		.ascii	"Hello Chibi-World\000"
 263      6F204368 
 263      6962692D 
 263      576F726C 
 263      6400
 264              		.text
 265              	.Letext0:
 266              		.file 2 "/usr/local/Cellar/gcc-arm-none-eabi-49/20150925/lib/gcc/arm-none-eabi/4.9.3/include/stdde
 267              		.file 3 "/usr/local/Cellar/gcc-arm-none-eabi-49/20150925/arm-none-eabi/include/machine/_default_ty
 268              		.file 4 "/usr/local/Cellar/gcc-arm-none-eabi-49/20150925/arm-none-eabi/include/sys/_stdint.h"
 269              		.file 5 "../../os/ports/GCC/ARM/chtypes.h"
ARM GAS  /var/folders/2d/mv7wzxg53m36fj1flyq1gqvm0000gn/T//cciRocmp.s 			page 6


 270              		.file 6 "../../os/kernel/include/chlists.h"
 271              		.file 7 "../../os/kernel/include/chthreads.h"
 272              		.file 8 "../../os/ports/GCC/ARM/chcore.h"
 273              		.file 9 "../../os/kernel/include/chschd.h"
 274              		.file 10 "../../os/kernel/include/chmtx.h"
 275              		.file 11 "../../os/kernel/include/chevents.h"
 276              		.file 12 "../../os/kernel/include/chqueues.h"
 277              		.file 13 "../../os/kernel/include/chstreams.h"
 278              		.file 14 "../../os/hal/include/serial.h"
 279              		.file 15 "../../os/hal/platforms/BCM2835/serial_lld.h"
 280              		.file 16 "../../os/various/chprintf.h"
 281              		.file 17 "../../os/hal/include/hal.h"
 282              		.file 18 "../../os/kernel/include/chsys.h"
 283              		.section	.debug_info,"",%progbits
 284              	.Ldebug_info0:
 285 0000 C50B0000 		.4byte	0xbc5
 286 0004 0400     		.2byte	0x4
 287 0006 00000000 		.4byte	.Ldebug_abbrev0
 288 000a 04       		.byte	0x4
 289 000b 01       		.uleb128 0x1
 290 000c 59030000 		.4byte	.LASF121
 291 0010 01       		.byte	0x1
 292 0011 F1010000 		.4byte	.LASF122
 293 0015 A6000000 		.4byte	.LASF123
 294 0019 00000000 		.4byte	.Ldebug_ranges0+0
 295 001d 00000000 		.4byte	0
 296 0021 00000000 		.4byte	.Ldebug_line0
 297 0025 02       		.uleb128 0x2
 298 0026 04       		.byte	0x4
 299 0027 05       		.byte	0x5
 300 0028 696E7400 		.ascii	"int\000"
 301 002c 03       		.uleb128 0x3
 302 002d 1D000000 		.4byte	.LASF2
 303 0031 02       		.byte	0x2
 304 0032 D4       		.byte	0xd4
 305 0033 37000000 		.4byte	0x37
 306 0037 04       		.uleb128 0x4
 307 0038 04       		.byte	0x4
 308 0039 07       		.byte	0x7
 309 003a 60010000 		.4byte	.LASF0
 310 003e 04       		.uleb128 0x4
 311 003f 01       		.byte	0x1
 312 0040 06       		.byte	0x6
 313 0041 90000000 		.4byte	.LASF1
 314 0045 03       		.uleb128 0x3
 315 0046 37000000 		.4byte	.LASF3
 316 004a 03       		.byte	0x3
 317 004b 1D       		.byte	0x1d
 318 004c 50000000 		.4byte	0x50
 319 0050 04       		.uleb128 0x4
 320 0051 01       		.byte	0x1
 321 0052 08       		.byte	0x8
 322 0053 10030000 		.4byte	.LASF4
 323 0057 04       		.uleb128 0x4
 324 0058 02       		.byte	0x2
 325 0059 05       		.byte	0x5
 326 005a 3D030000 		.4byte	.LASF5
ARM GAS  /var/folders/2d/mv7wzxg53m36fj1flyq1gqvm0000gn/T//cciRocmp.s 			page 7


 327 005e 03       		.uleb128 0x3
 328 005f 97040000 		.4byte	.LASF6
 329 0063 03       		.byte	0x3
 330 0064 2B       		.byte	0x2b
 331 0065 69000000 		.4byte	0x69
 332 0069 04       		.uleb128 0x4
 333 006a 02       		.byte	0x2
 334 006b 07       		.byte	0x7
 335 006c C1010000 		.4byte	.LASF7
 336 0070 03       		.uleb128 0x3
 337 0071 BE040000 		.4byte	.LASF8
 338 0075 03       		.byte	0x3
 339 0076 3F       		.byte	0x3f
 340 0077 7B000000 		.4byte	0x7b
 341 007b 04       		.uleb128 0x4
 342 007c 04       		.byte	0x4
 343 007d 05       		.byte	0x5
 344 007e F4000000 		.4byte	.LASF9
 345 0082 03       		.uleb128 0x3
 346 0083 2B010000 		.4byte	.LASF10
 347 0087 03       		.byte	0x3
 348 0088 41       		.byte	0x41
 349 0089 8D000000 		.4byte	0x8d
 350 008d 04       		.uleb128 0x4
 351 008e 04       		.byte	0x4
 352 008f 07       		.byte	0x7
 353 0090 94010000 		.4byte	.LASF11
 354 0094 04       		.uleb128 0x4
 355 0095 08       		.byte	0x8
 356 0096 05       		.byte	0x5
 357 0097 82000000 		.4byte	.LASF12
 358 009b 04       		.uleb128 0x4
 359 009c 08       		.byte	0x8
 360 009d 07       		.byte	0x7
 361 009e 41000000 		.4byte	.LASF13
 362 00a2 03       		.uleb128 0x3
 363 00a3 26050000 		.4byte	.LASF14
 364 00a7 04       		.byte	0x4
 365 00a8 14       		.byte	0x14
 366 00a9 45000000 		.4byte	0x45
 367 00ad 03       		.uleb128 0x3
 368 00ae 0F010000 		.4byte	.LASF15
 369 00b2 04       		.byte	0x4
 370 00b3 1A       		.byte	0x1a
 371 00b4 5E000000 		.4byte	0x5e
 372 00b8 03       		.uleb128 0x3
 373 00b9 08030000 		.4byte	.LASF16
 374 00bd 04       		.byte	0x4
 375 00be 1F       		.byte	0x1f
 376 00bf 70000000 		.4byte	0x70
 377 00c3 03       		.uleb128 0x3
 378 00c4 5D040000 		.4byte	.LASF17
 379 00c8 04       		.byte	0x4
 380 00c9 20       		.byte	0x20
 381 00ca 82000000 		.4byte	0x82
 382 00ce 03       		.uleb128 0x3
 383 00cf FF010000 		.4byte	.LASF18
ARM GAS  /var/folders/2d/mv7wzxg53m36fj1flyq1gqvm0000gn/T//cciRocmp.s 			page 8


 384 00d3 05       		.byte	0x5
 385 00d4 2A       		.byte	0x2a
 386 00d5 A2000000 		.4byte	0xa2
 387 00d9 03       		.uleb128 0x3
 388 00da FD000000 		.4byte	.LASF19
 389 00de 05       		.byte	0x5
 390 00df 2B       		.byte	0x2b
 391 00e0 A2000000 		.4byte	0xa2
 392 00e4 03       		.uleb128 0x3
 393 00e5 DF020000 		.4byte	.LASF20
 394 00e9 05       		.byte	0x5
 395 00ea 2C       		.byte	0x2c
 396 00eb A2000000 		.4byte	0xa2
 397 00ef 03       		.uleb128 0x3
 398 00f0 E4000000 		.4byte	.LASF21
 399 00f4 05       		.byte	0x5
 400 00f5 2D       		.byte	0x2d
 401 00f6 A2000000 		.4byte	0xa2
 402 00fa 03       		.uleb128 0x3
 403 00fb F8020000 		.4byte	.LASF22
 404 00ff 05       		.byte	0x5
 405 0100 2E       		.byte	0x2e
 406 0101 C3000000 		.4byte	0xc3
 407 0105 03       		.uleb128 0x3
 408 0106 D4010000 		.4byte	.LASF23
 409 010a 05       		.byte	0x5
 410 010b 2F       		.byte	0x2f
 411 010c B8000000 		.4byte	0xb8
 412 0110 03       		.uleb128 0x3
 413 0111 13020000 		.4byte	.LASF24
 414 0115 05       		.byte	0x5
 415 0116 31       		.byte	0x31
 416 0117 C3000000 		.4byte	0xc3
 417 011b 03       		.uleb128 0x3
 418 011c F4040000 		.4byte	.LASF25
 419 0120 05       		.byte	0x5
 420 0121 32       		.byte	0x32
 421 0122 C3000000 		.4byte	0xc3
 422 0126 03       		.uleb128 0x3
 423 0127 A9040000 		.4byte	.LASF26
 424 012b 05       		.byte	0x5
 425 012c 33       		.byte	0x33
 426 012d C3000000 		.4byte	0xc3
 427 0131 03       		.uleb128 0x3
 428 0132 41040000 		.4byte	.LASF27
 429 0136 06       		.byte	0x6
 430 0137 23       		.byte	0x23
 431 0138 3C010000 		.4byte	0x13c
 432 013c 05       		.uleb128 0x5
 433 013d 41040000 		.4byte	.LASF27
 434 0141 44       		.byte	0x44
 435 0142 07       		.byte	0x7
 436 0143 57       		.byte	0x57
 437 0144 2D020000 		.4byte	0x22d
 438 0148 06       		.uleb128 0x6
 439 0149 1A040000 		.4byte	.LASF28
 440 014d 07       		.byte	0x7
ARM GAS  /var/folders/2d/mv7wzxg53m36fj1flyq1gqvm0000gn/T//cciRocmp.s 			page 9


 441 014e 58       		.byte	0x58
 442 014f 4E020000 		.4byte	0x24e
 443 0153 00       		.byte	0
 444 0154 06       		.uleb128 0x6
 445 0155 F1020000 		.4byte	.LASF29
 446 0159 07       		.byte	0x7
 447 015a 5A       		.byte	0x5a
 448 015b 4E020000 		.4byte	0x24e
 449 015f 04       		.byte	0x4
 450 0160 06       		.uleb128 0x6
 451 0161 6B000000 		.4byte	.LASF30
 452 0165 07       		.byte	0x7
 453 0166 5C       		.byte	0x5c
 454 0167 FA000000 		.4byte	0xfa
 455 016b 08       		.byte	0x8
 456 016c 06       		.uleb128 0x6
 457 016d 61050000 		.4byte	.LASF31
 458 0171 07       		.byte	0x7
 459 0172 5D       		.byte	0x5d
 460 0173 09030000 		.4byte	0x309
 461 0177 0C       		.byte	0xc
 462 0178 06       		.uleb128 0x6
 463 0179 18010000 		.4byte	.LASF32
 464 017d 07       		.byte	0x7
 465 017e 5F       		.byte	0x5f
 466 017f 4E020000 		.4byte	0x24e
 467 0183 10       		.byte	0x10
 468 0184 06       		.uleb128 0x6
 469 0185 8A020000 		.4byte	.LASF33
 470 0189 07       		.byte	0x7
 471 018a 60       		.byte	0x60
 472 018b 4E020000 		.4byte	0x24e
 473 018f 14       		.byte	0x14
 474 0190 06       		.uleb128 0x6
 475 0191 43050000 		.4byte	.LASF34
 476 0195 07       		.byte	0x7
 477 0196 67       		.byte	0x67
 478 0197 72040000 		.4byte	0x472
 479 019b 18       		.byte	0x18
 480 019c 06       		.uleb128 0x6
 481 019d 47030000 		.4byte	.LASF35
 482 01a1 07       		.byte	0x7
 483 01a2 72       		.byte	0x72
 484 01a3 D9000000 		.4byte	0xd9
 485 01a7 1C       		.byte	0x1c
 486 01a8 06       		.uleb128 0x6
 487 01a9 39040000 		.4byte	.LASF36
 488 01ad 07       		.byte	0x7
 489 01ae 76       		.byte	0x76
 490 01af CE000000 		.4byte	0xce
 491 01b3 1D       		.byte	0x1d
 492 01b4 06       		.uleb128 0x6
 493 01b5 06050000 		.4byte	.LASF37
 494 01b9 07       		.byte	0x7
 495 01ba 7B       		.byte	0x7b
 496 01bb E4000000 		.4byte	0xe4
 497 01bf 1E       		.byte	0x1e
ARM GAS  /var/folders/2d/mv7wzxg53m36fj1flyq1gqvm0000gn/T//cciRocmp.s 			page 10


 498 01c0 06       		.uleb128 0x6
 499 01c1 4F030000 		.4byte	.LASF38
 500 01c5 07       		.byte	0x7
 501 01c6 81       		.byte	0x81
 502 01c7 EF000000 		.4byte	0xef
 503 01cb 1F       		.byte	0x1f
 504 01cc 06       		.uleb128 0x6
 505 01cd C8040000 		.4byte	.LASF39
 506 01d1 07       		.byte	0x7
 507 01d2 88       		.byte	0x88
 508 01d3 28030000 		.4byte	0x328
 509 01d7 20       		.byte	0x20
 510 01d8 07       		.uleb128 0x7
 511 01d9 705F7500 		.ascii	"p_u\000"
 512 01dd 07       		.byte	0x7
 513 01de AD       		.byte	0xad
 514 01df 3D040000 		.4byte	0x43d
 515 01e3 24       		.byte	0x24
 516 01e4 06       		.uleb128 0x6
 517 01e5 67050000 		.4byte	.LASF40
 518 01e9 07       		.byte	0x7
 519 01ea B2       		.byte	0xb2
 520 01eb 74020000 		.4byte	0x274
 521 01ef 28       		.byte	0x28
 522 01f0 06       		.uleb128 0x6
 523 01f1 D6040000 		.4byte	.LASF41
 524 01f5 07       		.byte	0x7
 525 01f6 B8       		.byte	0xb8
 526 01f7 54020000 		.4byte	0x254
 527 01fb 2C       		.byte	0x2c
 528 01fc 06       		.uleb128 0x6
 529 01fd 17000000 		.4byte	.LASF42
 530 0201 07       		.byte	0x7
 531 0202 BC       		.byte	0xbc
 532 0203 05010000 		.4byte	0x105
 533 0207 34       		.byte	0x34
 534 0208 06       		.uleb128 0x6
 535 0209 48040000 		.4byte	.LASF43
 536 020d 07       		.byte	0x7
 537 020e C2       		.byte	0xc2
 538 020f 10010000 		.4byte	0x110
 539 0213 38       		.byte	0x38
 540 0214 06       		.uleb128 0x6
 541 0215 33030000 		.4byte	.LASF44
 542 0219 07       		.byte	0x7
 543 021a C9       		.byte	0xc9
 544 021b 84040000 		.4byte	0x484
 545 021f 3C       		.byte	0x3c
 546 0220 06       		.uleb128 0x6
 547 0221 B3040000 		.4byte	.LASF45
 548 0225 07       		.byte	0x7
 549 0226 CD       		.byte	0xcd
 550 0227 FA000000 		.4byte	0xfa
 551 022b 40       		.byte	0x40
 552 022c 00       		.byte	0
 553 022d 08       		.uleb128 0x8
 554 022e 08       		.byte	0x8
ARM GAS  /var/folders/2d/mv7wzxg53m36fj1flyq1gqvm0000gn/T//cciRocmp.s 			page 11


 555 022f 06       		.byte	0x6
 556 0230 5A       		.byte	0x5a
 557 0231 4E020000 		.4byte	0x24e
 558 0235 06       		.uleb128 0x6
 559 0236 1A040000 		.4byte	.LASF28
 560 023a 06       		.byte	0x6
 561 023b 5B       		.byte	0x5b
 562 023c 4E020000 		.4byte	0x24e
 563 0240 00       		.byte	0
 564 0241 06       		.uleb128 0x6
 565 0242 F1020000 		.4byte	.LASF29
 566 0246 06       		.byte	0x6
 567 0247 5D       		.byte	0x5d
 568 0248 4E020000 		.4byte	0x24e
 569 024c 04       		.byte	0x4
 570 024d 00       		.byte	0
 571 024e 09       		.uleb128 0x9
 572 024f 04       		.byte	0x4
 573 0250 31010000 		.4byte	0x131
 574 0254 03       		.uleb128 0x3
 575 0255 A0020000 		.4byte	.LASF46
 576 0259 06       		.byte	0x6
 577 025a 5F       		.byte	0x5f
 578 025b 2D020000 		.4byte	0x22d
 579 025f 08       		.uleb128 0x8
 580 0260 04       		.byte	0x4
 581 0261 06       		.byte	0x6
 582 0262 64       		.byte	0x64
 583 0263 74020000 		.4byte	0x274
 584 0267 06       		.uleb128 0x6
 585 0268 1A040000 		.4byte	.LASF28
 586 026c 06       		.byte	0x6
 587 026d 66       		.byte	0x66
 588 026e 4E020000 		.4byte	0x24e
 589 0272 00       		.byte	0
 590 0273 00       		.byte	0
 591 0274 03       		.uleb128 0x3
 592 0275 07020000 		.4byte	.LASF47
 593 0279 06       		.byte	0x6
 594 027a 69       		.byte	0x69
 595 027b 5F020000 		.4byte	0x25f
 596 027f 03       		.uleb128 0x3
 597 0280 4A020000 		.4byte	.LASF48
 598 0284 08       		.byte	0x8
 599 0285 9D       		.byte	0x9d
 600 0286 C3000000 		.4byte	0xc3
 601 028a 03       		.uleb128 0x3
 602 028b 36010000 		.4byte	.LASF49
 603 028f 08       		.byte	0x8
 604 0290 A2       		.byte	0xa2
 605 0291 95020000 		.4byte	0x295
 606 0295 0A       		.uleb128 0xa
 607 0296 04       		.byte	0x4
 608 0297 05       		.uleb128 0x5
 609 0298 CF040000 		.4byte	.LASF50
 610 029c 24       		.byte	0x24
 611 029d 08       		.byte	0x8
ARM GAS  /var/folders/2d/mv7wzxg53m36fj1flyq1gqvm0000gn/T//cciRocmp.s 			page 12


 612 029e B9       		.byte	0xb9
 613 029f 09030000 		.4byte	0x309
 614 02a3 07       		.uleb128 0x7
 615 02a4 723400   		.ascii	"r4\000"
 616 02a7 08       		.byte	0x8
 617 02a8 BA       		.byte	0xba
 618 02a9 8A020000 		.4byte	0x28a
 619 02ad 00       		.byte	0
 620 02ae 07       		.uleb128 0x7
 621 02af 723500   		.ascii	"r5\000"
 622 02b2 08       		.byte	0x8
 623 02b3 BB       		.byte	0xbb
 624 02b4 8A020000 		.4byte	0x28a
 625 02b8 04       		.byte	0x4
 626 02b9 07       		.uleb128 0x7
 627 02ba 723600   		.ascii	"r6\000"
 628 02bd 08       		.byte	0x8
 629 02be BC       		.byte	0xbc
 630 02bf 8A020000 		.4byte	0x28a
 631 02c3 08       		.byte	0x8
 632 02c4 07       		.uleb128 0x7
 633 02c5 723700   		.ascii	"r7\000"
 634 02c8 08       		.byte	0x8
 635 02c9 BD       		.byte	0xbd
 636 02ca 8A020000 		.4byte	0x28a
 637 02ce 0C       		.byte	0xc
 638 02cf 07       		.uleb128 0x7
 639 02d0 723800   		.ascii	"r8\000"
 640 02d3 08       		.byte	0x8
 641 02d4 BE       		.byte	0xbe
 642 02d5 8A020000 		.4byte	0x28a
 643 02d9 10       		.byte	0x10
 644 02da 07       		.uleb128 0x7
 645 02db 723900   		.ascii	"r9\000"
 646 02de 08       		.byte	0x8
 647 02df BF       		.byte	0xbf
 648 02e0 8A020000 		.4byte	0x28a
 649 02e4 14       		.byte	0x14
 650 02e5 07       		.uleb128 0x7
 651 02e6 72313000 		.ascii	"r10\000"
 652 02ea 08       		.byte	0x8
 653 02eb C0       		.byte	0xc0
 654 02ec 8A020000 		.4byte	0x28a
 655 02f0 18       		.byte	0x18
 656 02f1 07       		.uleb128 0x7
 657 02f2 72313100 		.ascii	"r11\000"
 658 02f6 08       		.byte	0x8
 659 02f7 C1       		.byte	0xc1
 660 02f8 8A020000 		.4byte	0x28a
 661 02fc 1C       		.byte	0x1c
 662 02fd 07       		.uleb128 0x7
 663 02fe 6C7200   		.ascii	"lr\000"
 664 0301 08       		.byte	0x8
 665 0302 C2       		.byte	0xc2
 666 0303 8A020000 		.4byte	0x28a
 667 0307 20       		.byte	0x20
 668 0308 00       		.byte	0
ARM GAS  /var/folders/2d/mv7wzxg53m36fj1flyq1gqvm0000gn/T//cciRocmp.s 			page 13


 669 0309 05       		.uleb128 0x5
 670 030a B9010000 		.4byte	.LASF51
 671 030e 04       		.byte	0x4
 672 030f 08       		.byte	0x8
 673 0310 CA       		.byte	0xca
 674 0311 22030000 		.4byte	0x322
 675 0315 07       		.uleb128 0x7
 676 0316 72313300 		.ascii	"r13\000"
 677 031a 08       		.byte	0x8
 678 031b CB       		.byte	0xcb
 679 031c 22030000 		.4byte	0x322
 680 0320 00       		.byte	0
 681 0321 00       		.byte	0
 682 0322 09       		.uleb128 0x9
 683 0323 04       		.byte	0x4
 684 0324 97020000 		.4byte	0x297
 685 0328 0B       		.uleb128 0xb
 686 0329 26010000 		.4byte	0x126
 687 032d 08       		.uleb128 0x8
 688 032e 1C       		.byte	0x1c
 689 032f 09       		.byte	0x9
 690 0330 57       		.byte	0x57
 691 0331 7E030000 		.4byte	0x37e
 692 0335 06       		.uleb128 0x6
 693 0336 66040000 		.4byte	.LASF52
 694 033a 09       		.byte	0x9
 695 033b 58       		.byte	0x58
 696 033c 54020000 		.4byte	0x254
 697 0340 00       		.byte	0
 698 0341 06       		.uleb128 0x6
 699 0342 0C040000 		.4byte	.LASF53
 700 0346 09       		.byte	0x9
 701 0347 59       		.byte	0x59
 702 0348 FA000000 		.4byte	0xfa
 703 034c 08       		.byte	0x8
 704 034d 06       		.uleb128 0x6
 705 034e 9A020000 		.4byte	.LASF54
 706 0352 09       		.byte	0x9
 707 0353 5B       		.byte	0x5b
 708 0354 09030000 		.4byte	0x309
 709 0358 0C       		.byte	0xc
 710 0359 06       		.uleb128 0x6
 711 035a E1010000 		.4byte	.LASF55
 712 035e 09       		.byte	0x9
 713 035f 5E       		.byte	0x5e
 714 0360 4E020000 		.4byte	0x24e
 715 0364 10       		.byte	0x10
 716 0365 06       		.uleb128 0x6
 717 0366 B7020000 		.4byte	.LASF56
 718 036a 09       		.byte	0x9
 719 036b 5F       		.byte	0x5f
 720 036c 4E020000 		.4byte	0x24e
 721 0370 14       		.byte	0x14
 722 0371 06       		.uleb128 0x6
 723 0372 AD020000 		.4byte	.LASF57
 724 0376 09       		.byte	0x9
 725 0377 62       		.byte	0x62
ARM GAS  /var/folders/2d/mv7wzxg53m36fj1flyq1gqvm0000gn/T//cciRocmp.s 			page 14


 726 0378 4E020000 		.4byte	0x24e
 727 037c 18       		.byte	0x18
 728 037d 00       		.byte	0
 729 037e 03       		.uleb128 0x3
 730 037f 0D050000 		.4byte	.LASF58
 731 0383 09       		.byte	0x9
 732 0384 64       		.byte	0x64
 733 0385 2D030000 		.4byte	0x32d
 734 0389 05       		.uleb128 0x5
 735 038a 2A020000 		.4byte	.LASF59
 736 038e 10       		.byte	0x10
 737 038f 0A       		.byte	0xa
 738 0390 25       		.byte	0x25
 739 0391 BA030000 		.4byte	0x3ba
 740 0395 06       		.uleb128 0x6
 741 0396 DC000000 		.4byte	.LASF60
 742 039a 0A       		.byte	0xa
 743 039b 26       		.byte	0x26
 744 039c 54020000 		.4byte	0x254
 745 03a0 00       		.byte	0
 746 03a1 06       		.uleb128 0x6
 747 03a2 59050000 		.4byte	.LASF61
 748 03a6 0A       		.byte	0xa
 749 03a7 28       		.byte	0x28
 750 03a8 4E020000 		.4byte	0x24e
 751 03ac 08       		.byte	0x8
 752 03ad 06       		.uleb128 0x6
 753 03ae A2040000 		.4byte	.LASF62
 754 03b2 0A       		.byte	0xa
 755 03b3 2A       		.byte	0x2a
 756 03b4 BA030000 		.4byte	0x3ba
 757 03b8 0C       		.byte	0xc
 758 03b9 00       		.byte	0
 759 03ba 09       		.uleb128 0x9
 760 03bb 04       		.byte	0x4
 761 03bc 89030000 		.4byte	0x389
 762 03c0 03       		.uleb128 0x3
 763 03c1 2A020000 		.4byte	.LASF59
 764 03c5 0A       		.byte	0xa
 765 03c6 2C       		.byte	0x2c
 766 03c7 89030000 		.4byte	0x389
 767 03cb 03       		.uleb128 0x3
 768 03cc 2E050000 		.4byte	.LASF63
 769 03d0 0B       		.byte	0xb
 770 03d1 25       		.byte	0x25
 771 03d2 D6030000 		.4byte	0x3d6
 772 03d6 05       		.uleb128 0x5
 773 03d7 2E050000 		.4byte	.LASF63
 774 03db 10       		.byte	0x10
 775 03dc 0B       		.byte	0xb
 776 03dd 2A       		.byte	0x2a
 777 03de 13040000 		.4byte	0x413
 778 03e2 06       		.uleb128 0x6
 779 03e3 E9010000 		.4byte	.LASF64
 780 03e7 0B       		.byte	0xb
 781 03e8 2B       		.byte	0x2b
 782 03e9 13040000 		.4byte	0x413
ARM GAS  /var/folders/2d/mv7wzxg53m36fj1flyq1gqvm0000gn/T//cciRocmp.s 			page 15


 783 03ed 00       		.byte	0
 784 03ee 06       		.uleb128 0x6
 785 03ef 1E030000 		.4byte	.LASF65
 786 03f3 0B       		.byte	0xb
 787 03f4 2E       		.byte	0x2e
 788 03f5 4E020000 		.4byte	0x24e
 789 03f9 04       		.byte	0x4
 790 03fa 06       		.uleb128 0x6
 791 03fb BF020000 		.4byte	.LASF66
 792 03ff 0B       		.byte	0xb
 793 0400 30       		.byte	0x30
 794 0401 10010000 		.4byte	0x110
 795 0405 08       		.byte	0x8
 796 0406 06       		.uleb128 0x6
 797 0407 2A030000 		.4byte	.LASF67
 798 040b 0B       		.byte	0xb
 799 040c 33       		.byte	0x33
 800 040d 1B010000 		.4byte	0x11b
 801 0411 0C       		.byte	0xc
 802 0412 00       		.byte	0
 803 0413 09       		.uleb128 0x9
 804 0414 04       		.byte	0x4
 805 0415 CB030000 		.4byte	0x3cb
 806 0419 05       		.uleb128 0x5
 807 041a 3F010000 		.4byte	.LASF68
 808 041e 04       		.byte	0x4
 809 041f 0B       		.byte	0xb
 810 0420 3A       		.byte	0x3a
 811 0421 32040000 		.4byte	0x432
 812 0425 06       		.uleb128 0x6
 813 0426 4A050000 		.4byte	.LASF69
 814 042a 0B       		.byte	0xb
 815 042b 3B       		.byte	0x3b
 816 042c 13040000 		.4byte	0x413
 817 0430 00       		.byte	0
 818 0431 00       		.byte	0
 819 0432 03       		.uleb128 0x3
 820 0433 3F010000 		.4byte	.LASF68
 821 0437 0B       		.byte	0xb
 822 0438 3E       		.byte	0x3e
 823 0439 19040000 		.4byte	0x419
 824 043d 0C       		.uleb128 0xc
 825 043e 04       		.byte	0x4
 826 043f 07       		.byte	0x7
 827 0440 8F       		.byte	0x8f
 828 0441 72040000 		.4byte	0x472
 829 0445 0D       		.uleb128 0xd
 830 0446 24000000 		.4byte	.LASF70
 831 044a 07       		.byte	0x7
 832 044b 96       		.byte	0x96
 833 044c 05010000 		.4byte	0x105
 834 0450 0D       		.uleb128 0xd
 835 0451 62000000 		.4byte	.LASF71
 836 0455 07       		.byte	0x7
 837 0456 9D       		.byte	0x9d
 838 0457 05010000 		.4byte	0x105
 839 045b 0D       		.uleb128 0xd
ARM GAS  /var/folders/2d/mv7wzxg53m36fj1flyq1gqvm0000gn/T//cciRocmp.s 			page 16


 840 045c 3C050000 		.4byte	.LASF72
 841 0460 07       		.byte	0x7
 842 0461 A4       		.byte	0xa4
 843 0462 95020000 		.4byte	0x295
 844 0466 0D       		.uleb128 0xd
 845 0467 13040000 		.4byte	.LASF73
 846 046b 07       		.byte	0x7
 847 046c AB       		.byte	0xab
 848 046d 10010000 		.4byte	0x110
 849 0471 00       		.byte	0
 850 0472 09       		.uleb128 0x9
 851 0473 04       		.byte	0x4
 852 0474 78040000 		.4byte	0x478
 853 0478 0E       		.uleb128 0xe
 854 0479 7D040000 		.4byte	0x47d
 855 047d 04       		.uleb128 0x4
 856 047e 01       		.byte	0x1
 857 047f 08       		.byte	0x8
 858 0480 8A040000 		.4byte	.LASF74
 859 0484 09       		.uleb128 0x9
 860 0485 04       		.byte	0x4
 861 0486 C0030000 		.4byte	0x3c0
 862 048a 03       		.uleb128 0x3
 863 048b 0F000000 		.4byte	.LASF75
 864 048f 07       		.byte	0x7
 865 0490 DE       		.byte	0xde
 866 0491 95040000 		.4byte	0x495
 867 0495 09       		.uleb128 0x9
 868 0496 04       		.byte	0x4
 869 0497 9B040000 		.4byte	0x49b
 870 049b 0F       		.uleb128 0xf
 871 049c 05010000 		.4byte	0x105
 872 04a0 AA040000 		.4byte	0x4aa
 873 04a4 10       		.uleb128 0x10
 874 04a5 95020000 		.4byte	0x295
 875 04a9 00       		.byte	0
 876 04aa 04       		.uleb128 0x4
 877 04ab 04       		.byte	0x4
 878 04ac 07       		.byte	0x7
 879 04ad 72020000 		.4byte	.LASF76
 880 04b1 03       		.uleb128 0x3
 881 04b2 3D020000 		.4byte	.LASF77
 882 04b6 0C       		.byte	0xc
 883 04b7 30       		.byte	0x30
 884 04b8 BC040000 		.4byte	0x4bc
 885 04bc 05       		.uleb128 0x5
 886 04bd 3D020000 		.4byte	.LASF77
 887 04c1 24       		.byte	0x24
 888 04c2 0C       		.byte	0xc
 889 04c3 3E       		.byte	0x3e
 890 04c4 29050000 		.4byte	0x529
 891 04c8 06       		.uleb128 0x6
 892 04c9 78000000 		.4byte	.LASF78
 893 04cd 0C       		.byte	0xc
 894 04ce 3F       		.byte	0x3f
 895 04cf 54020000 		.4byte	0x254
 896 04d3 00       		.byte	0
ARM GAS  /var/folders/2d/mv7wzxg53m36fj1flyq1gqvm0000gn/T//cciRocmp.s 			page 17


 897 04d4 06       		.uleb128 0x6
 898 04d5 7B020000 		.4byte	.LASF79
 899 04d9 0C       		.byte	0xc
 900 04da 40       		.byte	0x40
 901 04db 2C000000 		.4byte	0x2c
 902 04df 08       		.byte	0x8
 903 04e0 06       		.uleb128 0x6
 904 04e1 06010000 		.4byte	.LASF80
 905 04e5 0C       		.byte	0xc
 906 04e6 41       		.byte	0x41
 907 04e7 4B050000 		.4byte	0x54b
 908 04eb 0C       		.byte	0xc
 909 04ec 06       		.uleb128 0x6
 910 04ed 00050000 		.4byte	.LASF81
 911 04f1 0C       		.byte	0xc
 912 04f2 42       		.byte	0x42
 913 04f3 4B050000 		.4byte	0x54b
 914 04f7 10       		.byte	0x10
 915 04f8 06       		.uleb128 0x6
 916 04f9 92020000 		.4byte	.LASF82
 917 04fd 0C       		.byte	0xc
 918 04fe 44       		.byte	0x44
 919 04ff 4B050000 		.4byte	0x54b
 920 0503 14       		.byte	0x14
 921 0504 06       		.uleb128 0x6
 922 0505 00030000 		.4byte	.LASF83
 923 0509 0C       		.byte	0xc
 924 050a 45       		.byte	0x45
 925 050b 4B050000 		.4byte	0x54b
 926 050f 18       		.byte	0x18
 927 0510 06       		.uleb128 0x6
 928 0511 17050000 		.4byte	.LASF84
 929 0515 0C       		.byte	0xc
 930 0516 46       		.byte	0x46
 931 0517 29050000 		.4byte	0x529
 932 051b 1C       		.byte	0x1c
 933 051c 06       		.uleb128 0x6
 934 051d 52050000 		.4byte	.LASF85
 935 0521 0C       		.byte	0xc
 936 0522 47       		.byte	0x47
 937 0523 95020000 		.4byte	0x295
 938 0527 20       		.byte	0x20
 939 0528 00       		.byte	0
 940 0529 03       		.uleb128 0x3
 941 052a E7020000 		.4byte	.LASF86
 942 052e 0C       		.byte	0xc
 943 052f 33       		.byte	0x33
 944 0530 34050000 		.4byte	0x534
 945 0534 09       		.uleb128 0x9
 946 0535 04       		.byte	0x4
 947 0536 3A050000 		.4byte	0x53a
 948 053a 11       		.uleb128 0x11
 949 053b 45050000 		.4byte	0x545
 950 053f 10       		.uleb128 0x10
 951 0540 45050000 		.4byte	0x545
 952 0544 00       		.byte	0
 953 0545 09       		.uleb128 0x9
ARM GAS  /var/folders/2d/mv7wzxg53m36fj1flyq1gqvm0000gn/T//cciRocmp.s 			page 18


 954 0546 04       		.byte	0x4
 955 0547 B1040000 		.4byte	0x4b1
 956 054b 09       		.uleb128 0x9
 957 054c 04       		.byte	0x4
 958 054d A2000000 		.4byte	0xa2
 959 0551 03       		.uleb128 0x3
 960 0552 1F020000 		.4byte	.LASF87
 961 0556 0C       		.byte	0xc
 962 0557 7B       		.byte	0x7b
 963 0558 B1040000 		.4byte	0x4b1
 964 055c 03       		.uleb128 0x3
 965 055d 2B000000 		.4byte	.LASF88
 966 0561 0C       		.byte	0xc
 967 0562 EE       		.byte	0xee
 968 0563 B1040000 		.4byte	0x4b1
 969 0567 05       		.uleb128 0x5
 970 0568 21040000 		.4byte	.LASF89
 971 056c 10       		.byte	0x10
 972 056d 0D       		.byte	0xd
 973 056e 41       		.byte	0x41
 974 056f A4050000 		.4byte	0x5a4
 975 0573 06       		.uleb128 0x6
 976 0574 67020000 		.4byte	.LASF90
 977 0578 0D       		.byte	0xd
 978 0579 42       		.byte	0x42
 979 057a C8050000 		.4byte	0x5c8
 980 057e 00       		.byte	0
 981 057f 06       		.uleb128 0x6
 982 0580 85040000 		.4byte	.LASF91
 983 0584 0D       		.byte	0xd
 984 0585 42       		.byte	0x42
 985 0586 E7050000 		.4byte	0x5e7
 986 058a 04       		.byte	0x4
 987 058b 07       		.uleb128 0x7
 988 058c 70757400 		.ascii	"put\000"
 989 0590 0D       		.byte	0xd
 990 0591 42       		.byte	0x42
 991 0592 01060000 		.4byte	0x601
 992 0596 08       		.byte	0x8
 993 0597 07       		.uleb128 0x7
 994 0598 67657400 		.ascii	"get\000"
 995 059c 0D       		.byte	0xd
 996 059d 42       		.byte	0x42
 997 059e 95040000 		.4byte	0x495
 998 05a2 0C       		.byte	0xc
 999 05a3 00       		.byte	0
 1000 05a4 0F       		.uleb128 0xf
 1001 05a5 2C000000 		.4byte	0x2c
 1002 05a9 BD050000 		.4byte	0x5bd
 1003 05ad 10       		.uleb128 0x10
 1004 05ae 95020000 		.4byte	0x295
 1005 05b2 10       		.uleb128 0x10
 1006 05b3 BD050000 		.4byte	0x5bd
 1007 05b7 10       		.uleb128 0x10
 1008 05b8 2C000000 		.4byte	0x2c
 1009 05bc 00       		.byte	0
 1010 05bd 09       		.uleb128 0x9
ARM GAS  /var/folders/2d/mv7wzxg53m36fj1flyq1gqvm0000gn/T//cciRocmp.s 			page 19


 1011 05be 04       		.byte	0x4
 1012 05bf C3050000 		.4byte	0x5c3
 1013 05c3 0E       		.uleb128 0xe
 1014 05c4 A2000000 		.4byte	0xa2
 1015 05c8 09       		.uleb128 0x9
 1016 05c9 04       		.byte	0x4
 1017 05ca A4050000 		.4byte	0x5a4
 1018 05ce 0F       		.uleb128 0xf
 1019 05cf 2C000000 		.4byte	0x2c
 1020 05d3 E7050000 		.4byte	0x5e7
 1021 05d7 10       		.uleb128 0x10
 1022 05d8 95020000 		.4byte	0x295
 1023 05dc 10       		.uleb128 0x10
 1024 05dd 4B050000 		.4byte	0x54b
 1025 05e1 10       		.uleb128 0x10
 1026 05e2 2C000000 		.4byte	0x2c
 1027 05e6 00       		.byte	0
 1028 05e7 09       		.uleb128 0x9
 1029 05e8 04       		.byte	0x4
 1030 05e9 CE050000 		.4byte	0x5ce
 1031 05ed 0F       		.uleb128 0xf
 1032 05ee 05010000 		.4byte	0x105
 1033 05f2 01060000 		.4byte	0x601
 1034 05f6 10       		.uleb128 0x10
 1035 05f7 95020000 		.4byte	0x295
 1036 05fb 10       		.uleb128 0x10
 1037 05fc A2000000 		.4byte	0xa2
 1038 0600 00       		.byte	0
 1039 0601 09       		.uleb128 0x9
 1040 0602 04       		.byte	0x4
 1041 0603 ED050000 		.4byte	0x5ed
 1042 0607 08       		.uleb128 0x8
 1043 0608 04       		.byte	0x4
 1044 0609 0D       		.byte	0xd
 1045 060a 4A       		.byte	0x4a
 1046 060b 1C060000 		.4byte	0x61c
 1047 060f 07       		.uleb128 0x7
 1048 0610 766D7400 		.ascii	"vmt\000"
 1049 0614 0D       		.byte	0xd
 1050 0615 4C       		.byte	0x4c
 1051 0616 1C060000 		.4byte	0x61c
 1052 061a 00       		.byte	0
 1053 061b 00       		.byte	0
 1054 061c 09       		.uleb128 0x9
 1055 061d 04       		.byte	0x4
 1056 061e 22060000 		.4byte	0x622
 1057 0622 0E       		.uleb128 0xe
 1058 0623 67050000 		.4byte	0x567
 1059 0627 03       		.uleb128 0x3
 1060 0628 4B010000 		.4byte	.LASF92
 1061 062c 0D       		.byte	0xd
 1062 062d 4E       		.byte	0x4e
 1063 062e 07060000 		.4byte	0x607
 1064 0632 0F       		.uleb128 0xf
 1065 0633 05010000 		.4byte	0x105
 1066 0637 4B060000 		.4byte	0x64b
 1067 063b 10       		.uleb128 0x10
ARM GAS  /var/folders/2d/mv7wzxg53m36fj1flyq1gqvm0000gn/T//cciRocmp.s 			page 20


 1068 063c 95020000 		.4byte	0x295
 1069 0640 10       		.uleb128 0x10
 1070 0641 A2000000 		.4byte	0xa2
 1071 0645 10       		.uleb128 0x10
 1072 0646 26010000 		.4byte	0x126
 1073 064a 00       		.byte	0
 1074 064b 09       		.uleb128 0x9
 1075 064c 04       		.byte	0x4
 1076 064d 32060000 		.4byte	0x632
 1077 0651 0F       		.uleb128 0xf
 1078 0652 05010000 		.4byte	0x105
 1079 0656 65060000 		.4byte	0x665
 1080 065a 10       		.uleb128 0x10
 1081 065b 95020000 		.4byte	0x295
 1082 065f 10       		.uleb128 0x10
 1083 0660 26010000 		.4byte	0x126
 1084 0664 00       		.byte	0
 1085 0665 09       		.uleb128 0x9
 1086 0666 04       		.byte	0x4
 1087 0667 51060000 		.4byte	0x651
 1088 066b 0F       		.uleb128 0xf
 1089 066c 2C000000 		.4byte	0x2c
 1090 0670 89060000 		.4byte	0x689
 1091 0674 10       		.uleb128 0x10
 1092 0675 95020000 		.4byte	0x295
 1093 0679 10       		.uleb128 0x10
 1094 067a BD050000 		.4byte	0x5bd
 1095 067e 10       		.uleb128 0x10
 1096 067f 2C000000 		.4byte	0x2c
 1097 0683 10       		.uleb128 0x10
 1098 0684 26010000 		.4byte	0x126
 1099 0688 00       		.byte	0
 1100 0689 09       		.uleb128 0x9
 1101 068a 04       		.byte	0x4
 1102 068b 6B060000 		.4byte	0x66b
 1103 068f 0F       		.uleb128 0xf
 1104 0690 2C000000 		.4byte	0x2c
 1105 0694 AD060000 		.4byte	0x6ad
 1106 0698 10       		.uleb128 0x10
 1107 0699 95020000 		.4byte	0x295
 1108 069d 10       		.uleb128 0x10
 1109 069e 4B050000 		.4byte	0x54b
 1110 06a2 10       		.uleb128 0x10
 1111 06a3 2C000000 		.4byte	0x2c
 1112 06a7 10       		.uleb128 0x10
 1113 06a8 26010000 		.4byte	0x126
 1114 06ac 00       		.byte	0
 1115 06ad 09       		.uleb128 0x9
 1116 06ae 04       		.byte	0x4
 1117 06af 8F060000 		.4byte	0x68f
 1118 06b3 12       		.uleb128 0x12
 1119 06b4 01       		.byte	0x1
 1120 06b5 0E       		.byte	0xe
 1121 06b6 5D       		.byte	0x5d
 1122 06b7 CE060000 		.4byte	0x6ce
 1123 06bb 13       		.uleb128 0x13
 1124 06bc 53040000 		.4byte	.LASF93
ARM GAS  /var/folders/2d/mv7wzxg53m36fj1flyq1gqvm0000gn/T//cciRocmp.s 			page 21


 1125 06c0 00       		.sleb128 0
 1126 06c1 13       		.uleb128 0x13
 1127 06c2 D4000000 		.4byte	.LASF94
 1128 06c6 01       		.sleb128 1
 1129 06c7 13       		.uleb128 0x13
 1130 06c8 E1040000 		.4byte	.LASF95
 1131 06cc 02       		.sleb128 2
 1132 06cd 00       		.byte	0
 1133 06ce 03       		.uleb128 0x3
 1134 06cf 6E040000 		.4byte	.LASF96
 1135 06d3 0E       		.byte	0xe
 1136 06d4 61       		.byte	0x61
 1137 06d5 B3060000 		.4byte	0x6b3
 1138 06d9 03       		.uleb128 0x3
 1139 06da 78040000 		.4byte	.LASF97
 1140 06de 0E       		.byte	0xe
 1141 06df 66       		.byte	0x66
 1142 06e0 E4060000 		.4byte	0x6e4
 1143 06e4 05       		.uleb128 0x5
 1144 06e5 78040000 		.4byte	.LASF97
 1145 06e9 74       		.byte	0x74
 1146 06ea 0E       		.byte	0xe
 1147 06eb 80       		.byte	0x80
 1148 06ec 43070000 		.4byte	0x743
 1149 06f0 07       		.uleb128 0x7
 1150 06f1 766D7400 		.ascii	"vmt\000"
 1151 06f5 0E       		.byte	0xe
 1152 06f6 82       		.byte	0x82
 1153 06f7 D0070000 		.4byte	0x7d0
 1154 06fb 00       		.byte	0
 1155 06fc 06       		.uleb128 0x6
 1156 06fd B3010000 		.4byte	.LASF98
 1157 0701 0E       		.byte	0xe
 1158 0702 83       		.byte	0x83
 1159 0703 32040000 		.4byte	0x432
 1160 0707 04       		.byte	0x4
 1161 0708 06       		.uleb128 0x6
 1162 0709 EE000000 		.4byte	.LASF99
 1163 070d 0E       		.byte	0xe
 1164 070e 83       		.byte	0x83
 1165 070f CE060000 		.4byte	0x6ce
 1166 0713 08       		.byte	0x8
 1167 0714 06       		.uleb128 0x6
 1168 0715 8D010000 		.4byte	.LASF100
 1169 0719 0E       		.byte	0xe
 1170 071a 83       		.byte	0x83
 1171 071b 51050000 		.4byte	0x551
 1172 071f 0C       		.byte	0xc
 1173 0720 06       		.uleb128 0x6
 1174 0721 DA010000 		.4byte	.LASF101
 1175 0725 0E       		.byte	0xe
 1176 0726 83       		.byte	0x83
 1177 0727 5C050000 		.4byte	0x55c
 1178 072b 30       		.byte	0x30
 1179 072c 07       		.uleb128 0x7
 1180 072d 696200   		.ascii	"ib\000"
 1181 0730 0E       		.byte	0xe
ARM GAS  /var/folders/2d/mv7wzxg53m36fj1flyq1gqvm0000gn/T//cciRocmp.s 			page 22


 1182 0731 83       		.byte	0x83
 1183 0732 DB070000 		.4byte	0x7db
 1184 0736 54       		.byte	0x54
 1185 0737 07       		.uleb128 0x7
 1186 0738 6F6200   		.ascii	"ob\000"
 1187 073b 0E       		.byte	0xe
 1188 073c 83       		.byte	0x83
 1189 073d DB070000 		.4byte	0x7db
 1190 0741 64       		.byte	0x64
 1191 0742 00       		.byte	0
 1192 0743 08       		.uleb128 0x8
 1193 0744 04       		.byte	0x4
 1194 0745 0F       		.byte	0xf
 1195 0746 42       		.byte	0x42
 1196 0747 58070000 		.4byte	0x758
 1197 074b 06       		.uleb128 0x6
 1198 074c 58000000 		.4byte	.LASF102
 1199 0750 0F       		.byte	0xf
 1200 0751 44       		.byte	0x44
 1201 0752 C3000000 		.4byte	0xc3
 1202 0756 00       		.byte	0
 1203 0757 00       		.byte	0
 1204 0758 03       		.uleb128 0x3
 1205 0759 D2020000 		.4byte	.LASF103
 1206 075d 0F       		.byte	0xf
 1207 075e 45       		.byte	0x45
 1208 075f 43070000 		.4byte	0x743
 1209 0763 05       		.uleb128 0x5
 1210 0764 7D010000 		.4byte	.LASF104
 1211 0768 20       		.byte	0x20
 1212 0769 0E       		.byte	0xe
 1213 076a 75       		.byte	0x75
 1214 076b D0070000 		.4byte	0x7d0
 1215 076f 06       		.uleb128 0x6
 1216 0770 67020000 		.4byte	.LASF90
 1217 0774 0E       		.byte	0xe
 1218 0775 76       		.byte	0x76
 1219 0776 C8050000 		.4byte	0x5c8
 1220 077a 00       		.byte	0
 1221 077b 06       		.uleb128 0x6
 1222 077c 85040000 		.4byte	.LASF91
 1223 0780 0E       		.byte	0xe
 1224 0781 76       		.byte	0x76
 1225 0782 E7050000 		.4byte	0x5e7
 1226 0786 04       		.byte	0x4
 1227 0787 07       		.uleb128 0x7
 1228 0788 70757400 		.ascii	"put\000"
 1229 078c 0E       		.byte	0xe
 1230 078d 76       		.byte	0x76
 1231 078e 01060000 		.4byte	0x601
 1232 0792 08       		.byte	0x8
 1233 0793 07       		.uleb128 0x7
 1234 0794 67657400 		.ascii	"get\000"
 1235 0798 0E       		.byte	0xe
 1236 0799 76       		.byte	0x76
 1237 079a 95040000 		.4byte	0x495
 1238 079e 0C       		.byte	0xc
ARM GAS  /var/folders/2d/mv7wzxg53m36fj1flyq1gqvm0000gn/T//cciRocmp.s 			page 23


 1239 079f 06       		.uleb128 0x6
 1240 07a0 6D020000 		.4byte	.LASF105
 1241 07a4 0E       		.byte	0xe
 1242 07a5 76       		.byte	0x76
 1243 07a6 4B060000 		.4byte	0x64b
 1244 07aa 10       		.byte	0x10
 1245 07ab 06       		.uleb128 0x6
 1246 07ac AE010000 		.4byte	.LASF106
 1247 07b0 0E       		.byte	0xe
 1248 07b1 76       		.byte	0x76
 1249 07b2 65060000 		.4byte	0x665
 1250 07b6 14       		.byte	0x14
 1251 07b7 06       		.uleb128 0x6
 1252 07b8 F8010000 		.4byte	.LASF107
 1253 07bc 0E       		.byte	0xe
 1254 07bd 76       		.byte	0x76
 1255 07be 89060000 		.4byte	0x689
 1256 07c2 18       		.byte	0x18
 1257 07c3 06       		.uleb128 0x6
 1258 07c4 72000000 		.4byte	.LASF108
 1259 07c8 0E       		.byte	0xe
 1260 07c9 76       		.byte	0x76
 1261 07ca AD060000 		.4byte	0x6ad
 1262 07ce 1C       		.byte	0x1c
 1263 07cf 00       		.byte	0
 1264 07d0 09       		.uleb128 0x9
 1265 07d1 04       		.byte	0x4
 1266 07d2 D6070000 		.4byte	0x7d6
 1267 07d6 0E       		.uleb128 0xe
 1268 07d7 63070000 		.4byte	0x763
 1269 07db 14       		.uleb128 0x14
 1270 07dc A2000000 		.4byte	0xa2
 1271 07e0 EB070000 		.4byte	0x7eb
 1272 07e4 15       		.uleb128 0x15
 1273 07e5 AA040000 		.4byte	0x4aa
 1274 07e9 0F       		.byte	0xf
 1275 07ea 00       		.byte	0
 1276 07eb 16       		.uleb128 0x16
 1277 07ec 20010000 		.4byte	.LASF124
 1278 07f0 01       		.byte	0x1
 1279 07f1 1A       		.byte	0x1a
 1280 07f2 05010000 		.4byte	0x105
 1281 07f6 00000000 		.4byte	.LFB7
 1282 07fa C0000000 		.4byte	.LFE7-.LFB7
 1283 07fe 01       		.uleb128 0x1
 1284 07ff 9C       		.byte	0x9c
 1285 0800 0F090000 		.4byte	0x90f
 1286 0804 17       		.uleb128 0x17
 1287 0805 7000     		.ascii	"p\000"
 1288 0807 01       		.byte	0x1
 1289 0808 1A       		.byte	0x1a
 1290 0809 95020000 		.4byte	0x295
 1291 080d 00000000 		.4byte	.LLST0
 1292 0811 18       		.uleb128 0x18
 1293 0812 6D010000 		.4byte	.LASF109
 1294 0816 01       		.byte	0x1
 1295 0817 1D       		.byte	0x1d
ARM GAS  /var/folders/2d/mv7wzxg53m36fj1flyq1gqvm0000gn/T//cciRocmp.s 			page 24


 1296 0818 AD000000 		.4byte	0xad
 1297 081c 21000000 		.4byte	.LLST1
 1298 0820 19       		.uleb128 0x19
 1299 0821 28000000 		.4byte	.LVL2
 1300 0825 010B0000 		.4byte	0xb01
 1301 0829 3A080000 		.4byte	0x83a
 1302 082d 1A       		.uleb128 0x1a
 1303 082e 01       		.uleb128 0x1
 1304 082f 52       		.byte	0x52
 1305 0830 02       		.uleb128 0x2
 1306 0831 09       		.byte	0x9
 1307 0832 FF       		.byte	0xff
 1308 0833 1A       		.uleb128 0x1a
 1309 0834 01       		.uleb128 0x1
 1310 0835 51       		.byte	0x51
 1311 0836 02       		.uleb128 0x2
 1312 0837 08       		.byte	0x8
 1313 0838 7C       		.byte	0x7c
 1314 0839 00       		.byte	0
 1315 083a 19       		.uleb128 0x19
 1316 083b 38000000 		.4byte	.LVL3
 1317 083f 010B0000 		.4byte	0xb01
 1318 0843 53080000 		.4byte	0x853
 1319 0847 1A       		.uleb128 0x1a
 1320 0848 01       		.uleb128 0x1
 1321 0849 52       		.byte	0x52
 1322 084a 02       		.uleb128 0x2
 1323 084b 09       		.byte	0x9
 1324 084c FF       		.byte	0xff
 1325 084d 1A       		.uleb128 0x1a
 1326 084e 01       		.uleb128 0x1
 1327 084f 51       		.byte	0x51
 1328 0850 01       		.uleb128 0x1
 1329 0851 48       		.byte	0x48
 1330 0852 00       		.byte	0
 1331 0853 19       		.uleb128 0x19
 1332 0854 48000000 		.4byte	.LVL4
 1333 0858 010B0000 		.4byte	0xb01
 1334 085c 6D080000 		.4byte	0x86d
 1335 0860 1A       		.uleb128 0x1a
 1336 0861 01       		.uleb128 0x1
 1337 0862 52       		.byte	0x52
 1338 0863 02       		.uleb128 0x2
 1339 0864 09       		.byte	0x9
 1340 0865 FF       		.byte	0xff
 1341 0866 1A       		.uleb128 0x1a
 1342 0867 01       		.uleb128 0x1
 1343 0868 51       		.byte	0x51
 1344 0869 02       		.uleb128 0x2
 1345 086a 08       		.byte	0x8
 1346 086b 20       		.byte	0x20
 1347 086c 00       		.byte	0
 1348 086d 19       		.uleb128 0x19
 1349 086e 50000000 		.4byte	.LVL5
 1350 0872 270B0000 		.4byte	0xb27
 1351 0876 80080000 		.4byte	0x880
 1352 087a 1A       		.uleb128 0x1a
ARM GAS  /var/folders/2d/mv7wzxg53m36fj1flyq1gqvm0000gn/T//cciRocmp.s 			page 25


 1353 087b 01       		.uleb128 0x1
 1354 087c 50       		.byte	0x50
 1355 087d 01       		.uleb128 0x1
 1356 087e 3A       		.byte	0x3a
 1357 087f 00       		.byte	0
 1358 0880 19       		.uleb128 0x19
 1359 0881 60000000 		.4byte	.LVL6
 1360 0885 010B0000 		.4byte	0xb01
 1361 0889 9A080000 		.4byte	0x89a
 1362 088d 1A       		.uleb128 0x1a
 1363 088e 01       		.uleb128 0x1
 1364 088f 52       		.byte	0x52
 1365 0890 02       		.uleb128 0x2
 1366 0891 09       		.byte	0x9
 1367 0892 FF       		.byte	0xff
 1368 0893 1A       		.uleb128 0x1a
 1369 0894 01       		.uleb128 0x1
 1370 0895 51       		.byte	0x51
 1371 0896 02       		.uleb128 0x2
 1372 0897 08       		.byte	0x8
 1373 0898 7C       		.byte	0x7c
 1374 0899 00       		.byte	0
 1375 089a 19       		.uleb128 0x19
 1376 089b 70000000 		.4byte	.LVL7
 1377 089f 010B0000 		.4byte	0xb01
 1378 08a3 B3080000 		.4byte	0x8b3
 1379 08a7 1A       		.uleb128 0x1a
 1380 08a8 01       		.uleb128 0x1
 1381 08a9 52       		.byte	0x52
 1382 08aa 02       		.uleb128 0x2
 1383 08ab 09       		.byte	0x9
 1384 08ac FF       		.byte	0xff
 1385 08ad 1A       		.uleb128 0x1a
 1386 08ae 01       		.uleb128 0x1
 1387 08af 51       		.byte	0x51
 1388 08b0 01       		.uleb128 0x1
 1389 08b1 49       		.byte	0x49
 1390 08b2 00       		.byte	0
 1391 08b3 19       		.uleb128 0x19
 1392 08b4 80000000 		.4byte	.LVL8
 1393 08b8 010B0000 		.4byte	0xb01
 1394 08bc CD080000 		.4byte	0x8cd
 1395 08c0 1A       		.uleb128 0x1a
 1396 08c1 01       		.uleb128 0x1
 1397 08c2 52       		.byte	0x52
 1398 08c3 02       		.uleb128 0x2
 1399 08c4 09       		.byte	0x9
 1400 08c5 FF       		.byte	0xff
 1401 08c6 1A       		.uleb128 0x1a
 1402 08c7 01       		.uleb128 0x1
 1403 08c8 51       		.byte	0x51
 1404 08c9 02       		.uleb128 0x2
 1405 08ca 08       		.byte	0x8
 1406 08cb 20       		.byte	0x20
 1407 08cc 00       		.byte	0
 1408 08cd 19       		.uleb128 0x19
 1409 08ce 88000000 		.4byte	.LVL9
ARM GAS  /var/folders/2d/mv7wzxg53m36fj1flyq1gqvm0000gn/T//cciRocmp.s 			page 26


 1410 08d2 270B0000 		.4byte	0xb27
 1411 08d6 E0080000 		.4byte	0x8e0
 1412 08da 1A       		.uleb128 0x1a
 1413 08db 01       		.uleb128 0x1
 1414 08dc 50       		.byte	0x50
 1415 08dd 01       		.uleb128 0x1
 1416 08de 3A       		.byte	0x3a
 1417 08df 00       		.byte	0
 1418 08e0 19       		.uleb128 0x19
 1419 08e1 98000000 		.4byte	.LVL10
 1420 08e5 390B0000 		.4byte	0xb39
 1421 08e9 FD080000 		.4byte	0x8fd
 1422 08ed 1A       		.uleb128 0x1a
 1423 08ee 01       		.uleb128 0x1
 1424 08ef 52       		.byte	0x52
 1425 08f0 02       		.uleb128 0x2
 1426 08f1 74       		.byte	0x74
 1427 08f2 00       		.sleb128 0
 1428 08f3 1A       		.uleb128 0x1a
 1429 08f4 01       		.uleb128 0x1
 1430 08f5 51       		.byte	0x51
 1431 08f6 05       		.uleb128 0x5
 1432 08f7 03       		.byte	0x3
 1433 08f8 0C000000 		.4byte	.LC1
 1434 08fc 00       		.byte	0
 1435 08fd 1B       		.uleb128 0x1b
 1436 08fe A8000000 		.4byte	.LVL13
 1437 0902 270B0000 		.4byte	0xb27
 1438 0906 1A       		.uleb128 0x1a
 1439 0907 01       		.uleb128 0x1
 1440 0908 50       		.byte	0x50
 1441 0909 03       		.uleb128 0x3
 1442 090a 0A       		.byte	0xa
 1443 090b D007     		.2byte	0x7d0
 1444 090d 00       		.byte	0
 1445 090e 00       		.byte	0
 1446 090f 1C       		.uleb128 0x1c
 1447 0910 85020000 		.4byte	.LASF125
 1448 0914 01       		.byte	0x1
 1449 0915 34       		.byte	0x34
 1450 0916 25000000 		.4byte	0x25
 1451 091a 00000000 		.4byte	.LFB8
 1452 091e 10010000 		.4byte	.LFE8-.LFB8
 1453 0922 01       		.uleb128 0x1
 1454 0923 9C       		.byte	0x9c
 1455 0924 BA0A0000 		.4byte	0xaba
 1456 0928 1D       		.uleb128 0x1d
 1457 0929 77010000 		.4byte	.LASF110
 1458 092d 01       		.byte	0x1
 1459 092e 38       		.byte	0x38
 1460 092f BA0A0000 		.4byte	0xaba
 1461 0933 02       		.uleb128 0x2
 1462 0934 91       		.byte	0x91
 1463 0935 5C       		.sleb128 -36
 1464 0936 1E       		.uleb128 0x1e
 1465 0937 10000000 		.4byte	.LVL14
 1466 093b 560B0000 		.4byte	0xb56
ARM GAS  /var/folders/2d/mv7wzxg53m36fj1flyq1gqvm0000gn/T//cciRocmp.s 			page 27


 1467 093f 1E       		.uleb128 0x1e
 1468 0940 14000000 		.4byte	.LVL15
 1469 0944 5D0B0000 		.4byte	0xb5d
 1470 0948 19       		.uleb128 0x19
 1471 0949 40000000 		.4byte	.LVL16
 1472 094d 640B0000 		.4byte	0xb64
 1473 0951 62090000 		.4byte	0x962
 1474 0955 1A       		.uleb128 0x1a
 1475 0956 01       		.uleb128 0x1
 1476 0957 51       		.byte	0x51
 1477 0958 02       		.uleb128 0x2
 1478 0959 76       		.byte	0x76
 1479 095a 00       		.sleb128 0
 1480 095b 1A       		.uleb128 0x1a
 1481 095c 01       		.uleb128 0x1
 1482 095d 50       		.byte	0x50
 1483 095e 02       		.uleb128 0x2
 1484 095f 75       		.byte	0x75
 1485 0960 00       		.sleb128 0
 1486 0961 00       		.byte	0
 1487 0962 19       		.uleb128 0x19
 1488 0963 4C000000 		.4byte	.LVL17
 1489 0967 390B0000 		.4byte	0xb39
 1490 096b 7F090000 		.4byte	0x97f
 1491 096f 1A       		.uleb128 0x1a
 1492 0970 01       		.uleb128 0x1
 1493 0971 51       		.byte	0x51
 1494 0972 05       		.uleb128 0x5
 1495 0973 03       		.byte	0x3
 1496 0974 18000000 		.4byte	.LC3
 1497 0978 1A       		.uleb128 0x1a
 1498 0979 01       		.uleb128 0x1
 1499 097a 50       		.byte	0x50
 1500 097b 02       		.uleb128 0x2
 1501 097c 75       		.byte	0x75
 1502 097d 00       		.sleb128 0
 1503 097e 00       		.byte	0
 1504 097f 19       		.uleb128 0x19
 1505 0980 5C000000 		.4byte	.LVL18
 1506 0984 010B0000 		.4byte	0xb01
 1507 0988 9F090000 		.4byte	0x99f
 1508 098c 1A       		.uleb128 0x1a
 1509 098d 01       		.uleb128 0x1
 1510 098e 52       		.byte	0x52
 1511 098f 02       		.uleb128 0x2
 1512 0990 09       		.byte	0x9
 1513 0991 FF       		.byte	0xff
 1514 0992 1A       		.uleb128 0x1a
 1515 0993 01       		.uleb128 0x1
 1516 0994 51       		.byte	0x51
 1517 0995 02       		.uleb128 0x2
 1518 0996 08       		.byte	0x8
 1519 0997 7C       		.byte	0x7c
 1520 0998 1A       		.uleb128 0x1a
 1521 0999 01       		.uleb128 0x1
 1522 099a 50       		.byte	0x50
 1523 099b 02       		.uleb128 0x2
ARM GAS  /var/folders/2d/mv7wzxg53m36fj1flyq1gqvm0000gn/T//cciRocmp.s 			page 28


 1524 099c 74       		.byte	0x74
 1525 099d 00       		.sleb128 0
 1526 099e 00       		.byte	0
 1527 099f 19       		.uleb128 0x19
 1528 09a0 6C000000 		.4byte	.LVL19
 1529 09a4 010B0000 		.4byte	0xb01
 1530 09a8 BE090000 		.4byte	0x9be
 1531 09ac 1A       		.uleb128 0x1a
 1532 09ad 01       		.uleb128 0x1
 1533 09ae 52       		.byte	0x52
 1534 09af 02       		.uleb128 0x2
 1535 09b0 09       		.byte	0x9
 1536 09b1 FF       		.byte	0xff
 1537 09b2 1A       		.uleb128 0x1a
 1538 09b3 01       		.uleb128 0x1
 1539 09b4 51       		.byte	0x51
 1540 09b5 01       		.uleb128 0x1
 1541 09b6 48       		.byte	0x48
 1542 09b7 1A       		.uleb128 0x1a
 1543 09b8 01       		.uleb128 0x1
 1544 09b9 50       		.byte	0x50
 1545 09ba 02       		.uleb128 0x2
 1546 09bb 74       		.byte	0x74
 1547 09bc 00       		.sleb128 0
 1548 09bd 00       		.byte	0
 1549 09be 19       		.uleb128 0x19
 1550 09bf 7C000000 		.4byte	.LVL20
 1551 09c3 010B0000 		.4byte	0xb01
 1552 09c7 DE090000 		.4byte	0x9de
 1553 09cb 1A       		.uleb128 0x1a
 1554 09cc 01       		.uleb128 0x1
 1555 09cd 52       		.byte	0x52
 1556 09ce 02       		.uleb128 0x2
 1557 09cf 09       		.byte	0x9
 1558 09d0 FF       		.byte	0xff
 1559 09d1 1A       		.uleb128 0x1a
 1560 09d2 01       		.uleb128 0x1
 1561 09d3 51       		.byte	0x51
 1562 09d4 02       		.uleb128 0x2
 1563 09d5 76       		.byte	0x76
 1564 09d6 00       		.sleb128 0
 1565 09d7 1A       		.uleb128 0x1a
 1566 09d8 01       		.uleb128 0x1
 1567 09d9 50       		.byte	0x50
 1568 09da 02       		.uleb128 0x2
 1569 09db 74       		.byte	0x74
 1570 09dc 00       		.sleb128 0
 1571 09dd 00       		.byte	0
 1572 09de 19       		.uleb128 0x19
 1573 09df 84000000 		.4byte	.LVL21
 1574 09e3 270B0000 		.4byte	0xb27
 1575 09e7 F1090000 		.4byte	0x9f1
 1576 09eb 1A       		.uleb128 0x1a
 1577 09ec 01       		.uleb128 0x1
 1578 09ed 50       		.byte	0x50
 1579 09ee 01       		.uleb128 0x1
 1580 09ef 3A       		.byte	0x3a
ARM GAS  /var/folders/2d/mv7wzxg53m36fj1flyq1gqvm0000gn/T//cciRocmp.s 			page 29


 1581 09f0 00       		.byte	0
 1582 09f1 19       		.uleb128 0x19
 1583 09f2 94000000 		.4byte	.LVL22
 1584 09f6 010B0000 		.4byte	0xb01
 1585 09fa 110A0000 		.4byte	0xa11
 1586 09fe 1A       		.uleb128 0x1a
 1587 09ff 01       		.uleb128 0x1
 1588 0a00 52       		.byte	0x52
 1589 0a01 02       		.uleb128 0x2
 1590 0a02 09       		.byte	0x9
 1591 0a03 FF       		.byte	0xff
 1592 0a04 1A       		.uleb128 0x1a
 1593 0a05 01       		.uleb128 0x1
 1594 0a06 51       		.byte	0x51
 1595 0a07 02       		.uleb128 0x2
 1596 0a08 08       		.byte	0x8
 1597 0a09 7C       		.byte	0x7c
 1598 0a0a 1A       		.uleb128 0x1a
 1599 0a0b 01       		.uleb128 0x1
 1600 0a0c 50       		.byte	0x50
 1601 0a0d 02       		.uleb128 0x2
 1602 0a0e 74       		.byte	0x74
 1603 0a0f 00       		.sleb128 0
 1604 0a10 00       		.byte	0
 1605 0a11 19       		.uleb128 0x19
 1606 0a12 A4000000 		.4byte	.LVL23
 1607 0a16 010B0000 		.4byte	0xb01
 1608 0a1a 300A0000 		.4byte	0xa30
 1609 0a1e 1A       		.uleb128 0x1a
 1610 0a1f 01       		.uleb128 0x1
 1611 0a20 52       		.byte	0x52
 1612 0a21 02       		.uleb128 0x2
 1613 0a22 09       		.byte	0x9
 1614 0a23 FF       		.byte	0xff
 1615 0a24 1A       		.uleb128 0x1a
 1616 0a25 01       		.uleb128 0x1
 1617 0a26 51       		.byte	0x51
 1618 0a27 01       		.uleb128 0x1
 1619 0a28 49       		.byte	0x49
 1620 0a29 1A       		.uleb128 0x1a
 1621 0a2a 01       		.uleb128 0x1
 1622 0a2b 50       		.byte	0x50
 1623 0a2c 02       		.uleb128 0x2
 1624 0a2d 74       		.byte	0x74
 1625 0a2e 00       		.sleb128 0
 1626 0a2f 00       		.byte	0
 1627 0a30 19       		.uleb128 0x19
 1628 0a31 B4000000 		.4byte	.LVL24
 1629 0a35 010B0000 		.4byte	0xb01
 1630 0a39 4F0A0000 		.4byte	0xa4f
 1631 0a3d 1A       		.uleb128 0x1a
 1632 0a3e 01       		.uleb128 0x1
 1633 0a3f 52       		.byte	0x52
 1634 0a40 02       		.uleb128 0x2
 1635 0a41 09       		.byte	0x9
 1636 0a42 FF       		.byte	0xff
 1637 0a43 1A       		.uleb128 0x1a
ARM GAS  /var/folders/2d/mv7wzxg53m36fj1flyq1gqvm0000gn/T//cciRocmp.s 			page 30


 1638 0a44 01       		.uleb128 0x1
 1639 0a45 51       		.byte	0x51
 1640 0a46 01       		.uleb128 0x1
 1641 0a47 3A       		.byte	0x3a
 1642 0a48 1A       		.uleb128 0x1a
 1643 0a49 01       		.uleb128 0x1
 1644 0a4a 50       		.byte	0x50
 1645 0a4b 02       		.uleb128 0x2
 1646 0a4c 74       		.byte	0x74
 1647 0a4d 00       		.sleb128 0
 1648 0a4e 00       		.byte	0
 1649 0a4f 19       		.uleb128 0x19
 1650 0a50 BC000000 		.4byte	.LVL25
 1651 0a54 270B0000 		.4byte	0xb27
 1652 0a58 620A0000 		.4byte	0xa62
 1653 0a5c 1A       		.uleb128 0x1a
 1654 0a5d 01       		.uleb128 0x1
 1655 0a5e 50       		.byte	0x50
 1656 0a5f 01       		.uleb128 0x1
 1657 0a60 3A       		.byte	0x3a
 1658 0a61 00       		.byte	0
 1659 0a62 19       		.uleb128 0x19
 1660 0a63 C8000000 		.4byte	.LVL26
 1661 0a67 390B0000 		.4byte	0xb39
 1662 0a6b 7C0A0000 		.4byte	0xa7c
 1663 0a6f 1A       		.uleb128 0x1a
 1664 0a70 01       		.uleb128 0x1
 1665 0a71 51       		.byte	0x51
 1666 0a72 02       		.uleb128 0x2
 1667 0a73 91       		.byte	0x91
 1668 0a74 54       		.sleb128 -44
 1669 0a75 1A       		.uleb128 0x1a
 1670 0a76 01       		.uleb128 0x1
 1671 0a77 50       		.byte	0x50
 1672 0a78 02       		.uleb128 0x2
 1673 0a79 75       		.byte	0x75
 1674 0a7a 00       		.sleb128 0
 1675 0a7b 00       		.byte	0
 1676 0a7c 19       		.uleb128 0x19
 1677 0a7d E0000000 		.4byte	.LVL27
 1678 0a81 8C0B0000 		.4byte	0xb8c
 1679 0a85 B00A0000 		.4byte	0xab0
 1680 0a89 1A       		.uleb128 0x1a
 1681 0a8a 01       		.uleb128 0x1
 1682 0a8b 53       		.byte	0x53
 1683 0a8c 05       		.uleb128 0x5
 1684 0a8d 03       		.byte	0x3
 1685 0a8e 00000000 		.4byte	Thread_LCD
 1686 0a92 1A       		.uleb128 0x1a
 1687 0a93 01       		.uleb128 0x1
 1688 0a94 52       		.byte	0x52
 1689 0a95 02       		.uleb128 0x2
 1690 0a96 08       		.byte	0x8
 1691 0a97 7F       		.byte	0x7f
 1692 0a98 1A       		.uleb128 0x1a
 1693 0a99 01       		.uleb128 0x1
 1694 0a9a 51       		.byte	0x51
ARM GAS  /var/folders/2d/mv7wzxg53m36fj1flyq1gqvm0000gn/T//cciRocmp.s 			page 31


 1695 0a9b 03       		.uleb128 0x3
 1696 0a9c 0A       		.byte	0xa
 1697 0a9d 1801     		.2byte	0x118
 1698 0a9f 1A       		.uleb128 0x1a
 1699 0aa0 01       		.uleb128 0x1
 1700 0aa1 50       		.byte	0x50
 1701 0aa2 05       		.uleb128 0x5
 1702 0aa3 03       		.byte	0x3
 1703 0aa4 00000000 		.4byte	.LANCHOR0
 1704 0aa8 1A       		.uleb128 0x1a
 1705 0aa9 02       		.uleb128 0x2
 1706 0aaa 7D       		.byte	0x7d
 1707 0aab 00       		.sleb128 0
 1708 0aac 02       		.uleb128 0x2
 1709 0aad 76       		.byte	0x76
 1710 0aae 00       		.sleb128 0
 1711 0aaf 00       		.byte	0
 1712 0ab0 1E       		.uleb128 0x1e
 1713 0ab1 EC000000 		.4byte	.LVL28
 1714 0ab5 B60B0000 		.4byte	0xbb6
 1715 0ab9 00       		.byte	0
 1716 0aba 14       		.uleb128 0x14
 1717 0abb 7D040000 		.4byte	0x47d
 1718 0abf CA0A0000 		.4byte	0xaca
 1719 0ac3 15       		.uleb128 0x15
 1720 0ac4 AA040000 		.4byte	0x4aa
 1721 0ac8 11       		.byte	0x11
 1722 0ac9 00       		.byte	0
 1723 0aca 14       		.uleb128 0x14
 1724 0acb 7F020000 		.4byte	0x27f
 1725 0acf DA0A0000 		.4byte	0xada
 1726 0ad3 15       		.uleb128 0x15
 1727 0ad4 AA040000 		.4byte	0x4aa
 1728 0ad8 45       		.byte	0x45
 1729 0ad9 00       		.byte	0
 1730 0ada 1D       		.uleb128 0x1d
 1731 0adb 30020000 		.4byte	.LASF111
 1732 0adf 01       		.byte	0x1
 1733 0ae0 19       		.byte	0x19
 1734 0ae1 CA0A0000 		.4byte	0xaca
 1735 0ae5 05       		.uleb128 0x5
 1736 0ae6 03       		.byte	0x3
 1737 0ae7 00000000 		.4byte	waThread_LCD
 1738 0aeb 1F       		.uleb128 0x1f
 1739 0aec 20050000 		.4byte	.LASF112
 1740 0af0 09       		.byte	0x9
 1741 0af1 68       		.byte	0x68
 1742 0af2 7E030000 		.4byte	0x37e
 1743 0af6 20       		.uleb128 0x20
 1744 0af7 53443100 		.ascii	"SD1\000"
 1745 0afb 0F       		.byte	0xf
 1746 0afc 62       		.byte	0x62
 1747 0afd D9060000 		.4byte	0x6d9
 1748 0b01 21       		.uleb128 0x21
 1749 0b02 00000000 		.4byte	.LASF118
 1750 0b06 0C       		.byte	0xc
 1751 0b07 6601     		.2byte	0x166
ARM GAS  /var/folders/2d/mv7wzxg53m36fj1flyq1gqvm0000gn/T//cciRocmp.s 			page 32


 1752 0b09 05010000 		.4byte	0x105
 1753 0b0d 210B0000 		.4byte	0xb21
 1754 0b11 10       		.uleb128 0x10
 1755 0b12 210B0000 		.4byte	0xb21
 1756 0b16 10       		.uleb128 0x10
 1757 0b17 A2000000 		.4byte	0xa2
 1758 0b1b 10       		.uleb128 0x10
 1759 0b1c 26010000 		.4byte	0x126
 1760 0b20 00       		.byte	0
 1761 0b21 09       		.uleb128 0x9
 1762 0b22 04       		.byte	0x4
 1763 0b23 5C050000 		.4byte	0x55c
 1764 0b27 22       		.uleb128 0x22
 1765 0b28 C7020000 		.4byte	.LASF113
 1766 0b2c 07       		.byte	0x7
 1767 0b2d 6901     		.2byte	0x169
 1768 0b2f 390B0000 		.4byte	0xb39
 1769 0b33 10       		.uleb128 0x10
 1770 0b34 26010000 		.4byte	0x126
 1771 0b38 00       		.byte	0
 1772 0b39 23       		.uleb128 0x23
 1773 0b3a 71050000 		.4byte	.LASF114
 1774 0b3e 10       		.byte	0x10
 1775 0b3f 2A       		.byte	0x2a
 1776 0b40 500B0000 		.4byte	0xb50
 1777 0b44 10       		.uleb128 0x10
 1778 0b45 500B0000 		.4byte	0xb50
 1779 0b49 10       		.uleb128 0x10
 1780 0b4a 72040000 		.4byte	0x472
 1781 0b4e 24       		.uleb128 0x24
 1782 0b4f 00       		.byte	0
 1783 0b50 09       		.uleb128 0x9
 1784 0b51 04       		.byte	0x4
 1785 0b52 27060000 		.4byte	0x627
 1786 0b56 25       		.uleb128 0x25
 1787 0b57 A6010000 		.4byte	.LASF115
 1788 0b5b 11       		.byte	0x11
 1789 0b5c C9       		.byte	0xc9
 1790 0b5d 25       		.uleb128 0x25
 1791 0b5e 9C000000 		.4byte	.LASF116
 1792 0b62 12       		.byte	0x12
 1793 0b63 EF       		.byte	0xef
 1794 0b64 22       		.uleb128 0x22
 1795 0b65 8F040000 		.4byte	.LASF117
 1796 0b69 0E       		.byte	0xe
 1797 0b6a 3201     		.2byte	0x132
 1798 0b6c 7B0B0000 		.4byte	0xb7b
 1799 0b70 10       		.uleb128 0x10
 1800 0b71 7B0B0000 		.4byte	0xb7b
 1801 0b75 10       		.uleb128 0x10
 1802 0b76 810B0000 		.4byte	0xb81
 1803 0b7a 00       		.byte	0
 1804 0b7b 09       		.uleb128 0x9
 1805 0b7c 04       		.byte	0x4
 1806 0b7d D9060000 		.4byte	0x6d9
 1807 0b81 09       		.uleb128 0x9
 1808 0b82 04       		.byte	0x4
ARM GAS  /var/folders/2d/mv7wzxg53m36fj1flyq1gqvm0000gn/T//cciRocmp.s 			page 33


 1809 0b83 870B0000 		.4byte	0xb87
 1810 0b87 0E       		.uleb128 0xe
 1811 0b88 58070000 		.4byte	0x758
 1812 0b8c 21       		.uleb128 0x21
 1813 0b8d 55020000 		.4byte	.LASF119
 1814 0b91 07       		.byte	0x7
 1815 0b92 6401     		.2byte	0x164
 1816 0b94 4E020000 		.4byte	0x24e
 1817 0b98 B60B0000 		.4byte	0xbb6
 1818 0b9c 10       		.uleb128 0x10
 1819 0b9d 95020000 		.4byte	0x295
 1820 0ba1 10       		.uleb128 0x10
 1821 0ba2 2C000000 		.4byte	0x2c
 1822 0ba6 10       		.uleb128 0x10
 1823 0ba7 FA000000 		.4byte	0xfa
 1824 0bab 10       		.uleb128 0x10
 1825 0bac 8A040000 		.4byte	0x48a
 1826 0bb0 10       		.uleb128 0x10
 1827 0bb1 95020000 		.4byte	0x295
 1828 0bb5 00       		.byte	0
 1829 0bb6 26       		.uleb128 0x26
 1830 0bb7 EA040000 		.4byte	.LASF120
 1831 0bbb 07       		.byte	0x7
 1832 0bbc 6F01     		.2byte	0x16f
 1833 0bbe 05010000 		.4byte	0x105
 1834 0bc2 10       		.uleb128 0x10
 1835 0bc3 4E020000 		.4byte	0x24e
 1836 0bc7 00       		.byte	0
 1837 0bc8 00       		.byte	0
 1838              		.section	.debug_abbrev,"",%progbits
 1839              	.Ldebug_abbrev0:
 1840 0000 01       		.uleb128 0x1
 1841 0001 11       		.uleb128 0x11
 1842 0002 01       		.byte	0x1
 1843 0003 25       		.uleb128 0x25
 1844 0004 0E       		.uleb128 0xe
 1845 0005 13       		.uleb128 0x13
 1846 0006 0B       		.uleb128 0xb
 1847 0007 03       		.uleb128 0x3
 1848 0008 0E       		.uleb128 0xe
 1849 0009 1B       		.uleb128 0x1b
 1850 000a 0E       		.uleb128 0xe
 1851 000b 55       		.uleb128 0x55
 1852 000c 17       		.uleb128 0x17
 1853 000d 11       		.uleb128 0x11
 1854 000e 01       		.uleb128 0x1
 1855 000f 10       		.uleb128 0x10
 1856 0010 17       		.uleb128 0x17
 1857 0011 00       		.byte	0
 1858 0012 00       		.byte	0
 1859 0013 02       		.uleb128 0x2
 1860 0014 24       		.uleb128 0x24
 1861 0015 00       		.byte	0
 1862 0016 0B       		.uleb128 0xb
 1863 0017 0B       		.uleb128 0xb
 1864 0018 3E       		.uleb128 0x3e
 1865 0019 0B       		.uleb128 0xb
ARM GAS  /var/folders/2d/mv7wzxg53m36fj1flyq1gqvm0000gn/T//cciRocmp.s 			page 34


 1866 001a 03       		.uleb128 0x3
 1867 001b 08       		.uleb128 0x8
 1868 001c 00       		.byte	0
 1869 001d 00       		.byte	0
 1870 001e 03       		.uleb128 0x3
 1871 001f 16       		.uleb128 0x16
 1872 0020 00       		.byte	0
 1873 0021 03       		.uleb128 0x3
 1874 0022 0E       		.uleb128 0xe
 1875 0023 3A       		.uleb128 0x3a
 1876 0024 0B       		.uleb128 0xb
 1877 0025 3B       		.uleb128 0x3b
 1878 0026 0B       		.uleb128 0xb
 1879 0027 49       		.uleb128 0x49
 1880 0028 13       		.uleb128 0x13
 1881 0029 00       		.byte	0
 1882 002a 00       		.byte	0
 1883 002b 04       		.uleb128 0x4
 1884 002c 24       		.uleb128 0x24
 1885 002d 00       		.byte	0
 1886 002e 0B       		.uleb128 0xb
 1887 002f 0B       		.uleb128 0xb
 1888 0030 3E       		.uleb128 0x3e
 1889 0031 0B       		.uleb128 0xb
 1890 0032 03       		.uleb128 0x3
 1891 0033 0E       		.uleb128 0xe
 1892 0034 00       		.byte	0
 1893 0035 00       		.byte	0
 1894 0036 05       		.uleb128 0x5
 1895 0037 13       		.uleb128 0x13
 1896 0038 01       		.byte	0x1
 1897 0039 03       		.uleb128 0x3
 1898 003a 0E       		.uleb128 0xe
 1899 003b 0B       		.uleb128 0xb
 1900 003c 0B       		.uleb128 0xb
 1901 003d 3A       		.uleb128 0x3a
 1902 003e 0B       		.uleb128 0xb
 1903 003f 3B       		.uleb128 0x3b
 1904 0040 0B       		.uleb128 0xb
 1905 0041 01       		.uleb128 0x1
 1906 0042 13       		.uleb128 0x13
 1907 0043 00       		.byte	0
 1908 0044 00       		.byte	0
 1909 0045 06       		.uleb128 0x6
 1910 0046 0D       		.uleb128 0xd
 1911 0047 00       		.byte	0
 1912 0048 03       		.uleb128 0x3
 1913 0049 0E       		.uleb128 0xe
 1914 004a 3A       		.uleb128 0x3a
 1915 004b 0B       		.uleb128 0xb
 1916 004c 3B       		.uleb128 0x3b
 1917 004d 0B       		.uleb128 0xb
 1918 004e 49       		.uleb128 0x49
 1919 004f 13       		.uleb128 0x13
 1920 0050 38       		.uleb128 0x38
 1921 0051 0B       		.uleb128 0xb
 1922 0052 00       		.byte	0
ARM GAS  /var/folders/2d/mv7wzxg53m36fj1flyq1gqvm0000gn/T//cciRocmp.s 			page 35


 1923 0053 00       		.byte	0
 1924 0054 07       		.uleb128 0x7
 1925 0055 0D       		.uleb128 0xd
 1926 0056 00       		.byte	0
 1927 0057 03       		.uleb128 0x3
 1928 0058 08       		.uleb128 0x8
 1929 0059 3A       		.uleb128 0x3a
 1930 005a 0B       		.uleb128 0xb
 1931 005b 3B       		.uleb128 0x3b
 1932 005c 0B       		.uleb128 0xb
 1933 005d 49       		.uleb128 0x49
 1934 005e 13       		.uleb128 0x13
 1935 005f 38       		.uleb128 0x38
 1936 0060 0B       		.uleb128 0xb
 1937 0061 00       		.byte	0
 1938 0062 00       		.byte	0
 1939 0063 08       		.uleb128 0x8
 1940 0064 13       		.uleb128 0x13
 1941 0065 01       		.byte	0x1
 1942 0066 0B       		.uleb128 0xb
 1943 0067 0B       		.uleb128 0xb
 1944 0068 3A       		.uleb128 0x3a
 1945 0069 0B       		.uleb128 0xb
 1946 006a 3B       		.uleb128 0x3b
 1947 006b 0B       		.uleb128 0xb
 1948 006c 01       		.uleb128 0x1
 1949 006d 13       		.uleb128 0x13
 1950 006e 00       		.byte	0
 1951 006f 00       		.byte	0
 1952 0070 09       		.uleb128 0x9
 1953 0071 0F       		.uleb128 0xf
 1954 0072 00       		.byte	0
 1955 0073 0B       		.uleb128 0xb
 1956 0074 0B       		.uleb128 0xb
 1957 0075 49       		.uleb128 0x49
 1958 0076 13       		.uleb128 0x13
 1959 0077 00       		.byte	0
 1960 0078 00       		.byte	0
 1961 0079 0A       		.uleb128 0xa
 1962 007a 0F       		.uleb128 0xf
 1963 007b 00       		.byte	0
 1964 007c 0B       		.uleb128 0xb
 1965 007d 0B       		.uleb128 0xb
 1966 007e 00       		.byte	0
 1967 007f 00       		.byte	0
 1968 0080 0B       		.uleb128 0xb
 1969 0081 35       		.uleb128 0x35
 1970 0082 00       		.byte	0
 1971 0083 49       		.uleb128 0x49
 1972 0084 13       		.uleb128 0x13
 1973 0085 00       		.byte	0
 1974 0086 00       		.byte	0
 1975 0087 0C       		.uleb128 0xc
 1976 0088 17       		.uleb128 0x17
 1977 0089 01       		.byte	0x1
 1978 008a 0B       		.uleb128 0xb
 1979 008b 0B       		.uleb128 0xb
ARM GAS  /var/folders/2d/mv7wzxg53m36fj1flyq1gqvm0000gn/T//cciRocmp.s 			page 36


 1980 008c 3A       		.uleb128 0x3a
 1981 008d 0B       		.uleb128 0xb
 1982 008e 3B       		.uleb128 0x3b
 1983 008f 0B       		.uleb128 0xb
 1984 0090 01       		.uleb128 0x1
 1985 0091 13       		.uleb128 0x13
 1986 0092 00       		.byte	0
 1987 0093 00       		.byte	0
 1988 0094 0D       		.uleb128 0xd
 1989 0095 0D       		.uleb128 0xd
 1990 0096 00       		.byte	0
 1991 0097 03       		.uleb128 0x3
 1992 0098 0E       		.uleb128 0xe
 1993 0099 3A       		.uleb128 0x3a
 1994 009a 0B       		.uleb128 0xb
 1995 009b 3B       		.uleb128 0x3b
 1996 009c 0B       		.uleb128 0xb
 1997 009d 49       		.uleb128 0x49
 1998 009e 13       		.uleb128 0x13
 1999 009f 00       		.byte	0
 2000 00a0 00       		.byte	0
 2001 00a1 0E       		.uleb128 0xe
 2002 00a2 26       		.uleb128 0x26
 2003 00a3 00       		.byte	0
 2004 00a4 49       		.uleb128 0x49
 2005 00a5 13       		.uleb128 0x13
 2006 00a6 00       		.byte	0
 2007 00a7 00       		.byte	0
 2008 00a8 0F       		.uleb128 0xf
 2009 00a9 15       		.uleb128 0x15
 2010 00aa 01       		.byte	0x1
 2011 00ab 27       		.uleb128 0x27
 2012 00ac 19       		.uleb128 0x19
 2013 00ad 49       		.uleb128 0x49
 2014 00ae 13       		.uleb128 0x13
 2015 00af 01       		.uleb128 0x1
 2016 00b0 13       		.uleb128 0x13
 2017 00b1 00       		.byte	0
 2018 00b2 00       		.byte	0
 2019 00b3 10       		.uleb128 0x10
 2020 00b4 05       		.uleb128 0x5
 2021 00b5 00       		.byte	0
 2022 00b6 49       		.uleb128 0x49
 2023 00b7 13       		.uleb128 0x13
 2024 00b8 00       		.byte	0
 2025 00b9 00       		.byte	0
 2026 00ba 11       		.uleb128 0x11
 2027 00bb 15       		.uleb128 0x15
 2028 00bc 01       		.byte	0x1
 2029 00bd 27       		.uleb128 0x27
 2030 00be 19       		.uleb128 0x19
 2031 00bf 01       		.uleb128 0x1
 2032 00c0 13       		.uleb128 0x13
 2033 00c1 00       		.byte	0
 2034 00c2 00       		.byte	0
 2035 00c3 12       		.uleb128 0x12
 2036 00c4 04       		.uleb128 0x4
ARM GAS  /var/folders/2d/mv7wzxg53m36fj1flyq1gqvm0000gn/T//cciRocmp.s 			page 37


 2037 00c5 01       		.byte	0x1
 2038 00c6 0B       		.uleb128 0xb
 2039 00c7 0B       		.uleb128 0xb
 2040 00c8 3A       		.uleb128 0x3a
 2041 00c9 0B       		.uleb128 0xb
 2042 00ca 3B       		.uleb128 0x3b
 2043 00cb 0B       		.uleb128 0xb
 2044 00cc 01       		.uleb128 0x1
 2045 00cd 13       		.uleb128 0x13
 2046 00ce 00       		.byte	0
 2047 00cf 00       		.byte	0
 2048 00d0 13       		.uleb128 0x13
 2049 00d1 28       		.uleb128 0x28
 2050 00d2 00       		.byte	0
 2051 00d3 03       		.uleb128 0x3
 2052 00d4 0E       		.uleb128 0xe
 2053 00d5 1C       		.uleb128 0x1c
 2054 00d6 0D       		.uleb128 0xd
 2055 00d7 00       		.byte	0
 2056 00d8 00       		.byte	0
 2057 00d9 14       		.uleb128 0x14
 2058 00da 01       		.uleb128 0x1
 2059 00db 01       		.byte	0x1
 2060 00dc 49       		.uleb128 0x49
 2061 00dd 13       		.uleb128 0x13
 2062 00de 01       		.uleb128 0x1
 2063 00df 13       		.uleb128 0x13
 2064 00e0 00       		.byte	0
 2065 00e1 00       		.byte	0
 2066 00e2 15       		.uleb128 0x15
 2067 00e3 21       		.uleb128 0x21
 2068 00e4 00       		.byte	0
 2069 00e5 49       		.uleb128 0x49
 2070 00e6 13       		.uleb128 0x13
 2071 00e7 2F       		.uleb128 0x2f
 2072 00e8 0B       		.uleb128 0xb
 2073 00e9 00       		.byte	0
 2074 00ea 00       		.byte	0
 2075 00eb 16       		.uleb128 0x16
 2076 00ec 2E       		.uleb128 0x2e
 2077 00ed 01       		.byte	0x1
 2078 00ee 03       		.uleb128 0x3
 2079 00ef 0E       		.uleb128 0xe
 2080 00f0 3A       		.uleb128 0x3a
 2081 00f1 0B       		.uleb128 0xb
 2082 00f2 3B       		.uleb128 0x3b
 2083 00f3 0B       		.uleb128 0xb
 2084 00f4 27       		.uleb128 0x27
 2085 00f5 19       		.uleb128 0x19
 2086 00f6 49       		.uleb128 0x49
 2087 00f7 13       		.uleb128 0x13
 2088 00f8 11       		.uleb128 0x11
 2089 00f9 01       		.uleb128 0x1
 2090 00fa 12       		.uleb128 0x12
 2091 00fb 06       		.uleb128 0x6
 2092 00fc 40       		.uleb128 0x40
 2093 00fd 18       		.uleb128 0x18
ARM GAS  /var/folders/2d/mv7wzxg53m36fj1flyq1gqvm0000gn/T//cciRocmp.s 			page 38


 2094 00fe 9742     		.uleb128 0x2117
 2095 0100 19       		.uleb128 0x19
 2096 0101 01       		.uleb128 0x1
 2097 0102 13       		.uleb128 0x13
 2098 0103 00       		.byte	0
 2099 0104 00       		.byte	0
 2100 0105 17       		.uleb128 0x17
 2101 0106 05       		.uleb128 0x5
 2102 0107 00       		.byte	0
 2103 0108 03       		.uleb128 0x3
 2104 0109 08       		.uleb128 0x8
 2105 010a 3A       		.uleb128 0x3a
 2106 010b 0B       		.uleb128 0xb
 2107 010c 3B       		.uleb128 0x3b
 2108 010d 0B       		.uleb128 0xb
 2109 010e 49       		.uleb128 0x49
 2110 010f 13       		.uleb128 0x13
 2111 0110 02       		.uleb128 0x2
 2112 0111 17       		.uleb128 0x17
 2113 0112 00       		.byte	0
 2114 0113 00       		.byte	0
 2115 0114 18       		.uleb128 0x18
 2116 0115 34       		.uleb128 0x34
 2117 0116 00       		.byte	0
 2118 0117 03       		.uleb128 0x3
 2119 0118 0E       		.uleb128 0xe
 2120 0119 3A       		.uleb128 0x3a
 2121 011a 0B       		.uleb128 0xb
 2122 011b 3B       		.uleb128 0x3b
 2123 011c 0B       		.uleb128 0xb
 2124 011d 49       		.uleb128 0x49
 2125 011e 13       		.uleb128 0x13
 2126 011f 02       		.uleb128 0x2
 2127 0120 17       		.uleb128 0x17
 2128 0121 00       		.byte	0
 2129 0122 00       		.byte	0
 2130 0123 19       		.uleb128 0x19
 2131 0124 898201   		.uleb128 0x4109
 2132 0127 01       		.byte	0x1
 2133 0128 11       		.uleb128 0x11
 2134 0129 01       		.uleb128 0x1
 2135 012a 31       		.uleb128 0x31
 2136 012b 13       		.uleb128 0x13
 2137 012c 01       		.uleb128 0x1
 2138 012d 13       		.uleb128 0x13
 2139 012e 00       		.byte	0
 2140 012f 00       		.byte	0
 2141 0130 1A       		.uleb128 0x1a
 2142 0131 8A8201   		.uleb128 0x410a
 2143 0134 00       		.byte	0
 2144 0135 02       		.uleb128 0x2
 2145 0136 18       		.uleb128 0x18
 2146 0137 9142     		.uleb128 0x2111
 2147 0139 18       		.uleb128 0x18
 2148 013a 00       		.byte	0
 2149 013b 00       		.byte	0
 2150 013c 1B       		.uleb128 0x1b
ARM GAS  /var/folders/2d/mv7wzxg53m36fj1flyq1gqvm0000gn/T//cciRocmp.s 			page 39


 2151 013d 898201   		.uleb128 0x4109
 2152 0140 01       		.byte	0x1
 2153 0141 11       		.uleb128 0x11
 2154 0142 01       		.uleb128 0x1
 2155 0143 31       		.uleb128 0x31
 2156 0144 13       		.uleb128 0x13
 2157 0145 00       		.byte	0
 2158 0146 00       		.byte	0
 2159 0147 1C       		.uleb128 0x1c
 2160 0148 2E       		.uleb128 0x2e
 2161 0149 01       		.byte	0x1
 2162 014a 3F       		.uleb128 0x3f
 2163 014b 19       		.uleb128 0x19
 2164 014c 03       		.uleb128 0x3
 2165 014d 0E       		.uleb128 0xe
 2166 014e 3A       		.uleb128 0x3a
 2167 014f 0B       		.uleb128 0xb
 2168 0150 3B       		.uleb128 0x3b
 2169 0151 0B       		.uleb128 0xb
 2170 0152 27       		.uleb128 0x27
 2171 0153 19       		.uleb128 0x19
 2172 0154 49       		.uleb128 0x49
 2173 0155 13       		.uleb128 0x13
 2174 0156 11       		.uleb128 0x11
 2175 0157 01       		.uleb128 0x1
 2176 0158 12       		.uleb128 0x12
 2177 0159 06       		.uleb128 0x6
 2178 015a 40       		.uleb128 0x40
 2179 015b 18       		.uleb128 0x18
 2180 015c 9742     		.uleb128 0x2117
 2181 015e 19       		.uleb128 0x19
 2182 015f 01       		.uleb128 0x1
 2183 0160 13       		.uleb128 0x13
 2184 0161 00       		.byte	0
 2185 0162 00       		.byte	0
 2186 0163 1D       		.uleb128 0x1d
 2187 0164 34       		.uleb128 0x34
 2188 0165 00       		.byte	0
 2189 0166 03       		.uleb128 0x3
 2190 0167 0E       		.uleb128 0xe
 2191 0168 3A       		.uleb128 0x3a
 2192 0169 0B       		.uleb128 0xb
 2193 016a 3B       		.uleb128 0x3b
 2194 016b 0B       		.uleb128 0xb
 2195 016c 49       		.uleb128 0x49
 2196 016d 13       		.uleb128 0x13
 2197 016e 02       		.uleb128 0x2
 2198 016f 18       		.uleb128 0x18
 2199 0170 00       		.byte	0
 2200 0171 00       		.byte	0
 2201 0172 1E       		.uleb128 0x1e
 2202 0173 898201   		.uleb128 0x4109
 2203 0176 00       		.byte	0
 2204 0177 11       		.uleb128 0x11
 2205 0178 01       		.uleb128 0x1
 2206 0179 31       		.uleb128 0x31
 2207 017a 13       		.uleb128 0x13
ARM GAS  /var/folders/2d/mv7wzxg53m36fj1flyq1gqvm0000gn/T//cciRocmp.s 			page 40


 2208 017b 00       		.byte	0
 2209 017c 00       		.byte	0
 2210 017d 1F       		.uleb128 0x1f
 2211 017e 34       		.uleb128 0x34
 2212 017f 00       		.byte	0
 2213 0180 03       		.uleb128 0x3
 2214 0181 0E       		.uleb128 0xe
 2215 0182 3A       		.uleb128 0x3a
 2216 0183 0B       		.uleb128 0xb
 2217 0184 3B       		.uleb128 0x3b
 2218 0185 0B       		.uleb128 0xb
 2219 0186 49       		.uleb128 0x49
 2220 0187 13       		.uleb128 0x13
 2221 0188 3F       		.uleb128 0x3f
 2222 0189 19       		.uleb128 0x19
 2223 018a 3C       		.uleb128 0x3c
 2224 018b 19       		.uleb128 0x19
 2225 018c 00       		.byte	0
 2226 018d 00       		.byte	0
 2227 018e 20       		.uleb128 0x20
 2228 018f 34       		.uleb128 0x34
 2229 0190 00       		.byte	0
 2230 0191 03       		.uleb128 0x3
 2231 0192 08       		.uleb128 0x8
 2232 0193 3A       		.uleb128 0x3a
 2233 0194 0B       		.uleb128 0xb
 2234 0195 3B       		.uleb128 0x3b
 2235 0196 0B       		.uleb128 0xb
 2236 0197 49       		.uleb128 0x49
 2237 0198 13       		.uleb128 0x13
 2238 0199 3F       		.uleb128 0x3f
 2239 019a 19       		.uleb128 0x19
 2240 019b 3C       		.uleb128 0x3c
 2241 019c 19       		.uleb128 0x19
 2242 019d 00       		.byte	0
 2243 019e 00       		.byte	0
 2244 019f 21       		.uleb128 0x21
 2245 01a0 2E       		.uleb128 0x2e
 2246 01a1 01       		.byte	0x1
 2247 01a2 3F       		.uleb128 0x3f
 2248 01a3 19       		.uleb128 0x19
 2249 01a4 03       		.uleb128 0x3
 2250 01a5 0E       		.uleb128 0xe
 2251 01a6 3A       		.uleb128 0x3a
 2252 01a7 0B       		.uleb128 0xb
 2253 01a8 3B       		.uleb128 0x3b
 2254 01a9 05       		.uleb128 0x5
 2255 01aa 27       		.uleb128 0x27
 2256 01ab 19       		.uleb128 0x19
 2257 01ac 49       		.uleb128 0x49
 2258 01ad 13       		.uleb128 0x13
 2259 01ae 3C       		.uleb128 0x3c
 2260 01af 19       		.uleb128 0x19
 2261 01b0 01       		.uleb128 0x1
 2262 01b1 13       		.uleb128 0x13
 2263 01b2 00       		.byte	0
 2264 01b3 00       		.byte	0
ARM GAS  /var/folders/2d/mv7wzxg53m36fj1flyq1gqvm0000gn/T//cciRocmp.s 			page 41


 2265 01b4 22       		.uleb128 0x22
 2266 01b5 2E       		.uleb128 0x2e
 2267 01b6 01       		.byte	0x1
 2268 01b7 3F       		.uleb128 0x3f
 2269 01b8 19       		.uleb128 0x19
 2270 01b9 03       		.uleb128 0x3
 2271 01ba 0E       		.uleb128 0xe
 2272 01bb 3A       		.uleb128 0x3a
 2273 01bc 0B       		.uleb128 0xb
 2274 01bd 3B       		.uleb128 0x3b
 2275 01be 05       		.uleb128 0x5
 2276 01bf 27       		.uleb128 0x27
 2277 01c0 19       		.uleb128 0x19
 2278 01c1 3C       		.uleb128 0x3c
 2279 01c2 19       		.uleb128 0x19
 2280 01c3 01       		.uleb128 0x1
 2281 01c4 13       		.uleb128 0x13
 2282 01c5 00       		.byte	0
 2283 01c6 00       		.byte	0
 2284 01c7 23       		.uleb128 0x23
 2285 01c8 2E       		.uleb128 0x2e
 2286 01c9 01       		.byte	0x1
 2287 01ca 3F       		.uleb128 0x3f
 2288 01cb 19       		.uleb128 0x19
 2289 01cc 03       		.uleb128 0x3
 2290 01cd 0E       		.uleb128 0xe
 2291 01ce 3A       		.uleb128 0x3a
 2292 01cf 0B       		.uleb128 0xb
 2293 01d0 3B       		.uleb128 0x3b
 2294 01d1 0B       		.uleb128 0xb
 2295 01d2 27       		.uleb128 0x27
 2296 01d3 19       		.uleb128 0x19
 2297 01d4 3C       		.uleb128 0x3c
 2298 01d5 19       		.uleb128 0x19
 2299 01d6 01       		.uleb128 0x1
 2300 01d7 13       		.uleb128 0x13
 2301 01d8 00       		.byte	0
 2302 01d9 00       		.byte	0
 2303 01da 24       		.uleb128 0x24
 2304 01db 18       		.uleb128 0x18
 2305 01dc 00       		.byte	0
 2306 01dd 00       		.byte	0
 2307 01de 00       		.byte	0
 2308 01df 25       		.uleb128 0x25
 2309 01e0 2E       		.uleb128 0x2e
 2310 01e1 00       		.byte	0
 2311 01e2 3F       		.uleb128 0x3f
 2312 01e3 19       		.uleb128 0x19
 2313 01e4 03       		.uleb128 0x3
 2314 01e5 0E       		.uleb128 0xe
 2315 01e6 3A       		.uleb128 0x3a
 2316 01e7 0B       		.uleb128 0xb
 2317 01e8 3B       		.uleb128 0x3b
 2318 01e9 0B       		.uleb128 0xb
 2319 01ea 27       		.uleb128 0x27
 2320 01eb 19       		.uleb128 0x19
 2321 01ec 3C       		.uleb128 0x3c
ARM GAS  /var/folders/2d/mv7wzxg53m36fj1flyq1gqvm0000gn/T//cciRocmp.s 			page 42


 2322 01ed 19       		.uleb128 0x19
 2323 01ee 00       		.byte	0
 2324 01ef 00       		.byte	0
 2325 01f0 26       		.uleb128 0x26
 2326 01f1 2E       		.uleb128 0x2e
 2327 01f2 01       		.byte	0x1
 2328 01f3 3F       		.uleb128 0x3f
 2329 01f4 19       		.uleb128 0x19
 2330 01f5 03       		.uleb128 0x3
 2331 01f6 0E       		.uleb128 0xe
 2332 01f7 3A       		.uleb128 0x3a
 2333 01f8 0B       		.uleb128 0xb
 2334 01f9 3B       		.uleb128 0x3b
 2335 01fa 05       		.uleb128 0x5
 2336 01fb 27       		.uleb128 0x27
 2337 01fc 19       		.uleb128 0x19
 2338 01fd 49       		.uleb128 0x49
 2339 01fe 13       		.uleb128 0x13
 2340 01ff 3C       		.uleb128 0x3c
 2341 0200 19       		.uleb128 0x19
 2342 0201 00       		.byte	0
 2343 0202 00       		.byte	0
 2344 0203 00       		.byte	0
 2345              		.section	.debug_loc,"",%progbits
 2346              	.Ldebug_loc0:
 2347              	.LLST0:
 2348 0000 00000000 		.4byte	.LVL0
 2349 0004 18000000 		.4byte	.LVL1
 2350 0008 0100     		.2byte	0x1
 2351 000a 50       		.byte	0x50
 2352 000b 18000000 		.4byte	.LVL1
 2353 000f C0000000 		.4byte	.LFE7
 2354 0013 0400     		.2byte	0x4
 2355 0015 F3       		.byte	0xf3
 2356 0016 01       		.uleb128 0x1
 2357 0017 50       		.byte	0x50
 2358 0018 9F       		.byte	0x9f
 2359 0019 00000000 		.4byte	0
 2360 001d 00000000 		.4byte	0
 2361              	.LLST1:
 2362 0021 18000000 		.4byte	.LVL1
 2363 0025 9C000000 		.4byte	.LVL11
 2364 0029 0100     		.2byte	0x1
 2365 002b 54       		.byte	0x54
 2366 002c A4000000 		.4byte	.LVL12
 2367 0030 C0000000 		.4byte	.LFE7
 2368 0034 0100     		.2byte	0x1
 2369 0036 54       		.byte	0x54
 2370 0037 00000000 		.4byte	0
 2371 003b 00000000 		.4byte	0
 2372              		.section	.debug_aranges,"",%progbits
 2373 0000 24000000 		.4byte	0x24
 2374 0004 0200     		.2byte	0x2
 2375 0006 00000000 		.4byte	.Ldebug_info0
 2376 000a 04       		.byte	0x4
 2377 000b 00       		.byte	0
 2378 000c 0000     		.2byte	0
ARM GAS  /var/folders/2d/mv7wzxg53m36fj1flyq1gqvm0000gn/T//cciRocmp.s 			page 43


 2379 000e 0000     		.2byte	0
 2380 0010 00000000 		.4byte	.LFB7
 2381 0014 C0000000 		.4byte	.LFE7-.LFB7
 2382 0018 00000000 		.4byte	.LFB8
 2383 001c 10010000 		.4byte	.LFE8-.LFB8
 2384 0020 00000000 		.4byte	0
 2385 0024 00000000 		.4byte	0
 2386              		.section	.debug_ranges,"",%progbits
 2387              	.Ldebug_ranges0:
 2388 0000 00000000 		.4byte	.LFB7
 2389 0004 C0000000 		.4byte	.LFE7
 2390 0008 00000000 		.4byte	.LFB8
 2391 000c 10010000 		.4byte	.LFE8
 2392 0010 00000000 		.4byte	0
 2393 0014 00000000 		.4byte	0
 2394              		.section	.debug_line,"",%progbits
 2395              	.Ldebug_line0:
 2396 0000 EB020000 		.section	.debug_str,"MS",%progbits,1
 2396      02005F02 
 2396      00000201 
 2396      FB0E0D00 
 2396      01010101 
 2397              	.LASF118:
 2398 0000 63684F51 		.ascii	"chOQPutTimeout\000"
 2398      50757454 
 2398      696D656F 
 2398      757400
 2399              	.LASF75:
 2400 000f 7466756E 		.ascii	"tfunc_t\000"
 2400      635F7400 
 2401              	.LASF42:
 2402 0017 705F6D73 		.ascii	"p_msg\000"
 2402      6700
 2403              	.LASF2:
 2404 001d 73697A65 		.ascii	"size_t\000"
 2404      5F7400
 2405              	.LASF70:
 2406 0024 7264796D 		.ascii	"rdymsg\000"
 2406      736700
 2407              	.LASF88:
 2408 002b 4F757470 		.ascii	"OutputQueue\000"
 2408      75745175 
 2408      65756500 
 2409              	.LASF3:
 2410 0037 5F5F7569 		.ascii	"__uint8_t\000"
 2410      6E74385F 
 2410      7400
 2411              	.LASF13:
 2412 0041 6C6F6E67 		.ascii	"long long unsigned int\000"
 2412      206C6F6E 
 2412      6720756E 
 2412      7369676E 
 2412      65642069 
 2413              	.LASF102:
 2414 0058 62617564 		.ascii	"baud_rate\000"
 2414      5F726174 
 2414      6500
ARM GAS  /var/folders/2d/mv7wzxg53m36fj1flyq1gqvm0000gn/T//cciRocmp.s 			page 44


 2415              	.LASF71:
 2416 0062 65786974 		.ascii	"exitcode\000"
 2416      636F6465 
 2416      00
 2417              	.LASF30:
 2418 006b 705F7072 		.ascii	"p_prio\000"
 2418      696F00
 2419              	.LASF108:
 2420 0072 72656164 		.ascii	"readt\000"
 2420      7400
 2421              	.LASF78:
 2422 0078 715F7761 		.ascii	"q_waiting\000"
 2422      6974696E 
 2422      6700
 2423              	.LASF12:
 2424 0082 6C6F6E67 		.ascii	"long long int\000"
 2424      206C6F6E 
 2424      6720696E 
 2424      7400
 2425              	.LASF1:
 2426 0090 7369676E 		.ascii	"signed char\000"
 2426      65642063 
 2426      68617200 
 2427              	.LASF116:
 2428 009c 63685379 		.ascii	"chSysInit\000"
 2428      73496E69 
 2428      7400
 2429              	.LASF123:
 2430 00a6 2F557365 		.ascii	"/Users/arnaubena/ChibiOS-RPi/demos/Serial_LCD\000"
 2430      72732F61 
 2430      726E6175 
 2430      62656E61 
 2430      2F436869 
 2431              	.LASF94:
 2432 00d4 53445F53 		.ascii	"SD_STOP\000"
 2432      544F5000 
 2433              	.LASF60:
 2434 00dc 6D5F7175 		.ascii	"m_queue\000"
 2434      65756500 
 2435              	.LASF21:
 2436 00e4 74736C69 		.ascii	"tslices_t\000"
 2436      6365735F 
 2436      7400
 2437              	.LASF99:
 2438 00ee 73746174 		.ascii	"state\000"
 2438      6500
 2439              	.LASF9:
 2440 00f4 6C6F6E67 		.ascii	"long int\000"
 2440      20696E74 
 2440      00
 2441              	.LASF19:
 2442 00fd 74737461 		.ascii	"tstate_t\000"
 2442      74655F74 
 2442      00
 2443              	.LASF80:
 2444 0106 715F6275 		.ascii	"q_buffer\000"
 2444      66666572 
ARM GAS  /var/folders/2d/mv7wzxg53m36fj1flyq1gqvm0000gn/T//cciRocmp.s 			page 45


 2444      00
 2445              	.LASF15:
 2446 010f 75696E74 		.ascii	"uint16_t\000"
 2446      31365F74 
 2446      00
 2447              	.LASF32:
 2448 0118 705F6E65 		.ascii	"p_newer\000"
 2448      77657200 
 2449              	.LASF124:
 2450 0120 54687265 		.ascii	"Thread_LCD\000"
 2450      61645F4C 
 2450      434400
 2451              	.LASF10:
 2452 012b 5F5F7569 		.ascii	"__uint32_t\000"
 2452      6E743332 
 2452      5F7400
 2453              	.LASF49:
 2454 0136 72656761 		.ascii	"regarm_t\000"
 2454      726D5F74 
 2454      00
 2455              	.LASF68:
 2456 013f 4576656E 		.ascii	"EventSource\000"
 2456      74536F75 
 2456      72636500 
 2457              	.LASF92:
 2458 014b 42617365 		.ascii	"BaseSequentialStream\000"
 2458      53657175 
 2458      656E7469 
 2458      616C5374 
 2458      7265616D 
 2459              	.LASF0:
 2460 0160 756E7369 		.ascii	"unsigned int\000"
 2460      676E6564 
 2460      20696E74 
 2460      00
 2461              	.LASF109:
 2462 016d 69746572 		.ascii	"iteration\000"
 2462      6174696F 
 2462      6E00
 2463              	.LASF110:
 2464 0177 74786275 		.ascii	"txbuf\000"
 2464      6600
 2465              	.LASF104:
 2466 017d 53657269 		.ascii	"SerialDriverVMT\000"
 2466      616C4472 
 2466      69766572 
 2466      564D5400 
 2467              	.LASF100:
 2468 018d 69717565 		.ascii	"iqueue\000"
 2468      756500
 2469              	.LASF11:
 2470 0194 6C6F6E67 		.ascii	"long unsigned int\000"
 2470      20756E73 
 2470      69676E65 
 2470      6420696E 
 2470      7400
 2471              	.LASF115:
ARM GAS  /var/folders/2d/mv7wzxg53m36fj1flyq1gqvm0000gn/T//cciRocmp.s 			page 46


 2472 01a6 68616C49 		.ascii	"halInit\000"
 2472      6E697400 
 2473              	.LASF106:
 2474 01ae 67657474 		.ascii	"gett\000"
 2474      00
 2475              	.LASF98:
 2476 01b3 6576656E 		.ascii	"event\000"
 2476      7400
 2477              	.LASF51:
 2478 01b9 636F6E74 		.ascii	"context\000"
 2478      65787400 
 2479              	.LASF7:
 2480 01c1 73686F72 		.ascii	"short unsigned int\000"
 2480      7420756E 
 2480      7369676E 
 2480      65642069 
 2480      6E7400
 2481              	.LASF23:
 2482 01d4 6D73675F 		.ascii	"msg_t\000"
 2482      7400
 2483              	.LASF101:
 2484 01da 6F717565 		.ascii	"oqueue\000"
 2484      756500
 2485              	.LASF55:
 2486 01e1 725F6E65 		.ascii	"r_newer\000"
 2486      77657200 
 2487              	.LASF64:
 2488 01e9 656C5F6E 		.ascii	"el_next\000"
 2488      65787400 
 2489              	.LASF122:
 2490 01f1 6D61696E 		.ascii	"main.c\000"
 2490      2E6300
 2491              	.LASF107:
 2492 01f8 77726974 		.ascii	"writet\000"
 2492      657400
 2493              	.LASF18:
 2494 01ff 746D6F64 		.ascii	"tmode_t\000"
 2494      655F7400 
 2495              	.LASF47:
 2496 0207 54687265 		.ascii	"ThreadsList\000"
 2496      6164734C 
 2496      69737400 
 2497              	.LASF24:
 2498 0213 6576656E 		.ascii	"eventmask_t\000"
 2498      746D6173 
 2498      6B5F7400 
 2499              	.LASF87:
 2500 021f 496E7075 		.ascii	"InputQueue\000"
 2500      74517565 
 2500      756500
 2501              	.LASF59:
 2502 022a 4D757465 		.ascii	"Mutex\000"
 2502      7800
 2503              	.LASF111:
 2504 0230 77615468 		.ascii	"waThread_LCD\000"
 2504      72656164 
 2504      5F4C4344 
ARM GAS  /var/folders/2d/mv7wzxg53m36fj1flyq1gqvm0000gn/T//cciRocmp.s 			page 47


 2504      00
 2505              	.LASF77:
 2506 023d 47656E65 		.ascii	"GenericQueue\000"
 2506      72696351 
 2506      75657565 
 2506      00
 2507              	.LASF48:
 2508 024a 73746B61 		.ascii	"stkalign_t\000"
 2508      6C69676E 
 2508      5F7400
 2509              	.LASF119:
 2510 0255 63685468 		.ascii	"chThdCreateStatic\000"
 2510      64437265 
 2510      61746553 
 2510      74617469 
 2510      6300
 2511              	.LASF90:
 2512 0267 77726974 		.ascii	"write\000"
 2512      6500
 2513              	.LASF105:
 2514 026d 70757474 		.ascii	"putt\000"
 2514      00
 2515              	.LASF76:
 2516 0272 73697A65 		.ascii	"sizetype\000"
 2516      74797065 
 2516      00
 2517              	.LASF79:
 2518 027b 715F636F 		.ascii	"q_counter\000"
 2518      756E7465 
 2518      7200
 2519              	.LASF125:
 2520 0285 6D61696E 		.ascii	"main\000"
 2520      00
 2521              	.LASF33:
 2522 028a 705F6F6C 		.ascii	"p_older\000"
 2522      64657200 
 2523              	.LASF82:
 2524 0292 715F7772 		.ascii	"q_wrptr\000"
 2524      70747200 
 2525              	.LASF54:
 2526 029a 725F6374 		.ascii	"r_ctx\000"
 2526      7800
 2527              	.LASF46:
 2528 02a0 54687265 		.ascii	"ThreadsQueue\000"
 2528      61647351 
 2528      75657565 
 2528      00
 2529              	.LASF57:
 2530 02ad 725F6375 		.ascii	"r_current\000"
 2530      7272656E 
 2530      7400
 2531              	.LASF56:
 2532 02b7 725F6F6C 		.ascii	"r_older\000"
 2532      64657200 
 2533              	.LASF66:
 2534 02bf 656C5F6D 		.ascii	"el_mask\000"
 2534      61736B00 
ARM GAS  /var/folders/2d/mv7wzxg53m36fj1flyq1gqvm0000gn/T//cciRocmp.s 			page 48


 2535              	.LASF113:
 2536 02c7 63685468 		.ascii	"chThdSleep\000"
 2536      64536C65 
 2536      657000
 2537              	.LASF103:
 2538 02d2 53657269 		.ascii	"SerialConfig\000"
 2538      616C436F 
 2538      6E666967 
 2538      00
 2539              	.LASF20:
 2540 02df 74726566 		.ascii	"trefs_t\000"
 2540      735F7400 
 2541              	.LASF86:
 2542 02e7 716E6F74 		.ascii	"qnotify_t\000"
 2542      6966795F 
 2542      7400
 2543              	.LASF29:
 2544 02f1 705F7072 		.ascii	"p_prev\000"
 2544      657600
 2545              	.LASF22:
 2546 02f8 74707269 		.ascii	"tprio_t\000"
 2546      6F5F7400 
 2547              	.LASF83:
 2548 0300 715F7264 		.ascii	"q_rdptr\000"
 2548      70747200 
 2549              	.LASF16:
 2550 0308 696E7433 		.ascii	"int32_t\000"
 2550      325F7400 
 2551              	.LASF4:
 2552 0310 756E7369 		.ascii	"unsigned char\000"
 2552      676E6564 
 2552      20636861 
 2552      7200
 2553              	.LASF65:
 2554 031e 656C5F6C 		.ascii	"el_listener\000"
 2554      69737465 
 2554      6E657200 
 2555              	.LASF67:
 2556 032a 656C5F66 		.ascii	"el_flags\000"
 2556      6C616773 
 2556      00
 2557              	.LASF44:
 2558 0333 705F6D74 		.ascii	"p_mtxlist\000"
 2558      786C6973 
 2558      7400
 2559              	.LASF5:
 2560 033d 73686F72 		.ascii	"short int\000"
 2560      7420696E 
 2560      7400
 2561              	.LASF35:
 2562 0347 705F7374 		.ascii	"p_state\000"
 2562      61746500 
 2563              	.LASF38:
 2564 034f 705F7072 		.ascii	"p_preempt\000"
 2564      65656D70 
 2564      7400
 2565              	.LASF121:
ARM GAS  /var/folders/2d/mv7wzxg53m36fj1flyq1gqvm0000gn/T//cciRocmp.s 			page 49


 2566 0359 474E5520 		.ascii	"GNU C 4.9.3 20150529 (release) [ARM/embedded-4_9-br"
 2566      4320342E 
 2566      392E3320 
 2566      32303135 
 2566      30353239 
 2567 038c 616E6368 		.ascii	"anch revision 227977] -mcpu=arm1176jz-s -mno-thumb-"
 2567      20726576 
 2567      6973696F 
 2567      6E203232 
 2567      37393737 
 2568 03bf 696E7465 		.ascii	"interwork -ggdb -O2 -fomit-frame-pointer -ffunction"
 2568      72776F72 
 2568      6B202D67 
 2568      67646220 
 2568      2D4F3220 
 2569 03f2 2D736563 		.ascii	"-sections -fdata-sections\000"
 2569      74696F6E 
 2569      73202D66 
 2569      64617461 
 2569      2D736563 
 2570              	.LASF53:
 2571 040c 725F7072 		.ascii	"r_prio\000"
 2571      696F00
 2572              	.LASF73:
 2573 0413 65776D61 		.ascii	"ewmask\000"
 2573      736B00
 2574              	.LASF28:
 2575 041a 705F6E65 		.ascii	"p_next\000"
 2575      787400
 2576              	.LASF89:
 2577 0421 42617365 		.ascii	"BaseSequentialStreamVMT\000"
 2577      53657175 
 2577      656E7469 
 2577      616C5374 
 2577      7265616D 
 2578              	.LASF36:
 2579 0439 705F666C 		.ascii	"p_flags\000"
 2579      61677300 
 2580              	.LASF27:
 2581 0441 54687265 		.ascii	"Thread\000"
 2581      616400
 2582              	.LASF43:
 2583 0448 705F6570 		.ascii	"p_epending\000"
 2583      656E6469 
 2583      6E6700
 2584              	.LASF93:
 2585 0453 53445F55 		.ascii	"SD_UNINIT\000"
 2585      4E494E49 
 2585      5400
 2586              	.LASF17:
 2587 045d 75696E74 		.ascii	"uint32_t\000"
 2587      33325F74 
 2587      00
 2588              	.LASF52:
 2589 0466 725F7175 		.ascii	"r_queue\000"
 2589      65756500 
 2590              	.LASF96:
ARM GAS  /var/folders/2d/mv7wzxg53m36fj1flyq1gqvm0000gn/T//cciRocmp.s 			page 50


 2591 046e 73647374 		.ascii	"sdstate_t\000"
 2591      6174655F 
 2591      7400
 2592              	.LASF97:
 2593 0478 53657269 		.ascii	"SerialDriver\000"
 2593      616C4472 
 2593      69766572 
 2593      00
 2594              	.LASF91:
 2595 0485 72656164 		.ascii	"read\000"
 2595      00
 2596              	.LASF74:
 2597 048a 63686172 		.ascii	"char\000"
 2597      00
 2598              	.LASF117:
 2599 048f 73645374 		.ascii	"sdStart\000"
 2599      61727400 
 2600              	.LASF6:
 2601 0497 5F5F7569 		.ascii	"__uint16_t\000"
 2601      6E743136 
 2601      5F7400
 2602              	.LASF62:
 2603 04a2 6D5F6E65 		.ascii	"m_next\000"
 2603      787400
 2604              	.LASF26:
 2605 04a9 73797374 		.ascii	"systime_t\000"
 2605      696D655F 
 2605      7400
 2606              	.LASF45:
 2607 04b3 705F7265 		.ascii	"p_realprio\000"
 2607      616C7072 
 2607      696F00
 2608              	.LASF8:
 2609 04be 5F5F696E 		.ascii	"__int32_t\000"
 2609      7433325F 
 2609      7400
 2610              	.LASF39:
 2611 04c8 705F7469 		.ascii	"p_time\000"
 2611      6D6500
 2612              	.LASF50:
 2613 04cf 696E7463 		.ascii	"intctx\000"
 2613      747800
 2614              	.LASF41:
 2615 04d6 705F6D73 		.ascii	"p_msgqueue\000"
 2615      67717565 
 2615      756500
 2616              	.LASF95:
 2617 04e1 53445F52 		.ascii	"SD_READY\000"
 2617      45414459 
 2617      00
 2618              	.LASF120:
 2619 04ea 63685468 		.ascii	"chThdWait\000"
 2619      64576169 
 2619      7400
 2620              	.LASF25:
 2621 04f4 666C6167 		.ascii	"flagsmask_t\000"
 2621      736D6173 
ARM GAS  /var/folders/2d/mv7wzxg53m36fj1flyq1gqvm0000gn/T//cciRocmp.s 			page 51


 2621      6B5F7400 
 2622              	.LASF81:
 2623 0500 715F746F 		.ascii	"q_top\000"
 2623      7000
 2624              	.LASF37:
 2625 0506 705F7265 		.ascii	"p_refs\000"
 2625      667300
 2626              	.LASF58:
 2627 050d 52656164 		.ascii	"ReadyList\000"
 2627      794C6973 
 2627      7400
 2628              	.LASF84:
 2629 0517 715F6E6F 		.ascii	"q_notify\000"
 2629      74696679 
 2629      00
 2630              	.LASF112:
 2631 0520 726C6973 		.ascii	"rlist\000"
 2631      7400
 2632              	.LASF14:
 2633 0526 75696E74 		.ascii	"uint8_t\000"
 2633      385F7400 
 2634              	.LASF63:
 2635 052e 4576656E 		.ascii	"EventListener\000"
 2635      744C6973 
 2635      74656E65 
 2635      7200
 2636              	.LASF72:
 2637 053c 77746F62 		.ascii	"wtobjp\000"
 2637      6A7000
 2638              	.LASF34:
 2639 0543 705F6E61 		.ascii	"p_name\000"
 2639      6D6500
 2640              	.LASF69:
 2641 054a 65735F6E 		.ascii	"es_next\000"
 2641      65787400 
 2642              	.LASF85:
 2643 0552 715F6C69 		.ascii	"q_link\000"
 2643      6E6B00
 2644              	.LASF61:
 2645 0559 6D5F6F77 		.ascii	"m_owner\000"
 2645      6E657200 
 2646              	.LASF31:
 2647 0561 705F6374 		.ascii	"p_ctx\000"
 2647      7800
 2648              	.LASF40:
 2649 0567 705F7761 		.ascii	"p_waiting\000"
 2649      6974696E 
 2649      6700
 2650              	.LASF114:
 2651 0571 63687072 		.ascii	"chprintf\000"
 2651      696E7466 
 2651      00
 2652              		.ident	"GCC: (GNU Tools for ARM Embedded Processors) 4.9.3 20150529 (release) [ARM/embedded-4_9-br
ARM GAS  /var/folders/2d/mv7wzxg53m36fj1flyq1gqvm0000gn/T//cciRocmp.s 			page 52


DEFINED SYMBOLS
                            *ABS*:0000000000000000 main.c
/var/folders/2d/mv7wzxg53m36fj1flyq1gqvm0000gn/T//cciRocmp.s:17     .text.Thread_LCD:0000000000000000 $a
/var/folders/2d/mv7wzxg53m36fj1flyq1gqvm0000gn/T//cciRocmp.s:19     .text.Thread_LCD:0000000000000000 Thread_LCD
/var/folders/2d/mv7wzxg53m36fj1flyq1gqvm0000gn/T//cciRocmp.s:106    .text.Thread_LCD:00000000000000ac $d
/var/folders/2d/mv7wzxg53m36fj1flyq1gqvm0000gn/T//cciRocmp.s:115    .text.startup.main:0000000000000000 $a
/var/folders/2d/mv7wzxg53m36fj1flyq1gqvm0000gn/T//cciRocmp.s:118    .text.startup.main:0000000000000000 main
/var/folders/2d/mv7wzxg53m36fj1flyq1gqvm0000gn/T//cciRocmp.s:236    .text.startup.main:00000000000000f8 $d
/var/folders/2d/mv7wzxg53m36fj1flyq1gqvm0000gn/T//cciRocmp.s:246    .bss.waThread_LCD:0000000000000000 $d
/var/folders/2d/mv7wzxg53m36fj1flyq1gqvm0000gn/T//cciRocmp.s:250    .bss.waThread_LCD:0000000000000000 waThread_LCD
/var/folders/2d/mv7wzxg53m36fj1flyq1gqvm0000gn/T//cciRocmp.s:253    .rodata.str1.4:0000000000000000 $d
                     .debug_frame:0000000000000010 $d

UNDEFINED SYMBOLS
chOQPutTimeout
chThdSleep
chprintf
rlist
SD1
halInit
chSysInit
sdStart
chThdCreateStatic
chThdWait
