ARM GAS  /var/folders/2d/mv7wzxg53m36fj1flyq1gqvm0000gn/T//cciRocmp.s 			page 1


   1              		.cpu arm1176jz-s
   2              		.fpu softvfp
   3              		.eabi_attribute 20, 1
   4              		.eabi_attribute 21, 1
   5              		.eabi_attribute 23, 3
   6              		.eabi_attribute 24, 1
   7              		.eabi_attribute 25, 1
   8              		.eabi_attribute 26, 1
   9              		.eabi_attribute 30, 2
  10              		.eabi_attribute 34, 1
  11              		.eabi_attribute 18, 4
  12              		.file	"main.c"
  13              		.text
  14              	.Ltext0:
  15              		.cfi_sections	.debug_frame
  16              		.section	.text.Thread_LCD,"ax",%progbits
  17              		.align	2
  18              		.type	Thread_LCD, %function
  19              	Thread_LCD:
  20              	.LFB7:
  21              		.file 1 "main.c"
  22              		.loc 1 26 0
  23              		.cfi_startproc
  24              		@ args = 0, pretend = 0, frame = 0
  25              		@ frame_needed = 0, uses_anonymous_args = 0
  26              	.LVL0:
  27 0000 10402DE9 		stmfd	sp!, {r4, lr}
  28              		.cfi_def_cfa_offset 8
  29              		.cfi_offset 4, -8
  30              		.cfi_offset 14, -4
  31              		.loc 1 29 0
  32 0004 0040A0E3 		mov	r4, #0
  33              		.loc 1 28 0
  34 0008 9C309FE5 		ldr	r3, .L5
  35 000c 9C209FE5 		ldr	r2, .L5+4
  36 0010 183093E5 		ldr	r3, [r3, #24]
  37 0014 182083E5 		str	r2, [r3, #24]
  38              	.LVL1:
  39              	.L2:
  40              		.loc 1 31 0 discriminator 1
  41 0018 7C10A0E3 		mov	r1, #124
  42 001c 0020E0E3 		mvn	r2, #0
  43 0020 8C009FE5 		ldr	r0, .L5+8
  44 0024 FEFFFFEB 		bl	chOQPutTimeout
  45              	.LVL2:
  46              		.loc 1 32 0 discriminator 1
  47 0028 1810A0E3 		mov	r1, #24
  48 002c 0020E0E3 		mvn	r2, #0
  49 0030 7C009FE5 		ldr	r0, .L5+8
  50 0034 FEFFFFEB 		bl	chOQPutTimeout
  51              	.LVL3:
  52              		.loc 1 33 0 discriminator 1
  53 0038 2010A0E3 		mov	r1, #32
  54 003c 0020E0E3 		mvn	r2, #0
  55 0040 6C009FE5 		ldr	r0, .L5+8
  56 0044 FEFFFFEB 		bl	chOQPutTimeout
  57              	.LVL4:
ARM GAS  /var/folders/2d/mv7wzxg53m36fj1flyq1gqvm0000gn/T//cciRocmp.s 			page 2


  58              		.loc 1 34 0 discriminator 1
  59 0048 0A00A0E3 		mov	r0, #10
  60 004c FEFFFFEB 		bl	chThdSleep
  61              	.LVL5:
  62              		.loc 1 36 0 discriminator 1
  63 0050 7C10A0E3 		mov	r1, #124
  64 0054 0020E0E3 		mvn	r2, #0
  65 0058 54009FE5 		ldr	r0, .L5+8
  66 005c FEFFFFEB 		bl	chOQPutTimeout
  67              	.LVL6:
  68              		.loc 1 37 0 discriminator 1
  69 0060 1910A0E3 		mov	r1, #25
  70 0064 0020E0E3 		mvn	r2, #0
  71 0068 44009FE5 		ldr	r0, .L5+8
  72 006c FEFFFFEB 		bl	chOQPutTimeout
  73              	.LVL7:
  74              		.loc 1 38 0 discriminator 1
  75 0070 2010A0E3 		mov	r1, #32
  76 0074 0020E0E3 		mvn	r2, #0
  77 0078 34009FE5 		ldr	r0, .L5+8
  78 007c FEFFFFEB 		bl	chOQPutTimeout
  79              	.LVL8:
  80              		.loc 1 39 0 discriminator 1
  81 0080 0A00A0E3 		mov	r0, #10
  82 0084 FEFFFFEB 		bl	chThdSleep
  83              	.LVL9:
  84              		.loc 1 41 0 discriminator 1
  85 0088 0420A0E1 		mov	r2, r4
  86 008c 24009FE5 		ldr	r0, .L5+12
  87 0090 24109FE5 		ldr	r1, .L5+16
  88 0094 FEFFFFEB 		bl	chprintf
  89              	.LVL10:
  90              		.loc 1 42 0 discriminator 1
  91 0098 014084E2 		add	r4, r4, #1
  92              	.LVL11:
  93              		.loc 1 43 0 discriminator 1
  94 009c 7D0EA0E3 		mov	r0, #2000
  95              		.loc 1 42 0 discriminator 1
  96 00a0 7440FFE6 		uxth	r4, r4
  97              	.LVL12:
  98              		.loc 1 43 0 discriminator 1
  99 00a4 FEFFFFEB 		bl	chThdSleep
 100              	.LVL13:
 101              		.loc 1 44 0 discriminator 1
 102 00a8 DAFFFFEA 		b	.L2
 103              	.L6:
 104              		.align	2
 105              	.L5:
 106 00ac 00000000 		.word	rlist
 107 00b0 00000000 		.word	.LC0
 108 00b4 30000000 		.word	SD1+48
 109 00b8 00000000 		.word	SD1
 110 00bc 0C000000 		.word	.LC1
 111              		.cfi_endproc
 112              	.LFE7:
 113              		.size	Thread_LCD, .-Thread_LCD
 114              		.section	.text.startup.main,"ax",%progbits
ARM GAS  /var/folders/2d/mv7wzxg53m36fj1flyq1gqvm0000gn/T//cciRocmp.s 			page 3


 115              		.align	2
 116              		.global	main
 117              		.type	main, %function
 118              	main:
 119              	.LFB8:
 120              		.loc 1 52 0
 121              		.cfi_startproc
 122              		@ args = 0, pretend = 0, frame = 24
 123              		@ frame_needed = 0, uses_anonymous_args = 0
 124 0000 70402DE9 		stmfd	sp!, {r4, r5, r6, lr}
 125              		.cfi_def_cfa_offset 16
 126              		.cfi_offset 4, -16
 127              		.cfi_offset 5, -12
 128              		.cfi_offset 6, -8
 129              		.cfi_offset 14, -4
 130              		.loc 1 79 0
 131 0004 0060A0E3 		mov	r6, #0
 132              		.loc 1 52 0
 133 0008 20D04DE2 		sub	sp, sp, #32
 134              		.cfi_def_cfa_offset 48
 135              		.loc 1 53 0
 136 000c FEFFFFEB 		bl	halInit
 137              	.LVL14:
 138              		.loc 1 54 0
 139 0010 FEFFFFEB 		bl	chSysInit
 140              	.LVL15:
 141              		.loc 1 56 0
 142 0014 DCE09FE5 		ldr	lr, .L9
 143 0018 0CC08DE2 		add	ip, sp, #12
 144 001c 0F00BEE8 		ldmia	lr!, {r0, r1, r2, r3}
 145 0020 0F00ACE8 		stmia	ip!, {r0, r1, r2, r3}
 146              		.loc 1 59 0
 147 0024 D0509FE5 		ldr	r5, .L9+4
 148              		.loc 1 56 0
 149 0028 00309EE5 		ldr	r3, [lr]
 150              		.loc 1 59 0
 151 002c 0500A0E1 		mov	r0, r5
 152 0030 0610A0E1 		mov	r1, r6
 153              		.loc 1 56 0
 154 0034 B030CCE1 		strh	r3, [ip]	@ movhi
 155              		.loc 1 65 0
 156 0038 304085E2 		add	r4, r5, #48
 157              		.loc 1 59 0
 158 003c FEFFFFEB 		bl	sdStart
 159              	.LVL16:
 160              		.loc 1 62 0
 161 0040 0500A0E1 		mov	r0, r5
 162 0044 B4109FE5 		ldr	r1, .L9+8
 163 0048 FEFFFFEB 		bl	chprintf
 164              	.LVL17:
 165              		.loc 1 65 0
 166 004c 0400A0E1 		mov	r0, r4
 167 0050 7C10A0E3 		mov	r1, #124
 168 0054 0020E0E3 		mvn	r2, #0
 169 0058 FEFFFFEB 		bl	chOQPutTimeout
 170              	.LVL18:
 171              		.loc 1 66 0
ARM GAS  /var/folders/2d/mv7wzxg53m36fj1flyq1gqvm0000gn/T//cciRocmp.s 			page 4


 172 005c 0400A0E1 		mov	r0, r4
 173 0060 1810A0E3 		mov	r1, #24
 174 0064 0020E0E3 		mvn	r2, #0
 175 0068 FEFFFFEB 		bl	chOQPutTimeout
 176              	.LVL19:
 177              		.loc 1 67 0
 178 006c 0610A0E1 		mov	r1, r6
 179 0070 0020E0E3 		mvn	r2, #0
 180 0074 0400A0E1 		mov	r0, r4
 181 0078 FEFFFFEB 		bl	chOQPutTimeout
 182              	.LVL20:
 183              		.loc 1 68 0
 184 007c 0A00A0E3 		mov	r0, #10
 185 0080 FEFFFFEB 		bl	chThdSleep
 186              	.LVL21:
 187              		.loc 1 70 0
 188 0084 0400A0E1 		mov	r0, r4
 189 0088 7C10A0E3 		mov	r1, #124
 190 008c 0020E0E3 		mvn	r2, #0
 191 0090 FEFFFFEB 		bl	chOQPutTimeout
 192              	.LVL22:
 193              		.loc 1 71 0
 194 0094 0400A0E1 		mov	r0, r4
 195 0098 1910A0E3 		mov	r1, #25
 196 009c 0020E0E3 		mvn	r2, #0
 197 00a0 FEFFFFEB 		bl	chOQPutTimeout
 198              	.LVL23:
 199              		.loc 1 72 0
 200 00a4 0020E0E3 		mvn	r2, #0
 201 00a8 0A10A0E3 		mov	r1, #10
 202 00ac 0400A0E1 		mov	r0, r4
 203 00b0 FEFFFFEB 		bl	chOQPutTimeout
 204              	.LVL24:
 205              		.loc 1 73 0
 206 00b4 0A00A0E3 		mov	r0, #10
 207 00b8 FEFFFFEB 		bl	chThdSleep
 208              	.LVL25:
 209              		.loc 1 76 0
 210 00bc 0500A0E1 		mov	r0, r5
 211 00c0 0C108DE2 		add	r1, sp, #12
 212 00c4 FEFFFFEB 		bl	chprintf
 213              	.LVL26:
 214              		.loc 1 79 0
 215 00c8 461FA0E3 		mov	r1, #280
 216 00cc 7F20A0E3 		mov	r2, #127
 217 00d0 00608DE5 		str	r6, [sp]
 218 00d4 28309FE5 		ldr	r3, .L9+12
 219 00d8 28009FE5 		ldr	r0, .L9+16
 220 00dc FEFFFFEB 		bl	chThdCreateStatic
 221              	.LVL27:
 222              		.loc 1 84 0
 223 00e0 24309FE5 		ldr	r3, .L9+20
 224 00e4 180093E5 		ldr	r0, [r3, #24]
 225 00e8 FEFFFFEB 		bl	chThdWait
 226              	.LVL28:
 227              		.loc 1 87 0
 228 00ec 0600A0E1 		mov	r0, r6
ARM GAS  /var/folders/2d/mv7wzxg53m36fj1flyq1gqvm0000gn/T//cciRocmp.s 			page 5


 229 00f0 20D08DE2 		add	sp, sp, #32
 230              		.cfi_def_cfa_offset 16
 231              		@ sp needed
 232 00f4 7080BDE8 		ldmfd	sp!, {r4, r5, r6, pc}
 233              	.L10:
 234              		.align	2
 235              	.L9:
 236 00f8 2C000000 		.word	.LC2
 237 00fc 00000000 		.word	SD1
 238 0100 18000000 		.word	.LC3
 239 0104 00000000 		.word	Thread_LCD
 240 0108 00000000 		.word	.LANCHOR0
 241 010c 00000000 		.word	rlist
 242              		.cfi_endproc
 243              	.LFE8:
 244              		.size	main, .-main
 245              		.section	.bss.waThread_LCD,"aw",%nobits
 246              		.align	2
 247              		.set	.LANCHOR0,. + 0
 248              		.type	waThread_LCD, %object
 249              		.size	waThread_LCD, 280
 250              	waThread_LCD:
 251 0000 00000000 		.space	280
 251      00000000 
 251      00000000 
 251      00000000 
 251      00000000 
 252              		.section	.rodata.str1.4,"aMS",%progbits,1
 253              		.align	2
 254              	.LC0:
 255 0000 53657269 		.ascii	"SerialPrint\000"
 255      616C5072 
 255      696E7400 
 256              	.LC1:
 257 000c 49746572 		.ascii	"Iter.: %u\000"
 257      2E3A2025 
 257      7500
 258 0016 0000     		.space	2
 259              	.LC3:
 260 0018 4D61696E 		.ascii	"Main (SD1 started)\000"
 260      20285344 
 260      31207374 
 260      61727465 
 260      642900
 261 002b 00       		.space	1
 262              	.LC2:
 263 002c 48656C6C 		.ascii	"Hello Chibi-World\000"
 263      6F204368 
 263      6962692D 
 263      576F726C 
 263      6400
 264              		.text
 265              	.Letext0:
 266              		.file 2 "/usr/local/Cellar/gcc-arm-none-eabi-49/20150925/lib/gcc/arm-none-eabi/4.9.3/include/stdde
 267              		.file 3 "/usr/local/Cellar/gcc-arm-none-eabi-49/20150925/arm-none-eabi/include/machine/_default_ty
 268              		.file 4 "/usr/local/Cellar/gcc-arm-none-eabi-49/20150925/arm-none-eabi/include/sys/_stdint.h"
 269              		.file 5 "../../os/ports/GCC/ARM/chtypes.h"
ARM GAS  /var/folders/2d/mv7wzxg53m36fj1flyq1gqvm0000gn/T//cciRocmp.s 			page 6


 270              		.file 6 "../../os/kernel/include/chlists.h"
 271              		.file 7 "../../os/kernel/include/chthreads.h"
 272              		.file 8 "../../os/ports/GCC/ARM/chcore.h"
 273              		.file 9 "../../os/kernel/include/chschd.h"
 274              		.file 10 "../../os/kernel/include/chmtx.h"
 275              		.file 11 "../../os/kernel/include/chevents.h"
 276              		.file 12 "../../os/kernel/include/chqueues.h"
 277              		.file 13 "../../os/kernel/include/chstreams.h"
 278              		.file 14 "../../os/hal/include/serial.h"
 279              		.file 15 "../../os/hal/platforms/BCM2835/serial_lld.h"
 280              		.file 16 "../../os/various/chprintf.h"
 281              		.file 17 "../../os/hal/include/hal.h"
 282              		.file 18 "../../os/kernel/include/chsys.h"